
LCD_matrix.elf:     file format elf32-avr

Sections:
Idx Name          Size      VMA       LMA       File off  Algn
  0 .data         00000000  00800100  00800100  0000445c  2**0
                  ALLOC, LOAD, DATA
  1 .text         000000f8  00000000  00000000  000000f4  2**1
                  CONTENTS, ALLOC, LOAD, READONLY, CODE
  2 .bss          00000036  00800100  00800100  0000445c  2**0
                  ALLOC
  3 .comment      0000002f  00000000  00000000  0000445c  2**0
                  CONTENTS, READONLY
  4 .debug_aranges 00000250  00000000  00000000  0000448b  2**0
                  CONTENTS, READONLY, DEBUGGING
  5 .debug_info   000039b9  00000000  00000000  000046db  2**0
                  CONTENTS, READONLY, DEBUGGING
  6 .debug_abbrev 00000861  00000000  00000000  00008094  2**0
                  CONTENTS, READONLY, DEBUGGING
  7 .debug_line   000024a9  00000000  00000000  000088f5  2**0
                  CONTENTS, READONLY, DEBUGGING
  8 .debug_frame  000006ac  00000000  00000000  0000ada0  2**2
                  CONTENTS, READONLY, DEBUGGING
  9 .debug_str    00000218  00000000  00000000  0000b44c  2**0
                  CONTENTS, READONLY, DEBUGGING
 10 .debug_loc    00000f42  00000000  00000000  0000b664  2**0
                  CONTENTS, READONLY, DEBUGGING
 11 .debug_ranges 00000240  00000000  00000000  0000c5a6  2**0
                  CONTENTS, READONLY, DEBUGGING
 12 .text         00000004  000042e6  000042e6  000043da  2**1
                  CONTENTS, ALLOC, LOAD, READONLY, CODE
 13 .note.gnu.avr.deviceinfo 00000040  00000000  00000000  0000c7e8  2**2
                  CONTENTS, READONLY, DEBUGGING
 14 .text.SetBit  00000012  00004272  00004272  00004366  2**1
                  CONTENTS, ALLOC, LOAD, READONLY, CODE
 15 .text.ClearBit 00000014  0000420e  0000420e  00004302  2**1
                  CONTENTS, ALLOC, LOAD, READONLY, CODE
 16 .text.shiftIn 00000084  000034a4  000034a4  00003598  2**1
                  CONTENTS, ALLOC, LOAD, READONLY, CODE
 17 .text.shiftOut 00000048  00003eb8  00003eb8  00003fac  2**1
                  CONTENTS, ALLOC, LOAD, READONLY, CODE
 18 .text.init_int1 0000000c  00004296  00004296  0000438a  2**1
                  CONTENTS, ALLOC, LOAD, READONLY, CODE
 19 .text.delay_ms 00000054  00003c8e  00003c8e  00003d82  2**1
                  CONTENTS, ALLOC, LOAD, READONLY, CODE
 20 .text.delay_ns 00000048  00003f00  00003f00  00003ff4  2**1
                  CONTENTS, ALLOC, LOAD, READONLY, CODE
 21 .text.send_instruction_lcd 00000040  00004060  00004060  00004154  2**1
                  CONTENTS, ALLOC, LOAD, READONLY, CODE
 22 .text.clear_Display 00000014  00004222  00004222  00004316  2**1
                  CONTENTS, ALLOC, LOAD, READONLY, CODE
 23 .text.send_instruction_lcd_nibble 00000020  0000418a  0000418a  0000427e  2**1
                  CONTENTS, ALLOC, LOAD, READONLY, CODE
 24 .text.inicializa_display 0000009e  00003378  00003378  0000346c  2**1
                  CONTENTS, ALLOC, LOAD, READONLY, CODE
 25 .text.send_word_lcd 0000004c  00003e6c  00003e6c  00003f60  2**1
                  CONTENTS, ALLOC, LOAD, READONLY, CODE
 26 .text.set_DDRAM_ADDR 0000004e  00003d34  00003d34  00003e28  2**1
                  CONTENTS, ALLOC, LOAD, READONLY, CODE
 27 .text.envia_frase 0000002c  0000413c  0000413c  00004230  2**1
                  CONTENTS, ALLOC, LOAD, READONLY, CODE
 28 .progmemx.data 000001da  000000f8  000000f8  000001ec  2**0
                  CONTENTS, ALLOC, LOAD, READONLY, PROGMEMX
 29 .text.msg_inserir_senha 0000004e  00003d82  00003d82  00003e76  2**1
                  CONTENTS, ALLOC, LOAD, READONLY, CODE
 30 .text.msg_desativado 0000005c  00003b7a  00003b7a  00003c6e  2**1
                  CONTENTS, ALLOC, LOAD, READONLY, CODE
 31 .text.msg_ativado 0000005c  00003bd6  00003bd6  00003cca  2**1
                  CONTENTS, ALLOC, LOAD, READONLY, CODE
 32 .text.msg_programacao 0000005c  00003c32  00003c32  00003d26  2**1
                  CONTENTS, ALLOC, LOAD, READONLY, CODE
 33 .text.msg_altera_senha 0000004e  00003dd0  00003dd0  00003ec4  2**1
                  CONTENTS, ALLOC, LOAD, READONLY, CODE
 34 .text.msg_h_sensores 00000066  00003782  00003782  00003876  2**1
                  CONTENTS, ALLOC, LOAD, READONLY, CODE
 35 .text.msg_d_sensores 00000066  000037e8  000037e8  000038dc  2**1
                  CONTENTS, ALLOC, LOAD, READONLY, CODE
 36 .text.msg_panico 00000062  00003b18  00003b18  00003c0c  2**1
                  CONTENTS, ALLOC, LOAD, READONLY, CODE
 37 .text.msg_restauracao 00000044  00003fd8  00003fd8  000040cc  2**1
                  CONTENTS, ALLOC, LOAD, READONLY, CODE
 38 .text.msg_h_zona 00000066  0000384e  0000384e  00003942  2**1
                  CONTENTS, ALLOC, LOAD, READONLY, CODE
 39 .text.msg_d_zona 00000066  000038b4  000038b4  000039a8  2**1
                  CONTENTS, ALLOC, LOAD, READONLY, CODE
 40 .text.msg_h_ass 00000066  0000391a  0000391a  00003a0e  2**1
                  CONTENTS, ALLOC, LOAD, READONLY, CODE
 41 .text.msg_d_ass 00000066  00003980  00003980  00003a74  2**1
                  CONTENTS, ALLOC, LOAD, READONLY, CODE
 42 .text.msg_ajusteTout 00000066  000039e6  000039e6  00003ada  2**1
                  CONTENTS, ALLOC, LOAD, READONLY, CODE
 43 .text.msg_time_sirene 00000066  00003a4c  00003a4c  00003b40  2**1
                  CONTENTS, ALLOC, LOAD, READONLY, CODE
 44 .text.msg_temp_ativ 00000066  00003ab2  00003ab2  00003ba6  2**1
                  CONTENTS, ALLOC, LOAD, READONLY, CODE
 45 .text.insert_senha 00000014  00004236  00004236  0000432a  2**1
                  CONTENTS, ALLOC, LOAD, READONLY, CODE
 46 .text.senha_arm 00000052  00003ce2  00003ce2  00003dd6  2**1
                  CONTENTS, ALLOC, LOAD, READONLY, CODE
 47 .text.verify_senhaM 0000008e  00003416  00003416  0000350a  2**1
                  CONTENTS, ALLOC, LOAD, READONLY, CODE
 48 .text.hab_sensor 00000146  00002f98  00002f98  0000308c  2**1
                  CONTENTS, ALLOC, LOAD, READONLY, CODE
 49 .text.hab_zonas 000000cc  000031f4  000031f4  000032e8  2**1
                  CONTENTS, ALLOC, LOAD, READONLY, CODE
 50 .text.assSensorZona 0000043e  00002752  00002752  00002846  2**1
                  CONTENTS, ALLOC, LOAD, READONLY, CODE
 51 .text.set_timeout 00000030  000040dc  000040dc  000041d0  2**1
                  CONTENTS, ALLOC, LOAD, READONLY, CODE
 52 .text.set_timeA 00000048  00003f48  00003f48  0000403c  2**1
                  CONTENTS, ALLOC, LOAD, READONLY, CODE
 53 .text.set_timeS 00000048  00003f90  00003f90  00004084  2**1
                  CONTENTS, ALLOC, LOAD, READONLY, CODE
 54 .text.SetupTimer1 00000022  00004168  00004168  0000425c  2**1
                  CONTENTS, ALLOC, LOAD, READONLY, CODE
 55 .text.StartTimer1 0000000c  000042a2  000042a2  00004396  2**1
                  CONTENTS, ALLOC, LOAD, READONLY, CODE
 56 .text.verify_senhaA 000001dc  00002dbc  00002dbc  00002eb0  2**1
                  CONTENTS, ALLOC, LOAD, READONLY, CODE
 57 .text.StopTimer1 00000014  0000424a  0000424a  0000433e  2**1
                  CONTENTS, ALLOC, LOAD, READONLY, CODE
 58 .text.SetupTimer0 00000012  00004284  00004284  00004378  2**1
                  CONTENTS, ALLOC, LOAD, READONLY, CODE
 59 .text.ZerarTemps 00000016  000041e2  000041e2  000042d6  2**1
                  CONTENTS, ALLOC, LOAD, READONLY, CODE
 60 .text.StartSirene 00000008  000042ba  000042ba  000043ae  2**1
                  CONTENTS, ALLOC, LOAD, READONLY, CODE
 61 .text.activate_sirene 000004f0  00002262  00002262  00002356  2**1
                  CONTENTS, ALLOC, LOAD, READONLY, CODE
 62 .text.StopSirene 00000006  000042da  000042da  000043ce  2**1
                  CONTENTS, ALLOC, LOAD, READONLY, CODE
 63 .text.SPI_Master_Setup 00000014  0000425e  0000425e  00004352  2**1
                  CONTENTS, ALLOC, LOAD, READONLY, CODE
 64 .text.SPI_Master_Transmit 00000004  000042ea  000042ea  000043de  2**1
                  CONTENTS, ALLOC, LOAD, READONLY, CODE
 65 .text.SPI_Read 00000030  0000410c  0000410c  00004200  2**1
                  CONTENTS, ALLOC, LOAD, READONLY, CODE
 66 .text.RTC_Read_Hours 00000008  000042c2  000042c2  000043b6  2**1
                  CONTENTS, ALLOC, LOAD, READONLY, CODE
 67 .text.RTC_Read_Day 00000008  000042ca  000042ca  000043be  2**1
                  CONTENTS, ALLOC, LOAD, READONLY, CODE
 68 .text.RTC_Config 0000007a  000035ac  000035ac  000036a0  2**1
                  CONTENTS, ALLOC, LOAD, READONLY, CODE
 69 .text.IniciarUART 0000004e  00003e1e  00003e1e  00003f12  2**1
                  CONTENTS, ALLOC, LOAD, READONLY, CODE
 70 .text.ProntoTXUART 00000008  000042d2  000042d2  000043c6  2**1
                  CONTENTS, ALLOC, LOAD, READONLY, CODE
 71 .text.EnviarTXUART 00000006  000042e0  000042e0  000043d4  2**1
                  CONTENTS, ALLOC, LOAD, READONLY, CODE
 72 .text.EnviarStringUART 0000003c  000040a0  000040a0  00004194  2**1
                  CONTENTS, ALLOC, LOAD, READONLY, CODE
 73 .text.EnviarDec1Byte 00000084  00003528  00003528  0000361c  2**1
                  CONTENTS, ALLOC, LOAD, READONLY, CODE
 74 .text.UARTA   00000074  00003626  00003626  0000371a  2**1
                  CONTENTS, ALLOC, LOAD, READONLY, CODE
 75 .text.__vector_11 00000116  000030de  000030de  000031d2  2**1
                  CONTENTS, ALLOC, LOAD, READONLY, CODE
 76 .text.UARTP   00000074  0000369a  0000369a  0000378e  2**1
                  CONTENTS, ALLOC, LOAD, READONLY, CODE
 77 .text.__vector_2 00001f90  000002d2  000002d2  000003c6  2**1
                  CONTENTS, ALLOC, LOAD, READONLY, CODE
 78 .text.UARTD   00000074  0000370e  0000370e  00003802  2**1
                  CONTENTS, ALLOC, LOAD, READONLY, CODE
 79 .text.verify_senhaD 0000022c  00002b90  00002b90  00002c84  2**1
                  CONTENTS, ALLOC, LOAD, READONLY, CODE
 80 .text.main    000000b8  000032c0  000032c0  000033b4  2**1
                  CONTENTS, ALLOC, LOAD, READONLY, CODE
 81 .bss.state    00000001  008001dc  008001dc  0000445c  2**0
                  ALLOC
 82 .data.sensor7 00000006  00800172  0000432a  0000441e  2**0
                  CONTENTS, ALLOC, LOAD, DATA
 83 .data.sensor6 00000006  00800178  00004330  00004424  2**0
                  CONTENTS, ALLOC, LOAD, DATA
 84 .data.sensor5 00000006  0080017e  00004336  0000442a  2**0
                  CONTENTS, ALLOC, LOAD, DATA
 85 .data.sensor4 00000006  00800184  0000433c  00004430  2**0
                  CONTENTS, ALLOC, LOAD, DATA
 86 .data.sensor3 00000006  0080018a  00004342  00004436  2**0
                  CONTENTS, ALLOC, LOAD, DATA
 87 .data.sensor2 00000006  00800190  00004348  0000443c  2**0
                  CONTENTS, ALLOC, LOAD, DATA
 88 .data.sensor1 00000006  00800196  0000434e  00004442  2**0
                  CONTENTS, ALLOC, LOAD, DATA
 89 .bss.sensor0  00000006  0080019c  0080019c  0000445c  2**0
                  ALLOC
 90 .data.zona3   00000014  00800136  000042ee  000043e2  2**0
                  CONTENTS, ALLOC, LOAD, DATA
 91 .data.zona2   00000014  0080014a  00004302  000043f6  2**0
                  CONTENTS, ALLOC, LOAD, DATA
 92 .data.zona1   00000014  0080015e  00004316  0000440a  2**0
                  CONTENTS, ALLOC, LOAD, DATA
 93 .bss.cont_s   00000002  008001ba  008001ba  0000445c  2**0
                  ALLOC
 94 .bss.cont_aa  00000002  008001bc  008001bc  0000445c  2**0
                  ALLOC
 95 .bss.cont_t   00000002  008001be  008001be  0000445c  2**0
                  ALLOC
 96 .bss.flag_tat 00000002  008001c0  008001c0  0000445c  2**0
                  ALLOC
 97 .bss.flag_tsirene 00000002  008001c2  008001c2  0000445c  2**0
                  ALLOC
 98 .bss.flag_timeout 00000002  008001c4  008001c4  0000445c  2**0
                  ALLOC
 99 .bss.cont_ativacao 00000002  008001c6  008001c6  0000445c  2**0
                  ALLOC
100 .bss.cont_sirene 00000002  008001c8  008001c8  0000445c  2**0
                  ALLOC
101 .bss.cont_timeout 00000001  008001dd  008001dd  0000445c  2**0
                  ALLOC
102 .bss.flag_z1  00000002  008001ca  008001ca  0000445c  2**0
                  ALLOC
103 .bss.flag_z   00000002  008001cc  008001cc  0000445c  2**0
                  ALLOC
104 .bss.flag_p   00000002  008001ce  008001ce  0000445c  2**0
                  ALLOC
105 .bss.flag_D_sensor 00000002  008001d0  008001d0  0000445c  2**0
                  ALLOC
106 .bss.flag_sensor 00000002  008001d2  008001d2  0000445c  2**0
                  ALLOC
107 .bss.cont_b   00000002  008001d4  008001d4  0000445c  2**0
                  ALLOC
108 .bss.cont_a   00000002  008001d6  008001d6  0000445c  2**0
                  ALLOC
109 .bss.count_senha 00000002  008001d8  008001d8  0000445c  2**0
                  ALLOC
110 .bss.flag_a_senha 00000002  008001da  008001da  0000445c  2**0
                  ALLOC
111 .data.senha3  00000005  008001a2  00004354  00004448  2**0
                  CONTENTS, ALLOC, LOAD, DATA
112 .data.senha2  00000005  008001a7  00004359  0000444d  2**0
                  CONTENTS, ALLOC, LOAD, DATA
113 .data.senha1  00000005  008001ac  0000435e  00004452  2**0
                  CONTENTS, ALLOC, LOAD, DATA
114 .data.mestre  00000005  008001b1  00004363  00004457  2**0
                  CONTENTS, ALLOC, LOAD, DATA
115 .bss.x        00000004  008001b6  008001b6  0000445c  2**0
                  ALLOC
116 .bss.varEscritaSerial 00000001  008001de  008001de  0000445c  2**0
                  ALLOC
117 .bss.varLeituraSerial 00000001  008001df  008001df  0000445c  2**0
                  ALLOC
118 .text.libgcc.div 00000044  0000401c  0000401c  00004110  2**1
                  CONTENTS, ALLOC, LOAD, READONLY, CODE
119 .text.libgcc  0000000c  000042ae  000042ae  000043a2  2**1
                  CONTENTS, ALLOC, LOAD, READONLY, CODE
120 .text.libgcc.mul 00000016  000041f8  000041f8  000042ec  2**1
                  CONTENTS, ALLOC, LOAD, READONLY, CODE
121 .text.libgcc  0000001a  000041c8  000041c8  000042bc  2**1
                  CONTENTS, ALLOC, LOAD, READONLY, CODE
122 .text.libgcc.mul 0000001e  000041aa  000041aa  0000429e  2**1
                  CONTENTS, ALLOC, LOAD, READONLY, CODE

Disassembly of section .text:

00000000 <__vectors>:
   0:	0c 94 52 00 	jmp	0xa4	; 0xa4 <__ctors_end>
   4:	0c 94 73 21 	jmp	0x42e6	; 0x42e6 <__bad_interrupt>
   8:	0c 94 69 01 	jmp	0x2d2	; 0x2d2 <__vector_2>
   c:	0c 94 73 21 	jmp	0x42e6	; 0x42e6 <__bad_interrupt>
  10:	0c 94 73 21 	jmp	0x42e6	; 0x42e6 <__bad_interrupt>
  14:	0c 94 73 21 	jmp	0x42e6	; 0x42e6 <__bad_interrupt>
  18:	0c 94 73 21 	jmp	0x42e6	; 0x42e6 <__bad_interrupt>
  1c:	0c 94 73 21 	jmp	0x42e6	; 0x42e6 <__bad_interrupt>
  20:	0c 94 73 21 	jmp	0x42e6	; 0x42e6 <__bad_interrupt>
  24:	0c 94 73 21 	jmp	0x42e6	; 0x42e6 <__bad_interrupt>
  28:	0c 94 73 21 	jmp	0x42e6	; 0x42e6 <__bad_interrupt>
  2c:	0c 94 6f 18 	jmp	0x30de	; 0x30de <__vector_11>
  30:	0c 94 73 21 	jmp	0x42e6	; 0x42e6 <__bad_interrupt>
  34:	0c 94 73 21 	jmp	0x42e6	; 0x42e6 <__bad_interrupt>
  38:	0c 94 73 21 	jmp	0x42e6	; 0x42e6 <__bad_interrupt>
  3c:	0c 94 73 21 	jmp	0x42e6	; 0x42e6 <__bad_interrupt>
  40:	0c 94 73 21 	jmp	0x42e6	; 0x42e6 <__bad_interrupt>
  44:	0c 94 73 21 	jmp	0x42e6	; 0x42e6 <__bad_interrupt>
  48:	0c 94 73 21 	jmp	0x42e6	; 0x42e6 <__bad_interrupt>
  4c:	0c 94 73 21 	jmp	0x42e6	; 0x42e6 <__bad_interrupt>
  50:	0c 94 73 21 	jmp	0x42e6	; 0x42e6 <__bad_interrupt>
  54:	0c 94 73 21 	jmp	0x42e6	; 0x42e6 <__bad_interrupt>
  58:	0c 94 73 21 	jmp	0x42e6	; 0x42e6 <__bad_interrupt>
  5c:	0c 94 73 21 	jmp	0x42e6	; 0x42e6 <__bad_interrupt>
  60:	0c 94 73 21 	jmp	0x42e6	; 0x42e6 <__bad_interrupt>
  64:	0c 94 73 21 	jmp	0x42e6	; 0x42e6 <__bad_interrupt>
  68:	8d 19       	sub	r24, r13
  6a:	a5 19       	sub	r26, r5
  6c:	7f 19       	sub	r23, r15
  6e:	7f 19       	sub	r23, r15
  70:	7f 19       	sub	r23, r15
  72:	a8 19       	sub	r26, r8
  74:	b0 19       	sub	r27, r0
  76:	ad 19       	sub	r26, r13
  78:	7f 19       	sub	r23, r15
  7a:	7f 19       	sub	r23, r15
  7c:	7f 19       	sub	r23, r15
  7e:	7f 19       	sub	r23, r15
  80:	b3 19       	sub	r27, r3
  82:	b6 19       	sub	r27, r6
  84:	b9 19       	sub	r27, r9

00000086 <.dinit>:
  86:	01 00       	.word	0x0001	; ????
  88:	01 36       	cpi	r16, 0x61	; 97
  8a:	80 01       	movw	r16, r0
  8c:	36 01       	movw	r6, r12
  8e:	9c 00       	.word	0x009c	; ????
  90:	42 ee       	ldi	r20, 0xE2	; 226
  92:	01 9c       	mul	r0, r1
  94:	01 a2       	std	Z+33, r0	; 0x21
  96:	80 01       	movw	r16, r0
  98:	a2 01       	movw	r20, r4
  9a:	b6 00       	.word	0x00b6	; ????
  9c:	43 54       	subi	r20, 0x43	; 67
  9e:	01 b6       	in	r0, 0x31	; 49
  a0:	01 e0       	ldi	r16, 0x01	; 1
  a2:	80 00       	.word	0x0080	; ????

000000a4 <__ctors_end>:
  a4:	11 24       	eor	r1, r1
  a6:	1f be       	out	0x3f, r1	; 63
  a8:	cf ef       	ldi	r28, 0xFF	; 255
  aa:	d8 e0       	ldi	r29, 0x08	; 8
  ac:	de bf       	out	0x3e, r29	; 62
  ae:	cd bf       	out	0x3d, r28	; 61

000000b0 <__do_copy_data>:
  b0:	e6 e8       	ldi	r30, 0x86	; 134
  b2:	f0 e0       	ldi	r31, 0x00	; 0
  b4:	40 e0       	ldi	r20, 0x00	; 0
  b6:	17 c0       	rjmp	.+46     	; 0xe6 <__do_clear_bss+0x8>
  b8:	b5 91       	lpm	r27, Z+
  ba:	a5 91       	lpm	r26, Z+
  bc:	35 91       	lpm	r19, Z+
  be:	25 91       	lpm	r18, Z+
  c0:	05 91       	lpm	r16, Z+
  c2:	07 fd       	sbrc	r16, 7
  c4:	0c c0       	rjmp	.+24     	; 0xde <__do_clear_bss>
  c6:	95 91       	lpm	r25, Z+
  c8:	85 91       	lpm	r24, Z+
  ca:	ef 01       	movw	r28, r30
  cc:	f9 2f       	mov	r31, r25
  ce:	e8 2f       	mov	r30, r24
  d0:	05 90       	lpm	r0, Z+
  d2:	0d 92       	st	X+, r0
  d4:	a2 17       	cp	r26, r18
  d6:	b3 07       	cpc	r27, r19
  d8:	d9 f7       	brne	.-10     	; 0xd0 <__do_copy_data+0x20>
  da:	fe 01       	movw	r30, r28
  dc:	04 c0       	rjmp	.+8      	; 0xe6 <__do_clear_bss+0x8>

000000de <__do_clear_bss>:
  de:	1d 92       	st	X+, r1
  e0:	a2 17       	cp	r26, r18
  e2:	b3 07       	cpc	r27, r19
  e4:	e1 f7       	brne	.-8      	; 0xde <__do_clear_bss>
  e6:	e3 3a       	cpi	r30, 0xA3	; 163
  e8:	f4 07       	cpc	r31, r20
  ea:	31 f7       	brne	.-52     	; 0xb8 <__do_copy_data+0x8>
  ec:	0e 94 60 19 	call	0x32c0	; 0x32c0 <main>
  f0:	0c 94 7a 00 	jmp	0xf4	; 0xf4 <_exit>

000000f4 <_exit>:
  f4:	f8 94       	cli

000000f6 <__stop_program>:
  f6:	ff cf       	rjmp	.-2      	; 0xf6 <__stop_program>

Disassembly of section .text:

000042e6 <__bad_interrupt>:
    42e6:	0c 94 00 00 	jmp	0	; 0x0 <__TEXT_REGION_ORIGIN__>

Disassembly of section .text.SetBit:

00004272 <SetBit>:
uint8_t RTC_Read_Hours(){
	return SPI_Read(0x02);
}
uint8_t RTC_Read_Minu(){
	return SPI_Read(0x01);
}
    4272:	21 e0       	ldi	r18, 0x01	; 1
    4274:	30 e0       	ldi	r19, 0x00	; 0
    4276:	02 c0       	rjmp	.+4      	; 0x427c <SetBit+0xa>
    4278:	22 0f       	add	r18, r18
    427a:	33 1f       	adc	r19, r19
    427c:	6a 95       	dec	r22
    427e:	e2 f7       	brpl	.-8      	; 0x4278 <SetBit+0x6>
    4280:	82 2b       	or	r24, r18
    4282:	08 95       	ret

Disassembly of section .text.ClearBit:

0000420e <ClearBit>:
    420e:	21 e0       	ldi	r18, 0x01	; 1
    4210:	30 e0       	ldi	r19, 0x00	; 0
    4212:	02 c0       	rjmp	.+4      	; 0x4218 <ClearBit+0xa>
    4214:	22 0f       	add	r18, r18
    4216:	33 1f       	adc	r19, r19
    4218:	6a 95       	dec	r22
    421a:	e2 f7       	brpl	.-8      	; 0x4214 <ClearBit+0x6>
    421c:	20 95       	com	r18
    421e:	82 23       	and	r24, r18
    4220:	08 95       	ret

Disassembly of section .text.shiftIn:

000034a4 <shiftIn>:
    34a4:	cf 93       	push	r28
    34a6:	85 b1       	in	r24, 0x05	; 5
    34a8:	80 64       	ori	r24, 0x40	; 64
    34aa:	85 b9       	out	0x05, r24	; 5
    34ac:	85 b1       	in	r24, 0x05	; 5
    34ae:	82 60       	ori	r24, 0x02	; 2
    34b0:	85 b9       	out	0x05, r24	; 5
    34b2:	85 b1       	in	r24, 0x05	; 5
    34b4:	8d 7f       	andi	r24, 0xFD	; 253
    34b6:	85 b9       	out	0x05, r24	; 5
    34b8:	85 b1       	in	r24, 0x05	; 5
    34ba:	8f 7b       	andi	r24, 0xBF	; 191
    34bc:	85 b9       	out	0x05, r24	; 5
    34be:	c0 e0       	ldi	r28, 0x00	; 0
    34c0:	2f c0       	rjmp	.+94     	; 0x3520 <shiftIn+0x7c>
    34c2:	18 9b       	sbis	0x03, 0	; 3
    34c4:	15 c0       	rjmp	.+42     	; 0x34f0 <shiftIn+0x4c>
    34c6:	80 91 df 01 	lds	r24, 0x01DF	; 0x8001df <varLeituraSerial>
    34ca:	21 e0       	ldi	r18, 0x01	; 1
    34cc:	30 e0       	ldi	r19, 0x00	; 0
    34ce:	0c 2e       	mov	r0, r28
    34d0:	02 c0       	rjmp	.+4      	; 0x34d6 <shiftIn+0x32>
    34d2:	22 0f       	add	r18, r18
    34d4:	33 1f       	adc	r19, r19
    34d6:	0a 94       	dec	r0
    34d8:	e2 f7       	brpl	.-8      	; 0x34d2 <shiftIn+0x2e>
    34da:	20 95       	com	r18
    34dc:	30 95       	com	r19
    34de:	28 2b       	or	r18, r24
    34e0:	23 2b       	or	r18, r19
    34e2:	b9 f0       	breq	.+46     	; 0x3512 <shiftIn+0x6e>
    34e4:	6c 2f       	mov	r22, r28
    34e6:	0e 94 39 21 	call	0x4272	; 0x4272 <SetBit>
    34ea:	80 93 df 01 	sts	0x01DF, r24	; 0x8001df <varLeituraSerial>
    34ee:	11 c0       	rjmp	.+34     	; 0x3512 <shiftIn+0x6e>
    34f0:	80 91 df 01 	lds	r24, 0x01DF	; 0x8001df <varLeituraSerial>
    34f4:	28 2f       	mov	r18, r24
    34f6:	30 e0       	ldi	r19, 0x00	; 0
    34f8:	0c 2e       	mov	r0, r28
    34fa:	02 c0       	rjmp	.+4      	; 0x3500 <shiftIn+0x5c>
    34fc:	35 95       	asr	r19
    34fe:	27 95       	ror	r18
    3500:	0a 94       	dec	r0
    3502:	e2 f7       	brpl	.-8      	; 0x34fc <shiftIn+0x58>
    3504:	20 ff       	sbrs	r18, 0
    3506:	05 c0       	rjmp	.+10     	; 0x3512 <shiftIn+0x6e>
    3508:	6c 2f       	mov	r22, r28
    350a:	0e 94 07 21 	call	0x420e	; 0x420e <ClearBit>
    350e:	80 93 df 01 	sts	0x01DF, r24	; 0x8001df <varLeituraSerial>
    3512:	85 b1       	in	r24, 0x05	; 5
    3514:	82 60       	ori	r24, 0x02	; 2
    3516:	85 b9       	out	0x05, r24	; 5
    3518:	85 b1       	in	r24, 0x05	; 5
    351a:	8d 7f       	andi	r24, 0xFD	; 253
    351c:	85 b9       	out	0x05, r24	; 5
    351e:	cf 5f       	subi	r28, 0xFF	; 255
    3520:	c8 30       	cpi	r28, 0x08	; 8
    3522:	78 f2       	brcs	.-98     	; 0x34c2 <shiftIn+0x1e>
    3524:	cf 91       	pop	r28
    3526:	08 95       	ret

Disassembly of section .text.shiftOut:

00003eb8 <shiftOut>:
    3eb8:	20 e0       	ldi	r18, 0x00	; 0
    3eba:	19 c0       	rjmp	.+50     	; 0x3eee <shiftOut+0x36>
    3ebc:	80 91 de 01 	lds	r24, 0x01DE	; 0x8001de <varEscritaSerial>
    3ec0:	90 e0       	ldi	r25, 0x00	; 0
    3ec2:	02 2e       	mov	r0, r18
    3ec4:	02 c0       	rjmp	.+4      	; 0x3eca <shiftOut+0x12>
    3ec6:	95 95       	asr	r25
    3ec8:	87 95       	ror	r24
    3eca:	0a 94       	dec	r0
    3ecc:	e2 f7       	brpl	.-8      	; 0x3ec6 <shiftOut+0xe>
    3ece:	80 ff       	sbrs	r24, 0
    3ed0:	04 c0       	rjmp	.+8      	; 0x3eda <shiftOut+0x22>
    3ed2:	8b b1       	in	r24, 0x0b	; 11
    3ed4:	84 60       	ori	r24, 0x04	; 4
    3ed6:	8b b9       	out	0x0b, r24	; 11
    3ed8:	03 c0       	rjmp	.+6      	; 0x3ee0 <shiftOut+0x28>
    3eda:	8b b1       	in	r24, 0x0b	; 11
    3edc:	8b 7f       	andi	r24, 0xFB	; 251
    3ede:	8b b9       	out	0x0b, r24	; 11
    3ee0:	85 b1       	in	r24, 0x05	; 5
    3ee2:	82 60       	ori	r24, 0x02	; 2
    3ee4:	85 b9       	out	0x05, r24	; 5
    3ee6:	85 b1       	in	r24, 0x05	; 5
    3ee8:	8d 7f       	andi	r24, 0xFD	; 253
    3eea:	85 b9       	out	0x05, r24	; 5
    3eec:	2f 5f       	subi	r18, 0xFF	; 255
    3eee:	28 30       	cpi	r18, 0x08	; 8
    3ef0:	28 f3       	brcs	.-54     	; 0x3ebc <shiftOut+0x4>
    3ef2:	83 b1       	in	r24, 0x03	; 3
    3ef4:	8f 77       	andi	r24, 0x7F	; 127
    3ef6:	83 b9       	out	0x03, r24	; 3
    3ef8:	83 b1       	in	r24, 0x03	; 3
    3efa:	80 68       	ori	r24, 0x80	; 128
    3efc:	83 b9       	out	0x03, r24	; 3
    3efe:	08 95       	ret

Disassembly of section .text.init_int1:

00004296 <init_int1>:
    4296:	8c e0       	ldi	r24, 0x0C	; 12
    4298:	80 93 69 00 	sts	0x0069, r24	; 0x800069 <__TEXT_REGION_LENGTH__+0x7f8069>
    429c:	82 e0       	ldi	r24, 0x02	; 2
    429e:	8d bb       	out	0x1d, r24	; 29
    42a0:	08 95       	ret

Disassembly of section .text.delay_ms:

00003c8e <delay_ms>:
    3c8e:	9b 01       	movw	r18, r22
    3c90:	ac 01       	movw	r20, r24
    3c92:	10 92 b6 01 	sts	0x01B6, r1	; 0x8001b6 <x>
    3c96:	10 92 b7 01 	sts	0x01B7, r1	; 0x8001b7 <x+0x1>
    3c9a:	10 92 b8 01 	sts	0x01B8, r1	; 0x8001b8 <x+0x2>
    3c9e:	10 92 b9 01 	sts	0x01B9, r1	; 0x8001b9 <x+0x3>
    3ca2:	a8 ee       	ldi	r26, 0xE8	; 232
    3ca4:	b3 e0       	ldi	r27, 0x03	; 3
    3ca6:	0e 94 fc 20 	call	0x41f8	; 0x41f8 <__muluhisi3>
    3caa:	ab 01       	movw	r20, r22
    3cac:	bc 01       	movw	r22, r24
    3cae:	0b c0       	rjmp	.+22     	; 0x3cc6 <delay_ms+0x38>
    3cb0:	01 96       	adiw	r24, 0x01	; 1
    3cb2:	a1 1d       	adc	r26, r1
    3cb4:	b1 1d       	adc	r27, r1
    3cb6:	80 93 b6 01 	sts	0x01B6, r24	; 0x8001b6 <x>
    3cba:	90 93 b7 01 	sts	0x01B7, r25	; 0x8001b7 <x+0x1>
    3cbe:	a0 93 b8 01 	sts	0x01B8, r26	; 0x8001b8 <x+0x2>
    3cc2:	b0 93 b9 01 	sts	0x01B9, r27	; 0x8001b9 <x+0x3>
    3cc6:	80 91 b6 01 	lds	r24, 0x01B6	; 0x8001b6 <x>
    3cca:	90 91 b7 01 	lds	r25, 0x01B7	; 0x8001b7 <x+0x1>
    3cce:	a0 91 b8 01 	lds	r26, 0x01B8	; 0x8001b8 <x+0x2>
    3cd2:	b0 91 b9 01 	lds	r27, 0x01B9	; 0x8001b9 <x+0x3>
    3cd6:	48 17       	cp	r20, r24
    3cd8:	59 07       	cpc	r21, r25
    3cda:	6a 07       	cpc	r22, r26
    3cdc:	7b 07       	cpc	r23, r27
    3cde:	44 f7       	brge	.-48     	; 0x3cb0 <delay_ms+0x22>
    3ce0:	08 95       	ret

Disassembly of section .text.delay_ns:

00003f00 <delay_ns>:
    3f00:	ab 01       	movw	r20, r22
    3f02:	bc 01       	movw	r22, r24
    3f04:	10 92 b6 01 	sts	0x01B6, r1	; 0x8001b6 <x>
    3f08:	10 92 b7 01 	sts	0x01B7, r1	; 0x8001b7 <x+0x1>
    3f0c:	10 92 b8 01 	sts	0x01B8, r1	; 0x8001b8 <x+0x2>
    3f10:	10 92 b9 01 	sts	0x01B9, r1	; 0x8001b9 <x+0x3>
    3f14:	0b c0       	rjmp	.+22     	; 0x3f2c <delay_ns+0x2c>
    3f16:	01 96       	adiw	r24, 0x01	; 1
    3f18:	a1 1d       	adc	r26, r1
    3f1a:	b1 1d       	adc	r27, r1
    3f1c:	80 93 b6 01 	sts	0x01B6, r24	; 0x8001b6 <x>
    3f20:	90 93 b7 01 	sts	0x01B7, r25	; 0x8001b7 <x+0x1>
    3f24:	a0 93 b8 01 	sts	0x01B8, r26	; 0x8001b8 <x+0x2>
    3f28:	b0 93 b9 01 	sts	0x01B9, r27	; 0x8001b9 <x+0x3>
    3f2c:	80 91 b6 01 	lds	r24, 0x01B6	; 0x8001b6 <x>
    3f30:	90 91 b7 01 	lds	r25, 0x01B7	; 0x8001b7 <x+0x1>
    3f34:	a0 91 b8 01 	lds	r26, 0x01B8	; 0x8001b8 <x+0x2>
    3f38:	b0 91 b9 01 	lds	r27, 0x01B9	; 0x8001b9 <x+0x3>
    3f3c:	48 17       	cp	r20, r24
    3f3e:	59 07       	cpc	r21, r25
    3f40:	6a 07       	cpc	r22, r26
    3f42:	7b 07       	cpc	r23, r27
    3f44:	44 f7       	brge	.-48     	; 0x3f16 <delay_ns+0x16>
    3f46:	08 95       	ret

Disassembly of section .text.send_instruction_lcd:

00004060 <send_instruction_lcd>:
    4060:	98 b1       	in	r25, 0x08	; 8
    4062:	90 7c       	andi	r25, 0xC0	; 192
    4064:	98 b9       	out	0x08, r25	; 8
    4066:	98 b1       	in	r25, 0x08	; 8
    4068:	9f 7e       	andi	r25, 0xEF	; 239
    406a:	98 b9       	out	0x08, r25	; 8
    406c:	98 b1       	in	r25, 0x08	; 8
    406e:	90 62       	ori	r25, 0x20	; 32
    4070:	98 b9       	out	0x08, r25	; 8
    4072:	98 b1       	in	r25, 0x08	; 8
    4074:	28 2f       	mov	r18, r24
    4076:	22 95       	swap	r18
    4078:	2f 70       	andi	r18, 0x0F	; 15
    407a:	92 2b       	or	r25, r18
    407c:	98 b9       	out	0x08, r25	; 8
    407e:	98 b1       	in	r25, 0x08	; 8
    4080:	9f 7d       	andi	r25, 0xDF	; 223
    4082:	98 b9       	out	0x08, r25	; 8
    4084:	98 b1       	in	r25, 0x08	; 8
    4086:	90 7c       	andi	r25, 0xC0	; 192
    4088:	98 b9       	out	0x08, r25	; 8
    408a:	98 b1       	in	r25, 0x08	; 8
    408c:	90 62       	ori	r25, 0x20	; 32
    408e:	98 b9       	out	0x08, r25	; 8
    4090:	98 b1       	in	r25, 0x08	; 8
    4092:	8f 70       	andi	r24, 0x0F	; 15
    4094:	89 2b       	or	r24, r25
    4096:	88 b9       	out	0x08, r24	; 8
    4098:	88 b1       	in	r24, 0x08	; 8
    409a:	8f 7d       	andi	r24, 0xDF	; 223
    409c:	88 b9       	out	0x08, r24	; 8
    409e:	08 95       	ret

Disassembly of section .text.clear_Display:

00004222 <clear_Display>:
    4222:	81 e0       	ldi	r24, 0x01	; 1
    4224:	0e 94 30 20 	call	0x4060	; 0x4060 <send_instruction_lcd>
    4228:	6f e0       	ldi	r22, 0x0F	; 15
    422a:	70 e0       	ldi	r23, 0x00	; 0
    422c:	80 e0       	ldi	r24, 0x00	; 0
    422e:	90 e0       	ldi	r25, 0x00	; 0
    4230:	0e 94 47 1e 	call	0x3c8e	; 0x3c8e <delay_ms>
    4234:	08 95       	ret

Disassembly of section .text.send_instruction_lcd_nibble:

0000418a <send_instruction_lcd_nibble>:
    418a:	98 b1       	in	r25, 0x08	; 8
    418c:	90 7c       	andi	r25, 0xC0	; 192
    418e:	98 b9       	out	0x08, r25	; 8
    4190:	98 b1       	in	r25, 0x08	; 8
    4192:	9f 7e       	andi	r25, 0xEF	; 239
    4194:	98 b9       	out	0x08, r25	; 8
    4196:	98 b1       	in	r25, 0x08	; 8
    4198:	90 62       	ori	r25, 0x20	; 32
    419a:	98 b9       	out	0x08, r25	; 8
    419c:	98 b1       	in	r25, 0x08	; 8
    419e:	89 2b       	or	r24, r25
    41a0:	88 b9       	out	0x08, r24	; 8
    41a2:	88 b1       	in	r24, 0x08	; 8
    41a4:	8f 7d       	andi	r24, 0xDF	; 223
    41a6:	88 b9       	out	0x08, r24	; 8
    41a8:	08 95       	ret

Disassembly of section .text.inicializa_display:

00003378 <inicializa_display>:
    3378:	6f e0       	ldi	r22, 0x0F	; 15
    337a:	70 e0       	ldi	r23, 0x00	; 0
    337c:	80 e0       	ldi	r24, 0x00	; 0
    337e:	90 e0       	ldi	r25, 0x00	; 0
    3380:	0e 94 47 1e 	call	0x3c8e	; 0x3c8e <delay_ms>
    3384:	83 e0       	ldi	r24, 0x03	; 3
    3386:	0e 94 c5 20 	call	0x418a	; 0x418a <send_instruction_lcd_nibble>
    338a:	65 e0       	ldi	r22, 0x05	; 5
    338c:	70 e0       	ldi	r23, 0x00	; 0
    338e:	80 e0       	ldi	r24, 0x00	; 0
    3390:	90 e0       	ldi	r25, 0x00	; 0
    3392:	0e 94 47 1e 	call	0x3c8e	; 0x3c8e <delay_ms>
    3396:	83 e0       	ldi	r24, 0x03	; 3
    3398:	0e 94 c5 20 	call	0x418a	; 0x418a <send_instruction_lcd_nibble>
    339c:	64 e6       	ldi	r22, 0x64	; 100
    339e:	70 e0       	ldi	r23, 0x00	; 0
    33a0:	80 e0       	ldi	r24, 0x00	; 0
    33a2:	90 e0       	ldi	r25, 0x00	; 0
    33a4:	0e 94 80 1f 	call	0x3f00	; 0x3f00 <delay_ns>
    33a8:	83 e0       	ldi	r24, 0x03	; 3
    33aa:	0e 94 c5 20 	call	0x418a	; 0x418a <send_instruction_lcd_nibble>
    33ae:	68 e2       	ldi	r22, 0x28	; 40
    33b0:	70 e0       	ldi	r23, 0x00	; 0
    33b2:	80 e0       	ldi	r24, 0x00	; 0
    33b4:	90 e0       	ldi	r25, 0x00	; 0
    33b6:	0e 94 80 1f 	call	0x3f00	; 0x3f00 <delay_ns>
    33ba:	82 e0       	ldi	r24, 0x02	; 2
    33bc:	0e 94 c5 20 	call	0x418a	; 0x418a <send_instruction_lcd_nibble>
    33c0:	68 e2       	ldi	r22, 0x28	; 40
    33c2:	70 e0       	ldi	r23, 0x00	; 0
    33c4:	80 e0       	ldi	r24, 0x00	; 0
    33c6:	90 e0       	ldi	r25, 0x00	; 0
    33c8:	0e 94 80 1f 	call	0x3f00	; 0x3f00 <delay_ns>
    33cc:	88 e2       	ldi	r24, 0x28	; 40
    33ce:	0e 94 30 20 	call	0x4060	; 0x4060 <send_instruction_lcd>
    33d2:	68 e2       	ldi	r22, 0x28	; 40
    33d4:	70 e0       	ldi	r23, 0x00	; 0
    33d6:	80 e0       	ldi	r24, 0x00	; 0
    33d8:	90 e0       	ldi	r25, 0x00	; 0
    33da:	0e 94 80 1f 	call	0x3f00	; 0x3f00 <delay_ns>
    33de:	81 e0       	ldi	r24, 0x01	; 1
    33e0:	0e 94 30 20 	call	0x4060	; 0x4060 <send_instruction_lcd>
    33e4:	62 e0       	ldi	r22, 0x02	; 2
    33e6:	70 e0       	ldi	r23, 0x00	; 0
    33e8:	80 e0       	ldi	r24, 0x00	; 0
    33ea:	90 e0       	ldi	r25, 0x00	; 0
    33ec:	0e 94 47 1e 	call	0x3c8e	; 0x3c8e <delay_ms>
    33f0:	86 e0       	ldi	r24, 0x06	; 6
    33f2:	0e 94 30 20 	call	0x4060	; 0x4060 <send_instruction_lcd>
    33f6:	68 e2       	ldi	r22, 0x28	; 40
    33f8:	70 e0       	ldi	r23, 0x00	; 0
    33fa:	80 e0       	ldi	r24, 0x00	; 0
    33fc:	90 e0       	ldi	r25, 0x00	; 0
    33fe:	0e 94 80 1f 	call	0x3f00	; 0x3f00 <delay_ns>
    3402:	8c e0       	ldi	r24, 0x0C	; 12
    3404:	0e 94 30 20 	call	0x4060	; 0x4060 <send_instruction_lcd>
    3408:	68 e2       	ldi	r22, 0x28	; 40
    340a:	70 e0       	ldi	r23, 0x00	; 0
    340c:	80 e0       	ldi	r24, 0x00	; 0
    340e:	90 e0       	ldi	r25, 0x00	; 0
    3410:	0e 94 80 1f 	call	0x3f00	; 0x3f00 <delay_ns>
    3414:	08 95       	ret

Disassembly of section .text.send_word_lcd:

00003e6c <send_word_lcd>:
    3e6c:	98 b1       	in	r25, 0x08	; 8
    3e6e:	90 7f       	andi	r25, 0xF0	; 240
    3e70:	98 b9       	out	0x08, r25	; 8
    3e72:	98 b1       	in	r25, 0x08	; 8
    3e74:	90 61       	ori	r25, 0x10	; 16
    3e76:	98 b9       	out	0x08, r25	; 8
    3e78:	98 b1       	in	r25, 0x08	; 8
    3e7a:	90 62       	ori	r25, 0x20	; 32
    3e7c:	98 b9       	out	0x08, r25	; 8
    3e7e:	98 b1       	in	r25, 0x08	; 8
    3e80:	28 2f       	mov	r18, r24
    3e82:	22 95       	swap	r18
    3e84:	2f 70       	andi	r18, 0x0F	; 15
    3e86:	92 2b       	or	r25, r18
    3e88:	98 b9       	out	0x08, r25	; 8
    3e8a:	98 b1       	in	r25, 0x08	; 8
    3e8c:	9f 7d       	andi	r25, 0xDF	; 223
    3e8e:	98 b9       	out	0x08, r25	; 8
    3e90:	98 b1       	in	r25, 0x08	; 8
    3e92:	90 7f       	andi	r25, 0xF0	; 240
    3e94:	98 b9       	out	0x08, r25	; 8
    3e96:	98 b1       	in	r25, 0x08	; 8
    3e98:	90 62       	ori	r25, 0x20	; 32
    3e9a:	98 b9       	out	0x08, r25	; 8
    3e9c:	98 b1       	in	r25, 0x08	; 8
    3e9e:	8f 70       	andi	r24, 0x0F	; 15
    3ea0:	89 2b       	or	r24, r25
    3ea2:	88 b9       	out	0x08, r24	; 8
    3ea4:	88 b1       	in	r24, 0x08	; 8
    3ea6:	8f 7d       	andi	r24, 0xDF	; 223
    3ea8:	88 b9       	out	0x08, r24	; 8
    3eaa:	6b e2       	ldi	r22, 0x2B	; 43
    3eac:	70 e0       	ldi	r23, 0x00	; 0
    3eae:	80 e0       	ldi	r24, 0x00	; 0
    3eb0:	90 e0       	ldi	r25, 0x00	; 0
    3eb2:	0e 94 80 1f 	call	0x3f00	; 0x3f00 <delay_ns>
    3eb6:	08 95       	ret

Disassembly of section .text.set_DDRAM_ADDR:

00003d34 <set_DDRAM_ADDR>:
    3d34:	80 68       	ori	r24, 0x80	; 128
    3d36:	98 b1       	in	r25, 0x08	; 8
    3d38:	90 7c       	andi	r25, 0xC0	; 192
    3d3a:	98 b9       	out	0x08, r25	; 8
    3d3c:	98 b1       	in	r25, 0x08	; 8
    3d3e:	9f 7e       	andi	r25, 0xEF	; 239
    3d40:	98 b9       	out	0x08, r25	; 8
    3d42:	98 b1       	in	r25, 0x08	; 8
    3d44:	90 62       	ori	r25, 0x20	; 32
    3d46:	98 b9       	out	0x08, r25	; 8
    3d48:	98 b1       	in	r25, 0x08	; 8
    3d4a:	28 2f       	mov	r18, r24
    3d4c:	22 95       	swap	r18
    3d4e:	2f 70       	andi	r18, 0x0F	; 15
    3d50:	92 2b       	or	r25, r18
    3d52:	98 b9       	out	0x08, r25	; 8
    3d54:	98 b1       	in	r25, 0x08	; 8
    3d56:	9f 7d       	andi	r25, 0xDF	; 223
    3d58:	98 b9       	out	0x08, r25	; 8
    3d5a:	98 b1       	in	r25, 0x08	; 8
    3d5c:	90 7c       	andi	r25, 0xC0	; 192
    3d5e:	98 b9       	out	0x08, r25	; 8
    3d60:	98 b1       	in	r25, 0x08	; 8
    3d62:	90 62       	ori	r25, 0x20	; 32
    3d64:	98 b9       	out	0x08, r25	; 8
    3d66:	98 b1       	in	r25, 0x08	; 8
    3d68:	8f 70       	andi	r24, 0x0F	; 15
    3d6a:	89 2b       	or	r24, r25
    3d6c:	88 b9       	out	0x08, r24	; 8
    3d6e:	88 b1       	in	r24, 0x08	; 8
    3d70:	8f 7d       	andi	r24, 0xDF	; 223
    3d72:	88 b9       	out	0x08, r24	; 8
    3d74:	6b e2       	ldi	r22, 0x2B	; 43
    3d76:	70 e0       	ldi	r23, 0x00	; 0
    3d78:	80 e0       	ldi	r24, 0x00	; 0
    3d7a:	90 e0       	ldi	r25, 0x00	; 0
    3d7c:	0e 94 80 1f 	call	0x3f00	; 0x3f00 <delay_ns>
    3d80:	08 95       	ret

Disassembly of section .text.envia_frase:

0000413c <envia_frase>:
    413c:	0f 93       	push	r16
    413e:	1f 93       	push	r17
    4140:	cf 93       	push	r28
    4142:	8c 01       	movw	r16, r24
    4144:	86 2f       	mov	r24, r22
    4146:	0e 94 9a 1e 	call	0x3d34	; 0x3d34 <set_DDRAM_ADDR>
    414a:	c0 e0       	ldi	r28, 0x00	; 0
    414c:	03 c0       	rjmp	.+6      	; 0x4154 <envia_frase+0x18>
    414e:	0e 94 36 1f 	call	0x3e6c	; 0x3e6c <send_word_lcd>
    4152:	cf 5f       	subi	r28, 0xFF	; 255
    4154:	f8 01       	movw	r30, r16
    4156:	ec 0f       	add	r30, r28
    4158:	f1 1d       	adc	r31, r1
    415a:	80 81       	ld	r24, Z
    415c:	81 11       	cpse	r24, r1
    415e:	f7 cf       	rjmp	.-18     	; 0x414e <envia_frase+0x12>
    4160:	cf 91       	pop	r28
    4162:	1f 91       	pop	r17
    4164:	0f 91       	pop	r16
    4166:	08 95       	ret

Disassembly of section .text.msg_inserir_senha:

00003d82 <msg_inserir_senha>:
    3d82:	cf 93       	push	r28
    3d84:	df 93       	push	r29
    3d86:	cd b7       	in	r28, 0x3d	; 61
    3d88:	de b7       	in	r29, 0x3e	; 62
    3d8a:	61 97       	sbiw	r28, 0x11	; 17
    3d8c:	0f b6       	in	r0, 0x3f	; 63
    3d8e:	f8 94       	cli
    3d90:	de bf       	out	0x3e, r29	; 62
    3d92:	0f be       	out	0x3f, r0	; 63
    3d94:	cd bf       	out	0x3d, r28	; 61
    3d96:	0e 94 11 21 	call	0x4222	; 0x4222 <clear_Display>
    3d9a:	28 ef       	ldi	r18, 0xF8	; 248
    3d9c:	30 e0       	ldi	r19, 0x00	; 0
    3d9e:	40 e0       	ldi	r20, 0x00	; 0
    3da0:	81 e1       	ldi	r24, 0x11	; 17
    3da2:	f9 01       	movw	r30, r18
    3da4:	de 01       	movw	r26, r28
    3da6:	11 96       	adiw	r26, 0x01	; 1
    3da8:	74 2f       	mov	r23, r20
    3daa:	0e 94 e4 20 	call	0x41c8	; 0x41c8 <__movmemx_qi>
    3dae:	60 e0       	ldi	r22, 0x00	; 0
    3db0:	ce 01       	movw	r24, r28
    3db2:	01 96       	adiw	r24, 0x01	; 1
    3db4:	0e 94 9e 20 	call	0x413c	; 0x413c <envia_frase>
    3db8:	80 ec       	ldi	r24, 0xC0	; 192
    3dba:	0e 94 30 20 	call	0x4060	; 0x4060 <send_instruction_lcd>
    3dbe:	61 96       	adiw	r28, 0x11	; 17
    3dc0:	0f b6       	in	r0, 0x3f	; 63
    3dc2:	f8 94       	cli
    3dc4:	de bf       	out	0x3e, r29	; 62
    3dc6:	0f be       	out	0x3f, r0	; 63
    3dc8:	cd bf       	out	0x3d, r28	; 61
    3dca:	df 91       	pop	r29
    3dcc:	cf 91       	pop	r28
    3dce:	08 95       	ret

Disassembly of section .text.msg_desativado:

00003b7a <msg_desativado>:
    3b7a:	cf 93       	push	r28
    3b7c:	df 93       	push	r29
    3b7e:	cd b7       	in	r28, 0x3d	; 61
    3b80:	de b7       	in	r29, 0x3e	; 62
    3b82:	62 97       	sbiw	r28, 0x12	; 18
    3b84:	0f b6       	in	r0, 0x3f	; 63
    3b86:	f8 94       	cli
    3b88:	de bf       	out	0x3e, r29	; 62
    3b8a:	0f be       	out	0x3f, r0	; 63
    3b8c:	cd bf       	out	0x3d, r28	; 61
    3b8e:	29 e0       	ldi	r18, 0x09	; 9
    3b90:	31 e0       	ldi	r19, 0x01	; 1
    3b92:	40 e0       	ldi	r20, 0x00	; 0
    3b94:	81 e1       	ldi	r24, 0x11	; 17
    3b96:	f9 01       	movw	r30, r18
    3b98:	de 01       	movw	r26, r28
    3b9a:	11 96       	adiw	r26, 0x01	; 1
    3b9c:	74 2f       	mov	r23, r20
    3b9e:	0e 94 e4 20 	call	0x41c8	; 0x41c8 <__movmemx_qi>
    3ba2:	60 e0       	ldi	r22, 0x00	; 0
    3ba4:	ce 01       	movw	r24, r28
    3ba6:	01 96       	adiw	r24, 0x01	; 1
    3ba8:	0e 94 9e 20 	call	0x413c	; 0x413c <envia_frase>
    3bac:	1a 8a       	std	Y+18, r1	; 0x12
    3bae:	60 e4       	ldi	r22, 0x40	; 64
    3bb0:	ce 01       	movw	r24, r28
    3bb2:	42 96       	adiw	r24, 0x12	; 18
    3bb4:	0e 94 9e 20 	call	0x413c	; 0x413c <envia_frase>
    3bb8:	63 e0       	ldi	r22, 0x03	; 3
    3bba:	70 e0       	ldi	r23, 0x00	; 0
    3bbc:	80 e0       	ldi	r24, 0x00	; 0
    3bbe:	90 e0       	ldi	r25, 0x00	; 0
    3bc0:	0e 94 47 1e 	call	0x3c8e	; 0x3c8e <delay_ms>
    3bc4:	62 96       	adiw	r28, 0x12	; 18
    3bc6:	0f b6       	in	r0, 0x3f	; 63
    3bc8:	f8 94       	cli
    3bca:	de bf       	out	0x3e, r29	; 62
    3bcc:	0f be       	out	0x3f, r0	; 63
    3bce:	cd bf       	out	0x3d, r28	; 61
    3bd0:	df 91       	pop	r29
    3bd2:	cf 91       	pop	r28
    3bd4:	08 95       	ret

Disassembly of section .text.msg_ativado:

00003bd6 <msg_ativado>:
    3bd6:	cf 93       	push	r28
    3bd8:	df 93       	push	r29
    3bda:	cd b7       	in	r28, 0x3d	; 61
    3bdc:	de b7       	in	r29, 0x3e	; 62
    3bde:	2f 97       	sbiw	r28, 0x0f	; 15
    3be0:	0f b6       	in	r0, 0x3f	; 63
    3be2:	f8 94       	cli
    3be4:	de bf       	out	0x3e, r29	; 62
    3be6:	0f be       	out	0x3f, r0	; 63
    3be8:	cd bf       	out	0x3d, r28	; 61
    3bea:	2a e1       	ldi	r18, 0x1A	; 26
    3bec:	31 e0       	ldi	r19, 0x01	; 1
    3bee:	40 e0       	ldi	r20, 0x00	; 0
    3bf0:	8e e0       	ldi	r24, 0x0E	; 14
    3bf2:	f9 01       	movw	r30, r18
    3bf4:	de 01       	movw	r26, r28
    3bf6:	11 96       	adiw	r26, 0x01	; 1
    3bf8:	74 2f       	mov	r23, r20
    3bfa:	0e 94 e4 20 	call	0x41c8	; 0x41c8 <__movmemx_qi>
    3bfe:	60 e0       	ldi	r22, 0x00	; 0
    3c00:	ce 01       	movw	r24, r28
    3c02:	01 96       	adiw	r24, 0x01	; 1
    3c04:	0e 94 9e 20 	call	0x413c	; 0x413c <envia_frase>
    3c08:	1f 86       	std	Y+15, r1	; 0x0f
    3c0a:	60 e4       	ldi	r22, 0x40	; 64
    3c0c:	ce 01       	movw	r24, r28
    3c0e:	0f 96       	adiw	r24, 0x0f	; 15
    3c10:	0e 94 9e 20 	call	0x413c	; 0x413c <envia_frase>
    3c14:	63 e0       	ldi	r22, 0x03	; 3
    3c16:	70 e0       	ldi	r23, 0x00	; 0
    3c18:	80 e0       	ldi	r24, 0x00	; 0
    3c1a:	90 e0       	ldi	r25, 0x00	; 0
    3c1c:	0e 94 47 1e 	call	0x3c8e	; 0x3c8e <delay_ms>
    3c20:	2f 96       	adiw	r28, 0x0f	; 15
    3c22:	0f b6       	in	r0, 0x3f	; 63
    3c24:	f8 94       	cli
    3c26:	de bf       	out	0x3e, r29	; 62
    3c28:	0f be       	out	0x3f, r0	; 63
    3c2a:	cd bf       	out	0x3d, r28	; 61
    3c2c:	df 91       	pop	r29
    3c2e:	cf 91       	pop	r28
    3c30:	08 95       	ret

Disassembly of section .text.msg_programacao:

00003c32 <msg_programacao>:
    3c32:	cf 93       	push	r28
    3c34:	df 93       	push	r29
    3c36:	cd b7       	in	r28, 0x3d	; 61
    3c38:	de b7       	in	r29, 0x3e	; 62
    3c3a:	62 97       	sbiw	r28, 0x12	; 18
    3c3c:	0f b6       	in	r0, 0x3f	; 63
    3c3e:	f8 94       	cli
    3c40:	de bf       	out	0x3e, r29	; 62
    3c42:	0f be       	out	0x3f, r0	; 63
    3c44:	cd bf       	out	0x3d, r28	; 61
    3c46:	28 e2       	ldi	r18, 0x28	; 40
    3c48:	31 e0       	ldi	r19, 0x01	; 1
    3c4a:	40 e0       	ldi	r20, 0x00	; 0
    3c4c:	81 e1       	ldi	r24, 0x11	; 17
    3c4e:	f9 01       	movw	r30, r18
    3c50:	de 01       	movw	r26, r28
    3c52:	11 96       	adiw	r26, 0x01	; 1
    3c54:	74 2f       	mov	r23, r20
    3c56:	0e 94 e4 20 	call	0x41c8	; 0x41c8 <__movmemx_qi>
    3c5a:	60 e0       	ldi	r22, 0x00	; 0
    3c5c:	ce 01       	movw	r24, r28
    3c5e:	01 96       	adiw	r24, 0x01	; 1
    3c60:	0e 94 9e 20 	call	0x413c	; 0x413c <envia_frase>
    3c64:	1a 8a       	std	Y+18, r1	; 0x12
    3c66:	60 e4       	ldi	r22, 0x40	; 64
    3c68:	ce 01       	movw	r24, r28
    3c6a:	42 96       	adiw	r24, 0x12	; 18
    3c6c:	0e 94 9e 20 	call	0x413c	; 0x413c <envia_frase>
    3c70:	63 e0       	ldi	r22, 0x03	; 3
    3c72:	70 e0       	ldi	r23, 0x00	; 0
    3c74:	80 e0       	ldi	r24, 0x00	; 0
    3c76:	90 e0       	ldi	r25, 0x00	; 0
    3c78:	0e 94 47 1e 	call	0x3c8e	; 0x3c8e <delay_ms>
    3c7c:	62 96       	adiw	r28, 0x12	; 18
    3c7e:	0f b6       	in	r0, 0x3f	; 63
    3c80:	f8 94       	cli
    3c82:	de bf       	out	0x3e, r29	; 62
    3c84:	0f be       	out	0x3f, r0	; 63
    3c86:	cd bf       	out	0x3d, r28	; 61
    3c88:	df 91       	pop	r29
    3c8a:	cf 91       	pop	r28
    3c8c:	08 95       	ret

Disassembly of section .text.msg_altera_senha:

00003dd0 <msg_altera_senha>:
    3dd0:	cf 93       	push	r28
    3dd2:	df 93       	push	r29
    3dd4:	cd b7       	in	r28, 0x3d	; 61
    3dd6:	de b7       	in	r29, 0x3e	; 62
    3dd8:	60 97       	sbiw	r28, 0x10	; 16
    3dda:	0f b6       	in	r0, 0x3f	; 63
    3ddc:	f8 94       	cli
    3dde:	de bf       	out	0x3e, r29	; 62
    3de0:	0f be       	out	0x3f, r0	; 63
    3de2:	cd bf       	out	0x3d, r28	; 61
    3de4:	0e 94 11 21 	call	0x4222	; 0x4222 <clear_Display>
    3de8:	29 e3       	ldi	r18, 0x39	; 57
    3dea:	31 e0       	ldi	r19, 0x01	; 1
    3dec:	40 e0       	ldi	r20, 0x00	; 0
    3dee:	80 e1       	ldi	r24, 0x10	; 16
    3df0:	f9 01       	movw	r30, r18
    3df2:	de 01       	movw	r26, r28
    3df4:	11 96       	adiw	r26, 0x01	; 1
    3df6:	74 2f       	mov	r23, r20
    3df8:	0e 94 e4 20 	call	0x41c8	; 0x41c8 <__movmemx_qi>
    3dfc:	60 e0       	ldi	r22, 0x00	; 0
    3dfe:	ce 01       	movw	r24, r28
    3e00:	01 96       	adiw	r24, 0x01	; 1
    3e02:	0e 94 9e 20 	call	0x413c	; 0x413c <envia_frase>
    3e06:	80 ec       	ldi	r24, 0xC0	; 192
    3e08:	0e 94 30 20 	call	0x4060	; 0x4060 <send_instruction_lcd>
    3e0c:	60 96       	adiw	r28, 0x10	; 16
    3e0e:	0f b6       	in	r0, 0x3f	; 63
    3e10:	f8 94       	cli
    3e12:	de bf       	out	0x3e, r29	; 62
    3e14:	0f be       	out	0x3f, r0	; 63
    3e16:	cd bf       	out	0x3d, r28	; 61
    3e18:	df 91       	pop	r29
    3e1a:	cf 91       	pop	r28
    3e1c:	08 95       	ret

Disassembly of section .text.msg_h_sensores:

00003782 <msg_h_sensores>:
    3782:	cf 93       	push	r28
    3784:	df 93       	push	r29
    3786:	cd b7       	in	r28, 0x3d	; 61
    3788:	de b7       	in	r29, 0x3e	; 62
    378a:	6d 97       	sbiw	r28, 0x1d	; 29
    378c:	0f b6       	in	r0, 0x3f	; 63
    378e:	f8 94       	cli
    3790:	de bf       	out	0x3e, r29	; 62
    3792:	0f be       	out	0x3f, r0	; 63
    3794:	cd bf       	out	0x3d, r28	; 61
    3796:	0e 94 11 21 	call	0x4222	; 0x4222 <clear_Display>
    379a:	29 e4       	ldi	r18, 0x49	; 73
    379c:	31 e0       	ldi	r19, 0x01	; 1
    379e:	40 e0       	ldi	r20, 0x00	; 0
    37a0:	8f e0       	ldi	r24, 0x0F	; 15
    37a2:	f9 01       	movw	r30, r18
    37a4:	de 01       	movw	r26, r28
    37a6:	11 96       	adiw	r26, 0x01	; 1
    37a8:	74 2f       	mov	r23, r20
    37aa:	0e 94 e4 20 	call	0x41c8	; 0x41c8 <__movmemx_qi>
    37ae:	60 e0       	ldi	r22, 0x00	; 0
    37b0:	ce 01       	movw	r24, r28
    37b2:	01 96       	adiw	r24, 0x01	; 1
    37b4:	0e 94 9e 20 	call	0x413c	; 0x413c <envia_frase>
    37b8:	28 e5       	ldi	r18, 0x58	; 88
    37ba:	31 e0       	ldi	r19, 0x01	; 1
    37bc:	40 e0       	ldi	r20, 0x00	; 0
    37be:	8e e0       	ldi	r24, 0x0E	; 14
    37c0:	f9 01       	movw	r30, r18
    37c2:	de 01       	movw	r26, r28
    37c4:	50 96       	adiw	r26, 0x10	; 16
    37c6:	74 2f       	mov	r23, r20
    37c8:	0e 94 e4 20 	call	0x41c8	; 0x41c8 <__movmemx_qi>
    37cc:	60 e4       	ldi	r22, 0x40	; 64
    37ce:	ce 01       	movw	r24, r28
    37d0:	40 96       	adiw	r24, 0x10	; 16
    37d2:	0e 94 9e 20 	call	0x413c	; 0x413c <envia_frase>
    37d6:	6d 96       	adiw	r28, 0x1d	; 29
    37d8:	0f b6       	in	r0, 0x3f	; 63
    37da:	f8 94       	cli
    37dc:	de bf       	out	0x3e, r29	; 62
    37de:	0f be       	out	0x3f, r0	; 63
    37e0:	cd bf       	out	0x3d, r28	; 61
    37e2:	df 91       	pop	r29
    37e4:	cf 91       	pop	r28
    37e6:	08 95       	ret

Disassembly of section .text.msg_d_sensores:

000037e8 <msg_d_sensores>:
    37e8:	cf 93       	push	r28
    37ea:	df 93       	push	r29
    37ec:	cd b7       	in	r28, 0x3d	; 61
    37ee:	de b7       	in	r29, 0x3e	; 62
    37f0:	6e 97       	sbiw	r28, 0x1e	; 30
    37f2:	0f b6       	in	r0, 0x3f	; 63
    37f4:	f8 94       	cli
    37f6:	de bf       	out	0x3e, r29	; 62
    37f8:	0f be       	out	0x3f, r0	; 63
    37fa:	cd bf       	out	0x3d, r28	; 61
    37fc:	0e 94 11 21 	call	0x4222	; 0x4222 <clear_Display>
    3800:	29 e4       	ldi	r18, 0x49	; 73
    3802:	31 e0       	ldi	r19, 0x01	; 1
    3804:	40 e0       	ldi	r20, 0x00	; 0
    3806:	8f e0       	ldi	r24, 0x0F	; 15
    3808:	f9 01       	movw	r30, r18
    380a:	de 01       	movw	r26, r28
    380c:	11 96       	adiw	r26, 0x01	; 1
    380e:	74 2f       	mov	r23, r20
    3810:	0e 94 e4 20 	call	0x41c8	; 0x41c8 <__movmemx_qi>
    3814:	60 e0       	ldi	r22, 0x00	; 0
    3816:	ce 01       	movw	r24, r28
    3818:	01 96       	adiw	r24, 0x01	; 1
    381a:	0e 94 9e 20 	call	0x413c	; 0x413c <envia_frase>
    381e:	26 e6       	ldi	r18, 0x66	; 102
    3820:	31 e0       	ldi	r19, 0x01	; 1
    3822:	40 e0       	ldi	r20, 0x00	; 0
    3824:	8f e0       	ldi	r24, 0x0F	; 15
    3826:	f9 01       	movw	r30, r18
    3828:	de 01       	movw	r26, r28
    382a:	50 96       	adiw	r26, 0x10	; 16
    382c:	74 2f       	mov	r23, r20
    382e:	0e 94 e4 20 	call	0x41c8	; 0x41c8 <__movmemx_qi>
    3832:	60 e4       	ldi	r22, 0x40	; 64
    3834:	ce 01       	movw	r24, r28
    3836:	40 96       	adiw	r24, 0x10	; 16
    3838:	0e 94 9e 20 	call	0x413c	; 0x413c <envia_frase>
    383c:	6e 96       	adiw	r28, 0x1e	; 30
    383e:	0f b6       	in	r0, 0x3f	; 63
    3840:	f8 94       	cli
    3842:	de bf       	out	0x3e, r29	; 62
    3844:	0f be       	out	0x3f, r0	; 63
    3846:	cd bf       	out	0x3d, r28	; 61
    3848:	df 91       	pop	r29
    384a:	cf 91       	pop	r28
    384c:	08 95       	ret

Disassembly of section .text.msg_panico:

00003b18 <msg_panico>:
    3b18:	cf 93       	push	r28
    3b1a:	df 93       	push	r29
    3b1c:	cd b7       	in	r28, 0x3d	; 61
    3b1e:	de b7       	in	r29, 0x3e	; 62
    3b20:	6e 97       	sbiw	r28, 0x1e	; 30
    3b22:	0f b6       	in	r0, 0x3f	; 63
    3b24:	f8 94       	cli
    3b26:	de bf       	out	0x3e, r29	; 62
    3b28:	0f be       	out	0x3f, r0	; 63
    3b2a:	cd bf       	out	0x3d, r28	; 61
    3b2c:	25 e7       	ldi	r18, 0x75	; 117
    3b2e:	31 e0       	ldi	r19, 0x01	; 1
    3b30:	40 e0       	ldi	r20, 0x00	; 0
    3b32:	8e e0       	ldi	r24, 0x0E	; 14
    3b34:	f9 01       	movw	r30, r18
    3b36:	de 01       	movw	r26, r28
    3b38:	11 96       	adiw	r26, 0x01	; 1
    3b3a:	74 2f       	mov	r23, r20
    3b3c:	0e 94 e4 20 	call	0x41c8	; 0x41c8 <__movmemx_qi>
    3b40:	60 e0       	ldi	r22, 0x00	; 0
    3b42:	ce 01       	movw	r24, r28
    3b44:	01 96       	adiw	r24, 0x01	; 1
    3b46:	0e 94 9e 20 	call	0x413c	; 0x413c <envia_frase>
    3b4a:	23 e8       	ldi	r18, 0x83	; 131
    3b4c:	31 e0       	ldi	r19, 0x01	; 1
    3b4e:	40 e0       	ldi	r20, 0x00	; 0
    3b50:	80 e1       	ldi	r24, 0x10	; 16
    3b52:	f9 01       	movw	r30, r18
    3b54:	de 01       	movw	r26, r28
    3b56:	1f 96       	adiw	r26, 0x0f	; 15
    3b58:	74 2f       	mov	r23, r20
    3b5a:	0e 94 e4 20 	call	0x41c8	; 0x41c8 <__movmemx_qi>
    3b5e:	60 e4       	ldi	r22, 0x40	; 64
    3b60:	ce 01       	movw	r24, r28
    3b62:	0f 96       	adiw	r24, 0x0f	; 15
    3b64:	0e 94 9e 20 	call	0x413c	; 0x413c <envia_frase>
    3b68:	6e 96       	adiw	r28, 0x1e	; 30
    3b6a:	0f b6       	in	r0, 0x3f	; 63
    3b6c:	f8 94       	cli
    3b6e:	de bf       	out	0x3e, r29	; 62
    3b70:	0f be       	out	0x3f, r0	; 63
    3b72:	cd bf       	out	0x3d, r28	; 61
    3b74:	df 91       	pop	r29
    3b76:	cf 91       	pop	r28
    3b78:	08 95       	ret

Disassembly of section .text.msg_restauracao:

00003fd8 <msg_restauracao>:
    3fd8:	cf 93       	push	r28
    3fda:	df 93       	push	r29
    3fdc:	cd b7       	in	r28, 0x3d	; 61
    3fde:	de b7       	in	r29, 0x3e	; 62
    3fe0:	2d 97       	sbiw	r28, 0x0d	; 13
    3fe2:	0f b6       	in	r0, 0x3f	; 63
    3fe4:	f8 94       	cli
    3fe6:	de bf       	out	0x3e, r29	; 62
    3fe8:	0f be       	out	0x3f, r0	; 63
    3fea:	cd bf       	out	0x3d, r28	; 61
    3fec:	23 e9       	ldi	r18, 0x93	; 147
    3fee:	31 e0       	ldi	r19, 0x01	; 1
    3ff0:	40 e0       	ldi	r20, 0x00	; 0
    3ff2:	8d e0       	ldi	r24, 0x0D	; 13
    3ff4:	f9 01       	movw	r30, r18
    3ff6:	de 01       	movw	r26, r28
    3ff8:	11 96       	adiw	r26, 0x01	; 1
    3ffa:	74 2f       	mov	r23, r20
    3ffc:	0e 94 e4 20 	call	0x41c8	; 0x41c8 <__movmemx_qi>
    4000:	60 e0       	ldi	r22, 0x00	; 0
    4002:	ce 01       	movw	r24, r28
    4004:	01 96       	adiw	r24, 0x01	; 1
    4006:	0e 94 9e 20 	call	0x413c	; 0x413c <envia_frase>
    400a:	2d 96       	adiw	r28, 0x0d	; 13
    400c:	0f b6       	in	r0, 0x3f	; 63
    400e:	f8 94       	cli
    4010:	de bf       	out	0x3e, r29	; 62
    4012:	0f be       	out	0x3f, r0	; 63
    4014:	cd bf       	out	0x3d, r28	; 61
    4016:	df 91       	pop	r29
    4018:	cf 91       	pop	r28
    401a:	08 95       	ret

Disassembly of section .text.msg_h_zona:

0000384e <msg_h_zona>:
    384e:	cf 93       	push	r28
    3850:	df 93       	push	r29
    3852:	cd b7       	in	r28, 0x3d	; 61
    3854:	de b7       	in	r29, 0x3e	; 62
    3856:	6a 97       	sbiw	r28, 0x1a	; 26
    3858:	0f b6       	in	r0, 0x3f	; 63
    385a:	f8 94       	cli
    385c:	de bf       	out	0x3e, r29	; 62
    385e:	0f be       	out	0x3f, r0	; 63
    3860:	cd bf       	out	0x3d, r28	; 61
    3862:	0e 94 11 21 	call	0x4222	; 0x4222 <clear_Display>
    3866:	20 ea       	ldi	r18, 0xA0	; 160
    3868:	31 e0       	ldi	r19, 0x01	; 1
    386a:	40 e0       	ldi	r20, 0x00	; 0
    386c:	8d e0       	ldi	r24, 0x0D	; 13
    386e:	f9 01       	movw	r30, r18
    3870:	de 01       	movw	r26, r28
    3872:	11 96       	adiw	r26, 0x01	; 1
    3874:	74 2f       	mov	r23, r20
    3876:	0e 94 e4 20 	call	0x41c8	; 0x41c8 <__movmemx_qi>
    387a:	60 e0       	ldi	r22, 0x00	; 0
    387c:	ce 01       	movw	r24, r28
    387e:	01 96       	adiw	r24, 0x01	; 1
    3880:	0e 94 9e 20 	call	0x413c	; 0x413c <envia_frase>
    3884:	2d ea       	ldi	r18, 0xAD	; 173
    3886:	31 e0       	ldi	r19, 0x01	; 1
    3888:	40 e0       	ldi	r20, 0x00	; 0
    388a:	8d e0       	ldi	r24, 0x0D	; 13
    388c:	f9 01       	movw	r30, r18
    388e:	de 01       	movw	r26, r28
    3890:	1e 96       	adiw	r26, 0x0e	; 14
    3892:	74 2f       	mov	r23, r20
    3894:	0e 94 e4 20 	call	0x41c8	; 0x41c8 <__movmemx_qi>
    3898:	60 e4       	ldi	r22, 0x40	; 64
    389a:	ce 01       	movw	r24, r28
    389c:	0e 96       	adiw	r24, 0x0e	; 14
    389e:	0e 94 9e 20 	call	0x413c	; 0x413c <envia_frase>
    38a2:	6a 96       	adiw	r28, 0x1a	; 26
    38a4:	0f b6       	in	r0, 0x3f	; 63
    38a6:	f8 94       	cli
    38a8:	de bf       	out	0x3e, r29	; 62
    38aa:	0f be       	out	0x3f, r0	; 63
    38ac:	cd bf       	out	0x3d, r28	; 61
    38ae:	df 91       	pop	r29
    38b0:	cf 91       	pop	r28
    38b2:	08 95       	ret

Disassembly of section .text.msg_d_zona:

000038b4 <msg_d_zona>:
    38b4:	cf 93       	push	r28
    38b6:	df 93       	push	r29
    38b8:	cd b7       	in	r28, 0x3d	; 61
    38ba:	de b7       	in	r29, 0x3e	; 62
    38bc:	6b 97       	sbiw	r28, 0x1b	; 27
    38be:	0f b6       	in	r0, 0x3f	; 63
    38c0:	f8 94       	cli
    38c2:	de bf       	out	0x3e, r29	; 62
    38c4:	0f be       	out	0x3f, r0	; 63
    38c6:	cd bf       	out	0x3d, r28	; 61
    38c8:	0e 94 11 21 	call	0x4222	; 0x4222 <clear_Display>
    38cc:	20 ea       	ldi	r18, 0xA0	; 160
    38ce:	31 e0       	ldi	r19, 0x01	; 1
    38d0:	40 e0       	ldi	r20, 0x00	; 0
    38d2:	8d e0       	ldi	r24, 0x0D	; 13
    38d4:	f9 01       	movw	r30, r18
    38d6:	de 01       	movw	r26, r28
    38d8:	11 96       	adiw	r26, 0x01	; 1
    38da:	74 2f       	mov	r23, r20
    38dc:	0e 94 e4 20 	call	0x41c8	; 0x41c8 <__movmemx_qi>
    38e0:	60 e0       	ldi	r22, 0x00	; 0
    38e2:	ce 01       	movw	r24, r28
    38e4:	01 96       	adiw	r24, 0x01	; 1
    38e6:	0e 94 9e 20 	call	0x413c	; 0x413c <envia_frase>
    38ea:	2a eb       	ldi	r18, 0xBA	; 186
    38ec:	31 e0       	ldi	r19, 0x01	; 1
    38ee:	40 e0       	ldi	r20, 0x00	; 0
    38f0:	8e e0       	ldi	r24, 0x0E	; 14
    38f2:	f9 01       	movw	r30, r18
    38f4:	de 01       	movw	r26, r28
    38f6:	1e 96       	adiw	r26, 0x0e	; 14
    38f8:	74 2f       	mov	r23, r20
    38fa:	0e 94 e4 20 	call	0x41c8	; 0x41c8 <__movmemx_qi>
    38fe:	60 e4       	ldi	r22, 0x40	; 64
    3900:	ce 01       	movw	r24, r28
    3902:	0e 96       	adiw	r24, 0x0e	; 14
    3904:	0e 94 9e 20 	call	0x413c	; 0x413c <envia_frase>
    3908:	6b 96       	adiw	r28, 0x1b	; 27
    390a:	0f b6       	in	r0, 0x3f	; 63
    390c:	f8 94       	cli
    390e:	de bf       	out	0x3e, r29	; 62
    3910:	0f be       	out	0x3f, r0	; 63
    3912:	cd bf       	out	0x3d, r28	; 61
    3914:	df 91       	pop	r29
    3916:	cf 91       	pop	r28
    3918:	08 95       	ret

Disassembly of section .text.msg_h_ass:

0000391a <msg_h_ass>:
    391a:	cf 93       	push	r28
    391c:	df 93       	push	r29
    391e:	cd b7       	in	r28, 0x3d	; 61
    3920:	de b7       	in	r29, 0x3e	; 62
    3922:	6b 97       	sbiw	r28, 0x1b	; 27
    3924:	0f b6       	in	r0, 0x3f	; 63
    3926:	f8 94       	cli
    3928:	de bf       	out	0x3e, r29	; 62
    392a:	0f be       	out	0x3f, r0	; 63
    392c:	cd bf       	out	0x3d, r28	; 61
    392e:	0e 94 11 21 	call	0x4222	; 0x4222 <clear_Display>
    3932:	28 ec       	ldi	r18, 0xC8	; 200
    3934:	31 e0       	ldi	r19, 0x01	; 1
    3936:	40 e0       	ldi	r20, 0x00	; 0
    3938:	8d e0       	ldi	r24, 0x0D	; 13
    393a:	f9 01       	movw	r30, r18
    393c:	de 01       	movw	r26, r28
    393e:	11 96       	adiw	r26, 0x01	; 1
    3940:	74 2f       	mov	r23, r20
    3942:	0e 94 e4 20 	call	0x41c8	; 0x41c8 <__movmemx_qi>
    3946:	60 e0       	ldi	r22, 0x00	; 0
    3948:	ce 01       	movw	r24, r28
    394a:	01 96       	adiw	r24, 0x01	; 1
    394c:	0e 94 9e 20 	call	0x413c	; 0x413c <envia_frase>
    3950:	25 ed       	ldi	r18, 0xD5	; 213
    3952:	31 e0       	ldi	r19, 0x01	; 1
    3954:	40 e0       	ldi	r20, 0x00	; 0
    3956:	8e e0       	ldi	r24, 0x0E	; 14
    3958:	f9 01       	movw	r30, r18
    395a:	de 01       	movw	r26, r28
    395c:	1e 96       	adiw	r26, 0x0e	; 14
    395e:	74 2f       	mov	r23, r20
    3960:	0e 94 e4 20 	call	0x41c8	; 0x41c8 <__movmemx_qi>
    3964:	60 e4       	ldi	r22, 0x40	; 64
    3966:	ce 01       	movw	r24, r28
    3968:	0e 96       	adiw	r24, 0x0e	; 14
    396a:	0e 94 9e 20 	call	0x413c	; 0x413c <envia_frase>
    396e:	6b 96       	adiw	r28, 0x1b	; 27
    3970:	0f b6       	in	r0, 0x3f	; 63
    3972:	f8 94       	cli
    3974:	de bf       	out	0x3e, r29	; 62
    3976:	0f be       	out	0x3f, r0	; 63
    3978:	cd bf       	out	0x3d, r28	; 61
    397a:	df 91       	pop	r29
    397c:	cf 91       	pop	r28
    397e:	08 95       	ret

Disassembly of section .text.msg_d_ass:

00003980 <msg_d_ass>:
    3980:	cf 93       	push	r28
    3982:	df 93       	push	r29
    3984:	cd b7       	in	r28, 0x3d	; 61
    3986:	de b7       	in	r29, 0x3e	; 62
    3988:	6c 97       	sbiw	r28, 0x1c	; 28
    398a:	0f b6       	in	r0, 0x3f	; 63
    398c:	f8 94       	cli
    398e:	de bf       	out	0x3e, r29	; 62
    3990:	0f be       	out	0x3f, r0	; 63
    3992:	cd bf       	out	0x3d, r28	; 61
    3994:	0e 94 11 21 	call	0x4222	; 0x4222 <clear_Display>
    3998:	23 ee       	ldi	r18, 0xE3	; 227
    399a:	31 e0       	ldi	r19, 0x01	; 1
    399c:	40 e0       	ldi	r20, 0x00	; 0
    399e:	8e e0       	ldi	r24, 0x0E	; 14
    39a0:	f9 01       	movw	r30, r18
    39a2:	de 01       	movw	r26, r28
    39a4:	11 96       	adiw	r26, 0x01	; 1
    39a6:	74 2f       	mov	r23, r20
    39a8:	0e 94 e4 20 	call	0x41c8	; 0x41c8 <__movmemx_qi>
    39ac:	60 e0       	ldi	r22, 0x00	; 0
    39ae:	ce 01       	movw	r24, r28
    39b0:	01 96       	adiw	r24, 0x01	; 1
    39b2:	0e 94 9e 20 	call	0x413c	; 0x413c <envia_frase>
    39b6:	25 ed       	ldi	r18, 0xD5	; 213
    39b8:	31 e0       	ldi	r19, 0x01	; 1
    39ba:	40 e0       	ldi	r20, 0x00	; 0
    39bc:	8e e0       	ldi	r24, 0x0E	; 14
    39be:	f9 01       	movw	r30, r18
    39c0:	de 01       	movw	r26, r28
    39c2:	1f 96       	adiw	r26, 0x0f	; 15
    39c4:	74 2f       	mov	r23, r20
    39c6:	0e 94 e4 20 	call	0x41c8	; 0x41c8 <__movmemx_qi>
    39ca:	60 e4       	ldi	r22, 0x40	; 64
    39cc:	ce 01       	movw	r24, r28
    39ce:	0f 96       	adiw	r24, 0x0f	; 15
    39d0:	0e 94 9e 20 	call	0x413c	; 0x413c <envia_frase>
    39d4:	6c 96       	adiw	r28, 0x1c	; 28
    39d6:	0f b6       	in	r0, 0x3f	; 63
    39d8:	f8 94       	cli
    39da:	de bf       	out	0x3e, r29	; 62
    39dc:	0f be       	out	0x3f, r0	; 63
    39de:	cd bf       	out	0x3d, r28	; 61
    39e0:	df 91       	pop	r29
    39e2:	cf 91       	pop	r28
    39e4:	08 95       	ret

Disassembly of section .text.msg_ajusteTout:

000039e6 <msg_ajusteTout>:
    39e6:	cf 93       	push	r28
    39e8:	df 93       	push	r29
    39ea:	cd b7       	in	r28, 0x3d	; 61
    39ec:	de b7       	in	r29, 0x3e	; 62
    39ee:	6b 97       	sbiw	r28, 0x1b	; 27
    39f0:	0f b6       	in	r0, 0x3f	; 63
    39f2:	f8 94       	cli
    39f4:	de bf       	out	0x3e, r29	; 62
    39f6:	0f be       	out	0x3f, r0	; 63
    39f8:	cd bf       	out	0x3d, r28	; 61
    39fa:	0e 94 11 21 	call	0x4222	; 0x4222 <clear_Display>
    39fe:	21 ef       	ldi	r18, 0xF1	; 241
    3a00:	31 e0       	ldi	r19, 0x01	; 1
    3a02:	40 e0       	ldi	r20, 0x00	; 0
    3a04:	8e e0       	ldi	r24, 0x0E	; 14
    3a06:	f9 01       	movw	r30, r18
    3a08:	de 01       	movw	r26, r28
    3a0a:	11 96       	adiw	r26, 0x01	; 1
    3a0c:	74 2f       	mov	r23, r20
    3a0e:	0e 94 e4 20 	call	0x41c8	; 0x41c8 <__movmemx_qi>
    3a12:	60 e0       	ldi	r22, 0x00	; 0
    3a14:	ce 01       	movw	r24, r28
    3a16:	01 96       	adiw	r24, 0x01	; 1
    3a18:	0e 94 9e 20 	call	0x413c	; 0x413c <envia_frase>
    3a1c:	2f ef       	ldi	r18, 0xFF	; 255
    3a1e:	31 e0       	ldi	r19, 0x01	; 1
    3a20:	40 e0       	ldi	r20, 0x00	; 0
    3a22:	8d e0       	ldi	r24, 0x0D	; 13
    3a24:	f9 01       	movw	r30, r18
    3a26:	de 01       	movw	r26, r28
    3a28:	1f 96       	adiw	r26, 0x0f	; 15
    3a2a:	74 2f       	mov	r23, r20
    3a2c:	0e 94 e4 20 	call	0x41c8	; 0x41c8 <__movmemx_qi>
    3a30:	60 e4       	ldi	r22, 0x40	; 64
    3a32:	ce 01       	movw	r24, r28
    3a34:	0f 96       	adiw	r24, 0x0f	; 15
    3a36:	0e 94 9e 20 	call	0x413c	; 0x413c <envia_frase>
    3a3a:	6b 96       	adiw	r28, 0x1b	; 27
    3a3c:	0f b6       	in	r0, 0x3f	; 63
    3a3e:	f8 94       	cli
    3a40:	de bf       	out	0x3e, r29	; 62
    3a42:	0f be       	out	0x3f, r0	; 63
    3a44:	cd bf       	out	0x3d, r28	; 61
    3a46:	df 91       	pop	r29
    3a48:	cf 91       	pop	r28
    3a4a:	08 95       	ret

Disassembly of section .text.msg_time_sirene:

00003a4c <msg_time_sirene>:
    3a4c:	cf 93       	push	r28
    3a4e:	df 93       	push	r29
    3a50:	cd b7       	in	r28, 0x3d	; 61
    3a52:	de b7       	in	r29, 0x3e	; 62
    3a54:	6e 97       	sbiw	r28, 0x1e	; 30
    3a56:	0f b6       	in	r0, 0x3f	; 63
    3a58:	f8 94       	cli
    3a5a:	de bf       	out	0x3e, r29	; 62
    3a5c:	0f be       	out	0x3f, r0	; 63
    3a5e:	cd bf       	out	0x3d, r28	; 61
    3a60:	0e 94 11 21 	call	0x4222	; 0x4222 <clear_Display>
    3a64:	21 ef       	ldi	r18, 0xF1	; 241
    3a66:	31 e0       	ldi	r19, 0x01	; 1
    3a68:	40 e0       	ldi	r20, 0x00	; 0
    3a6a:	8e e0       	ldi	r24, 0x0E	; 14
    3a6c:	f9 01       	movw	r30, r18
    3a6e:	de 01       	movw	r26, r28
    3a70:	11 96       	adiw	r26, 0x01	; 1
    3a72:	74 2f       	mov	r23, r20
    3a74:	0e 94 e4 20 	call	0x41c8	; 0x41c8 <__movmemx_qi>
    3a78:	60 e0       	ldi	r22, 0x00	; 0
    3a7a:	ce 01       	movw	r24, r28
    3a7c:	01 96       	adiw	r24, 0x01	; 1
    3a7e:	0e 94 9e 20 	call	0x413c	; 0x413c <envia_frase>
    3a82:	2c e0       	ldi	r18, 0x0C	; 12
    3a84:	32 e0       	ldi	r19, 0x02	; 2
    3a86:	40 e0       	ldi	r20, 0x00	; 0
    3a88:	80 e1       	ldi	r24, 0x10	; 16
    3a8a:	f9 01       	movw	r30, r18
    3a8c:	de 01       	movw	r26, r28
    3a8e:	1f 96       	adiw	r26, 0x0f	; 15
    3a90:	74 2f       	mov	r23, r20
    3a92:	0e 94 e4 20 	call	0x41c8	; 0x41c8 <__movmemx_qi>
    3a96:	60 e4       	ldi	r22, 0x40	; 64
    3a98:	ce 01       	movw	r24, r28
    3a9a:	0f 96       	adiw	r24, 0x0f	; 15
    3a9c:	0e 94 9e 20 	call	0x413c	; 0x413c <envia_frase>
    3aa0:	6e 96       	adiw	r28, 0x1e	; 30
    3aa2:	0f b6       	in	r0, 0x3f	; 63
    3aa4:	f8 94       	cli
    3aa6:	de bf       	out	0x3e, r29	; 62
    3aa8:	0f be       	out	0x3f, r0	; 63
    3aaa:	cd bf       	out	0x3d, r28	; 61
    3aac:	df 91       	pop	r29
    3aae:	cf 91       	pop	r28
    3ab0:	08 95       	ret

Disassembly of section .text.msg_temp_ativ:

00003ab2 <msg_temp_ativ>:
    3ab2:	cf 93       	push	r28
    3ab4:	df 93       	push	r29
    3ab6:	cd b7       	in	r28, 0x3d	; 61
    3ab8:	de b7       	in	r29, 0x3e	; 62
    3aba:	6c 97       	sbiw	r28, 0x1c	; 28
    3abc:	0f b6       	in	r0, 0x3f	; 63
    3abe:	f8 94       	cli
    3ac0:	de bf       	out	0x3e, r29	; 62
    3ac2:	0f be       	out	0x3f, r0	; 63
    3ac4:	cd bf       	out	0x3d, r28	; 61
    3ac6:	0e 94 11 21 	call	0x4222	; 0x4222 <clear_Display>
    3aca:	21 ef       	ldi	r18, 0xF1	; 241
    3acc:	31 e0       	ldi	r19, 0x01	; 1
    3ace:	40 e0       	ldi	r20, 0x00	; 0
    3ad0:	8e e0       	ldi	r24, 0x0E	; 14
    3ad2:	f9 01       	movw	r30, r18
    3ad4:	de 01       	movw	r26, r28
    3ad6:	11 96       	adiw	r26, 0x01	; 1
    3ad8:	74 2f       	mov	r23, r20
    3ada:	0e 94 e4 20 	call	0x41c8	; 0x41c8 <__movmemx_qi>
    3ade:	60 e0       	ldi	r22, 0x00	; 0
    3ae0:	ce 01       	movw	r24, r28
    3ae2:	01 96       	adiw	r24, 0x01	; 1
    3ae4:	0e 94 9e 20 	call	0x413c	; 0x413c <envia_frase>
    3ae8:	2c e1       	ldi	r18, 0x1C	; 28
    3aea:	32 e0       	ldi	r19, 0x02	; 2
    3aec:	40 e0       	ldi	r20, 0x00	; 0
    3aee:	8e e0       	ldi	r24, 0x0E	; 14
    3af0:	f9 01       	movw	r30, r18
    3af2:	de 01       	movw	r26, r28
    3af4:	1f 96       	adiw	r26, 0x0f	; 15
    3af6:	74 2f       	mov	r23, r20
    3af8:	0e 94 e4 20 	call	0x41c8	; 0x41c8 <__movmemx_qi>
    3afc:	60 e4       	ldi	r22, 0x40	; 64
    3afe:	ce 01       	movw	r24, r28
    3b00:	0f 96       	adiw	r24, 0x0f	; 15
    3b02:	0e 94 9e 20 	call	0x413c	; 0x413c <envia_frase>
    3b06:	6c 96       	adiw	r28, 0x1c	; 28
    3b08:	0f b6       	in	r0, 0x3f	; 63
    3b0a:	f8 94       	cli
    3b0c:	de bf       	out	0x3e, r29	; 62
    3b0e:	0f be       	out	0x3f, r0	; 63
    3b10:	cd bf       	out	0x3d, r28	; 61
    3b12:	df 91       	pop	r29
    3b14:	cf 91       	pop	r28
    3b16:	08 95       	ret

Disassembly of section .text.insert_senha:

00004236 <insert_senha>:
    4236:	e4 2f       	mov	r30, r20
    4238:	f5 2f       	mov	r31, r21
    423a:	24 91       	lpm	r18, Z
    423c:	67 fd       	sbrc	r22, 7
    423e:	20 81       	ld	r18, Z
    4240:	8f 5c       	subi	r24, 0xCF	; 207
    4242:	9e 4f       	sbci	r25, 0xFE	; 254
    4244:	fc 01       	movw	r30, r24
    4246:	20 83       	st	Z, r18
    4248:	08 95       	ret

Disassembly of section .text.senha_arm:

00003ce2 <senha_arm>:
    3ce2:	20 91 29 01 	lds	r18, 0x0129	; 0x800129 <addr_senha>
    3ce6:	30 91 2a 01 	lds	r19, 0x012A	; 0x80012a <addr_senha+0x1>
    3cea:	21 30       	cpi	r18, 0x01	; 1
    3cec:	31 05       	cpc	r19, r1
    3cee:	49 f4       	brne	.+18     	; 0x3d02 <senha_arm+0x20>
    3cf0:	e4 2f       	mov	r30, r20
    3cf2:	f5 2f       	mov	r31, r21
    3cf4:	74 91       	lpm	r23, Z
    3cf6:	67 fd       	sbrc	r22, 7
    3cf8:	70 81       	ld	r23, Z
    3cfa:	fc 01       	movw	r30, r24
    3cfc:	e4 55       	subi	r30, 0x54	; 84
    3cfe:	fe 4f       	sbci	r31, 0xFE	; 254
    3d00:	70 83       	st	Z, r23
    3d02:	22 30       	cpi	r18, 0x02	; 2
    3d04:	31 05       	cpc	r19, r1
    3d06:	49 f4       	brne	.+18     	; 0x3d1a <senha_arm+0x38>
    3d08:	e4 2f       	mov	r30, r20
    3d0a:	f5 2f       	mov	r31, r21
    3d0c:	74 91       	lpm	r23, Z
    3d0e:	67 fd       	sbrc	r22, 7
    3d10:	70 81       	ld	r23, Z
    3d12:	fc 01       	movw	r30, r24
    3d14:	e9 55       	subi	r30, 0x59	; 89
    3d16:	fe 4f       	sbci	r31, 0xFE	; 254
    3d18:	70 83       	st	Z, r23
    3d1a:	23 30       	cpi	r18, 0x03	; 3
    3d1c:	31 05       	cpc	r19, r1
    3d1e:	49 f4       	brne	.+18     	; 0x3d32 <senha_arm+0x50>
    3d20:	e4 2f       	mov	r30, r20
    3d22:	f5 2f       	mov	r31, r21
    3d24:	24 91       	lpm	r18, Z
    3d26:	67 fd       	sbrc	r22, 7
    3d28:	20 81       	ld	r18, Z
    3d2a:	fc 01       	movw	r30, r24
    3d2c:	ee 55       	subi	r30, 0x5E	; 94
    3d2e:	fe 4f       	sbci	r31, 0xFE	; 254
    3d30:	20 83       	st	Z, r18
    3d32:	08 95       	ret

Disassembly of section .text.verify_senhaM:

00003416 <verify_senhaM>:
    3416:	10 92 d7 01 	sts	0x01D7, r1	; 0x8001d7 <cont_a+0x1>
    341a:	10 92 d6 01 	sts	0x01D6, r1	; 0x8001d6 <cont_a>
    341e:	10 92 d5 01 	sts	0x01D5, r1	; 0x8001d5 <cont_b+0x1>
    3422:	10 92 d4 01 	sts	0x01D4, r1	; 0x8001d4 <cont_b>
    3426:	15 c0       	rjmp	.+42     	; 0x3452 <verify_senhaM+0x3c>
    3428:	fc 01       	movw	r30, r24
    342a:	ef 5c       	subi	r30, 0xCF	; 207
    342c:	fe 4f       	sbci	r31, 0xFE	; 254
    342e:	30 81       	ld	r19, Z
    3430:	23 13       	cpse	r18, r19
    3432:	0a c0       	rjmp	.+20     	; 0x3448 <verify_senhaM+0x32>
    3434:	20 91 d4 01 	lds	r18, 0x01D4	; 0x8001d4 <cont_b>
    3438:	30 91 d5 01 	lds	r19, 0x01D5	; 0x8001d5 <cont_b+0x1>
    343c:	2f 5f       	subi	r18, 0xFF	; 255
    343e:	3f 4f       	sbci	r19, 0xFF	; 255
    3440:	30 93 d5 01 	sts	0x01D5, r19	; 0x8001d5 <cont_b+0x1>
    3444:	20 93 d4 01 	sts	0x01D4, r18	; 0x8001d4 <cont_b>
    3448:	01 96       	adiw	r24, 0x01	; 1
    344a:	90 93 d7 01 	sts	0x01D7, r25	; 0x8001d7 <cont_a+0x1>
    344e:	80 93 d6 01 	sts	0x01D6, r24	; 0x8001d6 <cont_a>
    3452:	80 91 d6 01 	lds	r24, 0x01D6	; 0x8001d6 <cont_a>
    3456:	90 91 d7 01 	lds	r25, 0x01D7	; 0x8001d7 <cont_a+0x1>
    345a:	fc 01       	movw	r30, r24
    345c:	ef 54       	subi	r30, 0x4F	; 79
    345e:	fe 4f       	sbci	r31, 0xFE	; 254
    3460:	20 81       	ld	r18, Z
    3462:	21 11       	cpse	r18, r1
    3464:	e1 cf       	rjmp	.-62     	; 0x3428 <verify_senhaM+0x12>
    3466:	80 91 d4 01 	lds	r24, 0x01D4	; 0x8001d4 <cont_b>
    346a:	90 91 d5 01 	lds	r25, 0x01D5	; 0x8001d5 <cont_b+0x1>
    346e:	04 97       	sbiw	r24, 0x04	; 4
    3470:	69 f4       	brne	.+26     	; 0x348c <verify_senhaM+0x76>
    3472:	10 92 07 01 	sts	0x0107, r1	; 0x800107 <User+0x1>
    3476:	10 92 06 01 	sts	0x0106, r1	; 0x800106 <User>
    347a:	87 e0       	ldi	r24, 0x07	; 7
    347c:	80 93 dc 01 	sts	0x01DC, r24	; 0x8001dc <state>
    3480:	80 e4       	ldi	r24, 0x40	; 64
    3482:	80 93 de 01 	sts	0x01DE, r24	; 0x8001de <varEscritaSerial>
    3486:	0e 94 11 21 	call	0x4222	; 0x4222 <clear_Display>
    348a:	08 95       	ret
    348c:	10 92 07 01 	sts	0x0107, r1	; 0x800107 <User+0x1>
    3490:	10 92 06 01 	sts	0x0106, r1	; 0x800106 <User>
    3494:	81 e0       	ldi	r24, 0x01	; 1
    3496:	80 93 dc 01 	sts	0x01DC, r24	; 0x8001dc <state>
    349a:	0e 94 11 21 	call	0x4222	; 0x4222 <clear_Display>
    349e:	0e 94 bd 1d 	call	0x3b7a	; 0x3b7a <msg_desativado>
    34a2:	08 95       	ret

Disassembly of section .text.hab_sensor:

00002f98 <hab_sensor>:
    2f98:	21 e0       	ldi	r18, 0x01	; 1
    2f9a:	30 e0       	ldi	r19, 0x00	; 0
    2f9c:	30 93 d3 01 	sts	0x01D3, r19	; 0x8001d3 <flag_sensor+0x1>
    2fa0:	20 93 d2 01 	sts	0x01D2, r18	; 0x8001d2 <flag_sensor>
    2fa4:	20 91 d0 01 	lds	r18, 0x01D0	; 0x8001d0 <flag_D_sensor>
    2fa8:	30 91 d1 01 	lds	r19, 0x01D1	; 0x8001d1 <flag_D_sensor+0x1>
    2fac:	21 15       	cp	r18, r1
    2fae:	31 05       	cpc	r19, r1
    2fb0:	09 f0       	breq	.+2      	; 0x2fb4 <hab_sensor+0x1c>
    2fb2:	4f c0       	rjmp	.+158    	; 0x3052 <hab_sensor+0xba>
    2fb4:	00 97       	sbiw	r24, 0x00	; 0
    2fb6:	39 f4       	brne	.+14     	; 0x2fc6 <hab_sensor+0x2e>
    2fb8:	81 e0       	ldi	r24, 0x01	; 1
    2fba:	90 e0       	ldi	r25, 0x00	; 0
    2fbc:	90 93 9f 01 	sts	0x019F, r25	; 0x80019f <sensor0+0x3>
    2fc0:	80 93 9e 01 	sts	0x019E, r24	; 0x80019e <sensor0+0x2>
    2fc4:	08 95       	ret
    2fc6:	81 30       	cpi	r24, 0x01	; 1
    2fc8:	91 05       	cpc	r25, r1
    2fca:	39 f4       	brne	.+14     	; 0x2fda <hab_sensor+0x42>
    2fcc:	81 e0       	ldi	r24, 0x01	; 1
    2fce:	90 e0       	ldi	r25, 0x00	; 0
    2fd0:	90 93 99 01 	sts	0x0199, r25	; 0x800199 <sensor1+0x3>
    2fd4:	80 93 98 01 	sts	0x0198, r24	; 0x800198 <sensor1+0x2>
    2fd8:	08 95       	ret
    2fda:	82 30       	cpi	r24, 0x02	; 2
    2fdc:	91 05       	cpc	r25, r1
    2fde:	39 f4       	brne	.+14     	; 0x2fee <hab_sensor+0x56>
    2fe0:	81 e0       	ldi	r24, 0x01	; 1
    2fe2:	90 e0       	ldi	r25, 0x00	; 0
    2fe4:	90 93 93 01 	sts	0x0193, r25	; 0x800193 <sensor2+0x3>
    2fe8:	80 93 92 01 	sts	0x0192, r24	; 0x800192 <sensor2+0x2>
    2fec:	08 95       	ret
    2fee:	83 30       	cpi	r24, 0x03	; 3
    2ff0:	91 05       	cpc	r25, r1
    2ff2:	39 f4       	brne	.+14     	; 0x3002 <hab_sensor+0x6a>
    2ff4:	81 e0       	ldi	r24, 0x01	; 1
    2ff6:	90 e0       	ldi	r25, 0x00	; 0
    2ff8:	90 93 8d 01 	sts	0x018D, r25	; 0x80018d <sensor3+0x3>
    2ffc:	80 93 8c 01 	sts	0x018C, r24	; 0x80018c <sensor3+0x2>
    3000:	08 95       	ret
    3002:	84 30       	cpi	r24, 0x04	; 4
    3004:	91 05       	cpc	r25, r1
    3006:	39 f4       	brne	.+14     	; 0x3016 <hab_sensor+0x7e>
    3008:	81 e0       	ldi	r24, 0x01	; 1
    300a:	90 e0       	ldi	r25, 0x00	; 0
    300c:	90 93 87 01 	sts	0x0187, r25	; 0x800187 <sensor4+0x3>
    3010:	80 93 86 01 	sts	0x0186, r24	; 0x800186 <sensor4+0x2>
    3014:	08 95       	ret
    3016:	85 30       	cpi	r24, 0x05	; 5
    3018:	91 05       	cpc	r25, r1
    301a:	39 f4       	brne	.+14     	; 0x302a <hab_sensor+0x92>
    301c:	81 e0       	ldi	r24, 0x01	; 1
    301e:	90 e0       	ldi	r25, 0x00	; 0
    3020:	90 93 81 01 	sts	0x0181, r25	; 0x800181 <sensor5+0x3>
    3024:	80 93 80 01 	sts	0x0180, r24	; 0x800180 <sensor5+0x2>
    3028:	08 95       	ret
    302a:	86 30       	cpi	r24, 0x06	; 6
    302c:	91 05       	cpc	r25, r1
    302e:	39 f4       	brne	.+14     	; 0x303e <hab_sensor+0xa6>
    3030:	81 e0       	ldi	r24, 0x01	; 1
    3032:	90 e0       	ldi	r25, 0x00	; 0
    3034:	90 93 7b 01 	sts	0x017B, r25	; 0x80017b <sensor6+0x3>
    3038:	80 93 7a 01 	sts	0x017A, r24	; 0x80017a <sensor6+0x2>
    303c:	08 95       	ret
    303e:	07 97       	sbiw	r24, 0x07	; 7
    3040:	09 f0       	breq	.+2      	; 0x3044 <hab_sensor+0xac>
    3042:	4c c0       	rjmp	.+152    	; 0x30dc <hab_sensor+0x144>
    3044:	81 e0       	ldi	r24, 0x01	; 1
    3046:	90 e0       	ldi	r25, 0x00	; 0
    3048:	90 93 75 01 	sts	0x0175, r25	; 0x800175 <sensor7+0x3>
    304c:	80 93 74 01 	sts	0x0174, r24	; 0x800174 <sensor7+0x2>
    3050:	08 95       	ret
    3052:	21 30       	cpi	r18, 0x01	; 1
    3054:	31 05       	cpc	r19, r1
    3056:	09 f0       	breq	.+2      	; 0x305a <hab_sensor+0xc2>
    3058:	41 c0       	rjmp	.+130    	; 0x30dc <hab_sensor+0x144>
    305a:	00 97       	sbiw	r24, 0x00	; 0
    305c:	29 f4       	brne	.+10     	; 0x3068 <hab_sensor+0xd0>
    305e:	10 92 9f 01 	sts	0x019F, r1	; 0x80019f <sensor0+0x3>
    3062:	10 92 9e 01 	sts	0x019E, r1	; 0x80019e <sensor0+0x2>
    3066:	36 c0       	rjmp	.+108    	; 0x30d4 <hab_sensor+0x13c>
    3068:	81 30       	cpi	r24, 0x01	; 1
    306a:	91 05       	cpc	r25, r1
    306c:	29 f4       	brne	.+10     	; 0x3078 <hab_sensor+0xe0>
    306e:	10 92 99 01 	sts	0x0199, r1	; 0x800199 <sensor1+0x3>
    3072:	10 92 98 01 	sts	0x0198, r1	; 0x800198 <sensor1+0x2>
    3076:	2e c0       	rjmp	.+92     	; 0x30d4 <hab_sensor+0x13c>
    3078:	82 30       	cpi	r24, 0x02	; 2
    307a:	91 05       	cpc	r25, r1
    307c:	29 f4       	brne	.+10     	; 0x3088 <hab_sensor+0xf0>
    307e:	10 92 93 01 	sts	0x0193, r1	; 0x800193 <sensor2+0x3>
    3082:	10 92 92 01 	sts	0x0192, r1	; 0x800192 <sensor2+0x2>
    3086:	26 c0       	rjmp	.+76     	; 0x30d4 <hab_sensor+0x13c>
    3088:	83 30       	cpi	r24, 0x03	; 3
    308a:	91 05       	cpc	r25, r1
    308c:	29 f4       	brne	.+10     	; 0x3098 <hab_sensor+0x100>
    308e:	10 92 8d 01 	sts	0x018D, r1	; 0x80018d <sensor3+0x3>
    3092:	10 92 8c 01 	sts	0x018C, r1	; 0x80018c <sensor3+0x2>
    3096:	1e c0       	rjmp	.+60     	; 0x30d4 <hab_sensor+0x13c>
    3098:	84 30       	cpi	r24, 0x04	; 4
    309a:	91 05       	cpc	r25, r1
    309c:	29 f4       	brne	.+10     	; 0x30a8 <hab_sensor+0x110>
    309e:	10 92 87 01 	sts	0x0187, r1	; 0x800187 <sensor4+0x3>
    30a2:	10 92 86 01 	sts	0x0186, r1	; 0x800186 <sensor4+0x2>
    30a6:	16 c0       	rjmp	.+44     	; 0x30d4 <hab_sensor+0x13c>
    30a8:	85 30       	cpi	r24, 0x05	; 5
    30aa:	91 05       	cpc	r25, r1
    30ac:	29 f4       	brne	.+10     	; 0x30b8 <hab_sensor+0x120>
    30ae:	10 92 81 01 	sts	0x0181, r1	; 0x800181 <sensor5+0x3>
    30b2:	10 92 80 01 	sts	0x0180, r1	; 0x800180 <sensor5+0x2>
    30b6:	0e c0       	rjmp	.+28     	; 0x30d4 <hab_sensor+0x13c>
    30b8:	86 30       	cpi	r24, 0x06	; 6
    30ba:	91 05       	cpc	r25, r1
    30bc:	29 f4       	brne	.+10     	; 0x30c8 <hab_sensor+0x130>
    30be:	10 92 7b 01 	sts	0x017B, r1	; 0x80017b <sensor6+0x3>
    30c2:	10 92 7a 01 	sts	0x017A, r1	; 0x80017a <sensor6+0x2>
    30c6:	06 c0       	rjmp	.+12     	; 0x30d4 <hab_sensor+0x13c>
    30c8:	07 97       	sbiw	r24, 0x07	; 7
    30ca:	21 f4       	brne	.+8      	; 0x30d4 <hab_sensor+0x13c>
    30cc:	10 92 75 01 	sts	0x0175, r1	; 0x800175 <sensor7+0x3>
    30d0:	10 92 74 01 	sts	0x0174, r1	; 0x800174 <sensor7+0x2>
    30d4:	10 92 d1 01 	sts	0x01D1, r1	; 0x8001d1 <flag_D_sensor+0x1>
    30d8:	10 92 d0 01 	sts	0x01D0, r1	; 0x8001d0 <flag_D_sensor>
    30dc:	08 95       	ret

Disassembly of section .text.hab_zonas:

000031f4 <hab_zonas>:
    31f4:	21 e0       	ldi	r18, 0x01	; 1
    31f6:	30 e0       	ldi	r19, 0x00	; 0
    31f8:	30 93 d3 01 	sts	0x01D3, r19	; 0x8001d3 <flag_sensor+0x1>
    31fc:	20 93 d2 01 	sts	0x01D2, r18	; 0x8001d2 <flag_sensor>
    3200:	20 91 d0 01 	lds	r18, 0x01D0	; 0x8001d0 <flag_D_sensor>
    3204:	30 91 d1 01 	lds	r19, 0x01D1	; 0x8001d1 <flag_D_sensor+0x1>
    3208:	21 15       	cp	r18, r1
    320a:	31 05       	cpc	r19, r1
    320c:	61 f5       	brne	.+88     	; 0x3266 <hab_zonas+0x72>
    320e:	81 30       	cpi	r24, 0x01	; 1
    3210:	91 05       	cpc	r25, r1
    3212:	61 f4       	brne	.+24     	; 0x322c <hab_zonas+0x38>
    3214:	81 e0       	ldi	r24, 0x01	; 1
    3216:	90 e0       	ldi	r25, 0x00	; 0
    3218:	90 93 61 01 	sts	0x0161, r25	; 0x800161 <zona1+0x3>
    321c:	80 93 60 01 	sts	0x0160, r24	; 0x800160 <zona1+0x2>
    3220:	80 91 13 01 	lds	r24, 0x0113	; 0x800113 <var_aux_1>
    3224:	80 62       	ori	r24, 0x20	; 32
    3226:	80 93 13 01 	sts	0x0113, r24	; 0x800113 <var_aux_1>
    322a:	08 95       	ret
    322c:	82 30       	cpi	r24, 0x02	; 2
    322e:	91 05       	cpc	r25, r1
    3230:	61 f4       	brne	.+24     	; 0x324a <hab_zonas+0x56>
    3232:	81 e0       	ldi	r24, 0x01	; 1
    3234:	90 e0       	ldi	r25, 0x00	; 0
    3236:	90 93 4d 01 	sts	0x014D, r25	; 0x80014d <zona2+0x3>
    323a:	80 93 4c 01 	sts	0x014C, r24	; 0x80014c <zona2+0x2>
    323e:	80 91 13 01 	lds	r24, 0x0113	; 0x800113 <var_aux_1>
    3242:	80 61       	ori	r24, 0x10	; 16
    3244:	80 93 13 01 	sts	0x0113, r24	; 0x800113 <var_aux_1>
    3248:	08 95       	ret
    324a:	03 97       	sbiw	r24, 0x03	; 3
    324c:	c1 f5       	brne	.+112    	; 0x32be <hab_zonas+0xca>
    324e:	81 e0       	ldi	r24, 0x01	; 1
    3250:	90 e0       	ldi	r25, 0x00	; 0
    3252:	90 93 39 01 	sts	0x0139, r25	; 0x800139 <_end+0x3>
    3256:	80 93 38 01 	sts	0x0138, r24	; 0x800138 <_end+0x2>
    325a:	80 91 13 01 	lds	r24, 0x0113	; 0x800113 <var_aux_1>
    325e:	88 60       	ori	r24, 0x08	; 8
    3260:	80 93 13 01 	sts	0x0113, r24	; 0x800113 <var_aux_1>
    3264:	08 95       	ret
    3266:	21 30       	cpi	r18, 0x01	; 1
    3268:	31 05       	cpc	r19, r1
    326a:	49 f5       	brne	.+82     	; 0x32be <hab_zonas+0xca>
    326c:	81 30       	cpi	r24, 0x01	; 1
    326e:	91 05       	cpc	r25, r1
    3270:	51 f4       	brne	.+20     	; 0x3286 <hab_zonas+0x92>
    3272:	10 92 61 01 	sts	0x0161, r1	; 0x800161 <zona1+0x3>
    3276:	10 92 60 01 	sts	0x0160, r1	; 0x800160 <zona1+0x2>
    327a:	80 91 13 01 	lds	r24, 0x0113	; 0x800113 <var_aux_1>
    327e:	8f 7d       	andi	r24, 0xDF	; 223
    3280:	80 93 13 01 	sts	0x0113, r24	; 0x800113 <var_aux_1>
    3284:	18 c0       	rjmp	.+48     	; 0x32b6 <hab_zonas+0xc2>
    3286:	82 30       	cpi	r24, 0x02	; 2
    3288:	91 05       	cpc	r25, r1
    328a:	51 f4       	brne	.+20     	; 0x32a0 <hab_zonas+0xac>
    328c:	10 92 4d 01 	sts	0x014D, r1	; 0x80014d <zona2+0x3>
    3290:	10 92 4c 01 	sts	0x014C, r1	; 0x80014c <zona2+0x2>
    3294:	80 91 13 01 	lds	r24, 0x0113	; 0x800113 <var_aux_1>
    3298:	8f 7e       	andi	r24, 0xEF	; 239
    329a:	80 93 13 01 	sts	0x0113, r24	; 0x800113 <var_aux_1>
    329e:	0b c0       	rjmp	.+22     	; 0x32b6 <hab_zonas+0xc2>
    32a0:	03 97       	sbiw	r24, 0x03	; 3
    32a2:	49 f4       	brne	.+18     	; 0x32b6 <hab_zonas+0xc2>
    32a4:	10 92 39 01 	sts	0x0139, r1	; 0x800139 <_end+0x3>
    32a8:	10 92 38 01 	sts	0x0138, r1	; 0x800138 <_end+0x2>
    32ac:	80 91 13 01 	lds	r24, 0x0113	; 0x800113 <var_aux_1>
    32b0:	87 7f       	andi	r24, 0xF7	; 247
    32b2:	80 93 13 01 	sts	0x0113, r24	; 0x800113 <var_aux_1>
    32b6:	10 92 d1 01 	sts	0x01D1, r1	; 0x8001d1 <flag_D_sensor+0x1>
    32ba:	10 92 d0 01 	sts	0x01D0, r1	; 0x8001d0 <flag_D_sensor>
    32be:	08 95       	ret

Disassembly of section .text.assSensorZona:

00002752 <assSensorZona>:
    2752:	20 91 d0 01 	lds	r18, 0x01D0	; 0x8001d0 <flag_D_sensor>
    2756:	30 91 d1 01 	lds	r19, 0x01D1	; 0x8001d1 <flag_D_sensor+0x1>
    275a:	21 15       	cp	r18, r1
    275c:	31 05       	cpc	r19, r1
    275e:	09 f0       	breq	.+2      	; 0x2762 <assSensorZona+0x10>
    2760:	64 c1       	rjmp	.+712    	; 0x2a2a <assSensorZona+0x2d8>
    2762:	61 30       	cpi	r22, 0x01	; 1
    2764:	71 05       	cpc	r23, r1
    2766:	09 f0       	breq	.+2      	; 0x276a <assSensorZona+0x18>
    2768:	68 c0       	rjmp	.+208    	; 0x283a <assSensorZona+0xe8>
    276a:	00 97       	sbiw	r24, 0x00	; 0
    276c:	51 f4       	brne	.+20     	; 0x2782 <assSensorZona+0x30>
    276e:	21 e0       	ldi	r18, 0x01	; 1
    2770:	30 e0       	ldi	r19, 0x00	; 0
    2772:	30 93 63 01 	sts	0x0163, r19	; 0x800163 <zona1+0x5>
    2776:	20 93 62 01 	sts	0x0162, r18	; 0x800162 <zona1+0x4>
    277a:	30 93 a1 01 	sts	0x01A1, r19	; 0x8001a1 <sensor0+0x5>
    277e:	20 93 a0 01 	sts	0x01A0, r18	; 0x8001a0 <sensor0+0x4>
    2782:	81 30       	cpi	r24, 0x01	; 1
    2784:	91 05       	cpc	r25, r1
    2786:	51 f4       	brne	.+20     	; 0x279c <assSensorZona+0x4a>
    2788:	21 e0       	ldi	r18, 0x01	; 1
    278a:	30 e0       	ldi	r19, 0x00	; 0
    278c:	30 93 65 01 	sts	0x0165, r19	; 0x800165 <zona1+0x7>
    2790:	20 93 64 01 	sts	0x0164, r18	; 0x800164 <zona1+0x6>
    2794:	30 93 9b 01 	sts	0x019B, r19	; 0x80019b <sensor1+0x5>
    2798:	20 93 9a 01 	sts	0x019A, r18	; 0x80019a <sensor1+0x4>
    279c:	82 30       	cpi	r24, 0x02	; 2
    279e:	91 05       	cpc	r25, r1
    27a0:	51 f4       	brne	.+20     	; 0x27b6 <assSensorZona+0x64>
    27a2:	21 e0       	ldi	r18, 0x01	; 1
    27a4:	30 e0       	ldi	r19, 0x00	; 0
    27a6:	30 93 67 01 	sts	0x0167, r19	; 0x800167 <zona1+0x9>
    27aa:	20 93 66 01 	sts	0x0166, r18	; 0x800166 <zona1+0x8>
    27ae:	30 93 95 01 	sts	0x0195, r19	; 0x800195 <sensor2+0x5>
    27b2:	20 93 94 01 	sts	0x0194, r18	; 0x800194 <sensor2+0x4>
    27b6:	83 30       	cpi	r24, 0x03	; 3
    27b8:	91 05       	cpc	r25, r1
    27ba:	51 f4       	brne	.+20     	; 0x27d0 <assSensorZona+0x7e>
    27bc:	21 e0       	ldi	r18, 0x01	; 1
    27be:	30 e0       	ldi	r19, 0x00	; 0
    27c0:	30 93 69 01 	sts	0x0169, r19	; 0x800169 <zona1+0xb>
    27c4:	20 93 68 01 	sts	0x0168, r18	; 0x800168 <zona1+0xa>
    27c8:	30 93 8f 01 	sts	0x018F, r19	; 0x80018f <sensor3+0x5>
    27cc:	20 93 8e 01 	sts	0x018E, r18	; 0x80018e <sensor3+0x4>
    27d0:	84 30       	cpi	r24, 0x04	; 4
    27d2:	91 05       	cpc	r25, r1
    27d4:	51 f4       	brne	.+20     	; 0x27ea <assSensorZona+0x98>
    27d6:	21 e0       	ldi	r18, 0x01	; 1
    27d8:	30 e0       	ldi	r19, 0x00	; 0
    27da:	30 93 6b 01 	sts	0x016B, r19	; 0x80016b <zona1+0xd>
    27de:	20 93 6a 01 	sts	0x016A, r18	; 0x80016a <zona1+0xc>
    27e2:	30 93 89 01 	sts	0x0189, r19	; 0x800189 <sensor4+0x5>
    27e6:	20 93 88 01 	sts	0x0188, r18	; 0x800188 <sensor4+0x4>
    27ea:	85 30       	cpi	r24, 0x05	; 5
    27ec:	91 05       	cpc	r25, r1
    27ee:	51 f4       	brne	.+20     	; 0x2804 <assSensorZona+0xb2>
    27f0:	21 e0       	ldi	r18, 0x01	; 1
    27f2:	30 e0       	ldi	r19, 0x00	; 0
    27f4:	30 93 6d 01 	sts	0x016D, r19	; 0x80016d <zona1+0xf>
    27f8:	20 93 6c 01 	sts	0x016C, r18	; 0x80016c <zona1+0xe>
    27fc:	30 93 83 01 	sts	0x0183, r19	; 0x800183 <sensor5+0x5>
    2800:	20 93 82 01 	sts	0x0182, r18	; 0x800182 <sensor5+0x4>
    2804:	86 30       	cpi	r24, 0x06	; 6
    2806:	91 05       	cpc	r25, r1
    2808:	51 f4       	brne	.+20     	; 0x281e <assSensorZona+0xcc>
    280a:	21 e0       	ldi	r18, 0x01	; 1
    280c:	30 e0       	ldi	r19, 0x00	; 0
    280e:	30 93 6f 01 	sts	0x016F, r19	; 0x80016f <zona1+0x11>
    2812:	20 93 6e 01 	sts	0x016E, r18	; 0x80016e <zona1+0x10>
    2816:	30 93 7d 01 	sts	0x017D, r19	; 0x80017d <sensor6+0x5>
    281a:	20 93 7c 01 	sts	0x017C, r18	; 0x80017c <sensor6+0x4>
    281e:	07 97       	sbiw	r24, 0x07	; 7
    2820:	09 f0       	breq	.+2      	; 0x2824 <assSensorZona+0xd2>
    2822:	b5 c1       	rjmp	.+874    	; 0x2b8e <assSensorZona+0x43c>
    2824:	81 e0       	ldi	r24, 0x01	; 1
    2826:	90 e0       	ldi	r25, 0x00	; 0
    2828:	90 93 71 01 	sts	0x0171, r25	; 0x800171 <zona1+0x13>
    282c:	80 93 70 01 	sts	0x0170, r24	; 0x800170 <zona1+0x12>
    2830:	90 93 77 01 	sts	0x0177, r25	; 0x800177 <sensor7+0x5>
    2834:	80 93 76 01 	sts	0x0176, r24	; 0x800176 <sensor7+0x4>
    2838:	08 95       	ret
    283a:	62 30       	cpi	r22, 0x02	; 2
    283c:	71 05       	cpc	r23, r1
    283e:	09 f0       	breq	.+2      	; 0x2842 <assSensorZona+0xf0>
    2840:	78 c0       	rjmp	.+240    	; 0x2932 <assSensorZona+0x1e0>
    2842:	00 97       	sbiw	r24, 0x00	; 0
    2844:	61 f4       	brne	.+24     	; 0x285e <assSensorZona+0x10c>
    2846:	21 e0       	ldi	r18, 0x01	; 1
    2848:	30 e0       	ldi	r19, 0x00	; 0
    284a:	30 93 63 01 	sts	0x0163, r19	; 0x800163 <zona1+0x5>
    284e:	20 93 62 01 	sts	0x0162, r18	; 0x800162 <zona1+0x4>
    2852:	22 e0       	ldi	r18, 0x02	; 2
    2854:	30 e0       	ldi	r19, 0x00	; 0
    2856:	30 93 a1 01 	sts	0x01A1, r19	; 0x8001a1 <sensor0+0x5>
    285a:	20 93 a0 01 	sts	0x01A0, r18	; 0x8001a0 <sensor0+0x4>
    285e:	81 30       	cpi	r24, 0x01	; 1
    2860:	91 05       	cpc	r25, r1
    2862:	61 f4       	brne	.+24     	; 0x287c <assSensorZona+0x12a>
    2864:	21 e0       	ldi	r18, 0x01	; 1
    2866:	30 e0       	ldi	r19, 0x00	; 0
    2868:	30 93 65 01 	sts	0x0165, r19	; 0x800165 <zona1+0x7>
    286c:	20 93 64 01 	sts	0x0164, r18	; 0x800164 <zona1+0x6>
    2870:	22 e0       	ldi	r18, 0x02	; 2
    2872:	30 e0       	ldi	r19, 0x00	; 0
    2874:	30 93 9b 01 	sts	0x019B, r19	; 0x80019b <sensor1+0x5>
    2878:	20 93 9a 01 	sts	0x019A, r18	; 0x80019a <sensor1+0x4>
    287c:	82 30       	cpi	r24, 0x02	; 2
    287e:	91 05       	cpc	r25, r1
    2880:	61 f4       	brne	.+24     	; 0x289a <assSensorZona+0x148>
    2882:	21 e0       	ldi	r18, 0x01	; 1
    2884:	30 e0       	ldi	r19, 0x00	; 0
    2886:	30 93 67 01 	sts	0x0167, r19	; 0x800167 <zona1+0x9>
    288a:	20 93 66 01 	sts	0x0166, r18	; 0x800166 <zona1+0x8>
    288e:	22 e0       	ldi	r18, 0x02	; 2
    2890:	30 e0       	ldi	r19, 0x00	; 0
    2892:	30 93 95 01 	sts	0x0195, r19	; 0x800195 <sensor2+0x5>
    2896:	20 93 94 01 	sts	0x0194, r18	; 0x800194 <sensor2+0x4>
    289a:	83 30       	cpi	r24, 0x03	; 3
    289c:	91 05       	cpc	r25, r1
    289e:	61 f4       	brne	.+24     	; 0x28b8 <assSensorZona+0x166>
    28a0:	21 e0       	ldi	r18, 0x01	; 1
    28a2:	30 e0       	ldi	r19, 0x00	; 0
    28a4:	30 93 69 01 	sts	0x0169, r19	; 0x800169 <zona1+0xb>
    28a8:	20 93 68 01 	sts	0x0168, r18	; 0x800168 <zona1+0xa>
    28ac:	22 e0       	ldi	r18, 0x02	; 2
    28ae:	30 e0       	ldi	r19, 0x00	; 0
    28b0:	30 93 8f 01 	sts	0x018F, r19	; 0x80018f <sensor3+0x5>
    28b4:	20 93 8e 01 	sts	0x018E, r18	; 0x80018e <sensor3+0x4>
    28b8:	84 30       	cpi	r24, 0x04	; 4
    28ba:	91 05       	cpc	r25, r1
    28bc:	61 f4       	brne	.+24     	; 0x28d6 <assSensorZona+0x184>
    28be:	21 e0       	ldi	r18, 0x01	; 1
    28c0:	30 e0       	ldi	r19, 0x00	; 0
    28c2:	30 93 6b 01 	sts	0x016B, r19	; 0x80016b <zona1+0xd>
    28c6:	20 93 6a 01 	sts	0x016A, r18	; 0x80016a <zona1+0xc>
    28ca:	22 e0       	ldi	r18, 0x02	; 2
    28cc:	30 e0       	ldi	r19, 0x00	; 0
    28ce:	30 93 89 01 	sts	0x0189, r19	; 0x800189 <sensor4+0x5>
    28d2:	20 93 88 01 	sts	0x0188, r18	; 0x800188 <sensor4+0x4>
    28d6:	85 30       	cpi	r24, 0x05	; 5
    28d8:	91 05       	cpc	r25, r1
    28da:	61 f4       	brne	.+24     	; 0x28f4 <assSensorZona+0x1a2>
    28dc:	21 e0       	ldi	r18, 0x01	; 1
    28de:	30 e0       	ldi	r19, 0x00	; 0
    28e0:	30 93 6d 01 	sts	0x016D, r19	; 0x80016d <zona1+0xf>
    28e4:	20 93 6c 01 	sts	0x016C, r18	; 0x80016c <zona1+0xe>
    28e8:	22 e0       	ldi	r18, 0x02	; 2
    28ea:	30 e0       	ldi	r19, 0x00	; 0
    28ec:	30 93 83 01 	sts	0x0183, r19	; 0x800183 <sensor5+0x5>
    28f0:	20 93 82 01 	sts	0x0182, r18	; 0x800182 <sensor5+0x4>
    28f4:	86 30       	cpi	r24, 0x06	; 6
    28f6:	91 05       	cpc	r25, r1
    28f8:	61 f4       	brne	.+24     	; 0x2912 <assSensorZona+0x1c0>
    28fa:	21 e0       	ldi	r18, 0x01	; 1
    28fc:	30 e0       	ldi	r19, 0x00	; 0
    28fe:	30 93 6f 01 	sts	0x016F, r19	; 0x80016f <zona1+0x11>
    2902:	20 93 6e 01 	sts	0x016E, r18	; 0x80016e <zona1+0x10>
    2906:	22 e0       	ldi	r18, 0x02	; 2
    2908:	30 e0       	ldi	r19, 0x00	; 0
    290a:	30 93 7d 01 	sts	0x017D, r19	; 0x80017d <sensor6+0x5>
    290e:	20 93 7c 01 	sts	0x017C, r18	; 0x80017c <sensor6+0x4>
    2912:	07 97       	sbiw	r24, 0x07	; 7
    2914:	09 f0       	breq	.+2      	; 0x2918 <assSensorZona+0x1c6>
    2916:	3b c1       	rjmp	.+630    	; 0x2b8e <assSensorZona+0x43c>
    2918:	81 e0       	ldi	r24, 0x01	; 1
    291a:	90 e0       	ldi	r25, 0x00	; 0
    291c:	90 93 71 01 	sts	0x0171, r25	; 0x800171 <zona1+0x13>
    2920:	80 93 70 01 	sts	0x0170, r24	; 0x800170 <zona1+0x12>
    2924:	82 e0       	ldi	r24, 0x02	; 2
    2926:	90 e0       	ldi	r25, 0x00	; 0
    2928:	90 93 77 01 	sts	0x0177, r25	; 0x800177 <sensor7+0x5>
    292c:	80 93 76 01 	sts	0x0176, r24	; 0x800176 <sensor7+0x4>
    2930:	08 95       	ret
    2932:	63 30       	cpi	r22, 0x03	; 3
    2934:	71 05       	cpc	r23, r1
    2936:	09 f0       	breq	.+2      	; 0x293a <assSensorZona+0x1e8>
    2938:	2a c1       	rjmp	.+596    	; 0x2b8e <assSensorZona+0x43c>
    293a:	00 97       	sbiw	r24, 0x00	; 0
    293c:	61 f4       	brne	.+24     	; 0x2956 <assSensorZona+0x204>
    293e:	21 e0       	ldi	r18, 0x01	; 1
    2940:	30 e0       	ldi	r19, 0x00	; 0
    2942:	30 93 63 01 	sts	0x0163, r19	; 0x800163 <zona1+0x5>
    2946:	20 93 62 01 	sts	0x0162, r18	; 0x800162 <zona1+0x4>
    294a:	23 e0       	ldi	r18, 0x03	; 3
    294c:	30 e0       	ldi	r19, 0x00	; 0
    294e:	30 93 a1 01 	sts	0x01A1, r19	; 0x8001a1 <sensor0+0x5>
    2952:	20 93 a0 01 	sts	0x01A0, r18	; 0x8001a0 <sensor0+0x4>
    2956:	81 30       	cpi	r24, 0x01	; 1
    2958:	91 05       	cpc	r25, r1
    295a:	61 f4       	brne	.+24     	; 0x2974 <assSensorZona+0x222>
    295c:	21 e0       	ldi	r18, 0x01	; 1
    295e:	30 e0       	ldi	r19, 0x00	; 0
    2960:	30 93 65 01 	sts	0x0165, r19	; 0x800165 <zona1+0x7>
    2964:	20 93 64 01 	sts	0x0164, r18	; 0x800164 <zona1+0x6>
    2968:	23 e0       	ldi	r18, 0x03	; 3
    296a:	30 e0       	ldi	r19, 0x00	; 0
    296c:	30 93 9b 01 	sts	0x019B, r19	; 0x80019b <sensor1+0x5>
    2970:	20 93 9a 01 	sts	0x019A, r18	; 0x80019a <sensor1+0x4>
    2974:	82 30       	cpi	r24, 0x02	; 2
    2976:	91 05       	cpc	r25, r1
    2978:	61 f4       	brne	.+24     	; 0x2992 <assSensorZona+0x240>
    297a:	21 e0       	ldi	r18, 0x01	; 1
    297c:	30 e0       	ldi	r19, 0x00	; 0
    297e:	30 93 67 01 	sts	0x0167, r19	; 0x800167 <zona1+0x9>
    2982:	20 93 66 01 	sts	0x0166, r18	; 0x800166 <zona1+0x8>
    2986:	23 e0       	ldi	r18, 0x03	; 3
    2988:	30 e0       	ldi	r19, 0x00	; 0
    298a:	30 93 95 01 	sts	0x0195, r19	; 0x800195 <sensor2+0x5>
    298e:	20 93 94 01 	sts	0x0194, r18	; 0x800194 <sensor2+0x4>
    2992:	83 30       	cpi	r24, 0x03	; 3
    2994:	91 05       	cpc	r25, r1
    2996:	61 f4       	brne	.+24     	; 0x29b0 <assSensorZona+0x25e>
    2998:	21 e0       	ldi	r18, 0x01	; 1
    299a:	30 e0       	ldi	r19, 0x00	; 0
    299c:	30 93 69 01 	sts	0x0169, r19	; 0x800169 <zona1+0xb>
    29a0:	20 93 68 01 	sts	0x0168, r18	; 0x800168 <zona1+0xa>
    29a4:	23 e0       	ldi	r18, 0x03	; 3
    29a6:	30 e0       	ldi	r19, 0x00	; 0
    29a8:	30 93 8f 01 	sts	0x018F, r19	; 0x80018f <sensor3+0x5>
    29ac:	20 93 8e 01 	sts	0x018E, r18	; 0x80018e <sensor3+0x4>
    29b0:	84 30       	cpi	r24, 0x04	; 4
    29b2:	91 05       	cpc	r25, r1
    29b4:	61 f4       	brne	.+24     	; 0x29ce <assSensorZona+0x27c>
    29b6:	21 e0       	ldi	r18, 0x01	; 1
    29b8:	30 e0       	ldi	r19, 0x00	; 0
    29ba:	30 93 6b 01 	sts	0x016B, r19	; 0x80016b <zona1+0xd>
    29be:	20 93 6a 01 	sts	0x016A, r18	; 0x80016a <zona1+0xc>
    29c2:	23 e0       	ldi	r18, 0x03	; 3
    29c4:	30 e0       	ldi	r19, 0x00	; 0
    29c6:	30 93 89 01 	sts	0x0189, r19	; 0x800189 <sensor4+0x5>
    29ca:	20 93 88 01 	sts	0x0188, r18	; 0x800188 <sensor4+0x4>
    29ce:	85 30       	cpi	r24, 0x05	; 5
    29d0:	91 05       	cpc	r25, r1
    29d2:	61 f4       	brne	.+24     	; 0x29ec <assSensorZona+0x29a>
    29d4:	21 e0       	ldi	r18, 0x01	; 1
    29d6:	30 e0       	ldi	r19, 0x00	; 0
    29d8:	30 93 6d 01 	sts	0x016D, r19	; 0x80016d <zona1+0xf>
    29dc:	20 93 6c 01 	sts	0x016C, r18	; 0x80016c <zona1+0xe>
    29e0:	23 e0       	ldi	r18, 0x03	; 3
    29e2:	30 e0       	ldi	r19, 0x00	; 0
    29e4:	30 93 83 01 	sts	0x0183, r19	; 0x800183 <sensor5+0x5>
    29e8:	20 93 82 01 	sts	0x0182, r18	; 0x800182 <sensor5+0x4>
    29ec:	86 30       	cpi	r24, 0x06	; 6
    29ee:	91 05       	cpc	r25, r1
    29f0:	61 f4       	brne	.+24     	; 0x2a0a <assSensorZona+0x2b8>
    29f2:	21 e0       	ldi	r18, 0x01	; 1
    29f4:	30 e0       	ldi	r19, 0x00	; 0
    29f6:	30 93 6f 01 	sts	0x016F, r19	; 0x80016f <zona1+0x11>
    29fa:	20 93 6e 01 	sts	0x016E, r18	; 0x80016e <zona1+0x10>
    29fe:	23 e0       	ldi	r18, 0x03	; 3
    2a00:	30 e0       	ldi	r19, 0x00	; 0
    2a02:	30 93 7d 01 	sts	0x017D, r19	; 0x80017d <sensor6+0x5>
    2a06:	20 93 7c 01 	sts	0x017C, r18	; 0x80017c <sensor6+0x4>
    2a0a:	07 97       	sbiw	r24, 0x07	; 7
    2a0c:	09 f0       	breq	.+2      	; 0x2a10 <assSensorZona+0x2be>
    2a0e:	bf c0       	rjmp	.+382    	; 0x2b8e <assSensorZona+0x43c>
    2a10:	81 e0       	ldi	r24, 0x01	; 1
    2a12:	90 e0       	ldi	r25, 0x00	; 0
    2a14:	90 93 71 01 	sts	0x0171, r25	; 0x800171 <zona1+0x13>
    2a18:	80 93 70 01 	sts	0x0170, r24	; 0x800170 <zona1+0x12>
    2a1c:	83 e0       	ldi	r24, 0x03	; 3
    2a1e:	90 e0       	ldi	r25, 0x00	; 0
    2a20:	90 93 77 01 	sts	0x0177, r25	; 0x800177 <sensor7+0x5>
    2a24:	80 93 76 01 	sts	0x0176, r24	; 0x800176 <sensor7+0x4>
    2a28:	08 95       	ret
    2a2a:	21 30       	cpi	r18, 0x01	; 1
    2a2c:	31 05       	cpc	r19, r1
    2a2e:	09 f0       	breq	.+2      	; 0x2a32 <assSensorZona+0x2e0>
    2a30:	ae c0       	rjmp	.+348    	; 0x2b8e <assSensorZona+0x43c>
    2a32:	61 30       	cpi	r22, 0x01	; 1
    2a34:	71 05       	cpc	r23, r1
    2a36:	c1 f5       	brne	.+112    	; 0x2aa8 <assSensorZona+0x356>
    2a38:	00 97       	sbiw	r24, 0x00	; 0
    2a3a:	21 f4       	brne	.+8      	; 0x2a44 <assSensorZona+0x2f2>
    2a3c:	10 92 63 01 	sts	0x0163, r1	; 0x800163 <zona1+0x5>
    2a40:	10 92 62 01 	sts	0x0162, r1	; 0x800162 <zona1+0x4>
    2a44:	81 30       	cpi	r24, 0x01	; 1
    2a46:	91 05       	cpc	r25, r1
    2a48:	21 f4       	brne	.+8      	; 0x2a52 <assSensorZona+0x300>
    2a4a:	10 92 65 01 	sts	0x0165, r1	; 0x800165 <zona1+0x7>
    2a4e:	10 92 64 01 	sts	0x0164, r1	; 0x800164 <zona1+0x6>
    2a52:	82 30       	cpi	r24, 0x02	; 2
    2a54:	91 05       	cpc	r25, r1
    2a56:	21 f4       	brne	.+8      	; 0x2a60 <assSensorZona+0x30e>
    2a58:	10 92 67 01 	sts	0x0167, r1	; 0x800167 <zona1+0x9>
    2a5c:	10 92 66 01 	sts	0x0166, r1	; 0x800166 <zona1+0x8>
    2a60:	83 30       	cpi	r24, 0x03	; 3
    2a62:	91 05       	cpc	r25, r1
    2a64:	21 f4       	brne	.+8      	; 0x2a6e <assSensorZona+0x31c>
    2a66:	10 92 69 01 	sts	0x0169, r1	; 0x800169 <zona1+0xb>
    2a6a:	10 92 68 01 	sts	0x0168, r1	; 0x800168 <zona1+0xa>
    2a6e:	84 30       	cpi	r24, 0x04	; 4
    2a70:	91 05       	cpc	r25, r1
    2a72:	21 f4       	brne	.+8      	; 0x2a7c <assSensorZona+0x32a>
    2a74:	10 92 6b 01 	sts	0x016B, r1	; 0x80016b <zona1+0xd>
    2a78:	10 92 6a 01 	sts	0x016A, r1	; 0x80016a <zona1+0xc>
    2a7c:	85 30       	cpi	r24, 0x05	; 5
    2a7e:	91 05       	cpc	r25, r1
    2a80:	21 f4       	brne	.+8      	; 0x2a8a <assSensorZona+0x338>
    2a82:	10 92 6d 01 	sts	0x016D, r1	; 0x80016d <zona1+0xf>
    2a86:	10 92 6c 01 	sts	0x016C, r1	; 0x80016c <zona1+0xe>
    2a8a:	86 30       	cpi	r24, 0x06	; 6
    2a8c:	91 05       	cpc	r25, r1
    2a8e:	21 f4       	brne	.+8      	; 0x2a98 <assSensorZona+0x346>
    2a90:	10 92 6f 01 	sts	0x016F, r1	; 0x80016f <zona1+0x11>
    2a94:	10 92 6e 01 	sts	0x016E, r1	; 0x80016e <zona1+0x10>
    2a98:	07 97       	sbiw	r24, 0x07	; 7
    2a9a:	09 f0       	breq	.+2      	; 0x2a9e <assSensorZona+0x34c>
    2a9c:	78 c0       	rjmp	.+240    	; 0x2b8e <assSensorZona+0x43c>
    2a9e:	10 92 71 01 	sts	0x0171, r1	; 0x800171 <zona1+0x13>
    2aa2:	10 92 70 01 	sts	0x0170, r1	; 0x800170 <zona1+0x12>
    2aa6:	08 95       	ret
    2aa8:	62 30       	cpi	r22, 0x02	; 2
    2aaa:	71 05       	cpc	r23, r1
    2aac:	b9 f5       	brne	.+110    	; 0x2b1c <assSensorZona+0x3ca>
    2aae:	00 97       	sbiw	r24, 0x00	; 0
    2ab0:	21 f4       	brne	.+8      	; 0x2aba <assSensorZona+0x368>
    2ab2:	10 92 63 01 	sts	0x0163, r1	; 0x800163 <zona1+0x5>
    2ab6:	10 92 62 01 	sts	0x0162, r1	; 0x800162 <zona1+0x4>
    2aba:	81 30       	cpi	r24, 0x01	; 1
    2abc:	91 05       	cpc	r25, r1
    2abe:	21 f4       	brne	.+8      	; 0x2ac8 <assSensorZona+0x376>
    2ac0:	10 92 65 01 	sts	0x0165, r1	; 0x800165 <zona1+0x7>
    2ac4:	10 92 64 01 	sts	0x0164, r1	; 0x800164 <zona1+0x6>
    2ac8:	82 30       	cpi	r24, 0x02	; 2
    2aca:	91 05       	cpc	r25, r1
    2acc:	21 f4       	brne	.+8      	; 0x2ad6 <assSensorZona+0x384>
    2ace:	10 92 67 01 	sts	0x0167, r1	; 0x800167 <zona1+0x9>
    2ad2:	10 92 66 01 	sts	0x0166, r1	; 0x800166 <zona1+0x8>
    2ad6:	83 30       	cpi	r24, 0x03	; 3
    2ad8:	91 05       	cpc	r25, r1
    2ada:	21 f4       	brne	.+8      	; 0x2ae4 <assSensorZona+0x392>
    2adc:	10 92 69 01 	sts	0x0169, r1	; 0x800169 <zona1+0xb>
    2ae0:	10 92 68 01 	sts	0x0168, r1	; 0x800168 <zona1+0xa>
    2ae4:	84 30       	cpi	r24, 0x04	; 4
    2ae6:	91 05       	cpc	r25, r1
    2ae8:	21 f4       	brne	.+8      	; 0x2af2 <assSensorZona+0x3a0>
    2aea:	10 92 6b 01 	sts	0x016B, r1	; 0x80016b <zona1+0xd>
    2aee:	10 92 6a 01 	sts	0x016A, r1	; 0x80016a <zona1+0xc>
    2af2:	85 30       	cpi	r24, 0x05	; 5
    2af4:	91 05       	cpc	r25, r1
    2af6:	21 f4       	brne	.+8      	; 0x2b00 <assSensorZona+0x3ae>
    2af8:	10 92 6d 01 	sts	0x016D, r1	; 0x80016d <zona1+0xf>
    2afc:	10 92 6c 01 	sts	0x016C, r1	; 0x80016c <zona1+0xe>
    2b00:	86 30       	cpi	r24, 0x06	; 6
    2b02:	91 05       	cpc	r25, r1
    2b04:	21 f4       	brne	.+8      	; 0x2b0e <assSensorZona+0x3bc>
    2b06:	10 92 6f 01 	sts	0x016F, r1	; 0x80016f <zona1+0x11>
    2b0a:	10 92 6e 01 	sts	0x016E, r1	; 0x80016e <zona1+0x10>
    2b0e:	07 97       	sbiw	r24, 0x07	; 7
    2b10:	f1 f5       	brne	.+124    	; 0x2b8e <assSensorZona+0x43c>
    2b12:	10 92 71 01 	sts	0x0171, r1	; 0x800171 <zona1+0x13>
    2b16:	10 92 70 01 	sts	0x0170, r1	; 0x800170 <zona1+0x12>
    2b1a:	08 95       	ret
    2b1c:	63 30       	cpi	r22, 0x03	; 3
    2b1e:	71 05       	cpc	r23, r1
    2b20:	b1 f5       	brne	.+108    	; 0x2b8e <assSensorZona+0x43c>
    2b22:	00 97       	sbiw	r24, 0x00	; 0
    2b24:	21 f4       	brne	.+8      	; 0x2b2e <assSensorZona+0x3dc>
    2b26:	10 92 63 01 	sts	0x0163, r1	; 0x800163 <zona1+0x5>
    2b2a:	10 92 62 01 	sts	0x0162, r1	; 0x800162 <zona1+0x4>
    2b2e:	81 30       	cpi	r24, 0x01	; 1
    2b30:	91 05       	cpc	r25, r1
    2b32:	21 f4       	brne	.+8      	; 0x2b3c <assSensorZona+0x3ea>
    2b34:	10 92 65 01 	sts	0x0165, r1	; 0x800165 <zona1+0x7>
    2b38:	10 92 64 01 	sts	0x0164, r1	; 0x800164 <zona1+0x6>
    2b3c:	82 30       	cpi	r24, 0x02	; 2
    2b3e:	91 05       	cpc	r25, r1
    2b40:	21 f4       	brne	.+8      	; 0x2b4a <assSensorZona+0x3f8>
    2b42:	10 92 67 01 	sts	0x0167, r1	; 0x800167 <zona1+0x9>
    2b46:	10 92 66 01 	sts	0x0166, r1	; 0x800166 <zona1+0x8>
    2b4a:	83 30       	cpi	r24, 0x03	; 3
    2b4c:	91 05       	cpc	r25, r1
    2b4e:	21 f4       	brne	.+8      	; 0x2b58 <assSensorZona+0x406>
    2b50:	10 92 69 01 	sts	0x0169, r1	; 0x800169 <zona1+0xb>
    2b54:	10 92 68 01 	sts	0x0168, r1	; 0x800168 <zona1+0xa>
    2b58:	84 30       	cpi	r24, 0x04	; 4
    2b5a:	91 05       	cpc	r25, r1
    2b5c:	21 f4       	brne	.+8      	; 0x2b66 <assSensorZona+0x414>
    2b5e:	10 92 6b 01 	sts	0x016B, r1	; 0x80016b <zona1+0xd>
    2b62:	10 92 6a 01 	sts	0x016A, r1	; 0x80016a <zona1+0xc>
    2b66:	85 30       	cpi	r24, 0x05	; 5
    2b68:	91 05       	cpc	r25, r1
    2b6a:	21 f4       	brne	.+8      	; 0x2b74 <assSensorZona+0x422>
    2b6c:	10 92 6d 01 	sts	0x016D, r1	; 0x80016d <zona1+0xf>
    2b70:	10 92 6c 01 	sts	0x016C, r1	; 0x80016c <zona1+0xe>
    2b74:	86 30       	cpi	r24, 0x06	; 6
    2b76:	91 05       	cpc	r25, r1
    2b78:	21 f4       	brne	.+8      	; 0x2b82 <assSensorZona+0x430>
    2b7a:	10 92 6f 01 	sts	0x016F, r1	; 0x80016f <zona1+0x11>
    2b7e:	10 92 6e 01 	sts	0x016E, r1	; 0x80016e <zona1+0x10>
    2b82:	07 97       	sbiw	r24, 0x07	; 7
    2b84:	21 f4       	brne	.+8      	; 0x2b8e <assSensorZona+0x43c>
    2b86:	10 92 71 01 	sts	0x0171, r1	; 0x800171 <zona1+0x13>
    2b8a:	10 92 70 01 	sts	0x0170, r1	; 0x800170 <zona1+0x12>
    2b8e:	08 95       	ret

Disassembly of section .text.set_timeout:

000040dc <set_timeout>:
    40dc:	ed e0       	ldi	r30, 0x0D	; 13
    40de:	f1 e0       	ldi	r31, 0x01	; 1
    40e0:	80 81       	ld	r24, Z
    40e2:	91 81       	ldd	r25, Z+1	; 0x01
    40e4:	9c 01       	movw	r18, r24
    40e6:	22 0f       	add	r18, r18
    40e8:	33 1f       	adc	r19, r19
    40ea:	88 0f       	add	r24, r24
    40ec:	99 1f       	adc	r25, r25
    40ee:	88 0f       	add	r24, r24
    40f0:	99 1f       	adc	r25, r25
    40f2:	88 0f       	add	r24, r24
    40f4:	99 1f       	adc	r25, r25
    40f6:	82 0f       	add	r24, r18
    40f8:	93 1f       	adc	r25, r19
    40fa:	22 81       	ldd	r18, Z+2	; 0x02
    40fc:	33 81       	ldd	r19, Z+3	; 0x03
    40fe:	82 0f       	add	r24, r18
    4100:	93 1f       	adc	r25, r19
    4102:	90 93 12 01 	sts	0x0112, r25	; 0x800112 <timeout+0x1>
    4106:	80 93 11 01 	sts	0x0111, r24	; 0x800111 <timeout>
    410a:	08 95       	ret

Disassembly of section .text.set_timeA:

00003f48 <set_timeA>:
    3f48:	e3 e2       	ldi	r30, 0x23	; 35
    3f4a:	f1 e0       	ldi	r31, 0x01	; 1
    3f4c:	80 81       	ld	r24, Z
    3f4e:	91 81       	ldd	r25, Z+1	; 0x01
    3f50:	24 e6       	ldi	r18, 0x64	; 100
    3f52:	28 9f       	mul	r18, r24
    3f54:	a0 01       	movw	r20, r0
    3f56:	29 9f       	mul	r18, r25
    3f58:	50 0d       	add	r21, r0
    3f5a:	11 24       	eor	r1, r1
    3f5c:	82 81       	ldd	r24, Z+2	; 0x02
    3f5e:	93 81       	ldd	r25, Z+3	; 0x03
    3f60:	bc 01       	movw	r22, r24
    3f62:	66 0f       	add	r22, r22
    3f64:	77 1f       	adc	r23, r23
    3f66:	9c 01       	movw	r18, r24
    3f68:	22 0f       	add	r18, r18
    3f6a:	33 1f       	adc	r19, r19
    3f6c:	22 0f       	add	r18, r18
    3f6e:	33 1f       	adc	r19, r19
    3f70:	22 0f       	add	r18, r18
    3f72:	33 1f       	adc	r19, r19
    3f74:	cb 01       	movw	r24, r22
    3f76:	82 0f       	add	r24, r18
    3f78:	93 1f       	adc	r25, r19
    3f7a:	84 0f       	add	r24, r20
    3f7c:	95 1f       	adc	r25, r21
    3f7e:	24 81       	ldd	r18, Z+4	; 0x04
    3f80:	35 81       	ldd	r19, Z+5	; 0x05
    3f82:	82 0f       	add	r24, r18
    3f84:	93 1f       	adc	r25, r19
    3f86:	90 93 03 01 	sts	0x0103, r25	; 0x800103 <t_ativacao+0x1>
    3f8a:	80 93 02 01 	sts	0x0102, r24	; 0x800102 <t_ativacao>
    3f8e:	08 95       	ret

Disassembly of section .text.set_timeS:

00003f90 <set_timeS>:
    3f90:	eb e2       	ldi	r30, 0x2B	; 43
    3f92:	f1 e0       	ldi	r31, 0x01	; 1
    3f94:	80 81       	ld	r24, Z
    3f96:	91 81       	ldd	r25, Z+1	; 0x01
    3f98:	24 e6       	ldi	r18, 0x64	; 100
    3f9a:	28 9f       	mul	r18, r24
    3f9c:	a0 01       	movw	r20, r0
    3f9e:	29 9f       	mul	r18, r25
    3fa0:	50 0d       	add	r21, r0
    3fa2:	11 24       	eor	r1, r1
    3fa4:	82 81       	ldd	r24, Z+2	; 0x02
    3fa6:	93 81       	ldd	r25, Z+3	; 0x03
    3fa8:	bc 01       	movw	r22, r24
    3faa:	66 0f       	add	r22, r22
    3fac:	77 1f       	adc	r23, r23
    3fae:	9c 01       	movw	r18, r24
    3fb0:	22 0f       	add	r18, r18
    3fb2:	33 1f       	adc	r19, r19
    3fb4:	22 0f       	add	r18, r18
    3fb6:	33 1f       	adc	r19, r19
    3fb8:	22 0f       	add	r18, r18
    3fba:	33 1f       	adc	r19, r19
    3fbc:	cb 01       	movw	r24, r22
    3fbe:	82 0f       	add	r24, r18
    3fc0:	93 1f       	adc	r25, r19
    3fc2:	84 0f       	add	r24, r20
    3fc4:	95 1f       	adc	r25, r21
    3fc6:	24 81       	ldd	r18, Z+4	; 0x04
    3fc8:	35 81       	ldd	r19, Z+5	; 0x05
    3fca:	82 0f       	add	r24, r18
    3fcc:	93 1f       	adc	r25, r19
    3fce:	90 93 0b 01 	sts	0x010B, r25	; 0x80010b <t_sirene+0x1>
    3fd2:	80 93 0a 01 	sts	0x010A, r24	; 0x80010a <t_sirene>
    3fd6:	08 95       	ret

Disassembly of section .text.SetupTimer1:

00004168 <SetupTimer1>:
    4168:	e1 e8       	ldi	r30, 0x81	; 129
    416a:	f0 e0       	ldi	r31, 0x00	; 0
    416c:	80 81       	ld	r24, Z
    416e:	88 60       	ori	r24, 0x08	; 8
    4170:	80 83       	st	Z, r24
    4172:	ef e6       	ldi	r30, 0x6F	; 111
    4174:	f0 e0       	ldi	r31, 0x00	; 0
    4176:	80 81       	ld	r24, Z
    4178:	82 60       	ori	r24, 0x02	; 2
    417a:	80 83       	st	Z, r24
    417c:	82 e1       	ldi	r24, 0x12	; 18
    417e:	9a e7       	ldi	r25, 0x7A	; 122
    4180:	90 93 89 00 	sts	0x0089, r25	; 0x800089 <__TEXT_REGION_LENGTH__+0x7f8089>
    4184:	80 93 88 00 	sts	0x0088, r24	; 0x800088 <__TEXT_REGION_LENGTH__+0x7f8088>
    4188:	08 95       	ret

Disassembly of section .text.StartTimer1:

000042a2 <StartTimer1>:
    42a2:	e1 e8       	ldi	r30, 0x81	; 129
    42a4:	f0 e0       	ldi	r31, 0x00	; 0
    42a6:	80 81       	ld	r24, Z
    42a8:	84 60       	ori	r24, 0x04	; 4
    42aa:	80 83       	st	Z, r24
    42ac:	08 95       	ret

Disassembly of section .text.verify_senhaA:

00002dbc <verify_senhaA>:
    2dbc:	10 92 d7 01 	sts	0x01D7, r1	; 0x8001d7 <cont_a+0x1>
    2dc0:	10 92 d6 01 	sts	0x01D6, r1	; 0x8001d6 <cont_a>
    2dc4:	10 92 d5 01 	sts	0x01D5, r1	; 0x8001d5 <cont_b+0x1>
    2dc8:	10 92 d4 01 	sts	0x01D4, r1	; 0x8001d4 <cont_b>
    2dcc:	15 c0       	rjmp	.+42     	; 0x2df8 <verify_senhaA+0x3c>
    2dce:	fc 01       	movw	r30, r24
    2dd0:	ef 5c       	subi	r30, 0xCF	; 207
    2dd2:	fe 4f       	sbci	r31, 0xFE	; 254
    2dd4:	30 81       	ld	r19, Z
    2dd6:	23 13       	cpse	r18, r19
    2dd8:	0a c0       	rjmp	.+20     	; 0x2dee <verify_senhaA+0x32>
    2dda:	20 91 d4 01 	lds	r18, 0x01D4	; 0x8001d4 <cont_b>
    2dde:	30 91 d5 01 	lds	r19, 0x01D5	; 0x8001d5 <cont_b+0x1>
    2de2:	2f 5f       	subi	r18, 0xFF	; 255
    2de4:	3f 4f       	sbci	r19, 0xFF	; 255
    2de6:	30 93 d5 01 	sts	0x01D5, r19	; 0x8001d5 <cont_b+0x1>
    2dea:	20 93 d4 01 	sts	0x01D4, r18	; 0x8001d4 <cont_b>
    2dee:	01 96       	adiw	r24, 0x01	; 1
    2df0:	90 93 d7 01 	sts	0x01D7, r25	; 0x8001d7 <cont_a+0x1>
    2df4:	80 93 d6 01 	sts	0x01D6, r24	; 0x8001d6 <cont_a>
    2df8:	80 91 d6 01 	lds	r24, 0x01D6	; 0x8001d6 <cont_a>
    2dfc:	90 91 d7 01 	lds	r25, 0x01D7	; 0x8001d7 <cont_a+0x1>
    2e00:	fc 01       	movw	r30, r24
    2e02:	ef 54       	subi	r30, 0x4F	; 79
    2e04:	fe 4f       	sbci	r31, 0xFE	; 254
    2e06:	20 81       	ld	r18, Z
    2e08:	21 11       	cpse	r18, r1
    2e0a:	e1 cf       	rjmp	.-62     	; 0x2dce <verify_senhaA+0x12>
    2e0c:	80 91 d4 01 	lds	r24, 0x01D4	; 0x8001d4 <cont_b>
    2e10:	90 91 d5 01 	lds	r25, 0x01D5	; 0x8001d5 <cont_b+0x1>
    2e14:	04 97       	sbiw	r24, 0x04	; 4
    2e16:	49 f4       	brne	.+18     	; 0x2e2a <verify_senhaA+0x6e>
    2e18:	10 92 07 01 	sts	0x0107, r1	; 0x800107 <User+0x1>
    2e1c:	10 92 06 01 	sts	0x0106, r1	; 0x800106 <User>
    2e20:	0e 94 11 21 	call	0x4222	; 0x4222 <clear_Display>
    2e24:	0e 94 51 21 	call	0x42a2	; 0x42a2 <StartTimer1>
    2e28:	08 95       	ret
    2e2a:	10 92 d7 01 	sts	0x01D7, r1	; 0x8001d7 <cont_a+0x1>
    2e2e:	10 92 d6 01 	sts	0x01D6, r1	; 0x8001d6 <cont_a>
    2e32:	10 92 d5 01 	sts	0x01D5, r1	; 0x8001d5 <cont_b+0x1>
    2e36:	10 92 d4 01 	sts	0x01D4, r1	; 0x8001d4 <cont_b>
    2e3a:	15 c0       	rjmp	.+42     	; 0x2e66 <verify_senhaA+0xaa>
    2e3c:	fc 01       	movw	r30, r24
    2e3e:	ef 5c       	subi	r30, 0xCF	; 207
    2e40:	fe 4f       	sbci	r31, 0xFE	; 254
    2e42:	30 81       	ld	r19, Z
    2e44:	23 13       	cpse	r18, r19
    2e46:	0a c0       	rjmp	.+20     	; 0x2e5c <verify_senhaA+0xa0>
    2e48:	20 91 d4 01 	lds	r18, 0x01D4	; 0x8001d4 <cont_b>
    2e4c:	30 91 d5 01 	lds	r19, 0x01D5	; 0x8001d5 <cont_b+0x1>
    2e50:	2f 5f       	subi	r18, 0xFF	; 255
    2e52:	3f 4f       	sbci	r19, 0xFF	; 255
    2e54:	30 93 d5 01 	sts	0x01D5, r19	; 0x8001d5 <cont_b+0x1>
    2e58:	20 93 d4 01 	sts	0x01D4, r18	; 0x8001d4 <cont_b>
    2e5c:	01 96       	adiw	r24, 0x01	; 1
    2e5e:	90 93 d7 01 	sts	0x01D7, r25	; 0x8001d7 <cont_a+0x1>
    2e62:	80 93 d6 01 	sts	0x01D6, r24	; 0x8001d6 <cont_a>
    2e66:	80 91 d6 01 	lds	r24, 0x01D6	; 0x8001d6 <cont_a>
    2e6a:	90 91 d7 01 	lds	r25, 0x01D7	; 0x8001d7 <cont_a+0x1>
    2e6e:	fc 01       	movw	r30, r24
    2e70:	e4 55       	subi	r30, 0x54	; 84
    2e72:	fe 4f       	sbci	r31, 0xFE	; 254
    2e74:	20 81       	ld	r18, Z
    2e76:	21 11       	cpse	r18, r1
    2e78:	e1 cf       	rjmp	.-62     	; 0x2e3c <verify_senhaA+0x80>
    2e7a:	80 91 d4 01 	lds	r24, 0x01D4	; 0x8001d4 <cont_b>
    2e7e:	90 91 d5 01 	lds	r25, 0x01D5	; 0x8001d5 <cont_b+0x1>
    2e82:	04 97       	sbiw	r24, 0x04	; 4
    2e84:	59 f4       	brne	.+22     	; 0x2e9c <verify_senhaA+0xe0>
    2e86:	81 e0       	ldi	r24, 0x01	; 1
    2e88:	90 e0       	ldi	r25, 0x00	; 0
    2e8a:	90 93 07 01 	sts	0x0107, r25	; 0x800107 <User+0x1>
    2e8e:	80 93 06 01 	sts	0x0106, r24	; 0x800106 <User>
    2e92:	0e 94 11 21 	call	0x4222	; 0x4222 <clear_Display>
    2e96:	0e 94 51 21 	call	0x42a2	; 0x42a2 <StartTimer1>
    2e9a:	08 95       	ret
    2e9c:	10 92 d7 01 	sts	0x01D7, r1	; 0x8001d7 <cont_a+0x1>
    2ea0:	10 92 d6 01 	sts	0x01D6, r1	; 0x8001d6 <cont_a>
    2ea4:	10 92 d5 01 	sts	0x01D5, r1	; 0x8001d5 <cont_b+0x1>
    2ea8:	10 92 d4 01 	sts	0x01D4, r1	; 0x8001d4 <cont_b>
    2eac:	15 c0       	rjmp	.+42     	; 0x2ed8 <verify_senhaA+0x11c>
    2eae:	fc 01       	movw	r30, r24
    2eb0:	ef 5c       	subi	r30, 0xCF	; 207
    2eb2:	fe 4f       	sbci	r31, 0xFE	; 254
    2eb4:	30 81       	ld	r19, Z
    2eb6:	23 13       	cpse	r18, r19
    2eb8:	0a c0       	rjmp	.+20     	; 0x2ece <verify_senhaA+0x112>
    2eba:	20 91 d4 01 	lds	r18, 0x01D4	; 0x8001d4 <cont_b>
    2ebe:	30 91 d5 01 	lds	r19, 0x01D5	; 0x8001d5 <cont_b+0x1>
    2ec2:	2f 5f       	subi	r18, 0xFF	; 255
    2ec4:	3f 4f       	sbci	r19, 0xFF	; 255
    2ec6:	30 93 d5 01 	sts	0x01D5, r19	; 0x8001d5 <cont_b+0x1>
    2eca:	20 93 d4 01 	sts	0x01D4, r18	; 0x8001d4 <cont_b>
    2ece:	01 96       	adiw	r24, 0x01	; 1
    2ed0:	90 93 d7 01 	sts	0x01D7, r25	; 0x8001d7 <cont_a+0x1>
    2ed4:	80 93 d6 01 	sts	0x01D6, r24	; 0x8001d6 <cont_a>
    2ed8:	80 91 d6 01 	lds	r24, 0x01D6	; 0x8001d6 <cont_a>
    2edc:	90 91 d7 01 	lds	r25, 0x01D7	; 0x8001d7 <cont_a+0x1>
    2ee0:	fc 01       	movw	r30, r24
    2ee2:	e9 55       	subi	r30, 0x59	; 89
    2ee4:	fe 4f       	sbci	r31, 0xFE	; 254
    2ee6:	20 81       	ld	r18, Z
    2ee8:	21 11       	cpse	r18, r1
    2eea:	e1 cf       	rjmp	.-62     	; 0x2eae <verify_senhaA+0xf2>
    2eec:	80 91 d4 01 	lds	r24, 0x01D4	; 0x8001d4 <cont_b>
    2ef0:	90 91 d5 01 	lds	r25, 0x01D5	; 0x8001d5 <cont_b+0x1>
    2ef4:	04 97       	sbiw	r24, 0x04	; 4
    2ef6:	59 f4       	brne	.+22     	; 0x2f0e <verify_senhaA+0x152>
    2ef8:	82 e0       	ldi	r24, 0x02	; 2
    2efa:	90 e0       	ldi	r25, 0x00	; 0
    2efc:	90 93 07 01 	sts	0x0107, r25	; 0x800107 <User+0x1>
    2f00:	80 93 06 01 	sts	0x0106, r24	; 0x800106 <User>
    2f04:	0e 94 11 21 	call	0x4222	; 0x4222 <clear_Display>
    2f08:	0e 94 51 21 	call	0x42a2	; 0x42a2 <StartTimer1>
    2f0c:	08 95       	ret
    2f0e:	10 92 d7 01 	sts	0x01D7, r1	; 0x8001d7 <cont_a+0x1>
    2f12:	10 92 d6 01 	sts	0x01D6, r1	; 0x8001d6 <cont_a>
    2f16:	10 92 d5 01 	sts	0x01D5, r1	; 0x8001d5 <cont_b+0x1>
    2f1a:	10 92 d4 01 	sts	0x01D4, r1	; 0x8001d4 <cont_b>
    2f1e:	15 c0       	rjmp	.+42     	; 0x2f4a <verify_senhaA+0x18e>
    2f20:	fc 01       	movw	r30, r24
    2f22:	ef 5c       	subi	r30, 0xCF	; 207
    2f24:	fe 4f       	sbci	r31, 0xFE	; 254
    2f26:	30 81       	ld	r19, Z
    2f28:	23 13       	cpse	r18, r19
    2f2a:	0a c0       	rjmp	.+20     	; 0x2f40 <verify_senhaA+0x184>
    2f2c:	20 91 d4 01 	lds	r18, 0x01D4	; 0x8001d4 <cont_b>
    2f30:	30 91 d5 01 	lds	r19, 0x01D5	; 0x8001d5 <cont_b+0x1>
    2f34:	2f 5f       	subi	r18, 0xFF	; 255
    2f36:	3f 4f       	sbci	r19, 0xFF	; 255
    2f38:	30 93 d5 01 	sts	0x01D5, r19	; 0x8001d5 <cont_b+0x1>
    2f3c:	20 93 d4 01 	sts	0x01D4, r18	; 0x8001d4 <cont_b>
    2f40:	01 96       	adiw	r24, 0x01	; 1
    2f42:	90 93 d7 01 	sts	0x01D7, r25	; 0x8001d7 <cont_a+0x1>
    2f46:	80 93 d6 01 	sts	0x01D6, r24	; 0x8001d6 <cont_a>
    2f4a:	80 91 d6 01 	lds	r24, 0x01D6	; 0x8001d6 <cont_a>
    2f4e:	90 91 d7 01 	lds	r25, 0x01D7	; 0x8001d7 <cont_a+0x1>
    2f52:	fc 01       	movw	r30, r24
    2f54:	ee 55       	subi	r30, 0x5E	; 94
    2f56:	fe 4f       	sbci	r31, 0xFE	; 254
    2f58:	20 81       	ld	r18, Z
    2f5a:	21 11       	cpse	r18, r1
    2f5c:	e1 cf       	rjmp	.-62     	; 0x2f20 <verify_senhaA+0x164>
    2f5e:	80 91 d4 01 	lds	r24, 0x01D4	; 0x8001d4 <cont_b>
    2f62:	90 91 d5 01 	lds	r25, 0x01D5	; 0x8001d5 <cont_b+0x1>
    2f66:	04 97       	sbiw	r24, 0x04	; 4
    2f68:	59 f4       	brne	.+22     	; 0x2f80 <verify_senhaA+0x1c4>
    2f6a:	83 e0       	ldi	r24, 0x03	; 3
    2f6c:	90 e0       	ldi	r25, 0x00	; 0
    2f6e:	90 93 07 01 	sts	0x0107, r25	; 0x800107 <User+0x1>
    2f72:	80 93 06 01 	sts	0x0106, r24	; 0x800106 <User>
    2f76:	0e 94 11 21 	call	0x4222	; 0x4222 <clear_Display>
    2f7a:	0e 94 51 21 	call	0x42a2	; 0x42a2 <StartTimer1>
    2f7e:	08 95       	ret
    2f80:	10 92 07 01 	sts	0x0107, r1	; 0x800107 <User+0x1>
    2f84:	10 92 06 01 	sts	0x0106, r1	; 0x800106 <User>
    2f88:	81 e0       	ldi	r24, 0x01	; 1
    2f8a:	80 93 dc 01 	sts	0x01DC, r24	; 0x8001dc <state>
    2f8e:	0e 94 11 21 	call	0x4222	; 0x4222 <clear_Display>
    2f92:	0e 94 bd 1d 	call	0x3b7a	; 0x3b7a <msg_desativado>
    2f96:	08 95       	ret

Disassembly of section .text.StopTimer1:

0000424a <StopTimer1>:
    424a:	e1 e8       	ldi	r30, 0x81	; 129
    424c:	f0 e0       	ldi	r31, 0x00	; 0
    424e:	80 81       	ld	r24, Z
    4250:	88 7f       	andi	r24, 0xF8	; 248
    4252:	80 83       	st	Z, r24
    4254:	10 92 85 00 	sts	0x0085, r1	; 0x800085 <__TEXT_REGION_LENGTH__+0x7f8085>
    4258:	10 92 84 00 	sts	0x0084, r1	; 0x800084 <__TEXT_REGION_LENGTH__+0x7f8084>
    425c:	08 95       	ret

Disassembly of section .text.SetupTimer0:

00004284 <SetupTimer0>:
    4284:	84 b5       	in	r24, 0x24	; 36
    4286:	82 60       	ori	r24, 0x02	; 2
    4288:	84 bd       	out	0x24, r24	; 36
    428a:	ee e6       	ldi	r30, 0x6E	; 110
    428c:	f0 e0       	ldi	r31, 0x00	; 0
    428e:	80 81       	ld	r24, Z
    4290:	82 60       	ori	r24, 0x02	; 2
    4292:	80 83       	st	Z, r24
    4294:	08 95       	ret

Disassembly of section .text.ZerarTemps:

000041e2 <ZerarTemps>:
    41e2:	10 92 dd 01 	sts	0x01DD, r1	; 0x8001dd <cont_timeout>
    41e6:	10 92 c7 01 	sts	0x01C7, r1	; 0x8001c7 <cont_ativacao+0x1>
    41ea:	10 92 c6 01 	sts	0x01C6, r1	; 0x8001c6 <cont_ativacao>
    41ee:	10 92 c9 01 	sts	0x01C9, r1	; 0x8001c9 <cont_sirene+0x1>
    41f2:	10 92 c8 01 	sts	0x01C8, r1	; 0x8001c8 <cont_sirene>
    41f6:	08 95       	ret

Disassembly of section .text.StartSirene:

000042ba <StartSirene>:
    42ba:	8b b1       	in	r24, 0x0b	; 11
    42bc:	81 60       	ori	r24, 0x01	; 1
    42be:	8b b9       	out	0x0b, r24	; 11
    42c0:	08 95       	ret

Disassembly of section .text.activate_sirene:

00002262 <activate_sirene>:
    2262:	80 91 9e 01 	lds	r24, 0x019E	; 0x80019e <sensor0+0x2>
    2266:	90 91 9f 01 	lds	r25, 0x019F	; 0x80019f <sensor0+0x3>
    226a:	01 97       	sbiw	r24, 0x01	; 1
    226c:	09 f0       	breq	.+2      	; 0x2270 <activate_sirene+0xe>
    226e:	3e c0       	rjmp	.+124    	; 0x22ec <activate_sirene+0x8a>
    2270:	20 91 a0 01 	lds	r18, 0x01A0	; 0x8001a0 <sensor0+0x4>
    2274:	30 91 a1 01 	lds	r19, 0x01A1	; 0x8001a1 <sensor0+0x5>
    2278:	40 91 60 01 	lds	r20, 0x0160	; 0x800160 <zona1+0x2>
    227c:	50 91 61 01 	lds	r21, 0x0161	; 0x800161 <zona1+0x3>
    2280:	91 e0       	ldi	r25, 0x01	; 1
    2282:	21 30       	cpi	r18, 0x01	; 1
    2284:	31 05       	cpc	r19, r1
    2286:	09 f0       	breq	.+2      	; 0x228a <activate_sirene+0x28>
    2288:	90 e0       	ldi	r25, 0x00	; 0
    228a:	81 e0       	ldi	r24, 0x01	; 1
    228c:	41 30       	cpi	r20, 0x01	; 1
    228e:	51 05       	cpc	r21, r1
    2290:	09 f0       	breq	.+2      	; 0x2294 <activate_sirene+0x32>
    2292:	80 e0       	ldi	r24, 0x00	; 0
    2294:	89 23       	and	r24, r25
    2296:	19 f0       	breq	.+6      	; 0x229e <activate_sirene+0x3c>
    2298:	0e 94 5d 21 	call	0x42ba	; 0x42ba <StartSirene>
    229c:	08 95       	ret
    229e:	40 91 4c 01 	lds	r20, 0x014C	; 0x80014c <zona2+0x2>
    22a2:	50 91 4d 01 	lds	r21, 0x014D	; 0x80014d <zona2+0x3>
    22a6:	91 e0       	ldi	r25, 0x01	; 1
    22a8:	22 30       	cpi	r18, 0x02	; 2
    22aa:	31 05       	cpc	r19, r1
    22ac:	09 f0       	breq	.+2      	; 0x22b0 <activate_sirene+0x4e>
    22ae:	90 e0       	ldi	r25, 0x00	; 0
    22b0:	81 e0       	ldi	r24, 0x01	; 1
    22b2:	41 30       	cpi	r20, 0x01	; 1
    22b4:	51 05       	cpc	r21, r1
    22b6:	09 f0       	breq	.+2      	; 0x22ba <activate_sirene+0x58>
    22b8:	80 e0       	ldi	r24, 0x00	; 0
    22ba:	89 23       	and	r24, r25
    22bc:	19 f0       	breq	.+6      	; 0x22c4 <activate_sirene+0x62>
    22be:	0e 94 5d 21 	call	0x42ba	; 0x42ba <StartSirene>
    22c2:	08 95       	ret
    22c4:	40 91 38 01 	lds	r20, 0x0138	; 0x800138 <_end+0x2>
    22c8:	50 91 39 01 	lds	r21, 0x0139	; 0x800139 <_end+0x3>
    22cc:	91 e0       	ldi	r25, 0x01	; 1
    22ce:	23 30       	cpi	r18, 0x03	; 3
    22d0:	31 05       	cpc	r19, r1
    22d2:	09 f0       	breq	.+2      	; 0x22d6 <activate_sirene+0x74>
    22d4:	90 e0       	ldi	r25, 0x00	; 0
    22d6:	81 e0       	ldi	r24, 0x01	; 1
    22d8:	41 30       	cpi	r20, 0x01	; 1
    22da:	51 05       	cpc	r21, r1
    22dc:	09 f0       	breq	.+2      	; 0x22e0 <activate_sirene+0x7e>
    22de:	80 e0       	ldi	r24, 0x00	; 0
    22e0:	89 23       	and	r24, r25
    22e2:	09 f4       	brne	.+2      	; 0x22e6 <activate_sirene+0x84>
    22e4:	35 c2       	rjmp	.+1130   	; 0x2750 <activate_sirene+0x4ee>
    22e6:	0e 94 5d 21 	call	0x42ba	; 0x42ba <StartSirene>
    22ea:	08 95       	ret
    22ec:	40 91 98 01 	lds	r20, 0x0198	; 0x800198 <sensor1+0x2>
    22f0:	50 91 99 01 	lds	r21, 0x0199	; 0x800199 <sensor1+0x3>
    22f4:	90 91 df 01 	lds	r25, 0x01DF	; 0x8001df <varLeituraSerial>
    22f8:	39 2f       	mov	r19, r25
    22fa:	33 1f       	adc	r19, r19
    22fc:	33 27       	eor	r19, r19
    22fe:	33 1f       	adc	r19, r19
    2300:	21 e0       	ldi	r18, 0x01	; 1
    2302:	41 30       	cpi	r20, 0x01	; 1
    2304:	51 05       	cpc	r21, r1
    2306:	09 f0       	breq	.+2      	; 0x230a <activate_sirene+0xa8>
    2308:	20 e0       	ldi	r18, 0x00	; 0
    230a:	81 e0       	ldi	r24, 0x01	; 1
    230c:	31 11       	cpse	r19, r1
    230e:	80 e0       	ldi	r24, 0x00	; 0
    2310:	82 23       	and	r24, r18
    2312:	09 f4       	brne	.+2      	; 0x2316 <activate_sirene+0xb4>
    2314:	3e c0       	rjmp	.+124    	; 0x2392 <activate_sirene+0x130>
    2316:	20 91 9a 01 	lds	r18, 0x019A	; 0x80019a <sensor1+0x4>
    231a:	30 91 9b 01 	lds	r19, 0x019B	; 0x80019b <sensor1+0x5>
    231e:	40 91 60 01 	lds	r20, 0x0160	; 0x800160 <zona1+0x2>
    2322:	50 91 61 01 	lds	r21, 0x0161	; 0x800161 <zona1+0x3>
    2326:	91 e0       	ldi	r25, 0x01	; 1
    2328:	21 30       	cpi	r18, 0x01	; 1
    232a:	31 05       	cpc	r19, r1
    232c:	09 f0       	breq	.+2      	; 0x2330 <activate_sirene+0xce>
    232e:	90 e0       	ldi	r25, 0x00	; 0
    2330:	81 e0       	ldi	r24, 0x01	; 1
    2332:	41 30       	cpi	r20, 0x01	; 1
    2334:	51 05       	cpc	r21, r1
    2336:	09 f0       	breq	.+2      	; 0x233a <activate_sirene+0xd8>
    2338:	80 e0       	ldi	r24, 0x00	; 0
    233a:	89 23       	and	r24, r25
    233c:	19 f0       	breq	.+6      	; 0x2344 <activate_sirene+0xe2>
    233e:	0e 94 5d 21 	call	0x42ba	; 0x42ba <StartSirene>
    2342:	08 95       	ret
    2344:	40 91 4c 01 	lds	r20, 0x014C	; 0x80014c <zona2+0x2>
    2348:	50 91 4d 01 	lds	r21, 0x014D	; 0x80014d <zona2+0x3>
    234c:	91 e0       	ldi	r25, 0x01	; 1
    234e:	22 30       	cpi	r18, 0x02	; 2
    2350:	31 05       	cpc	r19, r1
    2352:	09 f0       	breq	.+2      	; 0x2356 <activate_sirene+0xf4>
    2354:	90 e0       	ldi	r25, 0x00	; 0
    2356:	81 e0       	ldi	r24, 0x01	; 1
    2358:	41 30       	cpi	r20, 0x01	; 1
    235a:	51 05       	cpc	r21, r1
    235c:	09 f0       	breq	.+2      	; 0x2360 <activate_sirene+0xfe>
    235e:	80 e0       	ldi	r24, 0x00	; 0
    2360:	89 23       	and	r24, r25
    2362:	19 f0       	breq	.+6      	; 0x236a <activate_sirene+0x108>
    2364:	0e 94 5d 21 	call	0x42ba	; 0x42ba <StartSirene>
    2368:	08 95       	ret
    236a:	40 91 38 01 	lds	r20, 0x0138	; 0x800138 <_end+0x2>
    236e:	50 91 39 01 	lds	r21, 0x0139	; 0x800139 <_end+0x3>
    2372:	91 e0       	ldi	r25, 0x01	; 1
    2374:	23 30       	cpi	r18, 0x03	; 3
    2376:	31 05       	cpc	r19, r1
    2378:	09 f0       	breq	.+2      	; 0x237c <activate_sirene+0x11a>
    237a:	90 e0       	ldi	r25, 0x00	; 0
    237c:	81 e0       	ldi	r24, 0x01	; 1
    237e:	41 30       	cpi	r20, 0x01	; 1
    2380:	51 05       	cpc	r21, r1
    2382:	09 f0       	breq	.+2      	; 0x2386 <activate_sirene+0x124>
    2384:	80 e0       	ldi	r24, 0x00	; 0
    2386:	89 23       	and	r24, r25
    2388:	09 f4       	brne	.+2      	; 0x238c <activate_sirene+0x12a>
    238a:	e2 c1       	rjmp	.+964    	; 0x2750 <activate_sirene+0x4ee>
    238c:	0e 94 5d 21 	call	0x42ba	; 0x42ba <StartSirene>
    2390:	08 95       	ret
    2392:	40 91 92 01 	lds	r20, 0x0192	; 0x800192 <sensor2+0x2>
    2396:	50 91 93 01 	lds	r21, 0x0193	; 0x800193 <sensor2+0x3>
    239a:	29 2f       	mov	r18, r25
    239c:	22 95       	swap	r18
    239e:	26 95       	lsr	r18
    23a0:	26 95       	lsr	r18
    23a2:	23 70       	andi	r18, 0x03	; 3
    23a4:	81 e0       	ldi	r24, 0x01	; 1
    23a6:	82 27       	eor	r24, r18
    23a8:	81 70       	andi	r24, 0x01	; 1
    23aa:	21 e0       	ldi	r18, 0x01	; 1
    23ac:	41 30       	cpi	r20, 0x01	; 1
    23ae:	51 05       	cpc	r21, r1
    23b0:	09 f0       	breq	.+2      	; 0x23b4 <activate_sirene+0x152>
    23b2:	20 e0       	ldi	r18, 0x00	; 0
    23b4:	82 23       	and	r24, r18
    23b6:	09 f4       	brne	.+2      	; 0x23ba <activate_sirene+0x158>
    23b8:	3e c0       	rjmp	.+124    	; 0x2436 <activate_sirene+0x1d4>
    23ba:	20 91 94 01 	lds	r18, 0x0194	; 0x800194 <sensor2+0x4>
    23be:	30 91 95 01 	lds	r19, 0x0195	; 0x800195 <sensor2+0x5>
    23c2:	40 91 60 01 	lds	r20, 0x0160	; 0x800160 <zona1+0x2>
    23c6:	50 91 61 01 	lds	r21, 0x0161	; 0x800161 <zona1+0x3>
    23ca:	91 e0       	ldi	r25, 0x01	; 1
    23cc:	21 30       	cpi	r18, 0x01	; 1
    23ce:	31 05       	cpc	r19, r1
    23d0:	09 f0       	breq	.+2      	; 0x23d4 <activate_sirene+0x172>
    23d2:	90 e0       	ldi	r25, 0x00	; 0
    23d4:	81 e0       	ldi	r24, 0x01	; 1
    23d6:	41 30       	cpi	r20, 0x01	; 1
    23d8:	51 05       	cpc	r21, r1
    23da:	09 f0       	breq	.+2      	; 0x23de <activate_sirene+0x17c>
    23dc:	80 e0       	ldi	r24, 0x00	; 0
    23de:	89 23       	and	r24, r25
    23e0:	19 f0       	breq	.+6      	; 0x23e8 <activate_sirene+0x186>
    23e2:	0e 94 5d 21 	call	0x42ba	; 0x42ba <StartSirene>
    23e6:	08 95       	ret
    23e8:	40 91 4c 01 	lds	r20, 0x014C	; 0x80014c <zona2+0x2>
    23ec:	50 91 4d 01 	lds	r21, 0x014D	; 0x80014d <zona2+0x3>
    23f0:	91 e0       	ldi	r25, 0x01	; 1
    23f2:	22 30       	cpi	r18, 0x02	; 2
    23f4:	31 05       	cpc	r19, r1
    23f6:	09 f0       	breq	.+2      	; 0x23fa <activate_sirene+0x198>
    23f8:	90 e0       	ldi	r25, 0x00	; 0
    23fa:	81 e0       	ldi	r24, 0x01	; 1
    23fc:	41 30       	cpi	r20, 0x01	; 1
    23fe:	51 05       	cpc	r21, r1
    2400:	09 f0       	breq	.+2      	; 0x2404 <activate_sirene+0x1a2>
    2402:	80 e0       	ldi	r24, 0x00	; 0
    2404:	89 23       	and	r24, r25
    2406:	19 f0       	breq	.+6      	; 0x240e <activate_sirene+0x1ac>
    2408:	0e 94 5d 21 	call	0x42ba	; 0x42ba <StartSirene>
    240c:	08 95       	ret
    240e:	40 91 38 01 	lds	r20, 0x0138	; 0x800138 <_end+0x2>
    2412:	50 91 39 01 	lds	r21, 0x0139	; 0x800139 <_end+0x3>
    2416:	91 e0       	ldi	r25, 0x01	; 1
    2418:	23 30       	cpi	r18, 0x03	; 3
    241a:	31 05       	cpc	r19, r1
    241c:	09 f0       	breq	.+2      	; 0x2420 <activate_sirene+0x1be>
    241e:	90 e0       	ldi	r25, 0x00	; 0
    2420:	81 e0       	ldi	r24, 0x01	; 1
    2422:	41 30       	cpi	r20, 0x01	; 1
    2424:	51 05       	cpc	r21, r1
    2426:	09 f0       	breq	.+2      	; 0x242a <activate_sirene+0x1c8>
    2428:	80 e0       	ldi	r24, 0x00	; 0
    242a:	89 23       	and	r24, r25
    242c:	09 f4       	brne	.+2      	; 0x2430 <activate_sirene+0x1ce>
    242e:	90 c1       	rjmp	.+800    	; 0x2750 <activate_sirene+0x4ee>
    2430:	0e 94 5d 21 	call	0x42ba	; 0x42ba <StartSirene>
    2434:	08 95       	ret
    2436:	40 91 8c 01 	lds	r20, 0x018C	; 0x80018c <sensor3+0x2>
    243a:	50 91 8d 01 	lds	r21, 0x018D	; 0x80018d <sensor3+0x3>
    243e:	29 2f       	mov	r18, r25
    2440:	22 95       	swap	r18
    2442:	26 95       	lsr	r18
    2444:	27 70       	andi	r18, 0x07	; 7
    2446:	81 e0       	ldi	r24, 0x01	; 1
    2448:	82 27       	eor	r24, r18
    244a:	81 70       	andi	r24, 0x01	; 1
    244c:	21 e0       	ldi	r18, 0x01	; 1
    244e:	41 30       	cpi	r20, 0x01	; 1
    2450:	51 05       	cpc	r21, r1
    2452:	09 f0       	breq	.+2      	; 0x2456 <activate_sirene+0x1f4>
    2454:	20 e0       	ldi	r18, 0x00	; 0
    2456:	82 23       	and	r24, r18
    2458:	09 f4       	brne	.+2      	; 0x245c <activate_sirene+0x1fa>
    245a:	3e c0       	rjmp	.+124    	; 0x24d8 <activate_sirene+0x276>
    245c:	20 91 8e 01 	lds	r18, 0x018E	; 0x80018e <sensor3+0x4>
    2460:	30 91 8f 01 	lds	r19, 0x018F	; 0x80018f <sensor3+0x5>
    2464:	40 91 60 01 	lds	r20, 0x0160	; 0x800160 <zona1+0x2>
    2468:	50 91 61 01 	lds	r21, 0x0161	; 0x800161 <zona1+0x3>
    246c:	91 e0       	ldi	r25, 0x01	; 1
    246e:	21 30       	cpi	r18, 0x01	; 1
    2470:	31 05       	cpc	r19, r1
    2472:	09 f0       	breq	.+2      	; 0x2476 <activate_sirene+0x214>
    2474:	90 e0       	ldi	r25, 0x00	; 0
    2476:	81 e0       	ldi	r24, 0x01	; 1
    2478:	41 30       	cpi	r20, 0x01	; 1
    247a:	51 05       	cpc	r21, r1
    247c:	09 f0       	breq	.+2      	; 0x2480 <activate_sirene+0x21e>
    247e:	80 e0       	ldi	r24, 0x00	; 0
    2480:	89 23       	and	r24, r25
    2482:	19 f0       	breq	.+6      	; 0x248a <activate_sirene+0x228>
    2484:	0e 94 5d 21 	call	0x42ba	; 0x42ba <StartSirene>
    2488:	08 95       	ret
    248a:	40 91 4c 01 	lds	r20, 0x014C	; 0x80014c <zona2+0x2>
    248e:	50 91 4d 01 	lds	r21, 0x014D	; 0x80014d <zona2+0x3>
    2492:	91 e0       	ldi	r25, 0x01	; 1
    2494:	22 30       	cpi	r18, 0x02	; 2
    2496:	31 05       	cpc	r19, r1
    2498:	09 f0       	breq	.+2      	; 0x249c <activate_sirene+0x23a>
    249a:	90 e0       	ldi	r25, 0x00	; 0
    249c:	81 e0       	ldi	r24, 0x01	; 1
    249e:	41 30       	cpi	r20, 0x01	; 1
    24a0:	51 05       	cpc	r21, r1
    24a2:	09 f0       	breq	.+2      	; 0x24a6 <activate_sirene+0x244>
    24a4:	80 e0       	ldi	r24, 0x00	; 0
    24a6:	89 23       	and	r24, r25
    24a8:	19 f0       	breq	.+6      	; 0x24b0 <activate_sirene+0x24e>
    24aa:	0e 94 5d 21 	call	0x42ba	; 0x42ba <StartSirene>
    24ae:	08 95       	ret
    24b0:	40 91 38 01 	lds	r20, 0x0138	; 0x800138 <_end+0x2>
    24b4:	50 91 39 01 	lds	r21, 0x0139	; 0x800139 <_end+0x3>
    24b8:	91 e0       	ldi	r25, 0x01	; 1
    24ba:	23 30       	cpi	r18, 0x03	; 3
    24bc:	31 05       	cpc	r19, r1
    24be:	09 f0       	breq	.+2      	; 0x24c2 <activate_sirene+0x260>
    24c0:	90 e0       	ldi	r25, 0x00	; 0
    24c2:	81 e0       	ldi	r24, 0x01	; 1
    24c4:	41 30       	cpi	r20, 0x01	; 1
    24c6:	51 05       	cpc	r21, r1
    24c8:	09 f0       	breq	.+2      	; 0x24cc <activate_sirene+0x26a>
    24ca:	80 e0       	ldi	r24, 0x00	; 0
    24cc:	89 23       	and	r24, r25
    24ce:	09 f4       	brne	.+2      	; 0x24d2 <activate_sirene+0x270>
    24d0:	3f c1       	rjmp	.+638    	; 0x2750 <activate_sirene+0x4ee>
    24d2:	0e 94 5d 21 	call	0x42ba	; 0x42ba <StartSirene>
    24d6:	08 95       	ret
    24d8:	40 91 86 01 	lds	r20, 0x0186	; 0x800186 <sensor4+0x2>
    24dc:	50 91 87 01 	lds	r21, 0x0187	; 0x800187 <sensor4+0x3>
    24e0:	29 2f       	mov	r18, r25
    24e2:	22 95       	swap	r18
    24e4:	2f 70       	andi	r18, 0x0F	; 15
    24e6:	81 e0       	ldi	r24, 0x01	; 1
    24e8:	82 27       	eor	r24, r18
    24ea:	81 70       	andi	r24, 0x01	; 1
    24ec:	21 e0       	ldi	r18, 0x01	; 1
    24ee:	41 30       	cpi	r20, 0x01	; 1
    24f0:	51 05       	cpc	r21, r1
    24f2:	09 f0       	breq	.+2      	; 0x24f6 <activate_sirene+0x294>
    24f4:	20 e0       	ldi	r18, 0x00	; 0
    24f6:	82 23       	and	r24, r18
    24f8:	09 f4       	brne	.+2      	; 0x24fc <activate_sirene+0x29a>
    24fa:	3e c0       	rjmp	.+124    	; 0x2578 <activate_sirene+0x316>
    24fc:	20 91 88 01 	lds	r18, 0x0188	; 0x800188 <sensor4+0x4>
    2500:	30 91 89 01 	lds	r19, 0x0189	; 0x800189 <sensor4+0x5>
    2504:	40 91 60 01 	lds	r20, 0x0160	; 0x800160 <zona1+0x2>
    2508:	50 91 61 01 	lds	r21, 0x0161	; 0x800161 <zona1+0x3>
    250c:	91 e0       	ldi	r25, 0x01	; 1
    250e:	21 30       	cpi	r18, 0x01	; 1
    2510:	31 05       	cpc	r19, r1
    2512:	09 f0       	breq	.+2      	; 0x2516 <activate_sirene+0x2b4>
    2514:	90 e0       	ldi	r25, 0x00	; 0
    2516:	81 e0       	ldi	r24, 0x01	; 1
    2518:	41 30       	cpi	r20, 0x01	; 1
    251a:	51 05       	cpc	r21, r1
    251c:	09 f0       	breq	.+2      	; 0x2520 <activate_sirene+0x2be>
    251e:	80 e0       	ldi	r24, 0x00	; 0
    2520:	89 23       	and	r24, r25
    2522:	19 f0       	breq	.+6      	; 0x252a <activate_sirene+0x2c8>
    2524:	0e 94 5d 21 	call	0x42ba	; 0x42ba <StartSirene>
    2528:	08 95       	ret
    252a:	40 91 4c 01 	lds	r20, 0x014C	; 0x80014c <zona2+0x2>
    252e:	50 91 4d 01 	lds	r21, 0x014D	; 0x80014d <zona2+0x3>
    2532:	91 e0       	ldi	r25, 0x01	; 1
    2534:	22 30       	cpi	r18, 0x02	; 2
    2536:	31 05       	cpc	r19, r1
    2538:	09 f0       	breq	.+2      	; 0x253c <activate_sirene+0x2da>
    253a:	90 e0       	ldi	r25, 0x00	; 0
    253c:	81 e0       	ldi	r24, 0x01	; 1
    253e:	41 30       	cpi	r20, 0x01	; 1
    2540:	51 05       	cpc	r21, r1
    2542:	09 f0       	breq	.+2      	; 0x2546 <activate_sirene+0x2e4>
    2544:	80 e0       	ldi	r24, 0x00	; 0
    2546:	89 23       	and	r24, r25
    2548:	19 f0       	breq	.+6      	; 0x2550 <activate_sirene+0x2ee>
    254a:	0e 94 5d 21 	call	0x42ba	; 0x42ba <StartSirene>
    254e:	08 95       	ret
    2550:	40 91 38 01 	lds	r20, 0x0138	; 0x800138 <_end+0x2>
    2554:	50 91 39 01 	lds	r21, 0x0139	; 0x800139 <_end+0x3>
    2558:	91 e0       	ldi	r25, 0x01	; 1
    255a:	23 30       	cpi	r18, 0x03	; 3
    255c:	31 05       	cpc	r19, r1
    255e:	09 f0       	breq	.+2      	; 0x2562 <activate_sirene+0x300>
    2560:	90 e0       	ldi	r25, 0x00	; 0
    2562:	81 e0       	ldi	r24, 0x01	; 1
    2564:	41 30       	cpi	r20, 0x01	; 1
    2566:	51 05       	cpc	r21, r1
    2568:	09 f0       	breq	.+2      	; 0x256c <activate_sirene+0x30a>
    256a:	80 e0       	ldi	r24, 0x00	; 0
    256c:	89 23       	and	r24, r25
    256e:	09 f4       	brne	.+2      	; 0x2572 <activate_sirene+0x310>
    2570:	ef c0       	rjmp	.+478    	; 0x2750 <activate_sirene+0x4ee>
    2572:	0e 94 5d 21 	call	0x42ba	; 0x42ba <StartSirene>
    2576:	08 95       	ret
    2578:	40 91 80 01 	lds	r20, 0x0180	; 0x800180 <sensor5+0x2>
    257c:	50 91 81 01 	lds	r21, 0x0181	; 0x800181 <sensor5+0x3>
    2580:	29 2f       	mov	r18, r25
    2582:	26 95       	lsr	r18
    2584:	26 95       	lsr	r18
    2586:	26 95       	lsr	r18
    2588:	81 e0       	ldi	r24, 0x01	; 1
    258a:	82 27       	eor	r24, r18
    258c:	81 70       	andi	r24, 0x01	; 1
    258e:	21 e0       	ldi	r18, 0x01	; 1
    2590:	41 30       	cpi	r20, 0x01	; 1
    2592:	51 05       	cpc	r21, r1
    2594:	09 f0       	breq	.+2      	; 0x2598 <activate_sirene+0x336>
    2596:	20 e0       	ldi	r18, 0x00	; 0
    2598:	82 23       	and	r24, r18
    259a:	09 f4       	brne	.+2      	; 0x259e <activate_sirene+0x33c>
    259c:	3e c0       	rjmp	.+124    	; 0x261a <activate_sirene+0x3b8>
    259e:	20 91 82 01 	lds	r18, 0x0182	; 0x800182 <sensor5+0x4>
    25a2:	30 91 83 01 	lds	r19, 0x0183	; 0x800183 <sensor5+0x5>
    25a6:	40 91 60 01 	lds	r20, 0x0160	; 0x800160 <zona1+0x2>
    25aa:	50 91 61 01 	lds	r21, 0x0161	; 0x800161 <zona1+0x3>
    25ae:	91 e0       	ldi	r25, 0x01	; 1
    25b0:	21 30       	cpi	r18, 0x01	; 1
    25b2:	31 05       	cpc	r19, r1
    25b4:	09 f0       	breq	.+2      	; 0x25b8 <activate_sirene+0x356>
    25b6:	90 e0       	ldi	r25, 0x00	; 0
    25b8:	81 e0       	ldi	r24, 0x01	; 1
    25ba:	41 30       	cpi	r20, 0x01	; 1
    25bc:	51 05       	cpc	r21, r1
    25be:	09 f0       	breq	.+2      	; 0x25c2 <activate_sirene+0x360>
    25c0:	80 e0       	ldi	r24, 0x00	; 0
    25c2:	89 23       	and	r24, r25
    25c4:	19 f0       	breq	.+6      	; 0x25cc <activate_sirene+0x36a>
    25c6:	0e 94 5d 21 	call	0x42ba	; 0x42ba <StartSirene>
    25ca:	08 95       	ret
    25cc:	40 91 4c 01 	lds	r20, 0x014C	; 0x80014c <zona2+0x2>
    25d0:	50 91 4d 01 	lds	r21, 0x014D	; 0x80014d <zona2+0x3>
    25d4:	91 e0       	ldi	r25, 0x01	; 1
    25d6:	22 30       	cpi	r18, 0x02	; 2
    25d8:	31 05       	cpc	r19, r1
    25da:	09 f0       	breq	.+2      	; 0x25de <activate_sirene+0x37c>
    25dc:	90 e0       	ldi	r25, 0x00	; 0
    25de:	81 e0       	ldi	r24, 0x01	; 1
    25e0:	41 30       	cpi	r20, 0x01	; 1
    25e2:	51 05       	cpc	r21, r1
    25e4:	09 f0       	breq	.+2      	; 0x25e8 <activate_sirene+0x386>
    25e6:	80 e0       	ldi	r24, 0x00	; 0
    25e8:	89 23       	and	r24, r25
    25ea:	19 f0       	breq	.+6      	; 0x25f2 <activate_sirene+0x390>
    25ec:	0e 94 5d 21 	call	0x42ba	; 0x42ba <StartSirene>
    25f0:	08 95       	ret
    25f2:	40 91 38 01 	lds	r20, 0x0138	; 0x800138 <_end+0x2>
    25f6:	50 91 39 01 	lds	r21, 0x0139	; 0x800139 <_end+0x3>
    25fa:	91 e0       	ldi	r25, 0x01	; 1
    25fc:	23 30       	cpi	r18, 0x03	; 3
    25fe:	31 05       	cpc	r19, r1
    2600:	09 f0       	breq	.+2      	; 0x2604 <activate_sirene+0x3a2>
    2602:	90 e0       	ldi	r25, 0x00	; 0
    2604:	81 e0       	ldi	r24, 0x01	; 1
    2606:	41 30       	cpi	r20, 0x01	; 1
    2608:	51 05       	cpc	r21, r1
    260a:	09 f0       	breq	.+2      	; 0x260e <activate_sirene+0x3ac>
    260c:	80 e0       	ldi	r24, 0x00	; 0
    260e:	89 23       	and	r24, r25
    2610:	09 f4       	brne	.+2      	; 0x2614 <activate_sirene+0x3b2>
    2612:	9e c0       	rjmp	.+316    	; 0x2750 <activate_sirene+0x4ee>
    2614:	0e 94 5d 21 	call	0x42ba	; 0x42ba <StartSirene>
    2618:	08 95       	ret
    261a:	40 91 7a 01 	lds	r20, 0x017A	; 0x80017a <sensor6+0x2>
    261e:	50 91 7b 01 	lds	r21, 0x017B	; 0x80017b <sensor6+0x3>
    2622:	29 2f       	mov	r18, r25
    2624:	26 95       	lsr	r18
    2626:	26 95       	lsr	r18
    2628:	81 e0       	ldi	r24, 0x01	; 1
    262a:	82 27       	eor	r24, r18
    262c:	81 70       	andi	r24, 0x01	; 1
    262e:	21 e0       	ldi	r18, 0x01	; 1
    2630:	41 30       	cpi	r20, 0x01	; 1
    2632:	51 05       	cpc	r21, r1
    2634:	09 f0       	breq	.+2      	; 0x2638 <activate_sirene+0x3d6>
    2636:	20 e0       	ldi	r18, 0x00	; 0
    2638:	82 23       	and	r24, r18
    263a:	09 f4       	brne	.+2      	; 0x263e <activate_sirene+0x3dc>
    263c:	3e c0       	rjmp	.+124    	; 0x26ba <activate_sirene+0x458>
    263e:	20 91 7c 01 	lds	r18, 0x017C	; 0x80017c <sensor6+0x4>
    2642:	30 91 7d 01 	lds	r19, 0x017D	; 0x80017d <sensor6+0x5>
    2646:	40 91 60 01 	lds	r20, 0x0160	; 0x800160 <zona1+0x2>
    264a:	50 91 61 01 	lds	r21, 0x0161	; 0x800161 <zona1+0x3>
    264e:	91 e0       	ldi	r25, 0x01	; 1
    2650:	21 30       	cpi	r18, 0x01	; 1
    2652:	31 05       	cpc	r19, r1
    2654:	09 f0       	breq	.+2      	; 0x2658 <activate_sirene+0x3f6>
    2656:	90 e0       	ldi	r25, 0x00	; 0
    2658:	81 e0       	ldi	r24, 0x01	; 1
    265a:	41 30       	cpi	r20, 0x01	; 1
    265c:	51 05       	cpc	r21, r1
    265e:	09 f0       	breq	.+2      	; 0x2662 <activate_sirene+0x400>
    2660:	80 e0       	ldi	r24, 0x00	; 0
    2662:	89 23       	and	r24, r25
    2664:	19 f0       	breq	.+6      	; 0x266c <activate_sirene+0x40a>
    2666:	0e 94 5d 21 	call	0x42ba	; 0x42ba <StartSirene>
    266a:	08 95       	ret
    266c:	40 91 4c 01 	lds	r20, 0x014C	; 0x80014c <zona2+0x2>
    2670:	50 91 4d 01 	lds	r21, 0x014D	; 0x80014d <zona2+0x3>
    2674:	91 e0       	ldi	r25, 0x01	; 1
    2676:	22 30       	cpi	r18, 0x02	; 2
    2678:	31 05       	cpc	r19, r1
    267a:	09 f0       	breq	.+2      	; 0x267e <activate_sirene+0x41c>
    267c:	90 e0       	ldi	r25, 0x00	; 0
    267e:	81 e0       	ldi	r24, 0x01	; 1
    2680:	41 30       	cpi	r20, 0x01	; 1
    2682:	51 05       	cpc	r21, r1
    2684:	09 f0       	breq	.+2      	; 0x2688 <activate_sirene+0x426>
    2686:	80 e0       	ldi	r24, 0x00	; 0
    2688:	89 23       	and	r24, r25
    268a:	19 f0       	breq	.+6      	; 0x2692 <activate_sirene+0x430>
    268c:	0e 94 5d 21 	call	0x42ba	; 0x42ba <StartSirene>
    2690:	08 95       	ret
    2692:	40 91 38 01 	lds	r20, 0x0138	; 0x800138 <_end+0x2>
    2696:	50 91 39 01 	lds	r21, 0x0139	; 0x800139 <_end+0x3>
    269a:	91 e0       	ldi	r25, 0x01	; 1
    269c:	23 30       	cpi	r18, 0x03	; 3
    269e:	31 05       	cpc	r19, r1
    26a0:	09 f0       	breq	.+2      	; 0x26a4 <activate_sirene+0x442>
    26a2:	90 e0       	ldi	r25, 0x00	; 0
    26a4:	81 e0       	ldi	r24, 0x01	; 1
    26a6:	41 30       	cpi	r20, 0x01	; 1
    26a8:	51 05       	cpc	r21, r1
    26aa:	09 f0       	breq	.+2      	; 0x26ae <activate_sirene+0x44c>
    26ac:	80 e0       	ldi	r24, 0x00	; 0
    26ae:	89 23       	and	r24, r25
    26b0:	09 f4       	brne	.+2      	; 0x26b4 <activate_sirene+0x452>
    26b2:	4e c0       	rjmp	.+156    	; 0x2750 <activate_sirene+0x4ee>
    26b4:	0e 94 5d 21 	call	0x42ba	; 0x42ba <StartSirene>
    26b8:	08 95       	ret
    26ba:	20 91 74 01 	lds	r18, 0x0174	; 0x800174 <sensor7+0x2>
    26be:	30 91 75 01 	lds	r19, 0x0175	; 0x800175 <sensor7+0x3>
    26c2:	96 95       	lsr	r25
    26c4:	81 e0       	ldi	r24, 0x01	; 1
    26c6:	98 27       	eor	r25, r24
    26c8:	91 70       	andi	r25, 0x01	; 1
    26ca:	21 30       	cpi	r18, 0x01	; 1
    26cc:	31 05       	cpc	r19, r1
    26ce:	09 f0       	breq	.+2      	; 0x26d2 <activate_sirene+0x470>
    26d0:	80 e0       	ldi	r24, 0x00	; 0
    26d2:	98 23       	and	r25, r24
    26d4:	09 f4       	brne	.+2      	; 0x26d8 <activate_sirene+0x476>
    26d6:	3c c0       	rjmp	.+120    	; 0x2750 <activate_sirene+0x4ee>
    26d8:	20 91 76 01 	lds	r18, 0x0176	; 0x800176 <sensor7+0x4>
    26dc:	30 91 77 01 	lds	r19, 0x0177	; 0x800177 <sensor7+0x5>
    26e0:	40 91 60 01 	lds	r20, 0x0160	; 0x800160 <zona1+0x2>
    26e4:	50 91 61 01 	lds	r21, 0x0161	; 0x800161 <zona1+0x3>
    26e8:	91 e0       	ldi	r25, 0x01	; 1
    26ea:	21 30       	cpi	r18, 0x01	; 1
    26ec:	31 05       	cpc	r19, r1
    26ee:	09 f0       	breq	.+2      	; 0x26f2 <activate_sirene+0x490>
    26f0:	90 e0       	ldi	r25, 0x00	; 0
    26f2:	81 e0       	ldi	r24, 0x01	; 1
    26f4:	41 30       	cpi	r20, 0x01	; 1
    26f6:	51 05       	cpc	r21, r1
    26f8:	09 f0       	breq	.+2      	; 0x26fc <activate_sirene+0x49a>
    26fa:	80 e0       	ldi	r24, 0x00	; 0
    26fc:	89 23       	and	r24, r25
    26fe:	19 f0       	breq	.+6      	; 0x2706 <activate_sirene+0x4a4>
    2700:	0e 94 5d 21 	call	0x42ba	; 0x42ba <StartSirene>
    2704:	08 95       	ret
    2706:	40 91 4c 01 	lds	r20, 0x014C	; 0x80014c <zona2+0x2>
    270a:	50 91 4d 01 	lds	r21, 0x014D	; 0x80014d <zona2+0x3>
    270e:	91 e0       	ldi	r25, 0x01	; 1
    2710:	22 30       	cpi	r18, 0x02	; 2
    2712:	31 05       	cpc	r19, r1
    2714:	09 f0       	breq	.+2      	; 0x2718 <activate_sirene+0x4b6>
    2716:	90 e0       	ldi	r25, 0x00	; 0
    2718:	81 e0       	ldi	r24, 0x01	; 1
    271a:	41 30       	cpi	r20, 0x01	; 1
    271c:	51 05       	cpc	r21, r1
    271e:	09 f0       	breq	.+2      	; 0x2722 <activate_sirene+0x4c0>
    2720:	80 e0       	ldi	r24, 0x00	; 0
    2722:	89 23       	and	r24, r25
    2724:	19 f0       	breq	.+6      	; 0x272c <activate_sirene+0x4ca>
    2726:	0e 94 5d 21 	call	0x42ba	; 0x42ba <StartSirene>
    272a:	08 95       	ret
    272c:	40 91 38 01 	lds	r20, 0x0138	; 0x800138 <_end+0x2>
    2730:	50 91 39 01 	lds	r21, 0x0139	; 0x800139 <_end+0x3>
    2734:	91 e0       	ldi	r25, 0x01	; 1
    2736:	23 30       	cpi	r18, 0x03	; 3
    2738:	31 05       	cpc	r19, r1
    273a:	09 f0       	breq	.+2      	; 0x273e <activate_sirene+0x4dc>
    273c:	90 e0       	ldi	r25, 0x00	; 0
    273e:	81 e0       	ldi	r24, 0x01	; 1
    2740:	41 30       	cpi	r20, 0x01	; 1
    2742:	51 05       	cpc	r21, r1
    2744:	09 f0       	breq	.+2      	; 0x2748 <activate_sirene+0x4e6>
    2746:	80 e0       	ldi	r24, 0x00	; 0
    2748:	89 23       	and	r24, r25
    274a:	11 f0       	breq	.+4      	; 0x2750 <activate_sirene+0x4ee>
    274c:	0e 94 5d 21 	call	0x42ba	; 0x42ba <StartSirene>
    2750:	08 95       	ret

Disassembly of section .text.StopSirene:

000042da <StopSirene>:
	PORTD |= (1 << BUZZER); // sirene
}

void StopSirene()
{
	PORTD &= (0 << BUZZER); // sirene
    42da:	8b b1       	in	r24, 0x0b	; 11
    42dc:	1b b8       	out	0x0b, r1	; 11
    42de:	08 95       	ret

Disassembly of section .text.SPI_Master_Setup:

0000425e <SPI_Master_Setup>:
uint8_t RTC_Read_Hours(){
	return SPI_Read(0x02);
}
uint8_t RTC_Read_Minu(){
	return SPI_Read(0x01);
}
    425e:	84 b1       	in	r24, 0x04	; 4
    4260:	8c 62       	ori	r24, 0x2C	; 44
    4262:	84 b9       	out	0x04, r24	; 4
    4264:	8c b5       	in	r24, 0x2c	; 44
    4266:	81 65       	ori	r24, 0x51	; 81
    4268:	8c bd       	out	0x2c, r24	; 44
    426a:	85 b1       	in	r24, 0x05	; 5
    426c:	84 60       	ori	r24, 0x04	; 4
    426e:	85 b9       	out	0x05, r24	; 5
    4270:	08 95       	ret

Disassembly of section .text.SPI_Master_Transmit:

000042ea <SPI_Master_Transmit>:
	DDRB |= (1<<PORTB5) | (1<<PORTB3) | (1<<PORTB2); // Configura SCK, MOSI e SS como saadas, demais pinos como entradas.
	SPCR |= (1<<SPE) | (1<<MSTR) | (1<<SPR0); // Habilita SPI mestre. 
	PORTB |= (1<<PORTB2); // Desativa o escravo.
}
void SPI_Master_Transmit(int dado){
	SPDR = dado;
    42ea:	8e bd       	out	0x2e, r24	; 46
    42ec:	08 95       	ret

Disassembly of section .text.SPI_Read:

0000410c <SPI_Read>:
uint8_t RTC_Read_Hours(){
	return SPI_Read(0x02);
}
uint8_t RTC_Read_Minu(){
	return SPI_Read(0x01);
}
    410c:	9c b5       	in	r25, 0x2c	; 44
    410e:	95 65       	ori	r25, 0x55	; 85
    4110:	9c bd       	out	0x2c, r25	; 44
    4112:	95 b1       	in	r25, 0x05	; 5
    4114:	9b 7f       	andi	r25, 0xFB	; 251
    4116:	95 b9       	out	0x05, r25	; 5
    4118:	90 e0       	ldi	r25, 0x00	; 0
    411a:	0e 94 75 21 	call	0x42ea	; 0x42ea <SPI_Master_Transmit>
    411e:	0d b4       	in	r0, 0x2d	; 45
    4120:	07 fe       	sbrs	r0, 7
    4122:	fd cf       	rjmp	.-6      	; 0x411e <SPI_Read+0x12>
    4124:	8f ef       	ldi	r24, 0xFF	; 255
    4126:	90 e0       	ldi	r25, 0x00	; 0
    4128:	0e 94 75 21 	call	0x42ea	; 0x42ea <SPI_Master_Transmit>
    412c:	0d b4       	in	r0, 0x2d	; 45
    412e:	07 fe       	sbrs	r0, 7
    4130:	fd cf       	rjmp	.-6      	; 0x412c <SPI_Read+0x20>
    4132:	85 b1       	in	r24, 0x05	; 5
    4134:	84 60       	ori	r24, 0x04	; 4
    4136:	85 b9       	out	0x05, r24	; 5
    4138:	8e b5       	in	r24, 0x2e	; 46
    413a:	08 95       	ret

Disassembly of section .text.RTC_Read_Hours:

000042c2 <RTC_Read_Hours>:
    42c2:	82 e0       	ldi	r24, 0x02	; 2
    42c4:	0e 94 86 20 	call	0x410c	; 0x410c <SPI_Read>
    42c8:	08 95       	ret

Disassembly of section .text.RTC_Read_Day:

000042ca <RTC_Read_Day>:
uint8_t RTC_Read_Day(){
	return SPI_Read(0x03);
    42ca:	83 e0       	ldi	r24, 0x03	; 3
    42cc:	0e 94 86 20 	call	0x410c	; 0x410c <SPI_Read>
}
    42d0:	08 95       	ret

Disassembly of section .text.RTC_Config:

000035ac <RTC_Config>:
uint8_t RTC_Read_Hours(){
	return SPI_Read(0x02);
}
uint8_t RTC_Read_Minu(){
	return SPI_Read(0x01);
}
    35ac:	85 b1       	in	r24, 0x05	; 5
    35ae:	8b 7f       	andi	r24, 0xFB	; 251
    35b0:	85 b9       	out	0x05, r24	; 5
    35b2:	82 e8       	ldi	r24, 0x82	; 130
    35b4:	90 e0       	ldi	r25, 0x00	; 0
    35b6:	0e 94 75 21 	call	0x42ea	; 0x42ea <SPI_Master_Transmit>
    35ba:	0d b4       	in	r0, 0x2d	; 45
    35bc:	07 fe       	sbrs	r0, 7
    35be:	fd cf       	rjmp	.-6      	; 0x35ba <RTC_Config+0xe>
    35c0:	81 e0       	ldi	r24, 0x01	; 1
    35c2:	90 e0       	ldi	r25, 0x00	; 0
    35c4:	0e 94 75 21 	call	0x42ea	; 0x42ea <SPI_Master_Transmit>
    35c8:	0d b4       	in	r0, 0x2d	; 45
    35ca:	07 fe       	sbrs	r0, 7
    35cc:	fd cf       	rjmp	.-6      	; 0x35c8 <RTC_Config+0x1c>
    35ce:	85 b1       	in	r24, 0x05	; 5
    35d0:	84 60       	ori	r24, 0x04	; 4
    35d2:	85 b9       	out	0x05, r24	; 5
    35d4:	85 b1       	in	r24, 0x05	; 5
    35d6:	8b 7f       	andi	r24, 0xFB	; 251
    35d8:	85 b9       	out	0x05, r24	; 5
    35da:	81 e8       	ldi	r24, 0x81	; 129
    35dc:	90 e0       	ldi	r25, 0x00	; 0
    35de:	0e 94 75 21 	call	0x42ea	; 0x42ea <SPI_Master_Transmit>
    35e2:	0d b4       	in	r0, 0x2d	; 45
    35e4:	07 fe       	sbrs	r0, 7
    35e6:	fd cf       	rjmp	.-6      	; 0x35e2 <RTC_Config+0x36>
    35e8:	80 e0       	ldi	r24, 0x00	; 0
    35ea:	90 e0       	ldi	r25, 0x00	; 0
    35ec:	0e 94 75 21 	call	0x42ea	; 0x42ea <SPI_Master_Transmit>
    35f0:	0d b4       	in	r0, 0x2d	; 45
    35f2:	07 fe       	sbrs	r0, 7
    35f4:	fd cf       	rjmp	.-6      	; 0x35f0 <RTC_Config+0x44>
    35f6:	85 b1       	in	r24, 0x05	; 5
    35f8:	84 60       	ori	r24, 0x04	; 4
    35fa:	85 b9       	out	0x05, r24	; 5
    35fc:	85 b1       	in	r24, 0x05	; 5
    35fe:	8b 7f       	andi	r24, 0xFB	; 251
    3600:	85 b9       	out	0x05, r24	; 5
    3602:	83 e8       	ldi	r24, 0x83	; 131
    3604:	90 e0       	ldi	r25, 0x00	; 0
    3606:	0e 94 75 21 	call	0x42ea	; 0x42ea <SPI_Master_Transmit>
    360a:	0d b4       	in	r0, 0x2d	; 45
    360c:	07 fe       	sbrs	r0, 7
    360e:	fd cf       	rjmp	.-6      	; 0x360a <RTC_Config+0x5e>
    3610:	81 e0       	ldi	r24, 0x01	; 1
    3612:	90 e0       	ldi	r25, 0x00	; 0
    3614:	0e 94 75 21 	call	0x42ea	; 0x42ea <SPI_Master_Transmit>
    3618:	0d b4       	in	r0, 0x2d	; 45
    361a:	07 fe       	sbrs	r0, 7
    361c:	fd cf       	rjmp	.-6      	; 0x3618 <RTC_Config+0x6c>
    361e:	85 b1       	in	r24, 0x05	; 5
    3620:	84 60       	ori	r24, 0x04	; 4
    3622:	85 b9       	out	0x05, r24	; 5
    3624:	08 95       	ret

Disassembly of section .text.IniciarUART:

00003e1e <IniciarUART>:
    3e1e:	cf 92       	push	r12
    3e20:	df 92       	push	r13
    3e22:	ef 92       	push	r14
    3e24:	ff 92       	push	r15
    3e26:	6b 01       	movw	r12, r22
    3e28:	7c 01       	movw	r14, r24
    3e2a:	ca 01       	movw	r24, r20
    3e2c:	b9 01       	movw	r22, r18
    3e2e:	68 94       	set
    3e30:	13 f8       	bld	r1, 3
    3e32:	96 95       	lsr	r25
    3e34:	87 95       	ror	r24
    3e36:	77 95       	ror	r23
    3e38:	67 95       	ror	r22
    3e3a:	16 94       	lsr	r1
    3e3c:	d1 f7       	brne	.-12     	; 0x3e32 <IniciarUART+0x14>
    3e3e:	a7 01       	movw	r20, r14
    3e40:	96 01       	movw	r18, r12
    3e42:	0e 94 0e 20 	call	0x401c	; 0x401c <__udivmodsi4>
    3e46:	21 50       	subi	r18, 0x01	; 1
    3e48:	31 09       	sbc	r19, r1
    3e4a:	30 93 c5 00 	sts	0x00C5, r19	; 0x8000c5 <__TEXT_REGION_LENGTH__+0x7f80c5>
    3e4e:	20 93 c4 00 	sts	0x00C4, r18	; 0x8000c4 <__TEXT_REGION_LENGTH__+0x7f80c4>
    3e52:	10 92 c0 00 	sts	0x00C0, r1	; 0x8000c0 <__TEXT_REGION_LENGTH__+0x7f80c0>
    3e56:	88 e0       	ldi	r24, 0x08	; 8
    3e58:	80 93 c1 00 	sts	0x00C1, r24	; 0x8000c1 <__TEXT_REGION_LENGTH__+0x7f80c1>
    3e5c:	86 e0       	ldi	r24, 0x06	; 6
    3e5e:	80 93 c2 00 	sts	0x00C2, r24	; 0x8000c2 <__TEXT_REGION_LENGTH__+0x7f80c2>
    3e62:	ff 90       	pop	r15
    3e64:	ef 90       	pop	r14
    3e66:	df 90       	pop	r13
    3e68:	cf 90       	pop	r12
    3e6a:	08 95       	ret

Disassembly of section .text.ProntoTXUART:

000042d2 <ProntoTXUART>:
	UCSR0B = (1<<TXEN0); // hab trans  SEM interrupo
	UCSR0C = (1<<UCSZ01)|(1<<UCSZ00); // assincrono, com 1 byte, 1 bit de parada e sem paridade.
}

uint8_t ProntoTXUART (void){
	return (UCSR0A & (1<<UDRE0)); // retorna 1 qnd pode ser enviado
    42d2:	80 91 c0 00 	lds	r24, 0x00C0	; 0x8000c0 <__TEXT_REGION_LENGTH__+0x7f80c0>
}
    42d6:	80 72       	andi	r24, 0x20	; 32
    42d8:	08 95       	ret

Disassembly of section .text.EnviarTXUART:

000042e0 <EnviarTXUART>:



void EnviarTXUART (uint8_t dado){
	UDR0 = dado;
    42e0:	80 93 c6 00 	sts	0x00C6, r24	; 0x8000c6 <__TEXT_REGION_LENGTH__+0x7f80c6>
    42e4:	08 95       	ret

Disassembly of section .text.EnviarStringUART:

000040a0 <EnviarStringUART>:
uint8_t RTC_Read_Hours(){
	return SPI_Read(0x02);
}
uint8_t RTC_Read_Minu(){
	return SPI_Read(0x01);
}
    40a0:	cf 92       	push	r12
    40a2:	df 92       	push	r13
    40a4:	ef 92       	push	r14
    40a6:	6b 01       	movw	r12, r22
    40a8:	e8 2e       	mov	r14, r24
    40aa:	0e c0       	rjmp	.+28     	; 0x40c8 <EnviarStringUART+0x28>
    40ac:	0e 94 69 21 	call	0x42d2	; 0x42d2 <ProntoTXUART>
    40b0:	88 23       	and	r24, r24
    40b2:	e1 f3       	breq	.-8      	; 0x40ac <EnviarStringUART+0xc>
    40b4:	f6 01       	movw	r30, r12
    40b6:	84 91       	lpm	r24, Z
    40b8:	e7 fc       	sbrc	r14, 7
    40ba:	80 81       	ld	r24, Z
    40bc:	0e 94 70 21 	call	0x42e0	; 0x42e0 <EnviarTXUART>
    40c0:	8f ef       	ldi	r24, 0xFF	; 255
    40c2:	c8 1a       	sub	r12, r24
    40c4:	d8 0a       	sbc	r13, r24
    40c6:	e8 0a       	sbc	r14, r24
    40c8:	f6 01       	movw	r30, r12
    40ca:	84 91       	lpm	r24, Z
    40cc:	e7 fc       	sbrc	r14, 7
    40ce:	80 81       	ld	r24, Z
    40d0:	81 11       	cpse	r24, r1
    40d2:	ec cf       	rjmp	.-40     	; 0x40ac <EnviarStringUART+0xc>
    40d4:	ef 90       	pop	r14
    40d6:	df 90       	pop	r13
    40d8:	cf 90       	pop	r12
    40da:	08 95       	ret

Disassembly of section .text.EnviarDec1Byte:

00003528 <EnviarDec1Byte>:
    3528:	1f 93       	push	r17
    352a:	cf 93       	push	r28
    352c:	df 93       	push	r29
    352e:	00 d0       	rcall	.+0      	; 0x3530 <EnviarDec1Byte+0x8>
    3530:	1f 92       	push	r1
    3532:	cd b7       	in	r28, 0x3d	; 61
    3534:	de b7       	in	r29, 0x3e	; 62
    3536:	10 e0       	ldi	r17, 0x00	; 0
    3538:	01 c0       	rjmp	.+2      	; 0x353c <EnviarDec1Byte+0x14>
    353a:	19 2f       	mov	r17, r25
    353c:	9d ec       	ldi	r25, 0xCD	; 205
    353e:	89 9f       	mul	r24, r25
    3540:	91 2d       	mov	r25, r1
    3542:	11 24       	eor	r1, r1
    3544:	96 95       	lsr	r25
    3546:	96 95       	lsr	r25
    3548:	96 95       	lsr	r25
    354a:	39 2f       	mov	r19, r25
    354c:	33 0f       	add	r19, r19
    354e:	23 2f       	mov	r18, r19
    3550:	22 0f       	add	r18, r18
    3552:	22 0f       	add	r18, r18
    3554:	23 0f       	add	r18, r19
    3556:	82 1b       	sub	r24, r18
    3558:	20 e3       	ldi	r18, 0x30	; 48
    355a:	28 0f       	add	r18, r24
    355c:	89 2f       	mov	r24, r25
    355e:	e1 e0       	ldi	r30, 0x01	; 1
    3560:	f0 e0       	ldi	r31, 0x00	; 0
    3562:	ec 0f       	add	r30, r28
    3564:	fd 1f       	adc	r31, r29
    3566:	e1 0f       	add	r30, r17
    3568:	f1 1d       	adc	r31, r1
    356a:	17 fd       	sbrc	r17, 7
    356c:	fa 95       	dec	r31
    356e:	20 83       	st	Z, r18
    3570:	91 e0       	ldi	r25, 0x01	; 1
    3572:	91 0f       	add	r25, r17
    3574:	81 11       	cpse	r24, r1
    3576:	e1 cf       	rjmp	.-62     	; 0x353a <EnviarDec1Byte+0x12>
    3578:	10 c0       	rjmp	.+32     	; 0x359a <EnviarDec1Byte+0x72>
    357a:	0e 94 69 21 	call	0x42d2	; 0x42d2 <ProntoTXUART>
    357e:	88 23       	and	r24, r24
    3580:	e1 f3       	breq	.-8      	; 0x357a <EnviarDec1Byte+0x52>
    3582:	e1 e0       	ldi	r30, 0x01	; 1
    3584:	f0 e0       	ldi	r31, 0x00	; 0
    3586:	ec 0f       	add	r30, r28
    3588:	fd 1f       	adc	r31, r29
    358a:	e1 0f       	add	r30, r17
    358c:	f1 1d       	adc	r31, r1
    358e:	17 fd       	sbrc	r17, 7
    3590:	fa 95       	dec	r31
    3592:	80 81       	ld	r24, Z
    3594:	0e 94 70 21 	call	0x42e0	; 0x42e0 <EnviarTXUART>
    3598:	11 50       	subi	r17, 0x01	; 1
    359a:	11 23       	and	r17, r17
    359c:	74 f7       	brge	.-36     	; 0x357a <EnviarDec1Byte+0x52>
    359e:	0f 90       	pop	r0
    35a0:	0f 90       	pop	r0
    35a2:	0f 90       	pop	r0
    35a4:	df 91       	pop	r29
    35a6:	cf 91       	pop	r28
    35a8:	1f 91       	pop	r17
    35aa:	08 95       	ret

Disassembly of section .text.UARTA:

00003626 <UARTA>:
    3626:	cf 93       	push	r28
    3628:	df 93       	push	r29
    362a:	d8 2f       	mov	r29, r24
    362c:	c6 2f       	mov	r28, r22
    362e:	6a e2       	ldi	r22, 0x2A	; 42
    3630:	72 e0       	ldi	r23, 0x02	; 2
    3632:	80 e0       	ldi	r24, 0x00	; 0
    3634:	0e 94 50 20 	call	0x40a0	; 0x40a0 <EnviarStringUART>
    3638:	0e 94 69 21 	call	0x42d2	; 0x42d2 <ProntoTXUART>
    363c:	88 23       	and	r24, r24
    363e:	e1 f3       	breq	.-8      	; 0x3638 <UARTA+0x12>
    3640:	80 91 06 01 	lds	r24, 0x0106	; 0x800106 <User>
    3644:	0e 94 94 1a 	call	0x3528	; 0x3528 <EnviarDec1Byte>
    3648:	6f e4       	ldi	r22, 0x4F	; 79
    364a:	72 e0       	ldi	r23, 0x02	; 2
    364c:	80 e0       	ldi	r24, 0x00	; 0
    364e:	0e 94 50 20 	call	0x40a0	; 0x40a0 <EnviarStringUART>
    3652:	0e 94 69 21 	call	0x42d2	; 0x42d2 <ProntoTXUART>
    3656:	88 23       	and	r24, r24
    3658:	e1 f3       	breq	.-8      	; 0x3652 <UARTA+0x2c>
    365a:	8d 2f       	mov	r24, r29
    365c:	0e 94 94 1a 	call	0x3528	; 0x3528 <EnviarDec1Byte>
    3660:	69 e5       	ldi	r22, 0x59	; 89
    3662:	72 e0       	ldi	r23, 0x02	; 2
    3664:	80 e0       	ldi	r24, 0x00	; 0
    3666:	0e 94 50 20 	call	0x40a0	; 0x40a0 <EnviarStringUART>
    366a:	0e 94 69 21 	call	0x42d2	; 0x42d2 <ProntoTXUART>
    366e:	88 23       	and	r24, r24
    3670:	e1 f3       	breq	.-8      	; 0x366a <UARTA+0x44>
    3672:	8c 2f       	mov	r24, r28
    3674:	0e 94 94 1a 	call	0x3528	; 0x3528 <EnviarDec1Byte>
    3678:	66 e6       	ldi	r22, 0x66	; 102
    367a:	72 e0       	ldi	r23, 0x02	; 2
    367c:	80 e0       	ldi	r24, 0x00	; 0
    367e:	0e 94 50 20 	call	0x40a0	; 0x40a0 <EnviarStringUART>
    3682:	0e 94 69 21 	call	0x42d2	; 0x42d2 <ProntoTXUART>
    3686:	88 23       	and	r24, r24
    3688:	e1 f3       	breq	.-8      	; 0x3682 <UARTA+0x5c>
    368a:	6b e6       	ldi	r22, 0x6B	; 107
    368c:	72 e0       	ldi	r23, 0x02	; 2
    368e:	80 e0       	ldi	r24, 0x00	; 0
    3690:	0e 94 50 20 	call	0x40a0	; 0x40a0 <EnviarStringUART>
    3694:	df 91       	pop	r29
    3696:	cf 91       	pop	r28
    3698:	08 95       	ret

Disassembly of section .text.__vector_11:

000030de <__vector_11>:
    30de:	1f 92       	push	r1
    30e0:	0f 92       	push	r0
    30e2:	0f b6       	in	r0, 0x3f	; 63
    30e4:	0f 92       	push	r0
    30e6:	11 24       	eor	r1, r1
    30e8:	2f 93       	push	r18
    30ea:	3f 93       	push	r19
    30ec:	4f 93       	push	r20
    30ee:	5f 93       	push	r21
    30f0:	6f 93       	push	r22
    30f2:	7f 93       	push	r23
    30f4:	8f 93       	push	r24
    30f6:	9f 93       	push	r25
    30f8:	af 93       	push	r26
    30fa:	bf 93       	push	r27
    30fc:	cf 93       	push	r28
    30fe:	ef 93       	push	r30
    3100:	ff 93       	push	r31
    3102:	80 91 dc 01 	lds	r24, 0x01DC	; 0x8001dc <state>
    3106:	87 30       	cpi	r24, 0x07	; 7
    3108:	c9 f4       	brne	.+50     	; 0x313c <__vector_11+0x5e>
    310a:	80 91 dd 01 	lds	r24, 0x01DD	; 0x8001dd <cont_timeout>
    310e:	48 2f       	mov	r20, r24
    3110:	50 e0       	ldi	r21, 0x00	; 0
    3112:	20 91 11 01 	lds	r18, 0x0111	; 0x800111 <timeout>
    3116:	30 91 12 01 	lds	r19, 0x0112	; 0x800112 <timeout+0x1>
    311a:	42 17       	cp	r20, r18
    311c:	53 07       	cpc	r21, r19
    311e:	51 f4       	brne	.+20     	; 0x3134 <__vector_11+0x56>
    3120:	81 e0       	ldi	r24, 0x01	; 1
    3122:	80 93 dc 01 	sts	0x01DC, r24	; 0x8001dc <state>
    3126:	10 92 dd 01 	sts	0x01DD, r1	; 0x8001dd <cont_timeout>
    312a:	0e 94 bd 1d 	call	0x3b7a	; 0x3b7a <msg_desativado>
    312e:	0e 94 25 21 	call	0x424a	; 0x424a <StopTimer1>
    3132:	4e c0       	rjmp	.+156    	; 0x31d0 <__vector_11+0xf2>
    3134:	8f 5f       	subi	r24, 0xFF	; 255
    3136:	80 93 dd 01 	sts	0x01DD, r24	; 0x8001dd <cont_timeout>
    313a:	4a c0       	rjmp	.+148    	; 0x31d0 <__vector_11+0xf2>
    313c:	85 30       	cpi	r24, 0x05	; 5
    313e:	d1 f4       	brne	.+52     	; 0x3174 <__vector_11+0x96>
    3140:	80 91 c8 01 	lds	r24, 0x01C8	; 0x8001c8 <cont_sirene>
    3144:	90 91 c9 01 	lds	r25, 0x01C9	; 0x8001c9 <cont_sirene+0x1>
    3148:	20 91 0a 01 	lds	r18, 0x010A	; 0x80010a <t_sirene>
    314c:	30 91 0b 01 	lds	r19, 0x010B	; 0x80010b <t_sirene+0x1>
    3150:	82 17       	cp	r24, r18
    3152:	93 07       	cpc	r25, r19
    3154:	49 f4       	brne	.+18     	; 0x3168 <__vector_11+0x8a>
    3156:	0e 94 6d 21 	call	0x42da	; 0x42da <StopSirene>
    315a:	10 92 c9 01 	sts	0x01C9, r1	; 0x8001c9 <cont_sirene+0x1>
    315e:	10 92 c8 01 	sts	0x01C8, r1	; 0x8001c8 <cont_sirene>
    3162:	0e 94 25 21 	call	0x424a	; 0x424a <StopTimer1>
    3166:	34 c0       	rjmp	.+104    	; 0x31d0 <__vector_11+0xf2>
    3168:	01 96       	adiw	r24, 0x01	; 1
    316a:	90 93 c9 01 	sts	0x01C9, r25	; 0x8001c9 <cont_sirene+0x1>
    316e:	80 93 c8 01 	sts	0x01C8, r24	; 0x8001c8 <cont_sirene>
    3172:	2e c0       	rjmp	.+92     	; 0x31d0 <__vector_11+0xf2>
    3174:	8d 30       	cpi	r24, 0x0D	; 13
    3176:	61 f5       	brne	.+88     	; 0x31d0 <__vector_11+0xf2>
    3178:	80 91 c6 01 	lds	r24, 0x01C6	; 0x8001c6 <cont_ativacao>
    317c:	90 91 c7 01 	lds	r25, 0x01C7	; 0x8001c7 <cont_ativacao+0x1>
    3180:	20 91 02 01 	lds	r18, 0x0102	; 0x800102 <t_ativacao>
    3184:	30 91 03 01 	lds	r19, 0x0103	; 0x800103 <t_ativacao+0x1>
    3188:	82 17       	cp	r24, r18
    318a:	93 07       	cpc	r25, r19
    318c:	e1 f4       	brne	.+56     	; 0x31c6 <__vector_11+0xe8>
    318e:	85 e0       	ldi	r24, 0x05	; 5
    3190:	80 93 dc 01 	sts	0x01DC, r24	; 0x8001dc <state>
    3194:	0e 94 eb 1d 	call	0x3bd6	; 0x3bd6 <msg_ativado>
    3198:	0e 94 61 21 	call	0x42c2	; 0x42c2 <RTC_Read_Hours>
    319c:	c8 2f       	mov	r28, r24
    319e:	0e 94 65 21 	call	0x42ca	; 0x42ca <RTC_Read_Day>
    31a2:	6c 2f       	mov	r22, r28
    31a4:	0e 94 13 1b 	call	0x3626	; 0x3626 <UARTA>
    31a8:	10 92 c7 01 	sts	0x01C7, r1	; 0x8001c7 <cont_ativacao+0x1>
    31ac:	10 92 c6 01 	sts	0x01C6, r1	; 0x8001c6 <cont_ativacao>
    31b0:	80 91 de 01 	lds	r24, 0x01DE	; 0x8001de <varEscritaSerial>
    31b4:	80 68       	ori	r24, 0x80	; 128
    31b6:	90 91 13 01 	lds	r25, 0x0113	; 0x800113 <var_aux_1>
    31ba:	89 2b       	or	r24, r25
    31bc:	80 93 de 01 	sts	0x01DE, r24	; 0x8001de <varEscritaSerial>
    31c0:	0e 94 25 21 	call	0x424a	; 0x424a <StopTimer1>
    31c4:	05 c0       	rjmp	.+10     	; 0x31d0 <__vector_11+0xf2>
    31c6:	01 96       	adiw	r24, 0x01	; 1
    31c8:	90 93 c7 01 	sts	0x01C7, r25	; 0x8001c7 <cont_ativacao+0x1>
    31cc:	80 93 c6 01 	sts	0x01C6, r24	; 0x8001c6 <cont_ativacao>
    31d0:	ff 91       	pop	r31
    31d2:	ef 91       	pop	r30
    31d4:	cf 91       	pop	r28
    31d6:	bf 91       	pop	r27
    31d8:	af 91       	pop	r26
    31da:	9f 91       	pop	r25
    31dc:	8f 91       	pop	r24
    31de:	7f 91       	pop	r23
    31e0:	6f 91       	pop	r22
    31e2:	5f 91       	pop	r21
    31e4:	4f 91       	pop	r20
    31e6:	3f 91       	pop	r19
    31e8:	2f 91       	pop	r18
    31ea:	0f 90       	pop	r0
    31ec:	0f be       	out	0x3f, r0	; 63
    31ee:	0f 90       	pop	r0
    31f0:	1f 90       	pop	r1
    31f2:	18 95       	reti

Disassembly of section .text.UARTP:

0000369a <UARTP>:
    369a:	cf 93       	push	r28
    369c:	df 93       	push	r29
    369e:	d8 2f       	mov	r29, r24
    36a0:	c6 2f       	mov	r28, r22
    36a2:	6e e6       	ldi	r22, 0x6E	; 110
    36a4:	72 e0       	ldi	r23, 0x02	; 2
    36a6:	80 e0       	ldi	r24, 0x00	; 0
    36a8:	0e 94 50 20 	call	0x40a0	; 0x40a0 <EnviarStringUART>
    36ac:	0e 94 69 21 	call	0x42d2	; 0x42d2 <ProntoTXUART>
    36b0:	88 23       	and	r24, r24
    36b2:	e1 f3       	breq	.-8      	; 0x36ac <UARTP+0x12>
    36b4:	80 91 06 01 	lds	r24, 0x0106	; 0x800106 <User>
    36b8:	0e 94 94 1a 	call	0x3528	; 0x3528 <EnviarDec1Byte>
    36bc:	6f e4       	ldi	r22, 0x4F	; 79
    36be:	72 e0       	ldi	r23, 0x02	; 2
    36c0:	80 e0       	ldi	r24, 0x00	; 0
    36c2:	0e 94 50 20 	call	0x40a0	; 0x40a0 <EnviarStringUART>
    36c6:	0e 94 69 21 	call	0x42d2	; 0x42d2 <ProntoTXUART>
    36ca:	88 23       	and	r24, r24
    36cc:	e1 f3       	breq	.-8      	; 0x36c6 <UARTP+0x2c>
    36ce:	8d 2f       	mov	r24, r29
    36d0:	0e 94 94 1a 	call	0x3528	; 0x3528 <EnviarDec1Byte>
    36d4:	69 e5       	ldi	r22, 0x59	; 89
    36d6:	72 e0       	ldi	r23, 0x02	; 2
    36d8:	80 e0       	ldi	r24, 0x00	; 0
    36da:	0e 94 50 20 	call	0x40a0	; 0x40a0 <EnviarStringUART>
    36de:	0e 94 69 21 	call	0x42d2	; 0x42d2 <ProntoTXUART>
    36e2:	88 23       	and	r24, r24
    36e4:	e1 f3       	breq	.-8      	; 0x36de <UARTP+0x44>
    36e6:	8c 2f       	mov	r24, r28
    36e8:	0e 94 94 1a 	call	0x3528	; 0x3528 <EnviarDec1Byte>
    36ec:	66 e6       	ldi	r22, 0x66	; 102
    36ee:	72 e0       	ldi	r23, 0x02	; 2
    36f0:	80 e0       	ldi	r24, 0x00	; 0
    36f2:	0e 94 50 20 	call	0x40a0	; 0x40a0 <EnviarStringUART>
    36f6:	0e 94 69 21 	call	0x42d2	; 0x42d2 <ProntoTXUART>
    36fa:	88 23       	and	r24, r24
    36fc:	e1 f3       	breq	.-8      	; 0x36f6 <UARTP+0x5c>
    36fe:	6b e6       	ldi	r22, 0x6B	; 107
    3700:	72 e0       	ldi	r23, 0x02	; 2
    3702:	80 e0       	ldi	r24, 0x00	; 0
    3704:	0e 94 50 20 	call	0x40a0	; 0x40a0 <EnviarStringUART>
    3708:	df 91       	pop	r29
    370a:	cf 91       	pop	r28
    370c:	08 95       	ret

Disassembly of section .text.__vector_2:

000002d2 <__vector_2>:
     2d2:	1f 92       	push	r1
     2d4:	0f 92       	push	r0
     2d6:	0f b6       	in	r0, 0x3f	; 63
     2d8:	0f 92       	push	r0
     2da:	11 24       	eor	r1, r1
     2dc:	2f 93       	push	r18
     2de:	3f 93       	push	r19
     2e0:	4f 93       	push	r20
     2e2:	5f 93       	push	r21
     2e4:	6f 93       	push	r22
     2e6:	7f 93       	push	r23
     2e8:	8f 93       	push	r24
     2ea:	9f 93       	push	r25
     2ec:	af 93       	push	r26
     2ee:	bf 93       	push	r27
     2f0:	cf 93       	push	r28
     2f2:	ef 93       	push	r30
     2f4:	ff 93       	push	r31
     2f6:	89 b1       	in	r24, 0x09	; 9
     2f8:	80 7f       	andi	r24, 0xF0	; 240
     2fa:	90 e0       	ldi	r25, 0x00	; 0
     2fc:	90 93 09 01 	sts	0x0109, r25	; 0x800109 <valor_pinod+0x1>
     300:	80 93 08 01 	sts	0x0108, r24	; 0x800108 <valor_pinod>
     304:	80 3f       	cpi	r24, 0xF0	; 240
     306:	91 05       	cpc	r25, r1
     308:	09 f0       	breq	.+2      	; 0x30c <__vector_2+0x3a>
     30a:	6b c1       	rjmp	.+726    	; 0x5e2 <__EEPROM_REGION_LENGTH__+0x1e2>
     30c:	91 e0       	ldi	r25, 0x01	; 1
     30e:	80 91 dc 01 	lds	r24, 0x01DC	; 0x8001dc <state>
     312:	88 30       	cpi	r24, 0x08	; 8
     314:	09 f0       	breq	.+2      	; 0x318 <__vector_2+0x46>
     316:	90 e0       	ldi	r25, 0x00	; 0
     318:	81 e0       	ldi	r24, 0x01	; 1
     31a:	20 91 d8 01 	lds	r18, 0x01D8	; 0x8001d8 <count_senha>
     31e:	30 91 d9 01 	lds	r19, 0x01D9	; 0x8001d9 <count_senha+0x1>
     322:	24 30       	cpi	r18, 0x04	; 4
     324:	31 05       	cpc	r19, r1
     326:	0c f0       	brlt	.+2      	; 0x32a <__vector_2+0x58>
     328:	80 e0       	ldi	r24, 0x00	; 0
     32a:	89 23       	and	r24, r25
     32c:	a9 f0       	breq	.+42     	; 0x358 <__vector_2+0x86>
     32e:	81 e3       	ldi	r24, 0x31	; 49
     330:	0e 94 36 1f 	call	0x3e6c	; 0x3e6c <send_word_lcd>
     334:	46 e9       	ldi	r20, 0x96	; 150
     336:	52 e0       	ldi	r21, 0x02	; 2
     338:	60 e0       	ldi	r22, 0x00	; 0
     33a:	80 91 d8 01 	lds	r24, 0x01D8	; 0x8001d8 <count_senha>
     33e:	90 91 d9 01 	lds	r25, 0x01D9	; 0x8001d9 <count_senha+0x1>
     342:	0e 94 1b 21 	call	0x4236	; 0x4236 <insert_senha>
     346:	80 91 d8 01 	lds	r24, 0x01D8	; 0x8001d8 <count_senha>
     34a:	90 91 d9 01 	lds	r25, 0x01D9	; 0x8001d9 <count_senha+0x1>
     34e:	01 96       	adiw	r24, 0x01	; 1
     350:	90 93 d9 01 	sts	0x01D9, r25	; 0x8001d9 <count_senha+0x1>
     354:	80 93 d8 01 	sts	0x01D8, r24	; 0x8001d8 <count_senha>
     358:	91 e0       	ldi	r25, 0x01	; 1
     35a:	80 91 dc 01 	lds	r24, 0x01DC	; 0x8001dc <state>
     35e:	89 30       	cpi	r24, 0x09	; 9
     360:	09 f0       	breq	.+2      	; 0x364 <__vector_2+0x92>
     362:	90 e0       	ldi	r25, 0x00	; 0
     364:	81 e0       	ldi	r24, 0x01	; 1
     366:	20 91 d8 01 	lds	r18, 0x01D8	; 0x8001d8 <count_senha>
     36a:	30 91 d9 01 	lds	r19, 0x01D9	; 0x8001d9 <count_senha+0x1>
     36e:	24 30       	cpi	r18, 0x04	; 4
     370:	31 05       	cpc	r19, r1
     372:	0c f0       	brlt	.+2      	; 0x376 <__vector_2+0xa4>
     374:	80 e0       	ldi	r24, 0x00	; 0
     376:	89 23       	and	r24, r25
     378:	a9 f0       	breq	.+42     	; 0x3a4 <__vector_2+0xd2>
     37a:	81 e3       	ldi	r24, 0x31	; 49
     37c:	0e 94 36 1f 	call	0x3e6c	; 0x3e6c <send_word_lcd>
     380:	46 e9       	ldi	r20, 0x96	; 150
     382:	52 e0       	ldi	r21, 0x02	; 2
     384:	60 e0       	ldi	r22, 0x00	; 0
     386:	80 91 d8 01 	lds	r24, 0x01D8	; 0x8001d8 <count_senha>
     38a:	90 91 d9 01 	lds	r25, 0x01D9	; 0x8001d9 <count_senha+0x1>
     38e:	0e 94 71 1e 	call	0x3ce2	; 0x3ce2 <senha_arm>
     392:	80 91 d8 01 	lds	r24, 0x01D8	; 0x8001d8 <count_senha>
     396:	90 91 d9 01 	lds	r25, 0x01D9	; 0x8001d9 <count_senha+0x1>
     39a:	01 96       	adiw	r24, 0x01	; 1
     39c:	90 93 d9 01 	sts	0x01D9, r25	; 0x8001d9 <count_senha+0x1>
     3a0:	80 93 d8 01 	sts	0x01D8, r24	; 0x8001d8 <count_senha>
     3a4:	91 e0       	ldi	r25, 0x01	; 1
     3a6:	80 91 dc 01 	lds	r24, 0x01DC	; 0x8001dc <state>
     3aa:	8a 30       	cpi	r24, 0x0A	; 10
     3ac:	09 f0       	breq	.+2      	; 0x3b0 <__vector_2+0xde>
     3ae:	90 e0       	ldi	r25, 0x00	; 0
     3b0:	81 e0       	ldi	r24, 0x01	; 1
     3b2:	20 91 d8 01 	lds	r18, 0x01D8	; 0x8001d8 <count_senha>
     3b6:	30 91 d9 01 	lds	r19, 0x01D9	; 0x8001d9 <count_senha+0x1>
     3ba:	24 30       	cpi	r18, 0x04	; 4
     3bc:	31 05       	cpc	r19, r1
     3be:	0c f0       	brlt	.+2      	; 0x3c2 <__vector_2+0xf0>
     3c0:	80 e0       	ldi	r24, 0x00	; 0
     3c2:	89 23       	and	r24, r25
     3c4:	a9 f0       	breq	.+42     	; 0x3f0 <__vector_2+0x11e>
     3c6:	81 e3       	ldi	r24, 0x31	; 49
     3c8:	0e 94 36 1f 	call	0x3e6c	; 0x3e6c <send_word_lcd>
     3cc:	46 e9       	ldi	r20, 0x96	; 150
     3ce:	52 e0       	ldi	r21, 0x02	; 2
     3d0:	60 e0       	ldi	r22, 0x00	; 0
     3d2:	80 91 d8 01 	lds	r24, 0x01D8	; 0x8001d8 <count_senha>
     3d6:	90 91 d9 01 	lds	r25, 0x01D9	; 0x8001d9 <count_senha+0x1>
     3da:	0e 94 1b 21 	call	0x4236	; 0x4236 <insert_senha>
     3de:	80 91 d8 01 	lds	r24, 0x01D8	; 0x8001d8 <count_senha>
     3e2:	90 91 d9 01 	lds	r25, 0x01D9	; 0x8001d9 <count_senha+0x1>
     3e6:	01 96       	adiw	r24, 0x01	; 1
     3e8:	90 93 d9 01 	sts	0x01D9, r25	; 0x8001d9 <count_senha+0x1>
     3ec:	80 93 d8 01 	sts	0x01D8, r24	; 0x8001d8 <count_senha>
     3f0:	91 e0       	ldi	r25, 0x01	; 1
     3f2:	80 91 dc 01 	lds	r24, 0x01DC	; 0x8001dc <state>
     3f6:	8b 30       	cpi	r24, 0x0B	; 11
     3f8:	09 f0       	breq	.+2      	; 0x3fc <__vector_2+0x12a>
     3fa:	90 e0       	ldi	r25, 0x00	; 0
     3fc:	81 e0       	ldi	r24, 0x01	; 1
     3fe:	20 91 d8 01 	lds	r18, 0x01D8	; 0x8001d8 <count_senha>
     402:	30 91 d9 01 	lds	r19, 0x01D9	; 0x8001d9 <count_senha+0x1>
     406:	24 30       	cpi	r18, 0x04	; 4
     408:	31 05       	cpc	r19, r1
     40a:	0c f0       	brlt	.+2      	; 0x40e <__EEPROM_REGION_LENGTH__+0xe>
     40c:	80 e0       	ldi	r24, 0x00	; 0
     40e:	89 23       	and	r24, r25
     410:	a9 f0       	breq	.+42     	; 0x43c <__EEPROM_REGION_LENGTH__+0x3c>
     412:	81 e3       	ldi	r24, 0x31	; 49
     414:	0e 94 36 1f 	call	0x3e6c	; 0x3e6c <send_word_lcd>
     418:	46 e9       	ldi	r20, 0x96	; 150
     41a:	52 e0       	ldi	r21, 0x02	; 2
     41c:	60 e0       	ldi	r22, 0x00	; 0
     41e:	80 91 d8 01 	lds	r24, 0x01D8	; 0x8001d8 <count_senha>
     422:	90 91 d9 01 	lds	r25, 0x01D9	; 0x8001d9 <count_senha+0x1>
     426:	0e 94 1b 21 	call	0x4236	; 0x4236 <insert_senha>
     42a:	80 91 d8 01 	lds	r24, 0x01D8	; 0x8001d8 <count_senha>
     42e:	90 91 d9 01 	lds	r25, 0x01D9	; 0x8001d9 <count_senha+0x1>
     432:	01 96       	adiw	r24, 0x01	; 1
     434:	90 93 d9 01 	sts	0x01D9, r25	; 0x8001d9 <count_senha+0x1>
     438:	80 93 d8 01 	sts	0x01D8, r24	; 0x8001d8 <count_senha>
     43c:	91 e0       	ldi	r25, 0x01	; 1
     43e:	80 91 dc 01 	lds	r24, 0x01DC	; 0x8001dc <state>
     442:	87 30       	cpi	r24, 0x07	; 7
     444:	09 f0       	breq	.+2      	; 0x448 <__EEPROM_REGION_LENGTH__+0x48>
     446:	90 e0       	ldi	r25, 0x00	; 0
     448:	81 e0       	ldi	r24, 0x01	; 1
     44a:	20 91 da 01 	lds	r18, 0x01DA	; 0x8001da <flag_a_senha>
     44e:	30 91 db 01 	lds	r19, 0x01DB	; 0x8001db <flag_a_senha+0x1>
     452:	21 30       	cpi	r18, 0x01	; 1
     454:	31 05       	cpc	r19, r1
     456:	09 f0       	breq	.+2      	; 0x45a <__EEPROM_REGION_LENGTH__+0x5a>
     458:	80 e0       	ldi	r24, 0x00	; 0
     45a:	89 23       	and	r24, r25
     45c:	79 f0       	breq	.+30     	; 0x47c <__EEPROM_REGION_LENGTH__+0x7c>
     45e:	89 e0       	ldi	r24, 0x09	; 9
     460:	80 93 dc 01 	sts	0x01DC, r24	; 0x8001dc <state>
     464:	0e 94 e8 1e 	call	0x3dd0	; 0x3dd0 <msg_altera_senha>
     468:	81 e0       	ldi	r24, 0x01	; 1
     46a:	90 e0       	ldi	r25, 0x00	; 0
     46c:	90 93 2a 01 	sts	0x012A, r25	; 0x80012a <addr_senha+0x1>
     470:	80 93 29 01 	sts	0x0129, r24	; 0x800129 <addr_senha>
     474:	10 92 db 01 	sts	0x01DB, r1	; 0x8001db <flag_a_senha+0x1>
     478:	10 92 da 01 	sts	0x01DA, r1	; 0x8001da <flag_a_senha>
     47c:	91 e0       	ldi	r25, 0x01	; 1
     47e:	80 91 dc 01 	lds	r24, 0x01DC	; 0x8001dc <state>
     482:	8f 30       	cpi	r24, 0x0F	; 15
     484:	09 f0       	breq	.+2      	; 0x488 <__EEPROM_REGION_LENGTH__+0x88>
     486:	90 e0       	ldi	r25, 0x00	; 0
     488:	81 e0       	ldi	r24, 0x01	; 1
     48a:	20 91 d2 01 	lds	r18, 0x01D2	; 0x8001d2 <flag_sensor>
     48e:	30 91 d3 01 	lds	r19, 0x01D3	; 0x8001d3 <flag_sensor+0x1>
     492:	23 2b       	or	r18, r19
     494:	09 f0       	breq	.+2      	; 0x498 <__EEPROM_REGION_LENGTH__+0x98>
     496:	80 e0       	ldi	r24, 0x00	; 0
     498:	89 23       	and	r24, r25
     49a:	21 f0       	breq	.+8      	; 0x4a4 <__EEPROM_REGION_LENGTH__+0xa4>
     49c:	81 e0       	ldi	r24, 0x01	; 1
     49e:	90 e0       	ldi	r25, 0x00	; 0
     4a0:	0e 94 cc 17 	call	0x2f98	; 0x2f98 <hab_sensor>
     4a4:	91 e0       	ldi	r25, 0x01	; 1
     4a6:	80 91 dc 01 	lds	r24, 0x01DC	; 0x8001dc <state>
     4aa:	80 31       	cpi	r24, 0x10	; 16
     4ac:	09 f0       	breq	.+2      	; 0x4b0 <__EEPROM_REGION_LENGTH__+0xb0>
     4ae:	90 e0       	ldi	r25, 0x00	; 0
     4b0:	81 e0       	ldi	r24, 0x01	; 1
     4b2:	20 91 d2 01 	lds	r18, 0x01D2	; 0x8001d2 <flag_sensor>
     4b6:	30 91 d3 01 	lds	r19, 0x01D3	; 0x8001d3 <flag_sensor+0x1>
     4ba:	23 2b       	or	r18, r19
     4bc:	09 f0       	breq	.+2      	; 0x4c0 <__EEPROM_REGION_LENGTH__+0xc0>
     4be:	80 e0       	ldi	r24, 0x00	; 0
     4c0:	89 23       	and	r24, r25
     4c2:	21 f0       	breq	.+8      	; 0x4cc <__EEPROM_REGION_LENGTH__+0xcc>
     4c4:	81 e0       	ldi	r24, 0x01	; 1
     4c6:	90 e0       	ldi	r25, 0x00	; 0
     4c8:	0e 94 fa 18 	call	0x31f4	; 0x31f4 <hab_zonas>
     4cc:	90 91 dc 01 	lds	r25, 0x01DC	; 0x8001dc <state>
     4d0:	21 e0       	ldi	r18, 0x01	; 1
     4d2:	40 91 ca 01 	lds	r20, 0x01CA	; 0x8001ca <flag_z1>
     4d6:	50 91 cb 01 	lds	r21, 0x01CB	; 0x8001cb <flag_z1+0x1>
     4da:	45 2b       	or	r20, r21
     4dc:	09 f0       	breq	.+2      	; 0x4e0 <__EEPROM_REGION_LENGTH__+0xe0>
     4de:	20 e0       	ldi	r18, 0x00	; 0
     4e0:	81 e0       	ldi	r24, 0x01	; 1
     4e2:	91 31       	cpi	r25, 0x11	; 17
     4e4:	09 f0       	breq	.+2      	; 0x4e8 <__EEPROM_REGION_LENGTH__+0xe8>
     4e6:	80 e0       	ldi	r24, 0x00	; 0
     4e8:	82 23       	and	r24, r18
     4ea:	f9 f0       	breq	.+62     	; 0x52a <__EEPROM_REGION_LENGTH__+0x12a>
     4ec:	20 91 cc 01 	lds	r18, 0x01CC	; 0x8001cc <flag_z>
     4f0:	30 91 cd 01 	lds	r19, 0x01CD	; 0x8001cd <flag_z+0x1>
     4f4:	21 15       	cp	r18, r1
     4f6:	31 05       	cpc	r19, r1
     4f8:	59 f4       	brne	.+22     	; 0x510 <__EEPROM_REGION_LENGTH__+0x110>
     4fa:	21 e0       	ldi	r18, 0x01	; 1
     4fc:	30 e0       	ldi	r19, 0x00	; 0
     4fe:	30 93 01 01 	sts	0x0101, r19	; 0x800101 <__DATA_REGION_ORIGIN__+0x1>
     502:	20 93 00 01 	sts	0x0100, r18	; 0x800100 <__DATA_REGION_ORIGIN__>
     506:	30 93 cd 01 	sts	0x01CD, r19	; 0x8001cd <flag_z+0x1>
     50a:	20 93 cc 01 	sts	0x01CC, r18	; 0x8001cc <flag_z>
     50e:	0d c0       	rjmp	.+26     	; 0x52a <__EEPROM_REGION_LENGTH__+0x12a>
     510:	21 30       	cpi	r18, 0x01	; 1
     512:	31 05       	cpc	r19, r1
     514:	51 f4       	brne	.+20     	; 0x52a <__EEPROM_REGION_LENGTH__+0x12a>
     516:	21 e0       	ldi	r18, 0x01	; 1
     518:	30 e0       	ldi	r19, 0x00	; 0
     51a:	30 93 05 01 	sts	0x0105, r19	; 0x800105 <idzona+0x1>
     51e:	20 93 04 01 	sts	0x0104, r18	; 0x800104 <idzona>
     522:	30 93 cb 01 	sts	0x01CB, r19	; 0x8001cb <flag_z1+0x1>
     526:	20 93 ca 01 	sts	0x01CA, r18	; 0x8001ca <flag_z1>
     52a:	20 91 be 01 	lds	r18, 0x01BE	; 0x8001be <cont_t>
     52e:	30 91 bf 01 	lds	r19, 0x01BF	; 0x8001bf <cont_t+0x1>
     532:	41 e0       	ldi	r20, 0x01	; 1
     534:	93 31       	cpi	r25, 0x13	; 19
     536:	09 f0       	breq	.+2      	; 0x53a <__EEPROM_REGION_LENGTH__+0x13a>
     538:	40 e0       	ldi	r20, 0x00	; 0
     53a:	81 e0       	ldi	r24, 0x01	; 1
     53c:	22 30       	cpi	r18, 0x02	; 2
     53e:	31 05       	cpc	r19, r1
     540:	0c f0       	brlt	.+2      	; 0x544 <__EEPROM_REGION_LENGTH__+0x144>
     542:	80 e0       	ldi	r24, 0x00	; 0
     544:	84 23       	and	r24, r20
     546:	79 f0       	breq	.+30     	; 0x566 <__EEPROM_REGION_LENGTH__+0x166>
     548:	f9 01       	movw	r30, r18
     54a:	ee 0f       	add	r30, r30
     54c:	ff 1f       	adc	r31, r31
     54e:	e3 5f       	subi	r30, 0xF3	; 243
     550:	fe 4f       	sbci	r31, 0xFE	; 254
     552:	41 e0       	ldi	r20, 0x01	; 1
     554:	50 e0       	ldi	r21, 0x00	; 0
     556:	51 83       	std	Z+1, r21	; 0x01
     558:	40 83       	st	Z, r20
     55a:	2f 5f       	subi	r18, 0xFF	; 255
     55c:	3f 4f       	sbci	r19, 0xFF	; 255
     55e:	30 93 bf 01 	sts	0x01BF, r19	; 0x8001bf <cont_t+0x1>
     562:	20 93 be 01 	sts	0x01BE, r18	; 0x8001be <cont_t>
     566:	81 e0       	ldi	r24, 0x01	; 1
     568:	20 91 be 01 	lds	r18, 0x01BE	; 0x8001be <cont_t>
     56c:	30 91 bf 01 	lds	r19, 0x01BF	; 0x8001bf <cont_t+0x1>
     570:	23 30       	cpi	r18, 0x03	; 3
     572:	31 05       	cpc	r19, r1
     574:	0c f0       	brlt	.+2      	; 0x578 <__EEPROM_REGION_LENGTH__+0x178>
     576:	80 e0       	ldi	r24, 0x00	; 0
     578:	21 e0       	ldi	r18, 0x01	; 1
     57a:	94 31       	cpi	r25, 0x14	; 20
     57c:	09 f0       	breq	.+2      	; 0x580 <__EEPROM_REGION_LENGTH__+0x180>
     57e:	20 e0       	ldi	r18, 0x00	; 0
     580:	28 23       	and	r18, r24
     582:	99 f0       	breq	.+38     	; 0x5aa <__EEPROM_REGION_LENGTH__+0x1aa>
     584:	20 91 ba 01 	lds	r18, 0x01BA	; 0x8001ba <cont_s>
     588:	30 91 bb 01 	lds	r19, 0x01BB	; 0x8001bb <cont_s+0x1>
     58c:	f9 01       	movw	r30, r18
     58e:	ee 0f       	add	r30, r30
     590:	ff 1f       	adc	r31, r31
     592:	e5 5d       	subi	r30, 0xD5	; 213
     594:	fe 4f       	sbci	r31, 0xFE	; 254
     596:	41 e0       	ldi	r20, 0x01	; 1
     598:	50 e0       	ldi	r21, 0x00	; 0
     59a:	51 83       	std	Z+1, r21	; 0x01
     59c:	40 83       	st	Z, r20
     59e:	2f 5f       	subi	r18, 0xFF	; 255
     5a0:	3f 4f       	sbci	r19, 0xFF	; 255
     5a2:	30 93 bb 01 	sts	0x01BB, r19	; 0x8001bb <cont_s+0x1>
     5a6:	20 93 ba 01 	sts	0x01BA, r18	; 0x8001ba <cont_s>
     5aa:	21 e0       	ldi	r18, 0x01	; 1
     5ac:	92 31       	cpi	r25, 0x12	; 18
     5ae:	09 f0       	breq	.+2      	; 0x5b2 <__EEPROM_REGION_LENGTH__+0x1b2>
     5b0:	20 e0       	ldi	r18, 0x00	; 0
     5b2:	82 23       	and	r24, r18
     5b4:	11 f4       	brne	.+4      	; 0x5ba <__EEPROM_REGION_LENGTH__+0x1ba>
     5b6:	0c 94 1f 11 	jmp	0x223e	; 0x223e <__stack+0x193f>
     5ba:	80 91 bc 01 	lds	r24, 0x01BC	; 0x8001bc <cont_aa>
     5be:	90 91 bd 01 	lds	r25, 0x01BD	; 0x8001bd <cont_aa+0x1>
     5c2:	fc 01       	movw	r30, r24
     5c4:	ee 0f       	add	r30, r30
     5c6:	ff 1f       	adc	r31, r31
     5c8:	ed 5d       	subi	r30, 0xDD	; 221
     5ca:	fe 4f       	sbci	r31, 0xFE	; 254
     5cc:	21 e0       	ldi	r18, 0x01	; 1
     5ce:	30 e0       	ldi	r19, 0x00	; 0
     5d0:	31 83       	std	Z+1, r19	; 0x01
     5d2:	20 83       	st	Z, r18
     5d4:	01 96       	adiw	r24, 0x01	; 1
     5d6:	90 93 bd 01 	sts	0x01BD, r25	; 0x8001bd <cont_aa+0x1>
     5da:	80 93 bc 01 	sts	0x01BC, r24	; 0x8001bc <cont_aa>
     5de:	0c 94 1f 11 	jmp	0x223e	; 0x223e <__stack+0x193f>
     5e2:	80 3e       	cpi	r24, 0xE0	; 224
     5e4:	91 05       	cpc	r25, r1
     5e6:	09 f0       	breq	.+2      	; 0x5ea <__EEPROM_REGION_LENGTH__+0x1ea>
     5e8:	88 c1       	rjmp	.+784    	; 0x8fa <__DATA_REGION_LENGTH__+0xfa>
     5ea:	91 e0       	ldi	r25, 0x01	; 1
     5ec:	80 91 dc 01 	lds	r24, 0x01DC	; 0x8001dc <state>
     5f0:	88 30       	cpi	r24, 0x08	; 8
     5f2:	09 f0       	breq	.+2      	; 0x5f6 <__EEPROM_REGION_LENGTH__+0x1f6>
     5f4:	90 e0       	ldi	r25, 0x00	; 0
     5f6:	81 e0       	ldi	r24, 0x01	; 1
     5f8:	20 91 d8 01 	lds	r18, 0x01D8	; 0x8001d8 <count_senha>
     5fc:	30 91 d9 01 	lds	r19, 0x01D9	; 0x8001d9 <count_senha+0x1>
     600:	24 30       	cpi	r18, 0x04	; 4
     602:	31 05       	cpc	r19, r1
     604:	0c f0       	brlt	.+2      	; 0x608 <__EEPROM_REGION_LENGTH__+0x208>
     606:	80 e0       	ldi	r24, 0x00	; 0
     608:	89 23       	and	r24, r25
     60a:	a9 f0       	breq	.+42     	; 0x636 <__EEPROM_REGION_LENGTH__+0x236>
     60c:	82 e3       	ldi	r24, 0x32	; 50
     60e:	0e 94 36 1f 	call	0x3e6c	; 0x3e6c <send_word_lcd>
     612:	48 e9       	ldi	r20, 0x98	; 152
     614:	52 e0       	ldi	r21, 0x02	; 2
     616:	60 e0       	ldi	r22, 0x00	; 0
     618:	80 91 d8 01 	lds	r24, 0x01D8	; 0x8001d8 <count_senha>
     61c:	90 91 d9 01 	lds	r25, 0x01D9	; 0x8001d9 <count_senha+0x1>
     620:	0e 94 1b 21 	call	0x4236	; 0x4236 <insert_senha>
     624:	80 91 d8 01 	lds	r24, 0x01D8	; 0x8001d8 <count_senha>
     628:	90 91 d9 01 	lds	r25, 0x01D9	; 0x8001d9 <count_senha+0x1>
     62c:	01 96       	adiw	r24, 0x01	; 1
     62e:	90 93 d9 01 	sts	0x01D9, r25	; 0x8001d9 <count_senha+0x1>
     632:	80 93 d8 01 	sts	0x01D8, r24	; 0x8001d8 <count_senha>
     636:	91 e0       	ldi	r25, 0x01	; 1
     638:	80 91 dc 01 	lds	r24, 0x01DC	; 0x8001dc <state>
     63c:	89 30       	cpi	r24, 0x09	; 9
     63e:	09 f0       	breq	.+2      	; 0x642 <__EEPROM_REGION_LENGTH__+0x242>
     640:	90 e0       	ldi	r25, 0x00	; 0
     642:	81 e0       	ldi	r24, 0x01	; 1
     644:	20 91 d8 01 	lds	r18, 0x01D8	; 0x8001d8 <count_senha>
     648:	30 91 d9 01 	lds	r19, 0x01D9	; 0x8001d9 <count_senha+0x1>
     64c:	24 30       	cpi	r18, 0x04	; 4
     64e:	31 05       	cpc	r19, r1
     650:	0c f0       	brlt	.+2      	; 0x654 <__EEPROM_REGION_LENGTH__+0x254>
     652:	80 e0       	ldi	r24, 0x00	; 0
     654:	89 23       	and	r24, r25
     656:	a9 f0       	breq	.+42     	; 0x682 <__EEPROM_REGION_LENGTH__+0x282>
     658:	82 e3       	ldi	r24, 0x32	; 50
     65a:	0e 94 36 1f 	call	0x3e6c	; 0x3e6c <send_word_lcd>
     65e:	48 e9       	ldi	r20, 0x98	; 152
     660:	52 e0       	ldi	r21, 0x02	; 2
     662:	60 e0       	ldi	r22, 0x00	; 0
     664:	80 91 d8 01 	lds	r24, 0x01D8	; 0x8001d8 <count_senha>
     668:	90 91 d9 01 	lds	r25, 0x01D9	; 0x8001d9 <count_senha+0x1>
     66c:	0e 94 71 1e 	call	0x3ce2	; 0x3ce2 <senha_arm>
     670:	80 91 d8 01 	lds	r24, 0x01D8	; 0x8001d8 <count_senha>
     674:	90 91 d9 01 	lds	r25, 0x01D9	; 0x8001d9 <count_senha+0x1>
     678:	01 96       	adiw	r24, 0x01	; 1
     67a:	90 93 d9 01 	sts	0x01D9, r25	; 0x8001d9 <count_senha+0x1>
     67e:	80 93 d8 01 	sts	0x01D8, r24	; 0x8001d8 <count_senha>
     682:	91 e0       	ldi	r25, 0x01	; 1
     684:	80 91 dc 01 	lds	r24, 0x01DC	; 0x8001dc <state>
     688:	8a 30       	cpi	r24, 0x0A	; 10
     68a:	09 f0       	breq	.+2      	; 0x68e <__EEPROM_REGION_LENGTH__+0x28e>
     68c:	90 e0       	ldi	r25, 0x00	; 0
     68e:	81 e0       	ldi	r24, 0x01	; 1
     690:	20 91 d8 01 	lds	r18, 0x01D8	; 0x8001d8 <count_senha>
     694:	30 91 d9 01 	lds	r19, 0x01D9	; 0x8001d9 <count_senha+0x1>
     698:	24 30       	cpi	r18, 0x04	; 4
     69a:	31 05       	cpc	r19, r1
     69c:	0c f0       	brlt	.+2      	; 0x6a0 <__EEPROM_REGION_LENGTH__+0x2a0>
     69e:	80 e0       	ldi	r24, 0x00	; 0
     6a0:	89 23       	and	r24, r25
     6a2:	a9 f0       	breq	.+42     	; 0x6ce <__EEPROM_REGION_LENGTH__+0x2ce>
     6a4:	82 e3       	ldi	r24, 0x32	; 50
     6a6:	0e 94 36 1f 	call	0x3e6c	; 0x3e6c <send_word_lcd>
     6aa:	48 e9       	ldi	r20, 0x98	; 152
     6ac:	52 e0       	ldi	r21, 0x02	; 2
     6ae:	60 e0       	ldi	r22, 0x00	; 0
     6b0:	80 91 d8 01 	lds	r24, 0x01D8	; 0x8001d8 <count_senha>
     6b4:	90 91 d9 01 	lds	r25, 0x01D9	; 0x8001d9 <count_senha+0x1>
     6b8:	0e 94 1b 21 	call	0x4236	; 0x4236 <insert_senha>
     6bc:	80 91 d8 01 	lds	r24, 0x01D8	; 0x8001d8 <count_senha>
     6c0:	90 91 d9 01 	lds	r25, 0x01D9	; 0x8001d9 <count_senha+0x1>
     6c4:	01 96       	adiw	r24, 0x01	; 1
     6c6:	90 93 d9 01 	sts	0x01D9, r25	; 0x8001d9 <count_senha+0x1>
     6ca:	80 93 d8 01 	sts	0x01D8, r24	; 0x8001d8 <count_senha>
     6ce:	91 e0       	ldi	r25, 0x01	; 1
     6d0:	80 91 dc 01 	lds	r24, 0x01DC	; 0x8001dc <state>
     6d4:	8b 30       	cpi	r24, 0x0B	; 11
     6d6:	09 f0       	breq	.+2      	; 0x6da <__EEPROM_REGION_LENGTH__+0x2da>
     6d8:	90 e0       	ldi	r25, 0x00	; 0
     6da:	81 e0       	ldi	r24, 0x01	; 1
     6dc:	20 91 d8 01 	lds	r18, 0x01D8	; 0x8001d8 <count_senha>
     6e0:	30 91 d9 01 	lds	r19, 0x01D9	; 0x8001d9 <count_senha+0x1>
     6e4:	24 30       	cpi	r18, 0x04	; 4
     6e6:	31 05       	cpc	r19, r1
     6e8:	0c f0       	brlt	.+2      	; 0x6ec <__EEPROM_REGION_LENGTH__+0x2ec>
     6ea:	80 e0       	ldi	r24, 0x00	; 0
     6ec:	89 23       	and	r24, r25
     6ee:	a9 f0       	breq	.+42     	; 0x71a <__EEPROM_REGION_LENGTH__+0x31a>
     6f0:	82 e3       	ldi	r24, 0x32	; 50
     6f2:	0e 94 36 1f 	call	0x3e6c	; 0x3e6c <send_word_lcd>
     6f6:	48 e9       	ldi	r20, 0x98	; 152
     6f8:	52 e0       	ldi	r21, 0x02	; 2
     6fa:	60 e0       	ldi	r22, 0x00	; 0
     6fc:	80 91 d8 01 	lds	r24, 0x01D8	; 0x8001d8 <count_senha>
     700:	90 91 d9 01 	lds	r25, 0x01D9	; 0x8001d9 <count_senha+0x1>
     704:	0e 94 1b 21 	call	0x4236	; 0x4236 <insert_senha>
     708:	80 91 d8 01 	lds	r24, 0x01D8	; 0x8001d8 <count_senha>
     70c:	90 91 d9 01 	lds	r25, 0x01D9	; 0x8001d9 <count_senha+0x1>
     710:	01 96       	adiw	r24, 0x01	; 1
     712:	90 93 d9 01 	sts	0x01D9, r25	; 0x8001d9 <count_senha+0x1>
     716:	80 93 d8 01 	sts	0x01D8, r24	; 0x8001d8 <count_senha>
     71a:	91 e0       	ldi	r25, 0x01	; 1
     71c:	80 91 dc 01 	lds	r24, 0x01DC	; 0x8001dc <state>
     720:	87 30       	cpi	r24, 0x07	; 7
     722:	09 f0       	breq	.+2      	; 0x726 <__EEPROM_REGION_LENGTH__+0x326>
     724:	90 e0       	ldi	r25, 0x00	; 0
     726:	20 91 da 01 	lds	r18, 0x01DA	; 0x8001da <flag_a_senha>
     72a:	30 91 db 01 	lds	r19, 0x01DB	; 0x8001db <flag_a_senha+0x1>
     72e:	41 e0       	ldi	r20, 0x01	; 1
     730:	60 91 c4 01 	lds	r22, 0x01C4	; 0x8001c4 <flag_timeout>
     734:	70 91 c5 01 	lds	r23, 0x01C5	; 0x8001c5 <flag_timeout+0x1>
     738:	67 2b       	or	r22, r23
     73a:	09 f0       	breq	.+2      	; 0x73e <__EEPROM_REGION_LENGTH__+0x33e>
     73c:	40 e0       	ldi	r20, 0x00	; 0
     73e:	81 e0       	ldi	r24, 0x01	; 1
     740:	21 15       	cp	r18, r1
     742:	31 05       	cpc	r19, r1
     744:	09 f0       	breq	.+2      	; 0x748 <__EEPROM_REGION_LENGTH__+0x348>
     746:	80 e0       	ldi	r24, 0x00	; 0
     748:	84 23       	and	r24, r20
     74a:	99 23       	and	r25, r25
     74c:	49 f0       	breq	.+18     	; 0x760 <__EEPROM_REGION_LENGTH__+0x360>
     74e:	88 23       	and	r24, r24
     750:	39 f0       	breq	.+14     	; 0x760 <__EEPROM_REGION_LENGTH__+0x360>
     752:	81 e0       	ldi	r24, 0x01	; 1
     754:	90 e0       	ldi	r25, 0x00	; 0
     756:	90 93 db 01 	sts	0x01DB, r25	; 0x8001db <flag_a_senha+0x1>
     75a:	80 93 da 01 	sts	0x01DA, r24	; 0x8001da <flag_a_senha>
     75e:	16 c0       	rjmp	.+44     	; 0x78c <__EEPROM_REGION_LENGTH__+0x38c>
     760:	81 e0       	ldi	r24, 0x01	; 1
     762:	21 30       	cpi	r18, 0x01	; 1
     764:	31 05       	cpc	r19, r1
     766:	09 f0       	breq	.+2      	; 0x76a <__EEPROM_REGION_LENGTH__+0x36a>
     768:	80 e0       	ldi	r24, 0x00	; 0
     76a:	98 23       	and	r25, r24
     76c:	79 f0       	breq	.+30     	; 0x78c <__EEPROM_REGION_LENGTH__+0x38c>
     76e:	89 e0       	ldi	r24, 0x09	; 9
     770:	80 93 dc 01 	sts	0x01DC, r24	; 0x8001dc <state>
     774:	0e 94 e8 1e 	call	0x3dd0	; 0x3dd0 <msg_altera_senha>
     778:	82 e0       	ldi	r24, 0x02	; 2
     77a:	90 e0       	ldi	r25, 0x00	; 0
     77c:	90 93 2a 01 	sts	0x012A, r25	; 0x80012a <addr_senha+0x1>
     780:	80 93 29 01 	sts	0x0129, r24	; 0x800129 <addr_senha>
     784:	10 92 db 01 	sts	0x01DB, r1	; 0x8001db <flag_a_senha+0x1>
     788:	10 92 da 01 	sts	0x01DA, r1	; 0x8001da <flag_a_senha>
     78c:	91 e0       	ldi	r25, 0x01	; 1
     78e:	80 91 dc 01 	lds	r24, 0x01DC	; 0x8001dc <state>
     792:	8f 30       	cpi	r24, 0x0F	; 15
     794:	09 f0       	breq	.+2      	; 0x798 <__EEPROM_REGION_LENGTH__+0x398>
     796:	90 e0       	ldi	r25, 0x00	; 0
     798:	81 e0       	ldi	r24, 0x01	; 1
     79a:	20 91 d2 01 	lds	r18, 0x01D2	; 0x8001d2 <flag_sensor>
     79e:	30 91 d3 01 	lds	r19, 0x01D3	; 0x8001d3 <flag_sensor+0x1>
     7a2:	23 2b       	or	r18, r19
     7a4:	09 f0       	breq	.+2      	; 0x7a8 <__EEPROM_REGION_LENGTH__+0x3a8>
     7a6:	80 e0       	ldi	r24, 0x00	; 0
     7a8:	89 23       	and	r24, r25
     7aa:	21 f0       	breq	.+8      	; 0x7b4 <__EEPROM_REGION_LENGTH__+0x3b4>
     7ac:	82 e0       	ldi	r24, 0x02	; 2
     7ae:	90 e0       	ldi	r25, 0x00	; 0
     7b0:	0e 94 cc 17 	call	0x2f98	; 0x2f98 <hab_sensor>
     7b4:	91 e0       	ldi	r25, 0x01	; 1
     7b6:	80 91 dc 01 	lds	r24, 0x01DC	; 0x8001dc <state>
     7ba:	80 31       	cpi	r24, 0x10	; 16
     7bc:	09 f0       	breq	.+2      	; 0x7c0 <__EEPROM_REGION_LENGTH__+0x3c0>
     7be:	90 e0       	ldi	r25, 0x00	; 0
     7c0:	81 e0       	ldi	r24, 0x01	; 1
     7c2:	20 91 d2 01 	lds	r18, 0x01D2	; 0x8001d2 <flag_sensor>
     7c6:	30 91 d3 01 	lds	r19, 0x01D3	; 0x8001d3 <flag_sensor+0x1>
     7ca:	23 2b       	or	r18, r19
     7cc:	09 f0       	breq	.+2      	; 0x7d0 <__EEPROM_REGION_LENGTH__+0x3d0>
     7ce:	80 e0       	ldi	r24, 0x00	; 0
     7d0:	89 23       	and	r24, r25
     7d2:	21 f0       	breq	.+8      	; 0x7dc <__EEPROM_REGION_LENGTH__+0x3dc>
     7d4:	82 e0       	ldi	r24, 0x02	; 2
     7d6:	90 e0       	ldi	r25, 0x00	; 0
     7d8:	0e 94 fa 18 	call	0x31f4	; 0x31f4 <hab_zonas>
     7dc:	90 91 dc 01 	lds	r25, 0x01DC	; 0x8001dc <state>
     7e0:	21 e0       	ldi	r18, 0x01	; 1
     7e2:	40 91 ca 01 	lds	r20, 0x01CA	; 0x8001ca <flag_z1>
     7e6:	50 91 cb 01 	lds	r21, 0x01CB	; 0x8001cb <flag_z1+0x1>
     7ea:	45 2b       	or	r20, r21
     7ec:	09 f0       	breq	.+2      	; 0x7f0 <__EEPROM_REGION_LENGTH__+0x3f0>
     7ee:	20 e0       	ldi	r18, 0x00	; 0
     7f0:	81 e0       	ldi	r24, 0x01	; 1
     7f2:	91 31       	cpi	r25, 0x11	; 17
     7f4:	09 f0       	breq	.+2      	; 0x7f8 <__EEPROM_REGION_LENGTH__+0x3f8>
     7f6:	80 e0       	ldi	r24, 0x00	; 0
     7f8:	82 23       	and	r24, r18
     7fa:	19 f1       	breq	.+70     	; 0x842 <__DATA_REGION_LENGTH__+0x42>
     7fc:	20 91 cc 01 	lds	r18, 0x01CC	; 0x8001cc <flag_z>
     800:	30 91 cd 01 	lds	r19, 0x01CD	; 0x8001cd <flag_z+0x1>
     804:	21 15       	cp	r18, r1
     806:	31 05       	cpc	r19, r1
     808:	69 f4       	brne	.+26     	; 0x824 <__DATA_REGION_LENGTH__+0x24>
     80a:	22 e0       	ldi	r18, 0x02	; 2
     80c:	30 e0       	ldi	r19, 0x00	; 0
     80e:	30 93 01 01 	sts	0x0101, r19	; 0x800101 <__DATA_REGION_ORIGIN__+0x1>
     812:	20 93 00 01 	sts	0x0100, r18	; 0x800100 <__DATA_REGION_ORIGIN__>
     816:	21 e0       	ldi	r18, 0x01	; 1
     818:	30 e0       	ldi	r19, 0x00	; 0
     81a:	30 93 cd 01 	sts	0x01CD, r19	; 0x8001cd <flag_z+0x1>
     81e:	20 93 cc 01 	sts	0x01CC, r18	; 0x8001cc <flag_z>
     822:	0f c0       	rjmp	.+30     	; 0x842 <__DATA_REGION_LENGTH__+0x42>
     824:	21 30       	cpi	r18, 0x01	; 1
     826:	31 05       	cpc	r19, r1
     828:	61 f4       	brne	.+24     	; 0x842 <__DATA_REGION_LENGTH__+0x42>
     82a:	22 e0       	ldi	r18, 0x02	; 2
     82c:	30 e0       	ldi	r19, 0x00	; 0
     82e:	30 93 05 01 	sts	0x0105, r19	; 0x800105 <idzona+0x1>
     832:	20 93 04 01 	sts	0x0104, r18	; 0x800104 <idzona>
     836:	21 e0       	ldi	r18, 0x01	; 1
     838:	30 e0       	ldi	r19, 0x00	; 0
     83a:	30 93 cb 01 	sts	0x01CB, r19	; 0x8001cb <flag_z1+0x1>
     83e:	20 93 ca 01 	sts	0x01CA, r18	; 0x8001ca <flag_z1>
     842:	20 91 be 01 	lds	r18, 0x01BE	; 0x8001be <cont_t>
     846:	30 91 bf 01 	lds	r19, 0x01BF	; 0x8001bf <cont_t+0x1>
     84a:	41 e0       	ldi	r20, 0x01	; 1
     84c:	93 31       	cpi	r25, 0x13	; 19
     84e:	09 f0       	breq	.+2      	; 0x852 <__DATA_REGION_LENGTH__+0x52>
     850:	40 e0       	ldi	r20, 0x00	; 0
     852:	81 e0       	ldi	r24, 0x01	; 1
     854:	22 30       	cpi	r18, 0x02	; 2
     856:	31 05       	cpc	r19, r1
     858:	0c f0       	brlt	.+2      	; 0x85c <__DATA_REGION_LENGTH__+0x5c>
     85a:	80 e0       	ldi	r24, 0x00	; 0
     85c:	84 23       	and	r24, r20
     85e:	79 f0       	breq	.+30     	; 0x87e <__DATA_REGION_LENGTH__+0x7e>
     860:	f9 01       	movw	r30, r18
     862:	ee 0f       	add	r30, r30
     864:	ff 1f       	adc	r31, r31
     866:	e3 5f       	subi	r30, 0xF3	; 243
     868:	fe 4f       	sbci	r31, 0xFE	; 254
     86a:	42 e0       	ldi	r20, 0x02	; 2
     86c:	50 e0       	ldi	r21, 0x00	; 0
     86e:	51 83       	std	Z+1, r21	; 0x01
     870:	40 83       	st	Z, r20
     872:	2f 5f       	subi	r18, 0xFF	; 255
     874:	3f 4f       	sbci	r19, 0xFF	; 255
     876:	30 93 bf 01 	sts	0x01BF, r19	; 0x8001bf <cont_t+0x1>
     87a:	20 93 be 01 	sts	0x01BE, r18	; 0x8001be <cont_t>
     87e:	81 e0       	ldi	r24, 0x01	; 1
     880:	20 91 be 01 	lds	r18, 0x01BE	; 0x8001be <cont_t>
     884:	30 91 bf 01 	lds	r19, 0x01BF	; 0x8001bf <cont_t+0x1>
     888:	23 30       	cpi	r18, 0x03	; 3
     88a:	31 05       	cpc	r19, r1
     88c:	0c f0       	brlt	.+2      	; 0x890 <__DATA_REGION_LENGTH__+0x90>
     88e:	80 e0       	ldi	r24, 0x00	; 0
     890:	21 e0       	ldi	r18, 0x01	; 1
     892:	94 31       	cpi	r25, 0x14	; 20
     894:	09 f0       	breq	.+2      	; 0x898 <__DATA_REGION_LENGTH__+0x98>
     896:	20 e0       	ldi	r18, 0x00	; 0
     898:	28 23       	and	r18, r24
     89a:	99 f0       	breq	.+38     	; 0x8c2 <__DATA_REGION_LENGTH__+0xc2>
     89c:	20 91 ba 01 	lds	r18, 0x01BA	; 0x8001ba <cont_s>
     8a0:	30 91 bb 01 	lds	r19, 0x01BB	; 0x8001bb <cont_s+0x1>
     8a4:	f9 01       	movw	r30, r18
     8a6:	ee 0f       	add	r30, r30
     8a8:	ff 1f       	adc	r31, r31
     8aa:	e5 5d       	subi	r30, 0xD5	; 213
     8ac:	fe 4f       	sbci	r31, 0xFE	; 254
     8ae:	42 e0       	ldi	r20, 0x02	; 2
     8b0:	50 e0       	ldi	r21, 0x00	; 0
     8b2:	51 83       	std	Z+1, r21	; 0x01
     8b4:	40 83       	st	Z, r20
     8b6:	2f 5f       	subi	r18, 0xFF	; 255
     8b8:	3f 4f       	sbci	r19, 0xFF	; 255
     8ba:	30 93 bb 01 	sts	0x01BB, r19	; 0x8001bb <cont_s+0x1>
     8be:	20 93 ba 01 	sts	0x01BA, r18	; 0x8001ba <cont_s>
     8c2:	21 e0       	ldi	r18, 0x01	; 1
     8c4:	92 31       	cpi	r25, 0x12	; 18
     8c6:	09 f0       	breq	.+2      	; 0x8ca <__DATA_REGION_LENGTH__+0xca>
     8c8:	20 e0       	ldi	r18, 0x00	; 0
     8ca:	82 23       	and	r24, r18
     8cc:	11 f4       	brne	.+4      	; 0x8d2 <__DATA_REGION_LENGTH__+0xd2>
     8ce:	0c 94 1f 11 	jmp	0x223e	; 0x223e <__stack+0x193f>
     8d2:	80 91 bc 01 	lds	r24, 0x01BC	; 0x8001bc <cont_aa>
     8d6:	90 91 bd 01 	lds	r25, 0x01BD	; 0x8001bd <cont_aa+0x1>
     8da:	fc 01       	movw	r30, r24
     8dc:	ee 0f       	add	r30, r30
     8de:	ff 1f       	adc	r31, r31
     8e0:	ed 5d       	subi	r30, 0xDD	; 221
     8e2:	fe 4f       	sbci	r31, 0xFE	; 254
     8e4:	22 e0       	ldi	r18, 0x02	; 2
     8e6:	30 e0       	ldi	r19, 0x00	; 0
     8e8:	31 83       	std	Z+1, r19	; 0x01
     8ea:	20 83       	st	Z, r18
     8ec:	01 96       	adiw	r24, 0x01	; 1
     8ee:	90 93 bd 01 	sts	0x01BD, r25	; 0x8001bd <cont_aa+0x1>
     8f2:	80 93 bc 01 	sts	0x01BC, r24	; 0x8001bc <cont_aa>
     8f6:	0c 94 1f 11 	jmp	0x223e	; 0x223e <__stack+0x193f>
     8fa:	80 3d       	cpi	r24, 0xD0	; 208
     8fc:	91 05       	cpc	r25, r1
     8fe:	09 f0       	breq	.+2      	; 0x902 <__stack+0x3>
     900:	9d c1       	rjmp	.+826    	; 0xc3c <__stack+0x33d>
     902:	91 e0       	ldi	r25, 0x01	; 1
     904:	80 91 dc 01 	lds	r24, 0x01DC	; 0x8001dc <state>
     908:	88 30       	cpi	r24, 0x08	; 8
     90a:	09 f0       	breq	.+2      	; 0x90e <__stack+0xf>
     90c:	90 e0       	ldi	r25, 0x00	; 0
     90e:	81 e0       	ldi	r24, 0x01	; 1
     910:	20 91 d8 01 	lds	r18, 0x01D8	; 0x8001d8 <count_senha>
     914:	30 91 d9 01 	lds	r19, 0x01D9	; 0x8001d9 <count_senha+0x1>
     918:	24 30       	cpi	r18, 0x04	; 4
     91a:	31 05       	cpc	r19, r1
     91c:	0c f0       	brlt	.+2      	; 0x920 <__stack+0x21>
     91e:	80 e0       	ldi	r24, 0x00	; 0
     920:	89 23       	and	r24, r25
     922:	a9 f0       	breq	.+42     	; 0x94e <__stack+0x4f>
     924:	83 e3       	ldi	r24, 0x33	; 51
     926:	0e 94 36 1f 	call	0x3e6c	; 0x3e6c <send_word_lcd>
     92a:	4a e9       	ldi	r20, 0x9A	; 154
     92c:	52 e0       	ldi	r21, 0x02	; 2
     92e:	60 e0       	ldi	r22, 0x00	; 0
     930:	80 91 d8 01 	lds	r24, 0x01D8	; 0x8001d8 <count_senha>
     934:	90 91 d9 01 	lds	r25, 0x01D9	; 0x8001d9 <count_senha+0x1>
     938:	0e 94 1b 21 	call	0x4236	; 0x4236 <insert_senha>
     93c:	80 91 d8 01 	lds	r24, 0x01D8	; 0x8001d8 <count_senha>
     940:	90 91 d9 01 	lds	r25, 0x01D9	; 0x8001d9 <count_senha+0x1>
     944:	01 96       	adiw	r24, 0x01	; 1
     946:	90 93 d9 01 	sts	0x01D9, r25	; 0x8001d9 <count_senha+0x1>
     94a:	80 93 d8 01 	sts	0x01D8, r24	; 0x8001d8 <count_senha>
     94e:	91 e0       	ldi	r25, 0x01	; 1
     950:	80 91 dc 01 	lds	r24, 0x01DC	; 0x8001dc <state>
     954:	89 30       	cpi	r24, 0x09	; 9
     956:	09 f0       	breq	.+2      	; 0x95a <__stack+0x5b>
     958:	90 e0       	ldi	r25, 0x00	; 0
     95a:	81 e0       	ldi	r24, 0x01	; 1
     95c:	20 91 d8 01 	lds	r18, 0x01D8	; 0x8001d8 <count_senha>
     960:	30 91 d9 01 	lds	r19, 0x01D9	; 0x8001d9 <count_senha+0x1>
     964:	24 30       	cpi	r18, 0x04	; 4
     966:	31 05       	cpc	r19, r1
     968:	0c f0       	brlt	.+2      	; 0x96c <__stack+0x6d>
     96a:	80 e0       	ldi	r24, 0x00	; 0
     96c:	89 23       	and	r24, r25
     96e:	a9 f0       	breq	.+42     	; 0x99a <__stack+0x9b>
     970:	83 e3       	ldi	r24, 0x33	; 51
     972:	0e 94 36 1f 	call	0x3e6c	; 0x3e6c <send_word_lcd>
     976:	4a e9       	ldi	r20, 0x9A	; 154
     978:	52 e0       	ldi	r21, 0x02	; 2
     97a:	60 e0       	ldi	r22, 0x00	; 0
     97c:	80 91 d8 01 	lds	r24, 0x01D8	; 0x8001d8 <count_senha>
     980:	90 91 d9 01 	lds	r25, 0x01D9	; 0x8001d9 <count_senha+0x1>
     984:	0e 94 71 1e 	call	0x3ce2	; 0x3ce2 <senha_arm>
     988:	80 91 d8 01 	lds	r24, 0x01D8	; 0x8001d8 <count_senha>
     98c:	90 91 d9 01 	lds	r25, 0x01D9	; 0x8001d9 <count_senha+0x1>
     990:	01 96       	adiw	r24, 0x01	; 1
     992:	90 93 d9 01 	sts	0x01D9, r25	; 0x8001d9 <count_senha+0x1>
     996:	80 93 d8 01 	sts	0x01D8, r24	; 0x8001d8 <count_senha>
     99a:	91 e0       	ldi	r25, 0x01	; 1
     99c:	80 91 dc 01 	lds	r24, 0x01DC	; 0x8001dc <state>
     9a0:	8a 30       	cpi	r24, 0x0A	; 10
     9a2:	09 f0       	breq	.+2      	; 0x9a6 <__stack+0xa7>
     9a4:	90 e0       	ldi	r25, 0x00	; 0
     9a6:	81 e0       	ldi	r24, 0x01	; 1
     9a8:	20 91 d8 01 	lds	r18, 0x01D8	; 0x8001d8 <count_senha>
     9ac:	30 91 d9 01 	lds	r19, 0x01D9	; 0x8001d9 <count_senha+0x1>
     9b0:	24 30       	cpi	r18, 0x04	; 4
     9b2:	31 05       	cpc	r19, r1
     9b4:	0c f0       	brlt	.+2      	; 0x9b8 <__stack+0xb9>
     9b6:	80 e0       	ldi	r24, 0x00	; 0
     9b8:	89 23       	and	r24, r25
     9ba:	a9 f0       	breq	.+42     	; 0x9e6 <__stack+0xe7>
     9bc:	83 e3       	ldi	r24, 0x33	; 51
     9be:	0e 94 36 1f 	call	0x3e6c	; 0x3e6c <send_word_lcd>
     9c2:	4a e9       	ldi	r20, 0x9A	; 154
     9c4:	52 e0       	ldi	r21, 0x02	; 2
     9c6:	60 e0       	ldi	r22, 0x00	; 0
     9c8:	80 91 d8 01 	lds	r24, 0x01D8	; 0x8001d8 <count_senha>
     9cc:	90 91 d9 01 	lds	r25, 0x01D9	; 0x8001d9 <count_senha+0x1>
     9d0:	0e 94 1b 21 	call	0x4236	; 0x4236 <insert_senha>
     9d4:	80 91 d8 01 	lds	r24, 0x01D8	; 0x8001d8 <count_senha>
     9d8:	90 91 d9 01 	lds	r25, 0x01D9	; 0x8001d9 <count_senha+0x1>
     9dc:	01 96       	adiw	r24, 0x01	; 1
     9de:	90 93 d9 01 	sts	0x01D9, r25	; 0x8001d9 <count_senha+0x1>
     9e2:	80 93 d8 01 	sts	0x01D8, r24	; 0x8001d8 <count_senha>
     9e6:	91 e0       	ldi	r25, 0x01	; 1
     9e8:	80 91 dc 01 	lds	r24, 0x01DC	; 0x8001dc <state>
     9ec:	8b 30       	cpi	r24, 0x0B	; 11
     9ee:	09 f0       	breq	.+2      	; 0x9f2 <__stack+0xf3>
     9f0:	90 e0       	ldi	r25, 0x00	; 0
     9f2:	81 e0       	ldi	r24, 0x01	; 1
     9f4:	20 91 d8 01 	lds	r18, 0x01D8	; 0x8001d8 <count_senha>
     9f8:	30 91 d9 01 	lds	r19, 0x01D9	; 0x8001d9 <count_senha+0x1>
     9fc:	24 30       	cpi	r18, 0x04	; 4
     9fe:	31 05       	cpc	r19, r1
     a00:	0c f0       	brlt	.+2      	; 0xa04 <__stack+0x105>
     a02:	80 e0       	ldi	r24, 0x00	; 0
     a04:	89 23       	and	r24, r25
     a06:	a9 f0       	breq	.+42     	; 0xa32 <__stack+0x133>
     a08:	83 e3       	ldi	r24, 0x33	; 51
     a0a:	0e 94 36 1f 	call	0x3e6c	; 0x3e6c <send_word_lcd>
     a0e:	4a e9       	ldi	r20, 0x9A	; 154
     a10:	52 e0       	ldi	r21, 0x02	; 2
     a12:	60 e0       	ldi	r22, 0x00	; 0
     a14:	80 91 d8 01 	lds	r24, 0x01D8	; 0x8001d8 <count_senha>
     a18:	90 91 d9 01 	lds	r25, 0x01D9	; 0x8001d9 <count_senha+0x1>
     a1c:	0e 94 1b 21 	call	0x4236	; 0x4236 <insert_senha>
     a20:	80 91 d8 01 	lds	r24, 0x01D8	; 0x8001d8 <count_senha>
     a24:	90 91 d9 01 	lds	r25, 0x01D9	; 0x8001d9 <count_senha+0x1>
     a28:	01 96       	adiw	r24, 0x01	; 1
     a2a:	90 93 d9 01 	sts	0x01D9, r25	; 0x8001d9 <count_senha+0x1>
     a2e:	80 93 d8 01 	sts	0x01D8, r24	; 0x8001d8 <count_senha>
     a32:	91 e0       	ldi	r25, 0x01	; 1
     a34:	80 91 dc 01 	lds	r24, 0x01DC	; 0x8001dc <state>
     a38:	8f 30       	cpi	r24, 0x0F	; 15
     a3a:	09 f0       	breq	.+2      	; 0xa3e <__stack+0x13f>
     a3c:	90 e0       	ldi	r25, 0x00	; 0
     a3e:	81 e0       	ldi	r24, 0x01	; 1
     a40:	20 91 d2 01 	lds	r18, 0x01D2	; 0x8001d2 <flag_sensor>
     a44:	30 91 d3 01 	lds	r19, 0x01D3	; 0x8001d3 <flag_sensor+0x1>
     a48:	23 2b       	or	r18, r19
     a4a:	09 f0       	breq	.+2      	; 0xa4e <__stack+0x14f>
     a4c:	80 e0       	ldi	r24, 0x00	; 0
     a4e:	89 23       	and	r24, r25
     a50:	21 f0       	breq	.+8      	; 0xa5a <__stack+0x15b>
     a52:	83 e0       	ldi	r24, 0x03	; 3
     a54:	90 e0       	ldi	r25, 0x00	; 0
     a56:	0e 94 cc 17 	call	0x2f98	; 0x2f98 <hab_sensor>
     a5a:	91 e0       	ldi	r25, 0x01	; 1
     a5c:	80 91 dc 01 	lds	r24, 0x01DC	; 0x8001dc <state>
     a60:	87 30       	cpi	r24, 0x07	; 7
     a62:	09 f0       	breq	.+2      	; 0xa66 <__stack+0x167>
     a64:	90 e0       	ldi	r25, 0x00	; 0
     a66:	21 e0       	ldi	r18, 0x01	; 1
     a68:	40 91 da 01 	lds	r20, 0x01DA	; 0x8001da <flag_a_senha>
     a6c:	50 91 db 01 	lds	r21, 0x01DB	; 0x8001db <flag_a_senha+0x1>
     a70:	45 2b       	or	r20, r21
     a72:	09 f0       	breq	.+2      	; 0xa76 <__stack+0x177>
     a74:	20 e0       	ldi	r18, 0x00	; 0
     a76:	81 e0       	ldi	r24, 0x01	; 1
     a78:	40 91 c4 01 	lds	r20, 0x01C4	; 0x8001c4 <flag_timeout>
     a7c:	50 91 c5 01 	lds	r21, 0x01C5	; 0x8001c5 <flag_timeout+0x1>
     a80:	45 2b       	or	r20, r21
     a82:	09 f0       	breq	.+2      	; 0xa86 <__stack+0x187>
     a84:	80 e0       	ldi	r24, 0x00	; 0
     a86:	82 23       	and	r24, r18
     a88:	99 23       	and	r25, r25
     a8a:	a9 f0       	breq	.+42     	; 0xab6 <__stack+0x1b7>
     a8c:	88 23       	and	r24, r24
     a8e:	99 f0       	breq	.+38     	; 0xab6 <__stack+0x1b7>
     a90:	8f e0       	ldi	r24, 0x0F	; 15
     a92:	80 93 dc 01 	sts	0x01DC, r24	; 0x8001dc <state>
     a96:	80 91 d0 01 	lds	r24, 0x01D0	; 0x8001d0 <flag_D_sensor>
     a9a:	90 91 d1 01 	lds	r25, 0x01D1	; 0x8001d1 <flag_D_sensor+0x1>
     a9e:	89 2b       	or	r24, r25
     aa0:	11 f4       	brne	.+4      	; 0xaa6 <__stack+0x1a7>
     aa2:	0e 94 c1 1b 	call	0x3782	; 0x3782 <msg_h_sensores>
     aa6:	80 91 d0 01 	lds	r24, 0x01D0	; 0x8001d0 <flag_D_sensor>
     aaa:	90 91 d1 01 	lds	r25, 0x01D1	; 0x8001d1 <flag_D_sensor+0x1>
     aae:	01 97       	sbiw	r24, 0x01	; 1
     ab0:	11 f4       	brne	.+4      	; 0xab6 <__stack+0x1b7>
     ab2:	0e 94 f4 1b 	call	0x37e8	; 0x37e8 <msg_d_sensores>
     ab6:	91 e0       	ldi	r25, 0x01	; 1
     ab8:	80 91 dc 01 	lds	r24, 0x01DC	; 0x8001dc <state>
     abc:	87 30       	cpi	r24, 0x07	; 7
     abe:	09 f0       	breq	.+2      	; 0xac2 <__stack+0x1c3>
     ac0:	90 e0       	ldi	r25, 0x00	; 0
     ac2:	81 e0       	ldi	r24, 0x01	; 1
     ac4:	20 91 da 01 	lds	r18, 0x01DA	; 0x8001da <flag_a_senha>
     ac8:	30 91 db 01 	lds	r19, 0x01DB	; 0x8001db <flag_a_senha+0x1>
     acc:	21 30       	cpi	r18, 0x01	; 1
     ace:	31 05       	cpc	r19, r1
     ad0:	09 f0       	breq	.+2      	; 0xad4 <__stack+0x1d5>
     ad2:	80 e0       	ldi	r24, 0x00	; 0
     ad4:	89 23       	and	r24, r25
     ad6:	79 f0       	breq	.+30     	; 0xaf6 <__stack+0x1f7>
     ad8:	89 e0       	ldi	r24, 0x09	; 9
     ada:	80 93 dc 01 	sts	0x01DC, r24	; 0x8001dc <state>
     ade:	0e 94 e8 1e 	call	0x3dd0	; 0x3dd0 <msg_altera_senha>
     ae2:	83 e0       	ldi	r24, 0x03	; 3
     ae4:	90 e0       	ldi	r25, 0x00	; 0
     ae6:	90 93 2a 01 	sts	0x012A, r25	; 0x80012a <addr_senha+0x1>
     aea:	80 93 29 01 	sts	0x0129, r24	; 0x800129 <addr_senha>
     aee:	10 92 db 01 	sts	0x01DB, r1	; 0x8001db <flag_a_senha+0x1>
     af2:	10 92 da 01 	sts	0x01DA, r1	; 0x8001da <flag_a_senha>
     af6:	91 e0       	ldi	r25, 0x01	; 1
     af8:	80 91 dc 01 	lds	r24, 0x01DC	; 0x8001dc <state>
     afc:	80 31       	cpi	r24, 0x10	; 16
     afe:	09 f0       	breq	.+2      	; 0xb02 <__stack+0x203>
     b00:	90 e0       	ldi	r25, 0x00	; 0
     b02:	81 e0       	ldi	r24, 0x01	; 1
     b04:	20 91 d2 01 	lds	r18, 0x01D2	; 0x8001d2 <flag_sensor>
     b08:	30 91 d3 01 	lds	r19, 0x01D3	; 0x8001d3 <flag_sensor+0x1>
     b0c:	23 2b       	or	r18, r19
     b0e:	09 f0       	breq	.+2      	; 0xb12 <__stack+0x213>
     b10:	80 e0       	ldi	r24, 0x00	; 0
     b12:	89 23       	and	r24, r25
     b14:	21 f0       	breq	.+8      	; 0xb1e <__stack+0x21f>
     b16:	83 e0       	ldi	r24, 0x03	; 3
     b18:	90 e0       	ldi	r25, 0x00	; 0
     b1a:	0e 94 fa 18 	call	0x31f4	; 0x31f4 <hab_zonas>
     b1e:	90 91 dc 01 	lds	r25, 0x01DC	; 0x8001dc <state>
     b22:	21 e0       	ldi	r18, 0x01	; 1
     b24:	40 91 ca 01 	lds	r20, 0x01CA	; 0x8001ca <flag_z1>
     b28:	50 91 cb 01 	lds	r21, 0x01CB	; 0x8001cb <flag_z1+0x1>
     b2c:	45 2b       	or	r20, r21
     b2e:	09 f0       	breq	.+2      	; 0xb32 <__stack+0x233>
     b30:	20 e0       	ldi	r18, 0x00	; 0
     b32:	81 e0       	ldi	r24, 0x01	; 1
     b34:	91 31       	cpi	r25, 0x11	; 17
     b36:	09 f0       	breq	.+2      	; 0xb3a <__stack+0x23b>
     b38:	80 e0       	ldi	r24, 0x00	; 0
     b3a:	82 23       	and	r24, r18
     b3c:	19 f1       	breq	.+70     	; 0xb84 <__stack+0x285>
     b3e:	20 91 cc 01 	lds	r18, 0x01CC	; 0x8001cc <flag_z>
     b42:	30 91 cd 01 	lds	r19, 0x01CD	; 0x8001cd <flag_z+0x1>
     b46:	21 15       	cp	r18, r1
     b48:	31 05       	cpc	r19, r1
     b4a:	69 f4       	brne	.+26     	; 0xb66 <__stack+0x267>
     b4c:	23 e0       	ldi	r18, 0x03	; 3
     b4e:	30 e0       	ldi	r19, 0x00	; 0
     b50:	30 93 01 01 	sts	0x0101, r19	; 0x800101 <__DATA_REGION_ORIGIN__+0x1>
     b54:	20 93 00 01 	sts	0x0100, r18	; 0x800100 <__DATA_REGION_ORIGIN__>
     b58:	21 e0       	ldi	r18, 0x01	; 1
     b5a:	30 e0       	ldi	r19, 0x00	; 0
     b5c:	30 93 cd 01 	sts	0x01CD, r19	; 0x8001cd <flag_z+0x1>
     b60:	20 93 cc 01 	sts	0x01CC, r18	; 0x8001cc <flag_z>
     b64:	0f c0       	rjmp	.+30     	; 0xb84 <__stack+0x285>
     b66:	21 30       	cpi	r18, 0x01	; 1
     b68:	31 05       	cpc	r19, r1
     b6a:	61 f4       	brne	.+24     	; 0xb84 <__stack+0x285>
     b6c:	23 e0       	ldi	r18, 0x03	; 3
     b6e:	30 e0       	ldi	r19, 0x00	; 0
     b70:	30 93 05 01 	sts	0x0105, r19	; 0x800105 <idzona+0x1>
     b74:	20 93 04 01 	sts	0x0104, r18	; 0x800104 <idzona>
     b78:	21 e0       	ldi	r18, 0x01	; 1
     b7a:	30 e0       	ldi	r19, 0x00	; 0
     b7c:	30 93 cb 01 	sts	0x01CB, r19	; 0x8001cb <flag_z1+0x1>
     b80:	20 93 ca 01 	sts	0x01CA, r18	; 0x8001ca <flag_z1>
     b84:	20 91 be 01 	lds	r18, 0x01BE	; 0x8001be <cont_t>
     b88:	30 91 bf 01 	lds	r19, 0x01BF	; 0x8001bf <cont_t+0x1>
     b8c:	41 e0       	ldi	r20, 0x01	; 1
     b8e:	93 31       	cpi	r25, 0x13	; 19
     b90:	09 f0       	breq	.+2      	; 0xb94 <__stack+0x295>
     b92:	40 e0       	ldi	r20, 0x00	; 0
     b94:	81 e0       	ldi	r24, 0x01	; 1
     b96:	22 30       	cpi	r18, 0x02	; 2
     b98:	31 05       	cpc	r19, r1
     b9a:	0c f0       	brlt	.+2      	; 0xb9e <__stack+0x29f>
     b9c:	80 e0       	ldi	r24, 0x00	; 0
     b9e:	84 23       	and	r24, r20
     ba0:	79 f0       	breq	.+30     	; 0xbc0 <__stack+0x2c1>
     ba2:	f9 01       	movw	r30, r18
     ba4:	ee 0f       	add	r30, r30
     ba6:	ff 1f       	adc	r31, r31
     ba8:	e3 5f       	subi	r30, 0xF3	; 243
     baa:	fe 4f       	sbci	r31, 0xFE	; 254
     bac:	43 e0       	ldi	r20, 0x03	; 3
     bae:	50 e0       	ldi	r21, 0x00	; 0
     bb0:	51 83       	std	Z+1, r21	; 0x01
     bb2:	40 83       	st	Z, r20
     bb4:	2f 5f       	subi	r18, 0xFF	; 255
     bb6:	3f 4f       	sbci	r19, 0xFF	; 255
     bb8:	30 93 bf 01 	sts	0x01BF, r19	; 0x8001bf <cont_t+0x1>
     bbc:	20 93 be 01 	sts	0x01BE, r18	; 0x8001be <cont_t>
     bc0:	81 e0       	ldi	r24, 0x01	; 1
     bc2:	20 91 be 01 	lds	r18, 0x01BE	; 0x8001be <cont_t>
     bc6:	30 91 bf 01 	lds	r19, 0x01BF	; 0x8001bf <cont_t+0x1>
     bca:	23 30       	cpi	r18, 0x03	; 3
     bcc:	31 05       	cpc	r19, r1
     bce:	0c f0       	brlt	.+2      	; 0xbd2 <__stack+0x2d3>
     bd0:	80 e0       	ldi	r24, 0x00	; 0
     bd2:	21 e0       	ldi	r18, 0x01	; 1
     bd4:	94 31       	cpi	r25, 0x14	; 20
     bd6:	09 f0       	breq	.+2      	; 0xbda <__stack+0x2db>
     bd8:	20 e0       	ldi	r18, 0x00	; 0
     bda:	28 23       	and	r18, r24
     bdc:	99 f0       	breq	.+38     	; 0xc04 <__stack+0x305>
     bde:	20 91 ba 01 	lds	r18, 0x01BA	; 0x8001ba <cont_s>
     be2:	30 91 bb 01 	lds	r19, 0x01BB	; 0x8001bb <cont_s+0x1>
     be6:	f9 01       	movw	r30, r18
     be8:	ee 0f       	add	r30, r30
     bea:	ff 1f       	adc	r31, r31
     bec:	e5 5d       	subi	r30, 0xD5	; 213
     bee:	fe 4f       	sbci	r31, 0xFE	; 254
     bf0:	43 e0       	ldi	r20, 0x03	; 3
     bf2:	50 e0       	ldi	r21, 0x00	; 0
     bf4:	51 83       	std	Z+1, r21	; 0x01
     bf6:	40 83       	st	Z, r20
     bf8:	2f 5f       	subi	r18, 0xFF	; 255
     bfa:	3f 4f       	sbci	r19, 0xFF	; 255
     bfc:	30 93 bb 01 	sts	0x01BB, r19	; 0x8001bb <cont_s+0x1>
     c00:	20 93 ba 01 	sts	0x01BA, r18	; 0x8001ba <cont_s>
     c04:	21 e0       	ldi	r18, 0x01	; 1
     c06:	92 31       	cpi	r25, 0x12	; 18
     c08:	09 f0       	breq	.+2      	; 0xc0c <__stack+0x30d>
     c0a:	20 e0       	ldi	r18, 0x00	; 0
     c0c:	82 23       	and	r24, r18
     c0e:	11 f4       	brne	.+4      	; 0xc14 <__stack+0x315>
     c10:	0c 94 1f 11 	jmp	0x223e	; 0x223e <__stack+0x193f>
     c14:	80 91 bc 01 	lds	r24, 0x01BC	; 0x8001bc <cont_aa>
     c18:	90 91 bd 01 	lds	r25, 0x01BD	; 0x8001bd <cont_aa+0x1>
     c1c:	fc 01       	movw	r30, r24
     c1e:	ee 0f       	add	r30, r30
     c20:	ff 1f       	adc	r31, r31
     c22:	ed 5d       	subi	r30, 0xDD	; 221
     c24:	fe 4f       	sbci	r31, 0xFE	; 254
     c26:	23 e0       	ldi	r18, 0x03	; 3
     c28:	30 e0       	ldi	r19, 0x00	; 0
     c2a:	31 83       	std	Z+1, r19	; 0x01
     c2c:	20 83       	st	Z, r18
     c2e:	01 96       	adiw	r24, 0x01	; 1
     c30:	90 93 bd 01 	sts	0x01BD, r25	; 0x8001bd <cont_aa+0x1>
     c34:	80 93 bc 01 	sts	0x01BC, r24	; 0x8001bc <cont_aa>
     c38:	0c 94 1f 11 	jmp	0x223e	; 0x223e <__stack+0x193f>
     c3c:	80 3c       	cpi	r24, 0xC0	; 192
     c3e:	91 05       	cpc	r25, r1
     c40:	79 f4       	brne	.+30     	; 0xc60 <__stack+0x361>
     c42:	80 91 dc 01 	lds	r24, 0x01DC	; 0x8001dc <state>
     c46:	81 30       	cpi	r24, 0x01	; 1
     c48:	11 f0       	breq	.+4      	; 0xc4e <__stack+0x34f>
     c4a:	0c 94 1f 11 	jmp	0x223e	; 0x223e <__stack+0x193f>
     c4e:	88 e0       	ldi	r24, 0x08	; 8
     c50:	80 93 dc 01 	sts	0x01DC, r24	; 0x8001dc <state>
     c54:	0e 94 c1 1e 	call	0x3d82	; 0x3d82 <msg_inserir_senha>
     c58:	0e 94 51 21 	call	0x42a2	; 0x42a2 <StartTimer1>
     c5c:	0c 94 1f 11 	jmp	0x223e	; 0x223e <__stack+0x193f>
     c60:	80 3b       	cpi	r24, 0xB0	; 176
     c62:	91 05       	cpc	r25, r1
     c64:	09 f0       	breq	.+2      	; 0xc68 <__stack+0x369>
     c66:	5d c1       	rjmp	.+698    	; 0xf22 <__stack+0x623>
     c68:	91 e0       	ldi	r25, 0x01	; 1
     c6a:	80 91 dc 01 	lds	r24, 0x01DC	; 0x8001dc <state>
     c6e:	88 30       	cpi	r24, 0x08	; 8
     c70:	09 f0       	breq	.+2      	; 0xc74 <__stack+0x375>
     c72:	90 e0       	ldi	r25, 0x00	; 0
     c74:	81 e0       	ldi	r24, 0x01	; 1
     c76:	20 91 d8 01 	lds	r18, 0x01D8	; 0x8001d8 <count_senha>
     c7a:	30 91 d9 01 	lds	r19, 0x01D9	; 0x8001d9 <count_senha+0x1>
     c7e:	24 30       	cpi	r18, 0x04	; 4
     c80:	31 05       	cpc	r19, r1
     c82:	0c f0       	brlt	.+2      	; 0xc86 <__stack+0x387>
     c84:	80 e0       	ldi	r24, 0x00	; 0
     c86:	89 23       	and	r24, r25
     c88:	a9 f0       	breq	.+42     	; 0xcb4 <__stack+0x3b5>
     c8a:	84 e3       	ldi	r24, 0x34	; 52
     c8c:	0e 94 36 1f 	call	0x3e6c	; 0x3e6c <send_word_lcd>
     c90:	4c e9       	ldi	r20, 0x9C	; 156
     c92:	52 e0       	ldi	r21, 0x02	; 2
     c94:	60 e0       	ldi	r22, 0x00	; 0
     c96:	80 91 d8 01 	lds	r24, 0x01D8	; 0x8001d8 <count_senha>
     c9a:	90 91 d9 01 	lds	r25, 0x01D9	; 0x8001d9 <count_senha+0x1>
     c9e:	0e 94 1b 21 	call	0x4236	; 0x4236 <insert_senha>
     ca2:	80 91 d8 01 	lds	r24, 0x01D8	; 0x8001d8 <count_senha>
     ca6:	90 91 d9 01 	lds	r25, 0x01D9	; 0x8001d9 <count_senha+0x1>
     caa:	01 96       	adiw	r24, 0x01	; 1
     cac:	90 93 d9 01 	sts	0x01D9, r25	; 0x8001d9 <count_senha+0x1>
     cb0:	80 93 d8 01 	sts	0x01D8, r24	; 0x8001d8 <count_senha>
     cb4:	91 e0       	ldi	r25, 0x01	; 1
     cb6:	80 91 dc 01 	lds	r24, 0x01DC	; 0x8001dc <state>
     cba:	89 30       	cpi	r24, 0x09	; 9
     cbc:	09 f0       	breq	.+2      	; 0xcc0 <__stack+0x3c1>
     cbe:	90 e0       	ldi	r25, 0x00	; 0
     cc0:	81 e0       	ldi	r24, 0x01	; 1
     cc2:	20 91 d8 01 	lds	r18, 0x01D8	; 0x8001d8 <count_senha>
     cc6:	30 91 d9 01 	lds	r19, 0x01D9	; 0x8001d9 <count_senha+0x1>
     cca:	24 30       	cpi	r18, 0x04	; 4
     ccc:	31 05       	cpc	r19, r1
     cce:	0c f0       	brlt	.+2      	; 0xcd2 <__stack+0x3d3>
     cd0:	80 e0       	ldi	r24, 0x00	; 0
     cd2:	89 23       	and	r24, r25
     cd4:	a9 f0       	breq	.+42     	; 0xd00 <__stack+0x401>
     cd6:	84 e3       	ldi	r24, 0x34	; 52
     cd8:	0e 94 36 1f 	call	0x3e6c	; 0x3e6c <send_word_lcd>
     cdc:	4c e9       	ldi	r20, 0x9C	; 156
     cde:	52 e0       	ldi	r21, 0x02	; 2
     ce0:	60 e0       	ldi	r22, 0x00	; 0
     ce2:	80 91 d8 01 	lds	r24, 0x01D8	; 0x8001d8 <count_senha>
     ce6:	90 91 d9 01 	lds	r25, 0x01D9	; 0x8001d9 <count_senha+0x1>
     cea:	0e 94 71 1e 	call	0x3ce2	; 0x3ce2 <senha_arm>
     cee:	80 91 d8 01 	lds	r24, 0x01D8	; 0x8001d8 <count_senha>
     cf2:	90 91 d9 01 	lds	r25, 0x01D9	; 0x8001d9 <count_senha+0x1>
     cf6:	01 96       	adiw	r24, 0x01	; 1
     cf8:	90 93 d9 01 	sts	0x01D9, r25	; 0x8001d9 <count_senha+0x1>
     cfc:	80 93 d8 01 	sts	0x01D8, r24	; 0x8001d8 <count_senha>
     d00:	91 e0       	ldi	r25, 0x01	; 1
     d02:	80 91 dc 01 	lds	r24, 0x01DC	; 0x8001dc <state>
     d06:	8a 30       	cpi	r24, 0x0A	; 10
     d08:	09 f0       	breq	.+2      	; 0xd0c <__stack+0x40d>
     d0a:	90 e0       	ldi	r25, 0x00	; 0
     d0c:	81 e0       	ldi	r24, 0x01	; 1
     d0e:	20 91 d8 01 	lds	r18, 0x01D8	; 0x8001d8 <count_senha>
     d12:	30 91 d9 01 	lds	r19, 0x01D9	; 0x8001d9 <count_senha+0x1>
     d16:	24 30       	cpi	r18, 0x04	; 4
     d18:	31 05       	cpc	r19, r1
     d1a:	0c f0       	brlt	.+2      	; 0xd1e <__stack+0x41f>
     d1c:	80 e0       	ldi	r24, 0x00	; 0
     d1e:	89 23       	and	r24, r25
     d20:	a9 f0       	breq	.+42     	; 0xd4c <__stack+0x44d>
     d22:	84 e3       	ldi	r24, 0x34	; 52
     d24:	0e 94 36 1f 	call	0x3e6c	; 0x3e6c <send_word_lcd>
     d28:	4c e9       	ldi	r20, 0x9C	; 156
     d2a:	52 e0       	ldi	r21, 0x02	; 2
     d2c:	60 e0       	ldi	r22, 0x00	; 0
     d2e:	80 91 d8 01 	lds	r24, 0x01D8	; 0x8001d8 <count_senha>
     d32:	90 91 d9 01 	lds	r25, 0x01D9	; 0x8001d9 <count_senha+0x1>
     d36:	0e 94 1b 21 	call	0x4236	; 0x4236 <insert_senha>
     d3a:	80 91 d8 01 	lds	r24, 0x01D8	; 0x8001d8 <count_senha>
     d3e:	90 91 d9 01 	lds	r25, 0x01D9	; 0x8001d9 <count_senha+0x1>
     d42:	01 96       	adiw	r24, 0x01	; 1
     d44:	90 93 d9 01 	sts	0x01D9, r25	; 0x8001d9 <count_senha+0x1>
     d48:	80 93 d8 01 	sts	0x01D8, r24	; 0x8001d8 <count_senha>
     d4c:	91 e0       	ldi	r25, 0x01	; 1
     d4e:	80 91 dc 01 	lds	r24, 0x01DC	; 0x8001dc <state>
     d52:	8b 30       	cpi	r24, 0x0B	; 11
     d54:	09 f0       	breq	.+2      	; 0xd58 <__stack+0x459>
     d56:	90 e0       	ldi	r25, 0x00	; 0
     d58:	81 e0       	ldi	r24, 0x01	; 1
     d5a:	20 91 d8 01 	lds	r18, 0x01D8	; 0x8001d8 <count_senha>
     d5e:	30 91 d9 01 	lds	r19, 0x01D9	; 0x8001d9 <count_senha+0x1>
     d62:	24 30       	cpi	r18, 0x04	; 4
     d64:	31 05       	cpc	r19, r1
     d66:	0c f0       	brlt	.+2      	; 0xd6a <__stack+0x46b>
     d68:	80 e0       	ldi	r24, 0x00	; 0
     d6a:	89 23       	and	r24, r25
     d6c:	a9 f0       	breq	.+42     	; 0xd98 <__stack+0x499>
     d6e:	84 e3       	ldi	r24, 0x34	; 52
     d70:	0e 94 36 1f 	call	0x3e6c	; 0x3e6c <send_word_lcd>
     d74:	4c e9       	ldi	r20, 0x9C	; 156
     d76:	52 e0       	ldi	r21, 0x02	; 2
     d78:	60 e0       	ldi	r22, 0x00	; 0
     d7a:	80 91 d8 01 	lds	r24, 0x01D8	; 0x8001d8 <count_senha>
     d7e:	90 91 d9 01 	lds	r25, 0x01D9	; 0x8001d9 <count_senha+0x1>
     d82:	0e 94 1b 21 	call	0x4236	; 0x4236 <insert_senha>
     d86:	80 91 d8 01 	lds	r24, 0x01D8	; 0x8001d8 <count_senha>
     d8a:	90 91 d9 01 	lds	r25, 0x01D9	; 0x8001d9 <count_senha+0x1>
     d8e:	01 96       	adiw	r24, 0x01	; 1
     d90:	90 93 d9 01 	sts	0x01D9, r25	; 0x8001d9 <count_senha+0x1>
     d94:	80 93 d8 01 	sts	0x01D8, r24	; 0x8001d8 <count_senha>
     d98:	91 e0       	ldi	r25, 0x01	; 1
     d9a:	80 91 dc 01 	lds	r24, 0x01DC	; 0x8001dc <state>
     d9e:	8f 30       	cpi	r24, 0x0F	; 15
     da0:	09 f0       	breq	.+2      	; 0xda4 <__stack+0x4a5>
     da2:	90 e0       	ldi	r25, 0x00	; 0
     da4:	81 e0       	ldi	r24, 0x01	; 1
     da6:	20 91 d2 01 	lds	r18, 0x01D2	; 0x8001d2 <flag_sensor>
     daa:	30 91 d3 01 	lds	r19, 0x01D3	; 0x8001d3 <flag_sensor+0x1>
     dae:	23 2b       	or	r18, r19
     db0:	09 f0       	breq	.+2      	; 0xdb4 <__stack+0x4b5>
     db2:	80 e0       	ldi	r24, 0x00	; 0
     db4:	89 23       	and	r24, r25
     db6:	21 f0       	breq	.+8      	; 0xdc0 <__stack+0x4c1>
     db8:	84 e0       	ldi	r24, 0x04	; 4
     dba:	90 e0       	ldi	r25, 0x00	; 0
     dbc:	0e 94 cc 17 	call	0x2f98	; 0x2f98 <hab_sensor>
     dc0:	90 91 dc 01 	lds	r25, 0x01DC	; 0x8001dc <state>
     dc4:	21 e0       	ldi	r18, 0x01	; 1
     dc6:	91 31       	cpi	r25, 0x11	; 17
     dc8:	09 f0       	breq	.+2      	; 0xdcc <__stack+0x4cd>
     dca:	20 e0       	ldi	r18, 0x00	; 0
     dcc:	31 e0       	ldi	r19, 0x01	; 1
     dce:	40 91 ca 01 	lds	r20, 0x01CA	; 0x8001ca <flag_z1>
     dd2:	50 91 cb 01 	lds	r21, 0x01CB	; 0x8001cb <flag_z1+0x1>
     dd6:	45 2b       	or	r20, r21
     dd8:	09 f0       	breq	.+2      	; 0xddc <__stack+0x4dd>
     dda:	30 e0       	ldi	r19, 0x00	; 0
     ddc:	81 e0       	ldi	r24, 0x01	; 1
     dde:	40 91 cc 01 	lds	r20, 0x01CC	; 0x8001cc <flag_z>
     de2:	50 91 cd 01 	lds	r21, 0x01CD	; 0x8001cd <flag_z+0x1>
     de6:	45 2b       	or	r20, r21
     de8:	09 f0       	breq	.+2      	; 0xdec <__stack+0x4ed>
     dea:	80 e0       	ldi	r24, 0x00	; 0
     dec:	83 23       	and	r24, r19
     dee:	22 23       	and	r18, r18
     df0:	71 f0       	breq	.+28     	; 0xe0e <__stack+0x50f>
     df2:	88 23       	and	r24, r24
     df4:	61 f0       	breq	.+24     	; 0xe0e <__stack+0x50f>
     df6:	24 e0       	ldi	r18, 0x04	; 4
     df8:	30 e0       	ldi	r19, 0x00	; 0
     dfa:	30 93 01 01 	sts	0x0101, r19	; 0x800101 <__DATA_REGION_ORIGIN__+0x1>
     dfe:	20 93 00 01 	sts	0x0100, r18	; 0x800100 <__DATA_REGION_ORIGIN__>
     e02:	21 e0       	ldi	r18, 0x01	; 1
     e04:	30 e0       	ldi	r19, 0x00	; 0
     e06:	30 93 cb 01 	sts	0x01CB, r19	; 0x8001cb <flag_z1+0x1>
     e0a:	20 93 ca 01 	sts	0x01CA, r18	; 0x8001ca <flag_z1>
     e0e:	21 e0       	ldi	r18, 0x01	; 1
     e10:	97 30       	cpi	r25, 0x07	; 7
     e12:	09 f0       	breq	.+2      	; 0xe16 <__stack+0x517>
     e14:	20 e0       	ldi	r18, 0x00	; 0
     e16:	91 e0       	ldi	r25, 0x01	; 1
     e18:	40 91 da 01 	lds	r20, 0x01DA	; 0x8001da <flag_a_senha>
     e1c:	50 91 db 01 	lds	r21, 0x01DB	; 0x8001db <flag_a_senha+0x1>
     e20:	45 2b       	or	r20, r21
     e22:	09 f0       	breq	.+2      	; 0xe26 <__stack+0x527>
     e24:	90 e0       	ldi	r25, 0x00	; 0
     e26:	81 e0       	ldi	r24, 0x01	; 1
     e28:	40 91 c4 01 	lds	r20, 0x01C4	; 0x8001c4 <flag_timeout>
     e2c:	50 91 c5 01 	lds	r21, 0x01C5	; 0x8001c5 <flag_timeout+0x1>
     e30:	45 2b       	or	r20, r21
     e32:	09 f0       	breq	.+2      	; 0xe36 <__stack+0x537>
     e34:	80 e0       	ldi	r24, 0x00	; 0
     e36:	89 23       	and	r24, r25
     e38:	22 23       	and	r18, r18
     e3a:	a9 f0       	breq	.+42     	; 0xe66 <__stack+0x567>
     e3c:	88 23       	and	r24, r24
     e3e:	99 f0       	breq	.+38     	; 0xe66 <__stack+0x567>
     e40:	81 e1       	ldi	r24, 0x11	; 17
     e42:	80 93 dc 01 	sts	0x01DC, r24	; 0x8001dc <state>
     e46:	80 91 d0 01 	lds	r24, 0x01D0	; 0x8001d0 <flag_D_sensor>
     e4a:	90 91 d1 01 	lds	r25, 0x01D1	; 0x8001d1 <flag_D_sensor+0x1>
     e4e:	89 2b       	or	r24, r25
     e50:	11 f4       	brne	.+4      	; 0xe56 <__stack+0x557>
     e52:	0e 94 8d 1c 	call	0x391a	; 0x391a <msg_h_ass>
     e56:	80 91 d0 01 	lds	r24, 0x01D0	; 0x8001d0 <flag_D_sensor>
     e5a:	90 91 d1 01 	lds	r25, 0x01D1	; 0x8001d1 <flag_D_sensor+0x1>
     e5e:	01 97       	sbiw	r24, 0x01	; 1
     e60:	11 f4       	brne	.+4      	; 0xe66 <__stack+0x567>
     e62:	0e 94 c0 1c 	call	0x3980	; 0x3980 <msg_d_ass>
     e66:	20 91 dc 01 	lds	r18, 0x01DC	; 0x8001dc <state>
     e6a:	40 91 be 01 	lds	r20, 0x01BE	; 0x8001be <cont_t>
     e6e:	50 91 bf 01 	lds	r21, 0x01BF	; 0x8001bf <cont_t+0x1>
     e72:	91 e0       	ldi	r25, 0x01	; 1
     e74:	23 31       	cpi	r18, 0x13	; 19
     e76:	09 f0       	breq	.+2      	; 0xe7a <__stack+0x57b>
     e78:	90 e0       	ldi	r25, 0x00	; 0
     e7a:	81 e0       	ldi	r24, 0x01	; 1
     e7c:	42 30       	cpi	r20, 0x02	; 2
     e7e:	51 05       	cpc	r21, r1
     e80:	0c f0       	brlt	.+2      	; 0xe84 <__stack+0x585>
     e82:	80 e0       	ldi	r24, 0x00	; 0
     e84:	89 23       	and	r24, r25
     e86:	79 f0       	breq	.+30     	; 0xea6 <__stack+0x5a7>
     e88:	fa 01       	movw	r30, r20
     e8a:	ee 0f       	add	r30, r30
     e8c:	ff 1f       	adc	r31, r31
     e8e:	e3 5f       	subi	r30, 0xF3	; 243
     e90:	fe 4f       	sbci	r31, 0xFE	; 254
     e92:	84 e0       	ldi	r24, 0x04	; 4
     e94:	90 e0       	ldi	r25, 0x00	; 0
     e96:	91 83       	std	Z+1, r25	; 0x01
     e98:	80 83       	st	Z, r24
     e9a:	4f 5f       	subi	r20, 0xFF	; 255
     e9c:	5f 4f       	sbci	r21, 0xFF	; 255
     e9e:	50 93 bf 01 	sts	0x01BF, r21	; 0x8001bf <cont_t+0x1>
     ea2:	40 93 be 01 	sts	0x01BE, r20	; 0x8001be <cont_t>
     ea6:	81 e0       	ldi	r24, 0x01	; 1
     ea8:	40 91 be 01 	lds	r20, 0x01BE	; 0x8001be <cont_t>
     eac:	50 91 bf 01 	lds	r21, 0x01BF	; 0x8001bf <cont_t+0x1>
     eb0:	43 30       	cpi	r20, 0x03	; 3
     eb2:	51 05       	cpc	r21, r1
     eb4:	0c f0       	brlt	.+2      	; 0xeb8 <__stack+0x5b9>
     eb6:	80 e0       	ldi	r24, 0x00	; 0
     eb8:	91 e0       	ldi	r25, 0x01	; 1
     eba:	24 31       	cpi	r18, 0x14	; 20
     ebc:	09 f0       	breq	.+2      	; 0xec0 <__stack+0x5c1>
     ebe:	90 e0       	ldi	r25, 0x00	; 0
     ec0:	98 23       	and	r25, r24
     ec2:	99 f0       	breq	.+38     	; 0xeea <__stack+0x5eb>
     ec4:	40 91 ba 01 	lds	r20, 0x01BA	; 0x8001ba <cont_s>
     ec8:	50 91 bb 01 	lds	r21, 0x01BB	; 0x8001bb <cont_s+0x1>
     ecc:	fa 01       	movw	r30, r20
     ece:	ee 0f       	add	r30, r30
     ed0:	ff 1f       	adc	r31, r31
     ed2:	e5 5d       	subi	r30, 0xD5	; 213
     ed4:	fe 4f       	sbci	r31, 0xFE	; 254
     ed6:	64 e0       	ldi	r22, 0x04	; 4
     ed8:	70 e0       	ldi	r23, 0x00	; 0
     eda:	71 83       	std	Z+1, r23	; 0x01
     edc:	60 83       	st	Z, r22
     ede:	4f 5f       	subi	r20, 0xFF	; 255
     ee0:	5f 4f       	sbci	r21, 0xFF	; 255
     ee2:	50 93 bb 01 	sts	0x01BB, r21	; 0x8001bb <cont_s+0x1>
     ee6:	40 93 ba 01 	sts	0x01BA, r20	; 0x8001ba <cont_s>
     eea:	91 e0       	ldi	r25, 0x01	; 1
     eec:	22 31       	cpi	r18, 0x12	; 18
     eee:	09 f0       	breq	.+2      	; 0xef2 <__stack+0x5f3>
     ef0:	90 e0       	ldi	r25, 0x00	; 0
     ef2:	89 23       	and	r24, r25
     ef4:	11 f4       	brne	.+4      	; 0xefa <__stack+0x5fb>
     ef6:	0c 94 1f 11 	jmp	0x223e	; 0x223e <__stack+0x193f>
     efa:	80 91 bc 01 	lds	r24, 0x01BC	; 0x8001bc <cont_aa>
     efe:	90 91 bd 01 	lds	r25, 0x01BD	; 0x8001bd <cont_aa+0x1>
     f02:	fc 01       	movw	r30, r24
     f04:	ee 0f       	add	r30, r30
     f06:	ff 1f       	adc	r31, r31
     f08:	ed 5d       	subi	r30, 0xDD	; 221
     f0a:	fe 4f       	sbci	r31, 0xFE	; 254
     f0c:	24 e0       	ldi	r18, 0x04	; 4
     f0e:	30 e0       	ldi	r19, 0x00	; 0
     f10:	31 83       	std	Z+1, r19	; 0x01
     f12:	20 83       	st	Z, r18
     f14:	01 96       	adiw	r24, 0x01	; 1
     f16:	90 93 bd 01 	sts	0x01BD, r25	; 0x8001bd <cont_aa+0x1>
     f1a:	80 93 bc 01 	sts	0x01BC, r24	; 0x8001bc <cont_aa>
     f1e:	0c 94 1f 11 	jmp	0x223e	; 0x223e <__stack+0x193f>
     f22:	80 3a       	cpi	r24, 0xA0	; 160
     f24:	91 05       	cpc	r25, r1
     f26:	09 f0       	breq	.+2      	; 0xf2a <__stack+0x62b>
     f28:	5d c1       	rjmp	.+698    	; 0x11e4 <__stack+0x8e5>
     f2a:	91 e0       	ldi	r25, 0x01	; 1
     f2c:	80 91 dc 01 	lds	r24, 0x01DC	; 0x8001dc <state>
     f30:	88 30       	cpi	r24, 0x08	; 8
     f32:	09 f0       	breq	.+2      	; 0xf36 <__stack+0x637>
     f34:	90 e0       	ldi	r25, 0x00	; 0
     f36:	81 e0       	ldi	r24, 0x01	; 1
     f38:	20 91 d8 01 	lds	r18, 0x01D8	; 0x8001d8 <count_senha>
     f3c:	30 91 d9 01 	lds	r19, 0x01D9	; 0x8001d9 <count_senha+0x1>
     f40:	24 30       	cpi	r18, 0x04	; 4
     f42:	31 05       	cpc	r19, r1
     f44:	0c f0       	brlt	.+2      	; 0xf48 <__stack+0x649>
     f46:	80 e0       	ldi	r24, 0x00	; 0
     f48:	89 23       	and	r24, r25
     f4a:	a9 f0       	breq	.+42     	; 0xf76 <__stack+0x677>
     f4c:	85 e3       	ldi	r24, 0x35	; 53
     f4e:	0e 94 36 1f 	call	0x3e6c	; 0x3e6c <send_word_lcd>
     f52:	4e e9       	ldi	r20, 0x9E	; 158
     f54:	52 e0       	ldi	r21, 0x02	; 2
     f56:	60 e0       	ldi	r22, 0x00	; 0
     f58:	80 91 d8 01 	lds	r24, 0x01D8	; 0x8001d8 <count_senha>
     f5c:	90 91 d9 01 	lds	r25, 0x01D9	; 0x8001d9 <count_senha+0x1>
     f60:	0e 94 1b 21 	call	0x4236	; 0x4236 <insert_senha>
     f64:	80 91 d8 01 	lds	r24, 0x01D8	; 0x8001d8 <count_senha>
     f68:	90 91 d9 01 	lds	r25, 0x01D9	; 0x8001d9 <count_senha+0x1>
     f6c:	01 96       	adiw	r24, 0x01	; 1
     f6e:	90 93 d9 01 	sts	0x01D9, r25	; 0x8001d9 <count_senha+0x1>
     f72:	80 93 d8 01 	sts	0x01D8, r24	; 0x8001d8 <count_senha>
     f76:	91 e0       	ldi	r25, 0x01	; 1
     f78:	80 91 dc 01 	lds	r24, 0x01DC	; 0x8001dc <state>
     f7c:	89 30       	cpi	r24, 0x09	; 9
     f7e:	09 f0       	breq	.+2      	; 0xf82 <__stack+0x683>
     f80:	90 e0       	ldi	r25, 0x00	; 0
     f82:	81 e0       	ldi	r24, 0x01	; 1
     f84:	20 91 d8 01 	lds	r18, 0x01D8	; 0x8001d8 <count_senha>
     f88:	30 91 d9 01 	lds	r19, 0x01D9	; 0x8001d9 <count_senha+0x1>
     f8c:	24 30       	cpi	r18, 0x04	; 4
     f8e:	31 05       	cpc	r19, r1
     f90:	0c f0       	brlt	.+2      	; 0xf94 <__stack+0x695>
     f92:	80 e0       	ldi	r24, 0x00	; 0
     f94:	89 23       	and	r24, r25
     f96:	a9 f0       	breq	.+42     	; 0xfc2 <__stack+0x6c3>
     f98:	85 e3       	ldi	r24, 0x35	; 53
     f9a:	0e 94 36 1f 	call	0x3e6c	; 0x3e6c <send_word_lcd>
     f9e:	4e e9       	ldi	r20, 0x9E	; 158
     fa0:	52 e0       	ldi	r21, 0x02	; 2
     fa2:	60 e0       	ldi	r22, 0x00	; 0
     fa4:	80 91 d8 01 	lds	r24, 0x01D8	; 0x8001d8 <count_senha>
     fa8:	90 91 d9 01 	lds	r25, 0x01D9	; 0x8001d9 <count_senha+0x1>
     fac:	0e 94 71 1e 	call	0x3ce2	; 0x3ce2 <senha_arm>
     fb0:	80 91 d8 01 	lds	r24, 0x01D8	; 0x8001d8 <count_senha>
     fb4:	90 91 d9 01 	lds	r25, 0x01D9	; 0x8001d9 <count_senha+0x1>
     fb8:	01 96       	adiw	r24, 0x01	; 1
     fba:	90 93 d9 01 	sts	0x01D9, r25	; 0x8001d9 <count_senha+0x1>
     fbe:	80 93 d8 01 	sts	0x01D8, r24	; 0x8001d8 <count_senha>
     fc2:	91 e0       	ldi	r25, 0x01	; 1
     fc4:	80 91 dc 01 	lds	r24, 0x01DC	; 0x8001dc <state>
     fc8:	8a 30       	cpi	r24, 0x0A	; 10
     fca:	09 f0       	breq	.+2      	; 0xfce <__stack+0x6cf>
     fcc:	90 e0       	ldi	r25, 0x00	; 0
     fce:	81 e0       	ldi	r24, 0x01	; 1
     fd0:	20 91 d8 01 	lds	r18, 0x01D8	; 0x8001d8 <count_senha>
     fd4:	30 91 d9 01 	lds	r19, 0x01D9	; 0x8001d9 <count_senha+0x1>
     fd8:	24 30       	cpi	r18, 0x04	; 4
     fda:	31 05       	cpc	r19, r1
     fdc:	0c f0       	brlt	.+2      	; 0xfe0 <__stack+0x6e1>
     fde:	80 e0       	ldi	r24, 0x00	; 0
     fe0:	89 23       	and	r24, r25
     fe2:	a9 f0       	breq	.+42     	; 0x100e <__stack+0x70f>
     fe4:	85 e3       	ldi	r24, 0x35	; 53
     fe6:	0e 94 36 1f 	call	0x3e6c	; 0x3e6c <send_word_lcd>
     fea:	4e e9       	ldi	r20, 0x9E	; 158
     fec:	52 e0       	ldi	r21, 0x02	; 2
     fee:	60 e0       	ldi	r22, 0x00	; 0
     ff0:	80 91 d8 01 	lds	r24, 0x01D8	; 0x8001d8 <count_senha>
     ff4:	90 91 d9 01 	lds	r25, 0x01D9	; 0x8001d9 <count_senha+0x1>
     ff8:	0e 94 1b 21 	call	0x4236	; 0x4236 <insert_senha>
     ffc:	80 91 d8 01 	lds	r24, 0x01D8	; 0x8001d8 <count_senha>
    1000:	90 91 d9 01 	lds	r25, 0x01D9	; 0x8001d9 <count_senha+0x1>
    1004:	01 96       	adiw	r24, 0x01	; 1
    1006:	90 93 d9 01 	sts	0x01D9, r25	; 0x8001d9 <count_senha+0x1>
    100a:	80 93 d8 01 	sts	0x01D8, r24	; 0x8001d8 <count_senha>
    100e:	91 e0       	ldi	r25, 0x01	; 1
    1010:	80 91 dc 01 	lds	r24, 0x01DC	; 0x8001dc <state>
    1014:	8b 30       	cpi	r24, 0x0B	; 11
    1016:	09 f0       	breq	.+2      	; 0x101a <__stack+0x71b>
    1018:	90 e0       	ldi	r25, 0x00	; 0
    101a:	81 e0       	ldi	r24, 0x01	; 1
    101c:	20 91 d8 01 	lds	r18, 0x01D8	; 0x8001d8 <count_senha>
    1020:	30 91 d9 01 	lds	r19, 0x01D9	; 0x8001d9 <count_senha+0x1>
    1024:	24 30       	cpi	r18, 0x04	; 4
    1026:	31 05       	cpc	r19, r1
    1028:	0c f0       	brlt	.+2      	; 0x102c <__stack+0x72d>
    102a:	80 e0       	ldi	r24, 0x00	; 0
    102c:	89 23       	and	r24, r25
    102e:	a9 f0       	breq	.+42     	; 0x105a <__stack+0x75b>
    1030:	85 e3       	ldi	r24, 0x35	; 53
    1032:	0e 94 36 1f 	call	0x3e6c	; 0x3e6c <send_word_lcd>
    1036:	4e e9       	ldi	r20, 0x9E	; 158
    1038:	52 e0       	ldi	r21, 0x02	; 2
    103a:	60 e0       	ldi	r22, 0x00	; 0
    103c:	80 91 d8 01 	lds	r24, 0x01D8	; 0x8001d8 <count_senha>
    1040:	90 91 d9 01 	lds	r25, 0x01D9	; 0x8001d9 <count_senha+0x1>
    1044:	0e 94 1b 21 	call	0x4236	; 0x4236 <insert_senha>
    1048:	80 91 d8 01 	lds	r24, 0x01D8	; 0x8001d8 <count_senha>
    104c:	90 91 d9 01 	lds	r25, 0x01D9	; 0x8001d9 <count_senha+0x1>
    1050:	01 96       	adiw	r24, 0x01	; 1
    1052:	90 93 d9 01 	sts	0x01D9, r25	; 0x8001d9 <count_senha+0x1>
    1056:	80 93 d8 01 	sts	0x01D8, r24	; 0x8001d8 <count_senha>
    105a:	91 e0       	ldi	r25, 0x01	; 1
    105c:	80 91 dc 01 	lds	r24, 0x01DC	; 0x8001dc <state>
    1060:	8f 30       	cpi	r24, 0x0F	; 15
    1062:	09 f0       	breq	.+2      	; 0x1066 <__stack+0x767>
    1064:	90 e0       	ldi	r25, 0x00	; 0
    1066:	81 e0       	ldi	r24, 0x01	; 1
    1068:	20 91 d2 01 	lds	r18, 0x01D2	; 0x8001d2 <flag_sensor>
    106c:	30 91 d3 01 	lds	r19, 0x01D3	; 0x8001d3 <flag_sensor+0x1>
    1070:	23 2b       	or	r18, r19
    1072:	09 f0       	breq	.+2      	; 0x1076 <__stack+0x777>
    1074:	80 e0       	ldi	r24, 0x00	; 0
    1076:	89 23       	and	r24, r25
    1078:	21 f0       	breq	.+8      	; 0x1082 <__stack+0x783>
    107a:	85 e0       	ldi	r24, 0x05	; 5
    107c:	90 e0       	ldi	r25, 0x00	; 0
    107e:	0e 94 cc 17 	call	0x2f98	; 0x2f98 <hab_sensor>
    1082:	91 e0       	ldi	r25, 0x01	; 1
    1084:	80 91 dc 01 	lds	r24, 0x01DC	; 0x8001dc <state>
    1088:	87 30       	cpi	r24, 0x07	; 7
    108a:	09 f0       	breq	.+2      	; 0x108e <__stack+0x78f>
    108c:	90 e0       	ldi	r25, 0x00	; 0
    108e:	21 e0       	ldi	r18, 0x01	; 1
    1090:	40 91 da 01 	lds	r20, 0x01DA	; 0x8001da <flag_a_senha>
    1094:	50 91 db 01 	lds	r21, 0x01DB	; 0x8001db <flag_a_senha+0x1>
    1098:	45 2b       	or	r20, r21
    109a:	09 f0       	breq	.+2      	; 0x109e <__stack+0x79f>
    109c:	20 e0       	ldi	r18, 0x00	; 0
    109e:	81 e0       	ldi	r24, 0x01	; 1
    10a0:	40 91 c4 01 	lds	r20, 0x01C4	; 0x8001c4 <flag_timeout>
    10a4:	50 91 c5 01 	lds	r21, 0x01C5	; 0x8001c5 <flag_timeout+0x1>
    10a8:	45 2b       	or	r20, r21
    10aa:	09 f0       	breq	.+2      	; 0x10ae <__stack+0x7af>
    10ac:	80 e0       	ldi	r24, 0x00	; 0
    10ae:	82 23       	and	r24, r18
    10b0:	99 23       	and	r25, r25
    10b2:	a9 f0       	breq	.+42     	; 0x10de <__stack+0x7df>
    10b4:	88 23       	and	r24, r24
    10b6:	99 f0       	breq	.+38     	; 0x10de <__stack+0x7df>
    10b8:	80 e1       	ldi	r24, 0x10	; 16
    10ba:	80 93 dc 01 	sts	0x01DC, r24	; 0x8001dc <state>
    10be:	80 91 d0 01 	lds	r24, 0x01D0	; 0x8001d0 <flag_D_sensor>
    10c2:	90 91 d1 01 	lds	r25, 0x01D1	; 0x8001d1 <flag_D_sensor+0x1>
    10c6:	89 2b       	or	r24, r25
    10c8:	11 f4       	brne	.+4      	; 0x10ce <__stack+0x7cf>
    10ca:	0e 94 27 1c 	call	0x384e	; 0x384e <msg_h_zona>
    10ce:	80 91 d0 01 	lds	r24, 0x01D0	; 0x8001d0 <flag_D_sensor>
    10d2:	90 91 d1 01 	lds	r25, 0x01D1	; 0x8001d1 <flag_D_sensor+0x1>
    10d6:	01 97       	sbiw	r24, 0x01	; 1
    10d8:	11 f4       	brne	.+4      	; 0x10de <__stack+0x7df>
    10da:	0e 94 5a 1c 	call	0x38b4	; 0x38b4 <msg_d_zona>
    10de:	90 91 dc 01 	lds	r25, 0x01DC	; 0x8001dc <state>
    10e2:	21 e0       	ldi	r18, 0x01	; 1
    10e4:	91 31       	cpi	r25, 0x11	; 17
    10e6:	09 f0       	breq	.+2      	; 0x10ea <__stack+0x7eb>
    10e8:	20 e0       	ldi	r18, 0x00	; 0
    10ea:	31 e0       	ldi	r19, 0x01	; 1
    10ec:	40 91 ca 01 	lds	r20, 0x01CA	; 0x8001ca <flag_z1>
    10f0:	50 91 cb 01 	lds	r21, 0x01CB	; 0x8001cb <flag_z1+0x1>
    10f4:	45 2b       	or	r20, r21
    10f6:	09 f0       	breq	.+2      	; 0x10fa <__stack+0x7fb>
    10f8:	30 e0       	ldi	r19, 0x00	; 0
    10fa:	81 e0       	ldi	r24, 0x01	; 1
    10fc:	40 91 cc 01 	lds	r20, 0x01CC	; 0x8001cc <flag_z>
    1100:	50 91 cd 01 	lds	r21, 0x01CD	; 0x8001cd <flag_z+0x1>
    1104:	45 2b       	or	r20, r21
    1106:	09 f0       	breq	.+2      	; 0x110a <__stack+0x80b>
    1108:	80 e0       	ldi	r24, 0x00	; 0
    110a:	83 23       	and	r24, r19
    110c:	22 23       	and	r18, r18
    110e:	71 f0       	breq	.+28     	; 0x112c <__stack+0x82d>
    1110:	88 23       	and	r24, r24
    1112:	61 f0       	breq	.+24     	; 0x112c <__stack+0x82d>
    1114:	25 e0       	ldi	r18, 0x05	; 5
    1116:	30 e0       	ldi	r19, 0x00	; 0
    1118:	30 93 01 01 	sts	0x0101, r19	; 0x800101 <__DATA_REGION_ORIGIN__+0x1>
    111c:	20 93 00 01 	sts	0x0100, r18	; 0x800100 <__DATA_REGION_ORIGIN__>
    1120:	21 e0       	ldi	r18, 0x01	; 1
    1122:	30 e0       	ldi	r19, 0x00	; 0
    1124:	30 93 cb 01 	sts	0x01CB, r19	; 0x8001cb <flag_z1+0x1>
    1128:	20 93 ca 01 	sts	0x01CA, r18	; 0x8001ca <flag_z1>
    112c:	20 91 be 01 	lds	r18, 0x01BE	; 0x8001be <cont_t>
    1130:	30 91 bf 01 	lds	r19, 0x01BF	; 0x8001bf <cont_t+0x1>
    1134:	41 e0       	ldi	r20, 0x01	; 1
    1136:	93 31       	cpi	r25, 0x13	; 19
    1138:	09 f0       	breq	.+2      	; 0x113c <__stack+0x83d>
    113a:	40 e0       	ldi	r20, 0x00	; 0
    113c:	81 e0       	ldi	r24, 0x01	; 1
    113e:	22 30       	cpi	r18, 0x02	; 2
    1140:	31 05       	cpc	r19, r1
    1142:	0c f0       	brlt	.+2      	; 0x1146 <__stack+0x847>
    1144:	80 e0       	ldi	r24, 0x00	; 0
    1146:	84 23       	and	r24, r20
    1148:	79 f0       	breq	.+30     	; 0x1168 <__stack+0x869>
    114a:	f9 01       	movw	r30, r18
    114c:	ee 0f       	add	r30, r30
    114e:	ff 1f       	adc	r31, r31
    1150:	e3 5f       	subi	r30, 0xF3	; 243
    1152:	fe 4f       	sbci	r31, 0xFE	; 254
    1154:	45 e0       	ldi	r20, 0x05	; 5
    1156:	50 e0       	ldi	r21, 0x00	; 0
    1158:	51 83       	std	Z+1, r21	; 0x01
    115a:	40 83       	st	Z, r20
    115c:	2f 5f       	subi	r18, 0xFF	; 255
    115e:	3f 4f       	sbci	r19, 0xFF	; 255
    1160:	30 93 bf 01 	sts	0x01BF, r19	; 0x8001bf <cont_t+0x1>
    1164:	20 93 be 01 	sts	0x01BE, r18	; 0x8001be <cont_t>
    1168:	81 e0       	ldi	r24, 0x01	; 1
    116a:	20 91 be 01 	lds	r18, 0x01BE	; 0x8001be <cont_t>
    116e:	30 91 bf 01 	lds	r19, 0x01BF	; 0x8001bf <cont_t+0x1>
    1172:	23 30       	cpi	r18, 0x03	; 3
    1174:	31 05       	cpc	r19, r1
    1176:	0c f0       	brlt	.+2      	; 0x117a <__stack+0x87b>
    1178:	80 e0       	ldi	r24, 0x00	; 0
    117a:	21 e0       	ldi	r18, 0x01	; 1
    117c:	94 31       	cpi	r25, 0x14	; 20
    117e:	09 f0       	breq	.+2      	; 0x1182 <__stack+0x883>
    1180:	20 e0       	ldi	r18, 0x00	; 0
    1182:	28 23       	and	r18, r24
    1184:	99 f0       	breq	.+38     	; 0x11ac <__stack+0x8ad>
    1186:	20 91 ba 01 	lds	r18, 0x01BA	; 0x8001ba <cont_s>
    118a:	30 91 bb 01 	lds	r19, 0x01BB	; 0x8001bb <cont_s+0x1>
    118e:	f9 01       	movw	r30, r18
    1190:	ee 0f       	add	r30, r30
    1192:	ff 1f       	adc	r31, r31
    1194:	e5 5d       	subi	r30, 0xD5	; 213
    1196:	fe 4f       	sbci	r31, 0xFE	; 254
    1198:	45 e0       	ldi	r20, 0x05	; 5
    119a:	50 e0       	ldi	r21, 0x00	; 0
    119c:	51 83       	std	Z+1, r21	; 0x01
    119e:	40 83       	st	Z, r20
    11a0:	2f 5f       	subi	r18, 0xFF	; 255
    11a2:	3f 4f       	sbci	r19, 0xFF	; 255
    11a4:	30 93 bb 01 	sts	0x01BB, r19	; 0x8001bb <cont_s+0x1>
    11a8:	20 93 ba 01 	sts	0x01BA, r18	; 0x8001ba <cont_s>
    11ac:	21 e0       	ldi	r18, 0x01	; 1
    11ae:	92 31       	cpi	r25, 0x12	; 18
    11b0:	09 f0       	breq	.+2      	; 0x11b4 <__stack+0x8b5>
    11b2:	20 e0       	ldi	r18, 0x00	; 0
    11b4:	82 23       	and	r24, r18
    11b6:	11 f4       	brne	.+4      	; 0x11bc <__stack+0x8bd>
    11b8:	0c 94 1f 11 	jmp	0x223e	; 0x223e <__stack+0x193f>
    11bc:	80 91 bc 01 	lds	r24, 0x01BC	; 0x8001bc <cont_aa>
    11c0:	90 91 bd 01 	lds	r25, 0x01BD	; 0x8001bd <cont_aa+0x1>
    11c4:	fc 01       	movw	r30, r24
    11c6:	ee 0f       	add	r30, r30
    11c8:	ff 1f       	adc	r31, r31
    11ca:	ed 5d       	subi	r30, 0xDD	; 221
    11cc:	fe 4f       	sbci	r31, 0xFE	; 254
    11ce:	25 e0       	ldi	r18, 0x05	; 5
    11d0:	30 e0       	ldi	r19, 0x00	; 0
    11d2:	31 83       	std	Z+1, r19	; 0x01
    11d4:	20 83       	st	Z, r18
    11d6:	01 96       	adiw	r24, 0x01	; 1
    11d8:	90 93 bd 01 	sts	0x01BD, r25	; 0x8001bd <cont_aa+0x1>
    11dc:	80 93 bc 01 	sts	0x01BC, r24	; 0x8001bc <cont_aa>
    11e0:	0c 94 1f 11 	jmp	0x223e	; 0x223e <__stack+0x193f>
    11e4:	80 39       	cpi	r24, 0x90	; 144
    11e6:	91 05       	cpc	r25, r1
    11e8:	09 f0       	breq	.+2      	; 0x11ec <__stack+0x8ed>
    11ea:	5c c1       	rjmp	.+696    	; 0x14a4 <__stack+0xba5>
    11ec:	91 e0       	ldi	r25, 0x01	; 1
    11ee:	80 91 dc 01 	lds	r24, 0x01DC	; 0x8001dc <state>
    11f2:	88 30       	cpi	r24, 0x08	; 8
    11f4:	09 f0       	breq	.+2      	; 0x11f8 <__stack+0x8f9>
    11f6:	90 e0       	ldi	r25, 0x00	; 0
    11f8:	81 e0       	ldi	r24, 0x01	; 1
    11fa:	20 91 d8 01 	lds	r18, 0x01D8	; 0x8001d8 <count_senha>
    11fe:	30 91 d9 01 	lds	r19, 0x01D9	; 0x8001d9 <count_senha+0x1>
    1202:	24 30       	cpi	r18, 0x04	; 4
    1204:	31 05       	cpc	r19, r1
    1206:	0c f0       	brlt	.+2      	; 0x120a <__stack+0x90b>
    1208:	80 e0       	ldi	r24, 0x00	; 0
    120a:	89 23       	and	r24, r25
    120c:	a9 f0       	breq	.+42     	; 0x1238 <__stack+0x939>
    120e:	86 e3       	ldi	r24, 0x36	; 54
    1210:	0e 94 36 1f 	call	0x3e6c	; 0x3e6c <send_word_lcd>
    1214:	40 ea       	ldi	r20, 0xA0	; 160
    1216:	52 e0       	ldi	r21, 0x02	; 2
    1218:	60 e0       	ldi	r22, 0x00	; 0
    121a:	80 91 d8 01 	lds	r24, 0x01D8	; 0x8001d8 <count_senha>
    121e:	90 91 d9 01 	lds	r25, 0x01D9	; 0x8001d9 <count_senha+0x1>
    1222:	0e 94 1b 21 	call	0x4236	; 0x4236 <insert_senha>
    1226:	80 91 d8 01 	lds	r24, 0x01D8	; 0x8001d8 <count_senha>
    122a:	90 91 d9 01 	lds	r25, 0x01D9	; 0x8001d9 <count_senha+0x1>
    122e:	01 96       	adiw	r24, 0x01	; 1
    1230:	90 93 d9 01 	sts	0x01D9, r25	; 0x8001d9 <count_senha+0x1>
    1234:	80 93 d8 01 	sts	0x01D8, r24	; 0x8001d8 <count_senha>
    1238:	91 e0       	ldi	r25, 0x01	; 1
    123a:	80 91 dc 01 	lds	r24, 0x01DC	; 0x8001dc <state>
    123e:	89 30       	cpi	r24, 0x09	; 9
    1240:	09 f0       	breq	.+2      	; 0x1244 <__stack+0x945>
    1242:	90 e0       	ldi	r25, 0x00	; 0
    1244:	81 e0       	ldi	r24, 0x01	; 1
    1246:	20 91 d8 01 	lds	r18, 0x01D8	; 0x8001d8 <count_senha>
    124a:	30 91 d9 01 	lds	r19, 0x01D9	; 0x8001d9 <count_senha+0x1>
    124e:	24 30       	cpi	r18, 0x04	; 4
    1250:	31 05       	cpc	r19, r1
    1252:	0c f0       	brlt	.+2      	; 0x1256 <__stack+0x957>
    1254:	80 e0       	ldi	r24, 0x00	; 0
    1256:	89 23       	and	r24, r25
    1258:	a9 f0       	breq	.+42     	; 0x1284 <__stack+0x985>
    125a:	86 e3       	ldi	r24, 0x36	; 54
    125c:	0e 94 36 1f 	call	0x3e6c	; 0x3e6c <send_word_lcd>
    1260:	40 ea       	ldi	r20, 0xA0	; 160
    1262:	52 e0       	ldi	r21, 0x02	; 2
    1264:	60 e0       	ldi	r22, 0x00	; 0
    1266:	80 91 d8 01 	lds	r24, 0x01D8	; 0x8001d8 <count_senha>
    126a:	90 91 d9 01 	lds	r25, 0x01D9	; 0x8001d9 <count_senha+0x1>
    126e:	0e 94 71 1e 	call	0x3ce2	; 0x3ce2 <senha_arm>
    1272:	80 91 d8 01 	lds	r24, 0x01D8	; 0x8001d8 <count_senha>
    1276:	90 91 d9 01 	lds	r25, 0x01D9	; 0x8001d9 <count_senha+0x1>
    127a:	01 96       	adiw	r24, 0x01	; 1
    127c:	90 93 d9 01 	sts	0x01D9, r25	; 0x8001d9 <count_senha+0x1>
    1280:	80 93 d8 01 	sts	0x01D8, r24	; 0x8001d8 <count_senha>
    1284:	91 e0       	ldi	r25, 0x01	; 1
    1286:	80 91 dc 01 	lds	r24, 0x01DC	; 0x8001dc <state>
    128a:	8a 30       	cpi	r24, 0x0A	; 10
    128c:	09 f0       	breq	.+2      	; 0x1290 <__stack+0x991>
    128e:	90 e0       	ldi	r25, 0x00	; 0
    1290:	81 e0       	ldi	r24, 0x01	; 1
    1292:	20 91 d8 01 	lds	r18, 0x01D8	; 0x8001d8 <count_senha>
    1296:	30 91 d9 01 	lds	r19, 0x01D9	; 0x8001d9 <count_senha+0x1>
    129a:	24 30       	cpi	r18, 0x04	; 4
    129c:	31 05       	cpc	r19, r1
    129e:	0c f0       	brlt	.+2      	; 0x12a2 <__stack+0x9a3>
    12a0:	80 e0       	ldi	r24, 0x00	; 0
    12a2:	89 23       	and	r24, r25
    12a4:	a9 f0       	breq	.+42     	; 0x12d0 <__stack+0x9d1>
    12a6:	86 e3       	ldi	r24, 0x36	; 54
    12a8:	0e 94 36 1f 	call	0x3e6c	; 0x3e6c <send_word_lcd>
    12ac:	40 ea       	ldi	r20, 0xA0	; 160
    12ae:	52 e0       	ldi	r21, 0x02	; 2
    12b0:	60 e0       	ldi	r22, 0x00	; 0
    12b2:	80 91 d8 01 	lds	r24, 0x01D8	; 0x8001d8 <count_senha>
    12b6:	90 91 d9 01 	lds	r25, 0x01D9	; 0x8001d9 <count_senha+0x1>
    12ba:	0e 94 1b 21 	call	0x4236	; 0x4236 <insert_senha>
    12be:	80 91 d8 01 	lds	r24, 0x01D8	; 0x8001d8 <count_senha>
    12c2:	90 91 d9 01 	lds	r25, 0x01D9	; 0x8001d9 <count_senha+0x1>
    12c6:	01 96       	adiw	r24, 0x01	; 1
    12c8:	90 93 d9 01 	sts	0x01D9, r25	; 0x8001d9 <count_senha+0x1>
    12cc:	80 93 d8 01 	sts	0x01D8, r24	; 0x8001d8 <count_senha>
    12d0:	91 e0       	ldi	r25, 0x01	; 1
    12d2:	80 91 dc 01 	lds	r24, 0x01DC	; 0x8001dc <state>
    12d6:	8b 30       	cpi	r24, 0x0B	; 11
    12d8:	09 f0       	breq	.+2      	; 0x12dc <__stack+0x9dd>
    12da:	90 e0       	ldi	r25, 0x00	; 0
    12dc:	81 e0       	ldi	r24, 0x01	; 1
    12de:	20 91 d8 01 	lds	r18, 0x01D8	; 0x8001d8 <count_senha>
    12e2:	30 91 d9 01 	lds	r19, 0x01D9	; 0x8001d9 <count_senha+0x1>
    12e6:	24 30       	cpi	r18, 0x04	; 4
    12e8:	31 05       	cpc	r19, r1
    12ea:	0c f0       	brlt	.+2      	; 0x12ee <__stack+0x9ef>
    12ec:	80 e0       	ldi	r24, 0x00	; 0
    12ee:	89 23       	and	r24, r25
    12f0:	a9 f0       	breq	.+42     	; 0x131c <__stack+0xa1d>
    12f2:	86 e3       	ldi	r24, 0x36	; 54
    12f4:	0e 94 36 1f 	call	0x3e6c	; 0x3e6c <send_word_lcd>
    12f8:	40 ea       	ldi	r20, 0xA0	; 160
    12fa:	52 e0       	ldi	r21, 0x02	; 2
    12fc:	60 e0       	ldi	r22, 0x00	; 0
    12fe:	80 91 d8 01 	lds	r24, 0x01D8	; 0x8001d8 <count_senha>
    1302:	90 91 d9 01 	lds	r25, 0x01D9	; 0x8001d9 <count_senha+0x1>
    1306:	0e 94 1b 21 	call	0x4236	; 0x4236 <insert_senha>
    130a:	80 91 d8 01 	lds	r24, 0x01D8	; 0x8001d8 <count_senha>
    130e:	90 91 d9 01 	lds	r25, 0x01D9	; 0x8001d9 <count_senha+0x1>
    1312:	01 96       	adiw	r24, 0x01	; 1
    1314:	90 93 d9 01 	sts	0x01D9, r25	; 0x8001d9 <count_senha+0x1>
    1318:	80 93 d8 01 	sts	0x01D8, r24	; 0x8001d8 <count_senha>
    131c:	91 e0       	ldi	r25, 0x01	; 1
    131e:	80 91 dc 01 	lds	r24, 0x01DC	; 0x8001dc <state>
    1322:	8f 30       	cpi	r24, 0x0F	; 15
    1324:	09 f0       	breq	.+2      	; 0x1328 <__stack+0xa29>
    1326:	90 e0       	ldi	r25, 0x00	; 0
    1328:	81 e0       	ldi	r24, 0x01	; 1
    132a:	20 91 d2 01 	lds	r18, 0x01D2	; 0x8001d2 <flag_sensor>
    132e:	30 91 d3 01 	lds	r19, 0x01D3	; 0x8001d3 <flag_sensor+0x1>
    1332:	23 2b       	or	r18, r19
    1334:	09 f0       	breq	.+2      	; 0x1338 <__stack+0xa39>
    1336:	80 e0       	ldi	r24, 0x00	; 0
    1338:	89 23       	and	r24, r25
    133a:	21 f0       	breq	.+8      	; 0x1344 <__stack+0xa45>
    133c:	86 e0       	ldi	r24, 0x06	; 6
    133e:	90 e0       	ldi	r25, 0x00	; 0
    1340:	0e 94 cc 17 	call	0x2f98	; 0x2f98 <hab_sensor>
    1344:	80 91 dc 01 	lds	r24, 0x01DC	; 0x8001dc <state>
    1348:	21 e0       	ldi	r18, 0x01	; 1
    134a:	81 31       	cpi	r24, 0x11	; 17
    134c:	09 f0       	breq	.+2      	; 0x1350 <__stack+0xa51>
    134e:	20 e0       	ldi	r18, 0x00	; 0
    1350:	31 e0       	ldi	r19, 0x01	; 1
    1352:	40 91 ca 01 	lds	r20, 0x01CA	; 0x8001ca <flag_z1>
    1356:	50 91 cb 01 	lds	r21, 0x01CB	; 0x8001cb <flag_z1+0x1>
    135a:	45 2b       	or	r20, r21
    135c:	09 f0       	breq	.+2      	; 0x1360 <__stack+0xa61>
    135e:	30 e0       	ldi	r19, 0x00	; 0
    1360:	91 e0       	ldi	r25, 0x01	; 1
    1362:	40 91 cc 01 	lds	r20, 0x01CC	; 0x8001cc <flag_z>
    1366:	50 91 cd 01 	lds	r21, 0x01CD	; 0x8001cd <flag_z+0x1>
    136a:	45 2b       	or	r20, r21
    136c:	09 f0       	breq	.+2      	; 0x1370 <__stack+0xa71>
    136e:	90 e0       	ldi	r25, 0x00	; 0
    1370:	93 23       	and	r25, r19
    1372:	22 23       	and	r18, r18
    1374:	71 f0       	breq	.+28     	; 0x1392 <__stack+0xa93>
    1376:	99 23       	and	r25, r25
    1378:	61 f0       	breq	.+24     	; 0x1392 <__stack+0xa93>
    137a:	26 e0       	ldi	r18, 0x06	; 6
    137c:	30 e0       	ldi	r19, 0x00	; 0
    137e:	30 93 01 01 	sts	0x0101, r19	; 0x800101 <__DATA_REGION_ORIGIN__+0x1>
    1382:	20 93 00 01 	sts	0x0100, r18	; 0x800100 <__DATA_REGION_ORIGIN__>
    1386:	21 e0       	ldi	r18, 0x01	; 1
    1388:	30 e0       	ldi	r19, 0x00	; 0
    138a:	30 93 cb 01 	sts	0x01CB, r19	; 0x8001cb <flag_z1+0x1>
    138e:	20 93 ca 01 	sts	0x01CA, r18	; 0x8001ca <flag_z1>
    1392:	20 91 be 01 	lds	r18, 0x01BE	; 0x8001be <cont_t>
    1396:	30 91 bf 01 	lds	r19, 0x01BF	; 0x8001bf <cont_t+0x1>
    139a:	41 e0       	ldi	r20, 0x01	; 1
    139c:	83 31       	cpi	r24, 0x13	; 19
    139e:	09 f0       	breq	.+2      	; 0x13a2 <__stack+0xaa3>
    13a0:	40 e0       	ldi	r20, 0x00	; 0
    13a2:	91 e0       	ldi	r25, 0x01	; 1
    13a4:	22 30       	cpi	r18, 0x02	; 2
    13a6:	31 05       	cpc	r19, r1
    13a8:	0c f0       	brlt	.+2      	; 0x13ac <__stack+0xaad>
    13aa:	90 e0       	ldi	r25, 0x00	; 0
    13ac:	94 23       	and	r25, r20
    13ae:	79 f0       	breq	.+30     	; 0x13ce <__stack+0xacf>
    13b0:	f9 01       	movw	r30, r18
    13b2:	ee 0f       	add	r30, r30
    13b4:	ff 1f       	adc	r31, r31
    13b6:	e3 5f       	subi	r30, 0xF3	; 243
    13b8:	fe 4f       	sbci	r31, 0xFE	; 254
    13ba:	46 e0       	ldi	r20, 0x06	; 6
    13bc:	50 e0       	ldi	r21, 0x00	; 0
    13be:	51 83       	std	Z+1, r21	; 0x01
    13c0:	40 83       	st	Z, r20
    13c2:	2f 5f       	subi	r18, 0xFF	; 255
    13c4:	3f 4f       	sbci	r19, 0xFF	; 255
    13c6:	30 93 bf 01 	sts	0x01BF, r19	; 0x8001bf <cont_t+0x1>
    13ca:	20 93 be 01 	sts	0x01BE, r18	; 0x8001be <cont_t>
    13ce:	21 e0       	ldi	r18, 0x01	; 1
    13d0:	40 91 be 01 	lds	r20, 0x01BE	; 0x8001be <cont_t>
    13d4:	50 91 bf 01 	lds	r21, 0x01BF	; 0x8001bf <cont_t+0x1>
    13d8:	43 30       	cpi	r20, 0x03	; 3
    13da:	51 05       	cpc	r21, r1
    13dc:	0c f0       	brlt	.+2      	; 0x13e0 <__stack+0xae1>
    13de:	20 e0       	ldi	r18, 0x00	; 0
    13e0:	91 e0       	ldi	r25, 0x01	; 1
    13e2:	84 31       	cpi	r24, 0x14	; 20
    13e4:	09 f0       	breq	.+2      	; 0x13e8 <__stack+0xae9>
    13e6:	90 e0       	ldi	r25, 0x00	; 0
    13e8:	92 23       	and	r25, r18
    13ea:	99 f0       	breq	.+38     	; 0x1412 <__stack+0xb13>
    13ec:	20 91 ba 01 	lds	r18, 0x01BA	; 0x8001ba <cont_s>
    13f0:	30 91 bb 01 	lds	r19, 0x01BB	; 0x8001bb <cont_s+0x1>
    13f4:	f9 01       	movw	r30, r18
    13f6:	ee 0f       	add	r30, r30
    13f8:	ff 1f       	adc	r31, r31
    13fa:	e5 5d       	subi	r30, 0xD5	; 213
    13fc:	fe 4f       	sbci	r31, 0xFE	; 254
    13fe:	46 e0       	ldi	r20, 0x06	; 6
    1400:	50 e0       	ldi	r21, 0x00	; 0
    1402:	51 83       	std	Z+1, r21	; 0x01
    1404:	40 83       	st	Z, r20
    1406:	2f 5f       	subi	r18, 0xFF	; 255
    1408:	3f 4f       	sbci	r19, 0xFF	; 255
    140a:	30 93 bb 01 	sts	0x01BB, r19	; 0x8001bb <cont_s+0x1>
    140e:	20 93 ba 01 	sts	0x01BA, r18	; 0x8001ba <cont_s>
    1412:	91 e0       	ldi	r25, 0x01	; 1
    1414:	87 30       	cpi	r24, 0x07	; 7
    1416:	09 f0       	breq	.+2      	; 0x141a <__stack+0xb1b>
    1418:	90 e0       	ldi	r25, 0x00	; 0
    141a:	21 e0       	ldi	r18, 0x01	; 1
    141c:	40 91 da 01 	lds	r20, 0x01DA	; 0x8001da <flag_a_senha>
    1420:	50 91 db 01 	lds	r21, 0x01DB	; 0x8001db <flag_a_senha+0x1>
    1424:	45 2b       	or	r20, r21
    1426:	09 f0       	breq	.+2      	; 0x142a <__stack+0xb2b>
    1428:	20 e0       	ldi	r18, 0x00	; 0
    142a:	81 e0       	ldi	r24, 0x01	; 1
    142c:	40 91 c4 01 	lds	r20, 0x01C4	; 0x8001c4 <flag_timeout>
    1430:	50 91 c5 01 	lds	r21, 0x01C5	; 0x8001c5 <flag_timeout+0x1>
    1434:	45 2b       	or	r20, r21
    1436:	09 f0       	breq	.+2      	; 0x143a <__stack+0xb3b>
    1438:	80 e0       	ldi	r24, 0x00	; 0
    143a:	82 23       	and	r24, r18
    143c:	99 23       	and	r25, r25
    143e:	69 f0       	breq	.+26     	; 0x145a <__stack+0xb5b>
    1440:	88 23       	and	r24, r24
    1442:	59 f0       	breq	.+22     	; 0x145a <__stack+0xb5b>
    1444:	82 e1       	ldi	r24, 0x12	; 18
    1446:	80 93 dc 01 	sts	0x01DC, r24	; 0x8001dc <state>
    144a:	81 e0       	ldi	r24, 0x01	; 1
    144c:	90 e0       	ldi	r25, 0x00	; 0
    144e:	90 93 c1 01 	sts	0x01C1, r25	; 0x8001c1 <flag_tat+0x1>
    1452:	80 93 c0 01 	sts	0x01C0, r24	; 0x8001c0 <flag_tat>
    1456:	0e 94 59 1d 	call	0x3ab2	; 0x3ab2 <msg_temp_ativ>
    145a:	91 e0       	ldi	r25, 0x01	; 1
    145c:	80 91 dc 01 	lds	r24, 0x01DC	; 0x8001dc <state>
    1460:	82 31       	cpi	r24, 0x12	; 18
    1462:	09 f0       	breq	.+2      	; 0x1466 <__stack+0xb67>
    1464:	90 e0       	ldi	r25, 0x00	; 0
    1466:	81 e0       	ldi	r24, 0x01	; 1
    1468:	20 91 be 01 	lds	r18, 0x01BE	; 0x8001be <cont_t>
    146c:	30 91 bf 01 	lds	r19, 0x01BF	; 0x8001bf <cont_t+0x1>
    1470:	23 30       	cpi	r18, 0x03	; 3
    1472:	31 05       	cpc	r19, r1
    1474:	0c f0       	brlt	.+2      	; 0x1478 <__stack+0xb79>
    1476:	80 e0       	ldi	r24, 0x00	; 0
    1478:	89 23       	and	r24, r25
    147a:	09 f4       	brne	.+2      	; 0x147e <__stack+0xb7f>
    147c:	e0 c6       	rjmp	.+3520   	; 0x223e <__stack+0x193f>
    147e:	80 91 bc 01 	lds	r24, 0x01BC	; 0x8001bc <cont_aa>
    1482:	90 91 bd 01 	lds	r25, 0x01BD	; 0x8001bd <cont_aa+0x1>
    1486:	fc 01       	movw	r30, r24
    1488:	ee 0f       	add	r30, r30
    148a:	ff 1f       	adc	r31, r31
    148c:	ed 5d       	subi	r30, 0xDD	; 221
    148e:	fe 4f       	sbci	r31, 0xFE	; 254
    1490:	26 e0       	ldi	r18, 0x06	; 6
    1492:	30 e0       	ldi	r19, 0x00	; 0
    1494:	31 83       	std	Z+1, r19	; 0x01
    1496:	20 83       	st	Z, r18
    1498:	01 96       	adiw	r24, 0x01	; 1
    149a:	90 93 bd 01 	sts	0x01BD, r25	; 0x8001bd <cont_aa+0x1>
    149e:	80 93 bc 01 	sts	0x01BC, r24	; 0x8001bc <cont_aa>
    14a2:	cd c6       	rjmp	.+3482   	; 0x223e <__stack+0x193f>
    14a4:	80 38       	cpi	r24, 0x80	; 128
    14a6:	91 05       	cpc	r25, r1
    14a8:	19 f5       	brne	.+70     	; 0x14f0 <__stack+0xbf1>
    14aa:	91 e0       	ldi	r25, 0x01	; 1
    14ac:	80 91 dc 01 	lds	r24, 0x01DC	; 0x8001dc <state>
    14b0:	88 30       	cpi	r24, 0x08	; 8
    14b2:	09 f0       	breq	.+2      	; 0x14b6 <__stack+0xbb7>
    14b4:	90 e0       	ldi	r25, 0x00	; 0
    14b6:	81 e0       	ldi	r24, 0x01	; 1
    14b8:	20 91 d8 01 	lds	r18, 0x01D8	; 0x8001d8 <count_senha>
    14bc:	30 91 d9 01 	lds	r19, 0x01D9	; 0x8001d9 <count_senha+0x1>
    14c0:	24 30       	cpi	r18, 0x04	; 4
    14c2:	31 05       	cpc	r19, r1
    14c4:	09 f0       	breq	.+2      	; 0x14c8 <__stack+0xbc9>
    14c6:	80 e0       	ldi	r24, 0x00	; 0
    14c8:	89 23       	and	r24, r25
    14ca:	39 f0       	breq	.+14     	; 0x14da <__stack+0xbdb>
    14cc:	8c e0       	ldi	r24, 0x0C	; 12
    14ce:	80 93 dc 01 	sts	0x01DC, r24	; 0x8001dc <state>
    14d2:	10 92 d9 01 	sts	0x01D9, r1	; 0x8001d9 <count_senha+0x1>
    14d6:	10 92 d8 01 	sts	0x01D8, r1	; 0x8001d8 <count_senha>
    14da:	80 91 dc 01 	lds	r24, 0x01DC	; 0x8001dc <state>
    14de:	81 30       	cpi	r24, 0x01	; 1
    14e0:	09 f0       	breq	.+2      	; 0x14e4 <__stack+0xbe5>
    14e2:	ad c6       	rjmp	.+3418   	; 0x223e <__stack+0x193f>
    14e4:	8a e0       	ldi	r24, 0x0A	; 10
    14e6:	80 93 dc 01 	sts	0x01DC, r24	; 0x8001dc <state>
    14ea:	0e 94 c1 1e 	call	0x3d82	; 0x3d82 <msg_inserir_senha>
    14ee:	a7 c6       	rjmp	.+3406   	; 0x223e <__stack+0x193f>
    14f0:	80 37       	cpi	r24, 0x70	; 112
    14f2:	91 05       	cpc	r25, r1
    14f4:	09 f0       	breq	.+2      	; 0x14f8 <__stack+0xbf9>
    14f6:	53 c1       	rjmp	.+678    	; 0x179e <__stack+0xe9f>
    14f8:	91 e0       	ldi	r25, 0x01	; 1
    14fa:	80 91 dc 01 	lds	r24, 0x01DC	; 0x8001dc <state>
    14fe:	88 30       	cpi	r24, 0x08	; 8
    1500:	09 f0       	breq	.+2      	; 0x1504 <__stack+0xc05>
    1502:	90 e0       	ldi	r25, 0x00	; 0
    1504:	81 e0       	ldi	r24, 0x01	; 1
    1506:	20 91 d8 01 	lds	r18, 0x01D8	; 0x8001d8 <count_senha>
    150a:	30 91 d9 01 	lds	r19, 0x01D9	; 0x8001d9 <count_senha+0x1>
    150e:	24 30       	cpi	r18, 0x04	; 4
    1510:	31 05       	cpc	r19, r1
    1512:	0c f0       	brlt	.+2      	; 0x1516 <__stack+0xc17>
    1514:	80 e0       	ldi	r24, 0x00	; 0
    1516:	89 23       	and	r24, r25
    1518:	a9 f0       	breq	.+42     	; 0x1544 <__stack+0xc45>
    151a:	87 e3       	ldi	r24, 0x37	; 55
    151c:	0e 94 36 1f 	call	0x3e6c	; 0x3e6c <send_word_lcd>
    1520:	42 ea       	ldi	r20, 0xA2	; 162
    1522:	52 e0       	ldi	r21, 0x02	; 2
    1524:	60 e0       	ldi	r22, 0x00	; 0
    1526:	80 91 d8 01 	lds	r24, 0x01D8	; 0x8001d8 <count_senha>
    152a:	90 91 d9 01 	lds	r25, 0x01D9	; 0x8001d9 <count_senha+0x1>
    152e:	0e 94 1b 21 	call	0x4236	; 0x4236 <insert_senha>
    1532:	80 91 d8 01 	lds	r24, 0x01D8	; 0x8001d8 <count_senha>
    1536:	90 91 d9 01 	lds	r25, 0x01D9	; 0x8001d9 <count_senha+0x1>
    153a:	01 96       	adiw	r24, 0x01	; 1
    153c:	90 93 d9 01 	sts	0x01D9, r25	; 0x8001d9 <count_senha+0x1>
    1540:	80 93 d8 01 	sts	0x01D8, r24	; 0x8001d8 <count_senha>
    1544:	91 e0       	ldi	r25, 0x01	; 1
    1546:	80 91 dc 01 	lds	r24, 0x01DC	; 0x8001dc <state>
    154a:	89 30       	cpi	r24, 0x09	; 9
    154c:	09 f0       	breq	.+2      	; 0x1550 <__stack+0xc51>
    154e:	90 e0       	ldi	r25, 0x00	; 0
    1550:	81 e0       	ldi	r24, 0x01	; 1
    1552:	20 91 d8 01 	lds	r18, 0x01D8	; 0x8001d8 <count_senha>
    1556:	30 91 d9 01 	lds	r19, 0x01D9	; 0x8001d9 <count_senha+0x1>
    155a:	24 30       	cpi	r18, 0x04	; 4
    155c:	31 05       	cpc	r19, r1
    155e:	0c f0       	brlt	.+2      	; 0x1562 <__stack+0xc63>
    1560:	80 e0       	ldi	r24, 0x00	; 0
    1562:	89 23       	and	r24, r25
    1564:	a9 f0       	breq	.+42     	; 0x1590 <__stack+0xc91>
    1566:	87 e3       	ldi	r24, 0x37	; 55
    1568:	0e 94 36 1f 	call	0x3e6c	; 0x3e6c <send_word_lcd>
    156c:	42 ea       	ldi	r20, 0xA2	; 162
    156e:	52 e0       	ldi	r21, 0x02	; 2
    1570:	60 e0       	ldi	r22, 0x00	; 0
    1572:	80 91 d8 01 	lds	r24, 0x01D8	; 0x8001d8 <count_senha>
    1576:	90 91 d9 01 	lds	r25, 0x01D9	; 0x8001d9 <count_senha+0x1>
    157a:	0e 94 71 1e 	call	0x3ce2	; 0x3ce2 <senha_arm>
    157e:	80 91 d8 01 	lds	r24, 0x01D8	; 0x8001d8 <count_senha>
    1582:	90 91 d9 01 	lds	r25, 0x01D9	; 0x8001d9 <count_senha+0x1>
    1586:	01 96       	adiw	r24, 0x01	; 1
    1588:	90 93 d9 01 	sts	0x01D9, r25	; 0x8001d9 <count_senha+0x1>
    158c:	80 93 d8 01 	sts	0x01D8, r24	; 0x8001d8 <count_senha>
    1590:	91 e0       	ldi	r25, 0x01	; 1
    1592:	80 91 dc 01 	lds	r24, 0x01DC	; 0x8001dc <state>
    1596:	8a 30       	cpi	r24, 0x0A	; 10
    1598:	09 f0       	breq	.+2      	; 0x159c <__stack+0xc9d>
    159a:	90 e0       	ldi	r25, 0x00	; 0
    159c:	81 e0       	ldi	r24, 0x01	; 1
    159e:	20 91 d8 01 	lds	r18, 0x01D8	; 0x8001d8 <count_senha>
    15a2:	30 91 d9 01 	lds	r19, 0x01D9	; 0x8001d9 <count_senha+0x1>
    15a6:	24 30       	cpi	r18, 0x04	; 4
    15a8:	31 05       	cpc	r19, r1
    15aa:	0c f0       	brlt	.+2      	; 0x15ae <__stack+0xcaf>
    15ac:	80 e0       	ldi	r24, 0x00	; 0
    15ae:	89 23       	and	r24, r25
    15b0:	a9 f0       	breq	.+42     	; 0x15dc <__stack+0xcdd>
    15b2:	87 e3       	ldi	r24, 0x37	; 55
    15b4:	0e 94 36 1f 	call	0x3e6c	; 0x3e6c <send_word_lcd>
    15b8:	42 ea       	ldi	r20, 0xA2	; 162
    15ba:	52 e0       	ldi	r21, 0x02	; 2
    15bc:	60 e0       	ldi	r22, 0x00	; 0
    15be:	80 91 d8 01 	lds	r24, 0x01D8	; 0x8001d8 <count_senha>
    15c2:	90 91 d9 01 	lds	r25, 0x01D9	; 0x8001d9 <count_senha+0x1>
    15c6:	0e 94 1b 21 	call	0x4236	; 0x4236 <insert_senha>
    15ca:	80 91 d8 01 	lds	r24, 0x01D8	; 0x8001d8 <count_senha>
    15ce:	90 91 d9 01 	lds	r25, 0x01D9	; 0x8001d9 <count_senha+0x1>
    15d2:	01 96       	adiw	r24, 0x01	; 1
    15d4:	90 93 d9 01 	sts	0x01D9, r25	; 0x8001d9 <count_senha+0x1>
    15d8:	80 93 d8 01 	sts	0x01D8, r24	; 0x8001d8 <count_senha>
    15dc:	91 e0       	ldi	r25, 0x01	; 1
    15de:	80 91 dc 01 	lds	r24, 0x01DC	; 0x8001dc <state>
    15e2:	8b 30       	cpi	r24, 0x0B	; 11
    15e4:	09 f0       	breq	.+2      	; 0x15e8 <__stack+0xce9>
    15e6:	90 e0       	ldi	r25, 0x00	; 0
    15e8:	81 e0       	ldi	r24, 0x01	; 1
    15ea:	20 91 d8 01 	lds	r18, 0x01D8	; 0x8001d8 <count_senha>
    15ee:	30 91 d9 01 	lds	r19, 0x01D9	; 0x8001d9 <count_senha+0x1>
    15f2:	24 30       	cpi	r18, 0x04	; 4
    15f4:	31 05       	cpc	r19, r1
    15f6:	0c f0       	brlt	.+2      	; 0x15fa <__stack+0xcfb>
    15f8:	80 e0       	ldi	r24, 0x00	; 0
    15fa:	89 23       	and	r24, r25
    15fc:	a9 f0       	breq	.+42     	; 0x1628 <__stack+0xd29>
    15fe:	87 e3       	ldi	r24, 0x37	; 55
    1600:	0e 94 36 1f 	call	0x3e6c	; 0x3e6c <send_word_lcd>
    1604:	40 ea       	ldi	r20, 0xA0	; 160
    1606:	52 e0       	ldi	r21, 0x02	; 2
    1608:	60 e0       	ldi	r22, 0x00	; 0
    160a:	80 91 d8 01 	lds	r24, 0x01D8	; 0x8001d8 <count_senha>
    160e:	90 91 d9 01 	lds	r25, 0x01D9	; 0x8001d9 <count_senha+0x1>
    1612:	0e 94 1b 21 	call	0x4236	; 0x4236 <insert_senha>
    1616:	80 91 d8 01 	lds	r24, 0x01D8	; 0x8001d8 <count_senha>
    161a:	90 91 d9 01 	lds	r25, 0x01D9	; 0x8001d9 <count_senha+0x1>
    161e:	01 96       	adiw	r24, 0x01	; 1
    1620:	90 93 d9 01 	sts	0x01D9, r25	; 0x8001d9 <count_senha+0x1>
    1624:	80 93 d8 01 	sts	0x01D8, r24	; 0x8001d8 <count_senha>
    1628:	91 e0       	ldi	r25, 0x01	; 1
    162a:	80 91 dc 01 	lds	r24, 0x01DC	; 0x8001dc <state>
    162e:	8f 30       	cpi	r24, 0x0F	; 15
    1630:	09 f0       	breq	.+2      	; 0x1634 <__stack+0xd35>
    1632:	90 e0       	ldi	r25, 0x00	; 0
    1634:	81 e0       	ldi	r24, 0x01	; 1
    1636:	20 91 d2 01 	lds	r18, 0x01D2	; 0x8001d2 <flag_sensor>
    163a:	30 91 d3 01 	lds	r19, 0x01D3	; 0x8001d3 <flag_sensor+0x1>
    163e:	23 2b       	or	r18, r19
    1640:	09 f0       	breq	.+2      	; 0x1644 <__stack+0xd45>
    1642:	80 e0       	ldi	r24, 0x00	; 0
    1644:	89 23       	and	r24, r25
    1646:	21 f0       	breq	.+8      	; 0x1650 <__stack+0xd51>
    1648:	87 e0       	ldi	r24, 0x07	; 7
    164a:	90 e0       	ldi	r25, 0x00	; 0
    164c:	0e 94 cc 17 	call	0x2f98	; 0x2f98 <hab_sensor>
    1650:	90 91 dc 01 	lds	r25, 0x01DC	; 0x8001dc <state>
    1654:	21 e0       	ldi	r18, 0x01	; 1
    1656:	91 31       	cpi	r25, 0x11	; 17
    1658:	09 f0       	breq	.+2      	; 0x165c <__stack+0xd5d>
    165a:	20 e0       	ldi	r18, 0x00	; 0
    165c:	31 e0       	ldi	r19, 0x01	; 1
    165e:	40 91 ca 01 	lds	r20, 0x01CA	; 0x8001ca <flag_z1>
    1662:	50 91 cb 01 	lds	r21, 0x01CB	; 0x8001cb <flag_z1+0x1>
    1666:	45 2b       	or	r20, r21
    1668:	09 f0       	breq	.+2      	; 0x166c <__stack+0xd6d>
    166a:	30 e0       	ldi	r19, 0x00	; 0
    166c:	81 e0       	ldi	r24, 0x01	; 1
    166e:	40 91 cc 01 	lds	r20, 0x01CC	; 0x8001cc <flag_z>
    1672:	50 91 cd 01 	lds	r21, 0x01CD	; 0x8001cd <flag_z+0x1>
    1676:	45 2b       	or	r20, r21
    1678:	09 f0       	breq	.+2      	; 0x167c <__stack+0xd7d>
    167a:	80 e0       	ldi	r24, 0x00	; 0
    167c:	83 23       	and	r24, r19
    167e:	22 23       	and	r18, r18
    1680:	71 f0       	breq	.+28     	; 0x169e <__stack+0xd9f>
    1682:	88 23       	and	r24, r24
    1684:	61 f0       	breq	.+24     	; 0x169e <__stack+0xd9f>
    1686:	27 e0       	ldi	r18, 0x07	; 7
    1688:	30 e0       	ldi	r19, 0x00	; 0
    168a:	30 93 01 01 	sts	0x0101, r19	; 0x800101 <__DATA_REGION_ORIGIN__+0x1>
    168e:	20 93 00 01 	sts	0x0100, r18	; 0x800100 <__DATA_REGION_ORIGIN__>
    1692:	21 e0       	ldi	r18, 0x01	; 1
    1694:	30 e0       	ldi	r19, 0x00	; 0
    1696:	30 93 cb 01 	sts	0x01CB, r19	; 0x8001cb <flag_z1+0x1>
    169a:	20 93 ca 01 	sts	0x01CA, r18	; 0x8001ca <flag_z1>
    169e:	20 91 be 01 	lds	r18, 0x01BE	; 0x8001be <cont_t>
    16a2:	30 91 bf 01 	lds	r19, 0x01BF	; 0x8001bf <cont_t+0x1>
    16a6:	41 e0       	ldi	r20, 0x01	; 1
    16a8:	93 31       	cpi	r25, 0x13	; 19
    16aa:	09 f0       	breq	.+2      	; 0x16ae <__stack+0xdaf>
    16ac:	40 e0       	ldi	r20, 0x00	; 0
    16ae:	81 e0       	ldi	r24, 0x01	; 1
    16b0:	22 30       	cpi	r18, 0x02	; 2
    16b2:	31 05       	cpc	r19, r1
    16b4:	0c f0       	brlt	.+2      	; 0x16b8 <__stack+0xdb9>
    16b6:	80 e0       	ldi	r24, 0x00	; 0
    16b8:	84 23       	and	r24, r20
    16ba:	79 f0       	breq	.+30     	; 0x16da <__stack+0xddb>
    16bc:	f9 01       	movw	r30, r18
    16be:	ee 0f       	add	r30, r30
    16c0:	ff 1f       	adc	r31, r31
    16c2:	e3 5f       	subi	r30, 0xF3	; 243
    16c4:	fe 4f       	sbci	r31, 0xFE	; 254
    16c6:	47 e0       	ldi	r20, 0x07	; 7
    16c8:	50 e0       	ldi	r21, 0x00	; 0
    16ca:	51 83       	std	Z+1, r21	; 0x01
    16cc:	40 83       	st	Z, r20
    16ce:	2f 5f       	subi	r18, 0xFF	; 255
    16d0:	3f 4f       	sbci	r19, 0xFF	; 255
    16d2:	30 93 bf 01 	sts	0x01BF, r19	; 0x8001bf <cont_t+0x1>
    16d6:	20 93 be 01 	sts	0x01BE, r18	; 0x8001be <cont_t>
    16da:	21 e0       	ldi	r18, 0x01	; 1
    16dc:	97 30       	cpi	r25, 0x07	; 7
    16de:	09 f0       	breq	.+2      	; 0x16e2 <__stack+0xde3>
    16e0:	20 e0       	ldi	r18, 0x00	; 0
    16e2:	91 e0       	ldi	r25, 0x01	; 1
    16e4:	40 91 da 01 	lds	r20, 0x01DA	; 0x8001da <flag_a_senha>
    16e8:	50 91 db 01 	lds	r21, 0x01DB	; 0x8001db <flag_a_senha+0x1>
    16ec:	45 2b       	or	r20, r21
    16ee:	09 f0       	breq	.+2      	; 0x16f2 <__stack+0xdf3>
    16f0:	90 e0       	ldi	r25, 0x00	; 0
    16f2:	81 e0       	ldi	r24, 0x01	; 1
    16f4:	40 91 c4 01 	lds	r20, 0x01C4	; 0x8001c4 <flag_timeout>
    16f8:	50 91 c5 01 	lds	r21, 0x01C5	; 0x8001c5 <flag_timeout+0x1>
    16fc:	45 2b       	or	r20, r21
    16fe:	09 f0       	breq	.+2      	; 0x1702 <__stack+0xe03>
    1700:	80 e0       	ldi	r24, 0x00	; 0
    1702:	89 23       	and	r24, r25
    1704:	22 23       	and	r18, r18
    1706:	69 f0       	breq	.+26     	; 0x1722 <__stack+0xe23>
    1708:	88 23       	and	r24, r24
    170a:	59 f0       	breq	.+22     	; 0x1722 <__stack+0xe23>
    170c:	83 e1       	ldi	r24, 0x13	; 19
    170e:	80 93 dc 01 	sts	0x01DC, r24	; 0x8001dc <state>
    1712:	81 e0       	ldi	r24, 0x01	; 1
    1714:	90 e0       	ldi	r25, 0x00	; 0
    1716:	90 93 c5 01 	sts	0x01C5, r25	; 0x8001c5 <flag_timeout+0x1>
    171a:	80 93 c4 01 	sts	0x01C4, r24	; 0x8001c4 <flag_timeout>
    171e:	0e 94 f3 1c 	call	0x39e6	; 0x39e6 <msg_ajusteTout>
    1722:	20 91 dc 01 	lds	r18, 0x01DC	; 0x8001dc <state>
    1726:	81 e0       	ldi	r24, 0x01	; 1
    1728:	40 91 be 01 	lds	r20, 0x01BE	; 0x8001be <cont_t>
    172c:	50 91 bf 01 	lds	r21, 0x01BF	; 0x8001bf <cont_t+0x1>
    1730:	43 30       	cpi	r20, 0x03	; 3
    1732:	51 05       	cpc	r21, r1
    1734:	0c f0       	brlt	.+2      	; 0x1738 <__stack+0xe39>
    1736:	80 e0       	ldi	r24, 0x00	; 0
    1738:	91 e0       	ldi	r25, 0x01	; 1
    173a:	24 31       	cpi	r18, 0x14	; 20
    173c:	09 f0       	breq	.+2      	; 0x1740 <__stack+0xe41>
    173e:	90 e0       	ldi	r25, 0x00	; 0
    1740:	98 23       	and	r25, r24
    1742:	99 f0       	breq	.+38     	; 0x176a <__stack+0xe6b>
    1744:	40 91 ba 01 	lds	r20, 0x01BA	; 0x8001ba <cont_s>
    1748:	50 91 bb 01 	lds	r21, 0x01BB	; 0x8001bb <cont_s+0x1>
    174c:	fa 01       	movw	r30, r20
    174e:	ee 0f       	add	r30, r30
    1750:	ff 1f       	adc	r31, r31
    1752:	e5 5d       	subi	r30, 0xD5	; 213
    1754:	fe 4f       	sbci	r31, 0xFE	; 254
    1756:	67 e0       	ldi	r22, 0x07	; 7
    1758:	70 e0       	ldi	r23, 0x00	; 0
    175a:	71 83       	std	Z+1, r23	; 0x01
    175c:	60 83       	st	Z, r22
    175e:	4f 5f       	subi	r20, 0xFF	; 255
    1760:	5f 4f       	sbci	r21, 0xFF	; 255
    1762:	50 93 bb 01 	sts	0x01BB, r21	; 0x8001bb <cont_s+0x1>
    1766:	40 93 ba 01 	sts	0x01BA, r20	; 0x8001ba <cont_s>
    176a:	91 e0       	ldi	r25, 0x01	; 1
    176c:	22 31       	cpi	r18, 0x12	; 18
    176e:	09 f0       	breq	.+2      	; 0x1772 <__stack+0xe73>
    1770:	90 e0       	ldi	r25, 0x00	; 0
    1772:	89 23       	and	r24, r25
    1774:	09 f4       	brne	.+2      	; 0x1778 <__stack+0xe79>
    1776:	63 c5       	rjmp	.+2758   	; 0x223e <__stack+0x193f>
    1778:	80 91 bc 01 	lds	r24, 0x01BC	; 0x8001bc <cont_aa>
    177c:	90 91 bd 01 	lds	r25, 0x01BD	; 0x8001bd <cont_aa+0x1>
    1780:	fc 01       	movw	r30, r24
    1782:	ee 0f       	add	r30, r30
    1784:	ff 1f       	adc	r31, r31
    1786:	ed 5d       	subi	r30, 0xDD	; 221
    1788:	fe 4f       	sbci	r31, 0xFE	; 254
    178a:	27 e0       	ldi	r18, 0x07	; 7
    178c:	30 e0       	ldi	r19, 0x00	; 0
    178e:	31 83       	std	Z+1, r19	; 0x01
    1790:	20 83       	st	Z, r18
    1792:	01 96       	adiw	r24, 0x01	; 1
    1794:	90 93 bd 01 	sts	0x01BD, r25	; 0x8001bd <cont_aa+0x1>
    1798:	80 93 bc 01 	sts	0x01BC, r24	; 0x8001bc <cont_aa>
    179c:	50 c5       	rjmp	.+2720   	; 0x223e <__stack+0x193f>
    179e:	80 36       	cpi	r24, 0x60	; 96
    17a0:	91 05       	cpc	r25, r1
    17a2:	09 f0       	breq	.+2      	; 0x17a6 <__stack+0xea7>
    17a4:	23 c1       	rjmp	.+582    	; 0x19ec <__stack+0x10ed>
    17a6:	91 e0       	ldi	r25, 0x01	; 1
    17a8:	80 91 dc 01 	lds	r24, 0x01DC	; 0x8001dc <state>
    17ac:	88 30       	cpi	r24, 0x08	; 8
    17ae:	09 f0       	breq	.+2      	; 0x17b2 <__stack+0xeb3>
    17b0:	90 e0       	ldi	r25, 0x00	; 0
    17b2:	81 e0       	ldi	r24, 0x01	; 1
    17b4:	20 91 d8 01 	lds	r18, 0x01D8	; 0x8001d8 <count_senha>
    17b8:	30 91 d9 01 	lds	r19, 0x01D9	; 0x8001d9 <count_senha+0x1>
    17bc:	24 30       	cpi	r18, 0x04	; 4
    17be:	31 05       	cpc	r19, r1
    17c0:	0c f0       	brlt	.+2      	; 0x17c4 <__stack+0xec5>
    17c2:	80 e0       	ldi	r24, 0x00	; 0
    17c4:	89 23       	and	r24, r25
    17c6:	a9 f0       	breq	.+42     	; 0x17f2 <__stack+0xef3>
    17c8:	88 e3       	ldi	r24, 0x38	; 56
    17ca:	0e 94 36 1f 	call	0x3e6c	; 0x3e6c <send_word_lcd>
    17ce:	44 ea       	ldi	r20, 0xA4	; 164
    17d0:	52 e0       	ldi	r21, 0x02	; 2
    17d2:	60 e0       	ldi	r22, 0x00	; 0
    17d4:	80 91 d8 01 	lds	r24, 0x01D8	; 0x8001d8 <count_senha>
    17d8:	90 91 d9 01 	lds	r25, 0x01D9	; 0x8001d9 <count_senha+0x1>
    17dc:	0e 94 1b 21 	call	0x4236	; 0x4236 <insert_senha>
    17e0:	80 91 d8 01 	lds	r24, 0x01D8	; 0x8001d8 <count_senha>
    17e4:	90 91 d9 01 	lds	r25, 0x01D9	; 0x8001d9 <count_senha+0x1>
    17e8:	01 96       	adiw	r24, 0x01	; 1
    17ea:	90 93 d9 01 	sts	0x01D9, r25	; 0x8001d9 <count_senha+0x1>
    17ee:	80 93 d8 01 	sts	0x01D8, r24	; 0x8001d8 <count_senha>
    17f2:	91 e0       	ldi	r25, 0x01	; 1
    17f4:	80 91 dc 01 	lds	r24, 0x01DC	; 0x8001dc <state>
    17f8:	89 30       	cpi	r24, 0x09	; 9
    17fa:	09 f0       	breq	.+2      	; 0x17fe <__stack+0xeff>
    17fc:	90 e0       	ldi	r25, 0x00	; 0
    17fe:	81 e0       	ldi	r24, 0x01	; 1
    1800:	20 91 d8 01 	lds	r18, 0x01D8	; 0x8001d8 <count_senha>
    1804:	30 91 d9 01 	lds	r19, 0x01D9	; 0x8001d9 <count_senha+0x1>
    1808:	24 30       	cpi	r18, 0x04	; 4
    180a:	31 05       	cpc	r19, r1
    180c:	0c f0       	brlt	.+2      	; 0x1810 <__stack+0xf11>
    180e:	80 e0       	ldi	r24, 0x00	; 0
    1810:	89 23       	and	r24, r25
    1812:	a9 f0       	breq	.+42     	; 0x183e <__stack+0xf3f>
    1814:	88 e3       	ldi	r24, 0x38	; 56
    1816:	0e 94 36 1f 	call	0x3e6c	; 0x3e6c <send_word_lcd>
    181a:	44 ea       	ldi	r20, 0xA4	; 164
    181c:	52 e0       	ldi	r21, 0x02	; 2
    181e:	60 e0       	ldi	r22, 0x00	; 0
    1820:	80 91 d8 01 	lds	r24, 0x01D8	; 0x8001d8 <count_senha>
    1824:	90 91 d9 01 	lds	r25, 0x01D9	; 0x8001d9 <count_senha+0x1>
    1828:	0e 94 71 1e 	call	0x3ce2	; 0x3ce2 <senha_arm>
    182c:	80 91 d8 01 	lds	r24, 0x01D8	; 0x8001d8 <count_senha>
    1830:	90 91 d9 01 	lds	r25, 0x01D9	; 0x8001d9 <count_senha+0x1>
    1834:	01 96       	adiw	r24, 0x01	; 1
    1836:	90 93 d9 01 	sts	0x01D9, r25	; 0x8001d9 <count_senha+0x1>
    183a:	80 93 d8 01 	sts	0x01D8, r24	; 0x8001d8 <count_senha>
    183e:	91 e0       	ldi	r25, 0x01	; 1
    1840:	80 91 dc 01 	lds	r24, 0x01DC	; 0x8001dc <state>
    1844:	8a 30       	cpi	r24, 0x0A	; 10
    1846:	09 f0       	breq	.+2      	; 0x184a <__stack+0xf4b>
    1848:	90 e0       	ldi	r25, 0x00	; 0
    184a:	81 e0       	ldi	r24, 0x01	; 1
    184c:	20 91 d8 01 	lds	r18, 0x01D8	; 0x8001d8 <count_senha>
    1850:	30 91 d9 01 	lds	r19, 0x01D9	; 0x8001d9 <count_senha+0x1>
    1854:	24 30       	cpi	r18, 0x04	; 4
    1856:	31 05       	cpc	r19, r1
    1858:	0c f0       	brlt	.+2      	; 0x185c <__stack+0xf5d>
    185a:	80 e0       	ldi	r24, 0x00	; 0
    185c:	89 23       	and	r24, r25
    185e:	a9 f0       	breq	.+42     	; 0x188a <__stack+0xf8b>
    1860:	88 e3       	ldi	r24, 0x38	; 56
    1862:	0e 94 36 1f 	call	0x3e6c	; 0x3e6c <send_word_lcd>
    1866:	44 ea       	ldi	r20, 0xA4	; 164
    1868:	52 e0       	ldi	r21, 0x02	; 2
    186a:	60 e0       	ldi	r22, 0x00	; 0
    186c:	80 91 d8 01 	lds	r24, 0x01D8	; 0x8001d8 <count_senha>
    1870:	90 91 d9 01 	lds	r25, 0x01D9	; 0x8001d9 <count_senha+0x1>
    1874:	0e 94 1b 21 	call	0x4236	; 0x4236 <insert_senha>
    1878:	80 91 d8 01 	lds	r24, 0x01D8	; 0x8001d8 <count_senha>
    187c:	90 91 d9 01 	lds	r25, 0x01D9	; 0x8001d9 <count_senha+0x1>
    1880:	01 96       	adiw	r24, 0x01	; 1
    1882:	90 93 d9 01 	sts	0x01D9, r25	; 0x8001d9 <count_senha+0x1>
    1886:	80 93 d8 01 	sts	0x01D8, r24	; 0x8001d8 <count_senha>
    188a:	91 e0       	ldi	r25, 0x01	; 1
    188c:	80 91 dc 01 	lds	r24, 0x01DC	; 0x8001dc <state>
    1890:	8b 30       	cpi	r24, 0x0B	; 11
    1892:	09 f0       	breq	.+2      	; 0x1896 <__stack+0xf97>
    1894:	90 e0       	ldi	r25, 0x00	; 0
    1896:	81 e0       	ldi	r24, 0x01	; 1
    1898:	20 91 d8 01 	lds	r18, 0x01D8	; 0x8001d8 <count_senha>
    189c:	30 91 d9 01 	lds	r19, 0x01D9	; 0x8001d9 <count_senha+0x1>
    18a0:	24 30       	cpi	r18, 0x04	; 4
    18a2:	31 05       	cpc	r19, r1
    18a4:	0c f0       	brlt	.+2      	; 0x18a8 <__stack+0xfa9>
    18a6:	80 e0       	ldi	r24, 0x00	; 0
    18a8:	89 23       	and	r24, r25
    18aa:	a9 f0       	breq	.+42     	; 0x18d6 <__stack+0xfd7>
    18ac:	88 e3       	ldi	r24, 0x38	; 56
    18ae:	0e 94 36 1f 	call	0x3e6c	; 0x3e6c <send_word_lcd>
    18b2:	40 ea       	ldi	r20, 0xA0	; 160
    18b4:	52 e0       	ldi	r21, 0x02	; 2
    18b6:	60 e0       	ldi	r22, 0x00	; 0
    18b8:	80 91 d8 01 	lds	r24, 0x01D8	; 0x8001d8 <count_senha>
    18bc:	90 91 d9 01 	lds	r25, 0x01D9	; 0x8001d9 <count_senha+0x1>
    18c0:	0e 94 1b 21 	call	0x4236	; 0x4236 <insert_senha>
    18c4:	80 91 d8 01 	lds	r24, 0x01D8	; 0x8001d8 <count_senha>
    18c8:	90 91 d9 01 	lds	r25, 0x01D9	; 0x8001d9 <count_senha+0x1>
    18cc:	01 96       	adiw	r24, 0x01	; 1
    18ce:	90 93 d9 01 	sts	0x01D9, r25	; 0x8001d9 <count_senha+0x1>
    18d2:	80 93 d8 01 	sts	0x01D8, r24	; 0x8001d8 <count_senha>
    18d6:	90 91 dc 01 	lds	r25, 0x01DC	; 0x8001dc <state>
    18da:	20 91 be 01 	lds	r18, 0x01BE	; 0x8001be <cont_t>
    18de:	30 91 bf 01 	lds	r19, 0x01BF	; 0x8001bf <cont_t+0x1>
    18e2:	41 e0       	ldi	r20, 0x01	; 1
    18e4:	93 31       	cpi	r25, 0x13	; 19
    18e6:	09 f0       	breq	.+2      	; 0x18ea <__stack+0xfeb>
    18e8:	40 e0       	ldi	r20, 0x00	; 0
    18ea:	81 e0       	ldi	r24, 0x01	; 1
    18ec:	22 30       	cpi	r18, 0x02	; 2
    18ee:	31 05       	cpc	r19, r1
    18f0:	0c f0       	brlt	.+2      	; 0x18f4 <__stack+0xff5>
    18f2:	80 e0       	ldi	r24, 0x00	; 0
    18f4:	84 23       	and	r24, r20
    18f6:	79 f0       	breq	.+30     	; 0x1916 <__stack+0x1017>
    18f8:	f9 01       	movw	r30, r18
    18fa:	ee 0f       	add	r30, r30
    18fc:	ff 1f       	adc	r31, r31
    18fe:	e3 5f       	subi	r30, 0xF3	; 243
    1900:	fe 4f       	sbci	r31, 0xFE	; 254
    1902:	48 e0       	ldi	r20, 0x08	; 8
    1904:	50 e0       	ldi	r21, 0x00	; 0
    1906:	51 83       	std	Z+1, r21	; 0x01
    1908:	40 83       	st	Z, r20
    190a:	2f 5f       	subi	r18, 0xFF	; 255
    190c:	3f 4f       	sbci	r19, 0xFF	; 255
    190e:	30 93 bf 01 	sts	0x01BF, r19	; 0x8001bf <cont_t+0x1>
    1912:	20 93 be 01 	sts	0x01BE, r18	; 0x8001be <cont_t>
    1916:	21 e0       	ldi	r18, 0x01	; 1
    1918:	40 91 be 01 	lds	r20, 0x01BE	; 0x8001be <cont_t>
    191c:	50 91 bf 01 	lds	r21, 0x01BF	; 0x8001bf <cont_t+0x1>
    1920:	43 30       	cpi	r20, 0x03	; 3
    1922:	51 05       	cpc	r21, r1
    1924:	0c f0       	brlt	.+2      	; 0x1928 <__stack+0x1029>
    1926:	20 e0       	ldi	r18, 0x00	; 0
    1928:	81 e0       	ldi	r24, 0x01	; 1
    192a:	94 31       	cpi	r25, 0x14	; 20
    192c:	09 f0       	breq	.+2      	; 0x1930 <__stack+0x1031>
    192e:	80 e0       	ldi	r24, 0x00	; 0
    1930:	82 23       	and	r24, r18
    1932:	99 f0       	breq	.+38     	; 0x195a <__stack+0x105b>
    1934:	20 91 ba 01 	lds	r18, 0x01BA	; 0x8001ba <cont_s>
    1938:	30 91 bb 01 	lds	r19, 0x01BB	; 0x8001bb <cont_s+0x1>
    193c:	f9 01       	movw	r30, r18
    193e:	ee 0f       	add	r30, r30
    1940:	ff 1f       	adc	r31, r31
    1942:	e5 5d       	subi	r30, 0xD5	; 213
    1944:	fe 4f       	sbci	r31, 0xFE	; 254
    1946:	48 e0       	ldi	r20, 0x08	; 8
    1948:	50 e0       	ldi	r21, 0x00	; 0
    194a:	51 83       	std	Z+1, r21	; 0x01
    194c:	40 83       	st	Z, r20
    194e:	2f 5f       	subi	r18, 0xFF	; 255
    1950:	3f 4f       	sbci	r19, 0xFF	; 255
    1952:	30 93 bb 01 	sts	0x01BB, r19	; 0x8001bb <cont_s+0x1>
    1956:	20 93 ba 01 	sts	0x01BA, r18	; 0x8001ba <cont_s>
    195a:	21 e0       	ldi	r18, 0x01	; 1
    195c:	97 30       	cpi	r25, 0x07	; 7
    195e:	09 f0       	breq	.+2      	; 0x1962 <__stack+0x1063>
    1960:	20 e0       	ldi	r18, 0x00	; 0
    1962:	91 e0       	ldi	r25, 0x01	; 1
    1964:	40 91 da 01 	lds	r20, 0x01DA	; 0x8001da <flag_a_senha>
    1968:	50 91 db 01 	lds	r21, 0x01DB	; 0x8001db <flag_a_senha+0x1>
    196c:	45 2b       	or	r20, r21
    196e:	09 f0       	breq	.+2      	; 0x1972 <__stack+0x1073>
    1970:	90 e0       	ldi	r25, 0x00	; 0
    1972:	81 e0       	ldi	r24, 0x01	; 1
    1974:	40 91 c4 01 	lds	r20, 0x01C4	; 0x8001c4 <flag_timeout>
    1978:	50 91 c5 01 	lds	r21, 0x01C5	; 0x8001c5 <flag_timeout+0x1>
    197c:	45 2b       	or	r20, r21
    197e:	09 f0       	breq	.+2      	; 0x1982 <__stack+0x1083>
    1980:	80 e0       	ldi	r24, 0x00	; 0
    1982:	89 23       	and	r24, r25
    1984:	22 23       	and	r18, r18
    1986:	69 f0       	breq	.+26     	; 0x19a2 <__stack+0x10a3>
    1988:	88 23       	and	r24, r24
    198a:	59 f0       	breq	.+22     	; 0x19a2 <__stack+0x10a3>
    198c:	84 e1       	ldi	r24, 0x14	; 20
    198e:	80 93 dc 01 	sts	0x01DC, r24	; 0x8001dc <state>
    1992:	81 e0       	ldi	r24, 0x01	; 1
    1994:	90 e0       	ldi	r25, 0x00	; 0
    1996:	90 93 c3 01 	sts	0x01C3, r25	; 0x8001c3 <flag_tsirene+0x1>
    199a:	80 93 c2 01 	sts	0x01C2, r24	; 0x8001c2 <flag_tsirene>
    199e:	0e 94 26 1d 	call	0x3a4c	; 0x3a4c <msg_time_sirene>
    19a2:	91 e0       	ldi	r25, 0x01	; 1
    19a4:	80 91 dc 01 	lds	r24, 0x01DC	; 0x8001dc <state>
    19a8:	82 31       	cpi	r24, 0x12	; 18
    19aa:	09 f0       	breq	.+2      	; 0x19ae <__stack+0x10af>
    19ac:	90 e0       	ldi	r25, 0x00	; 0
    19ae:	81 e0       	ldi	r24, 0x01	; 1
    19b0:	20 91 be 01 	lds	r18, 0x01BE	; 0x8001be <cont_t>
    19b4:	30 91 bf 01 	lds	r19, 0x01BF	; 0x8001bf <cont_t+0x1>
    19b8:	23 30       	cpi	r18, 0x03	; 3
    19ba:	31 05       	cpc	r19, r1
    19bc:	0c f0       	brlt	.+2      	; 0x19c0 <__stack+0x10c1>
    19be:	80 e0       	ldi	r24, 0x00	; 0
    19c0:	89 23       	and	r24, r25
    19c2:	09 f4       	brne	.+2      	; 0x19c6 <__stack+0x10c7>
    19c4:	3c c4       	rjmp	.+2168   	; 0x223e <__stack+0x193f>
    19c6:	80 91 bc 01 	lds	r24, 0x01BC	; 0x8001bc <cont_aa>
    19ca:	90 91 bd 01 	lds	r25, 0x01BD	; 0x8001bd <cont_aa+0x1>
    19ce:	fc 01       	movw	r30, r24
    19d0:	ee 0f       	add	r30, r30
    19d2:	ff 1f       	adc	r31, r31
    19d4:	ed 5d       	subi	r30, 0xDD	; 221
    19d6:	fe 4f       	sbci	r31, 0xFE	; 254
    19d8:	28 e0       	ldi	r18, 0x08	; 8
    19da:	30 e0       	ldi	r19, 0x00	; 0
    19dc:	31 83       	std	Z+1, r19	; 0x01
    19de:	20 83       	st	Z, r18
    19e0:	01 96       	adiw	r24, 0x01	; 1
    19e2:	90 93 bd 01 	sts	0x01BD, r25	; 0x8001bd <cont_aa+0x1>
    19e6:	80 93 bc 01 	sts	0x01BC, r24	; 0x8001bc <cont_aa>
    19ea:	29 c4       	rjmp	.+2130   	; 0x223e <__stack+0x193f>
    19ec:	80 35       	cpi	r24, 0x50	; 80
    19ee:	91 05       	cpc	r25, r1
    19f0:	09 f0       	breq	.+2      	; 0x19f4 <__stack+0x10f5>
    19f2:	f4 c0       	rjmp	.+488    	; 0x1bdc <__stack+0x12dd>
    19f4:	91 e0       	ldi	r25, 0x01	; 1
    19f6:	80 91 dc 01 	lds	r24, 0x01DC	; 0x8001dc <state>
    19fa:	88 30       	cpi	r24, 0x08	; 8
    19fc:	09 f0       	breq	.+2      	; 0x1a00 <__stack+0x1101>
    19fe:	90 e0       	ldi	r25, 0x00	; 0
    1a00:	81 e0       	ldi	r24, 0x01	; 1
    1a02:	20 91 d8 01 	lds	r18, 0x01D8	; 0x8001d8 <count_senha>
    1a06:	30 91 d9 01 	lds	r19, 0x01D9	; 0x8001d9 <count_senha+0x1>
    1a0a:	24 30       	cpi	r18, 0x04	; 4
    1a0c:	31 05       	cpc	r19, r1
    1a0e:	0c f0       	brlt	.+2      	; 0x1a12 <__stack+0x1113>
    1a10:	80 e0       	ldi	r24, 0x00	; 0
    1a12:	89 23       	and	r24, r25
    1a14:	a9 f0       	breq	.+42     	; 0x1a40 <__stack+0x1141>
    1a16:	89 e3       	ldi	r24, 0x39	; 57
    1a18:	0e 94 36 1f 	call	0x3e6c	; 0x3e6c <send_word_lcd>
    1a1c:	46 ea       	ldi	r20, 0xA6	; 166
    1a1e:	52 e0       	ldi	r21, 0x02	; 2
    1a20:	60 e0       	ldi	r22, 0x00	; 0
    1a22:	80 91 d8 01 	lds	r24, 0x01D8	; 0x8001d8 <count_senha>
    1a26:	90 91 d9 01 	lds	r25, 0x01D9	; 0x8001d9 <count_senha+0x1>
    1a2a:	0e 94 1b 21 	call	0x4236	; 0x4236 <insert_senha>
    1a2e:	80 91 d8 01 	lds	r24, 0x01D8	; 0x8001d8 <count_senha>
    1a32:	90 91 d9 01 	lds	r25, 0x01D9	; 0x8001d9 <count_senha+0x1>
    1a36:	01 96       	adiw	r24, 0x01	; 1
    1a38:	90 93 d9 01 	sts	0x01D9, r25	; 0x8001d9 <count_senha+0x1>
    1a3c:	80 93 d8 01 	sts	0x01D8, r24	; 0x8001d8 <count_senha>
    1a40:	91 e0       	ldi	r25, 0x01	; 1
    1a42:	80 91 dc 01 	lds	r24, 0x01DC	; 0x8001dc <state>
    1a46:	89 30       	cpi	r24, 0x09	; 9
    1a48:	09 f0       	breq	.+2      	; 0x1a4c <__stack+0x114d>
    1a4a:	90 e0       	ldi	r25, 0x00	; 0
    1a4c:	81 e0       	ldi	r24, 0x01	; 1
    1a4e:	20 91 d8 01 	lds	r18, 0x01D8	; 0x8001d8 <count_senha>
    1a52:	30 91 d9 01 	lds	r19, 0x01D9	; 0x8001d9 <count_senha+0x1>
    1a56:	24 30       	cpi	r18, 0x04	; 4
    1a58:	31 05       	cpc	r19, r1
    1a5a:	0c f0       	brlt	.+2      	; 0x1a5e <__stack+0x115f>
    1a5c:	80 e0       	ldi	r24, 0x00	; 0
    1a5e:	89 23       	and	r24, r25
    1a60:	a9 f0       	breq	.+42     	; 0x1a8c <__stack+0x118d>
    1a62:	89 e3       	ldi	r24, 0x39	; 57
    1a64:	0e 94 36 1f 	call	0x3e6c	; 0x3e6c <send_word_lcd>
    1a68:	46 ea       	ldi	r20, 0xA6	; 166
    1a6a:	52 e0       	ldi	r21, 0x02	; 2
    1a6c:	60 e0       	ldi	r22, 0x00	; 0
    1a6e:	80 91 d8 01 	lds	r24, 0x01D8	; 0x8001d8 <count_senha>
    1a72:	90 91 d9 01 	lds	r25, 0x01D9	; 0x8001d9 <count_senha+0x1>
    1a76:	0e 94 71 1e 	call	0x3ce2	; 0x3ce2 <senha_arm>
    1a7a:	80 91 d8 01 	lds	r24, 0x01D8	; 0x8001d8 <count_senha>
    1a7e:	90 91 d9 01 	lds	r25, 0x01D9	; 0x8001d9 <count_senha+0x1>
    1a82:	01 96       	adiw	r24, 0x01	; 1
    1a84:	90 93 d9 01 	sts	0x01D9, r25	; 0x8001d9 <count_senha+0x1>
    1a88:	80 93 d8 01 	sts	0x01D8, r24	; 0x8001d8 <count_senha>
    1a8c:	91 e0       	ldi	r25, 0x01	; 1
    1a8e:	80 91 dc 01 	lds	r24, 0x01DC	; 0x8001dc <state>
    1a92:	8a 30       	cpi	r24, 0x0A	; 10
    1a94:	09 f0       	breq	.+2      	; 0x1a98 <__stack+0x1199>
    1a96:	90 e0       	ldi	r25, 0x00	; 0
    1a98:	81 e0       	ldi	r24, 0x01	; 1
    1a9a:	20 91 d8 01 	lds	r18, 0x01D8	; 0x8001d8 <count_senha>
    1a9e:	30 91 d9 01 	lds	r19, 0x01D9	; 0x8001d9 <count_senha+0x1>
    1aa2:	24 30       	cpi	r18, 0x04	; 4
    1aa4:	31 05       	cpc	r19, r1
    1aa6:	0c f0       	brlt	.+2      	; 0x1aaa <__stack+0x11ab>
    1aa8:	80 e0       	ldi	r24, 0x00	; 0
    1aaa:	89 23       	and	r24, r25
    1aac:	a9 f0       	breq	.+42     	; 0x1ad8 <__stack+0x11d9>
    1aae:	89 e3       	ldi	r24, 0x39	; 57
    1ab0:	0e 94 36 1f 	call	0x3e6c	; 0x3e6c <send_word_lcd>
    1ab4:	46 ea       	ldi	r20, 0xA6	; 166
    1ab6:	52 e0       	ldi	r21, 0x02	; 2
    1ab8:	60 e0       	ldi	r22, 0x00	; 0
    1aba:	80 91 d8 01 	lds	r24, 0x01D8	; 0x8001d8 <count_senha>
    1abe:	90 91 d9 01 	lds	r25, 0x01D9	; 0x8001d9 <count_senha+0x1>
    1ac2:	0e 94 1b 21 	call	0x4236	; 0x4236 <insert_senha>
    1ac6:	80 91 d8 01 	lds	r24, 0x01D8	; 0x8001d8 <count_senha>
    1aca:	90 91 d9 01 	lds	r25, 0x01D9	; 0x8001d9 <count_senha+0x1>
    1ace:	01 96       	adiw	r24, 0x01	; 1
    1ad0:	90 93 d9 01 	sts	0x01D9, r25	; 0x8001d9 <count_senha+0x1>
    1ad4:	80 93 d8 01 	sts	0x01D8, r24	; 0x8001d8 <count_senha>
    1ad8:	91 e0       	ldi	r25, 0x01	; 1
    1ada:	80 91 dc 01 	lds	r24, 0x01DC	; 0x8001dc <state>
    1ade:	8b 30       	cpi	r24, 0x0B	; 11
    1ae0:	09 f0       	breq	.+2      	; 0x1ae4 <__stack+0x11e5>
    1ae2:	90 e0       	ldi	r25, 0x00	; 0
    1ae4:	81 e0       	ldi	r24, 0x01	; 1
    1ae6:	20 91 d8 01 	lds	r18, 0x01D8	; 0x8001d8 <count_senha>
    1aea:	30 91 d9 01 	lds	r19, 0x01D9	; 0x8001d9 <count_senha+0x1>
    1aee:	24 30       	cpi	r18, 0x04	; 4
    1af0:	31 05       	cpc	r19, r1
    1af2:	0c f0       	brlt	.+2      	; 0x1af6 <__stack+0x11f7>
    1af4:	80 e0       	ldi	r24, 0x00	; 0
    1af6:	89 23       	and	r24, r25
    1af8:	a9 f0       	breq	.+42     	; 0x1b24 <__stack+0x1225>
    1afa:	89 e3       	ldi	r24, 0x39	; 57
    1afc:	0e 94 36 1f 	call	0x3e6c	; 0x3e6c <send_word_lcd>
    1b00:	46 ea       	ldi	r20, 0xA6	; 166
    1b02:	52 e0       	ldi	r21, 0x02	; 2
    1b04:	60 e0       	ldi	r22, 0x00	; 0
    1b06:	80 91 d8 01 	lds	r24, 0x01D8	; 0x8001d8 <count_senha>
    1b0a:	90 91 d9 01 	lds	r25, 0x01D9	; 0x8001d9 <count_senha+0x1>
    1b0e:	0e 94 1b 21 	call	0x4236	; 0x4236 <insert_senha>
    1b12:	80 91 d8 01 	lds	r24, 0x01D8	; 0x8001d8 <count_senha>
    1b16:	90 91 d9 01 	lds	r25, 0x01D9	; 0x8001d9 <count_senha+0x1>
    1b1a:	01 96       	adiw	r24, 0x01	; 1
    1b1c:	90 93 d9 01 	sts	0x01D9, r25	; 0x8001d9 <count_senha+0x1>
    1b20:	80 93 d8 01 	sts	0x01D8, r24	; 0x8001d8 <count_senha>
    1b24:	20 91 dc 01 	lds	r18, 0x01DC	; 0x8001dc <state>
    1b28:	40 91 be 01 	lds	r20, 0x01BE	; 0x8001be <cont_t>
    1b2c:	50 91 bf 01 	lds	r21, 0x01BF	; 0x8001bf <cont_t+0x1>
    1b30:	91 e0       	ldi	r25, 0x01	; 1
    1b32:	23 31       	cpi	r18, 0x13	; 19
    1b34:	09 f0       	breq	.+2      	; 0x1b38 <__stack+0x1239>
    1b36:	90 e0       	ldi	r25, 0x00	; 0
    1b38:	81 e0       	ldi	r24, 0x01	; 1
    1b3a:	42 30       	cpi	r20, 0x02	; 2
    1b3c:	51 05       	cpc	r21, r1
    1b3e:	0c f0       	brlt	.+2      	; 0x1b42 <__stack+0x1243>
    1b40:	80 e0       	ldi	r24, 0x00	; 0
    1b42:	89 23       	and	r24, r25
    1b44:	79 f0       	breq	.+30     	; 0x1b64 <__stack+0x1265>
    1b46:	fa 01       	movw	r30, r20
    1b48:	ee 0f       	add	r30, r30
    1b4a:	ff 1f       	adc	r31, r31
    1b4c:	e3 5f       	subi	r30, 0xF3	; 243
    1b4e:	fe 4f       	sbci	r31, 0xFE	; 254
    1b50:	89 e0       	ldi	r24, 0x09	; 9
    1b52:	90 e0       	ldi	r25, 0x00	; 0
    1b54:	91 83       	std	Z+1, r25	; 0x01
    1b56:	80 83       	st	Z, r24
    1b58:	4f 5f       	subi	r20, 0xFF	; 255
    1b5a:	5f 4f       	sbci	r21, 0xFF	; 255
    1b5c:	50 93 bf 01 	sts	0x01BF, r21	; 0x8001bf <cont_t+0x1>
    1b60:	40 93 be 01 	sts	0x01BE, r20	; 0x8001be <cont_t>
    1b64:	81 e0       	ldi	r24, 0x01	; 1
    1b66:	40 91 be 01 	lds	r20, 0x01BE	; 0x8001be <cont_t>
    1b6a:	50 91 bf 01 	lds	r21, 0x01BF	; 0x8001bf <cont_t+0x1>
    1b6e:	43 30       	cpi	r20, 0x03	; 3
    1b70:	51 05       	cpc	r21, r1
    1b72:	0c f0       	brlt	.+2      	; 0x1b76 <__stack+0x1277>
    1b74:	80 e0       	ldi	r24, 0x00	; 0
    1b76:	91 e0       	ldi	r25, 0x01	; 1
    1b78:	24 31       	cpi	r18, 0x14	; 20
    1b7a:	09 f0       	breq	.+2      	; 0x1b7e <__stack+0x127f>
    1b7c:	90 e0       	ldi	r25, 0x00	; 0
    1b7e:	98 23       	and	r25, r24
    1b80:	99 f0       	breq	.+38     	; 0x1ba8 <__stack+0x12a9>
    1b82:	40 91 ba 01 	lds	r20, 0x01BA	; 0x8001ba <cont_s>
    1b86:	50 91 bb 01 	lds	r21, 0x01BB	; 0x8001bb <cont_s+0x1>
    1b8a:	fa 01       	movw	r30, r20
    1b8c:	ee 0f       	add	r30, r30
    1b8e:	ff 1f       	adc	r31, r31
    1b90:	e5 5d       	subi	r30, 0xD5	; 213
    1b92:	fe 4f       	sbci	r31, 0xFE	; 254
    1b94:	69 e0       	ldi	r22, 0x09	; 9
    1b96:	70 e0       	ldi	r23, 0x00	; 0
    1b98:	71 83       	std	Z+1, r23	; 0x01
    1b9a:	60 83       	st	Z, r22
    1b9c:	4f 5f       	subi	r20, 0xFF	; 255
    1b9e:	5f 4f       	sbci	r21, 0xFF	; 255
    1ba0:	50 93 bb 01 	sts	0x01BB, r21	; 0x8001bb <cont_s+0x1>
    1ba4:	40 93 ba 01 	sts	0x01BA, r20	; 0x8001ba <cont_s>
    1ba8:	91 e0       	ldi	r25, 0x01	; 1
    1baa:	22 31       	cpi	r18, 0x12	; 18
    1bac:	09 f0       	breq	.+2      	; 0x1bb0 <__stack+0x12b1>
    1bae:	90 e0       	ldi	r25, 0x00	; 0
    1bb0:	89 23       	and	r24, r25
    1bb2:	09 f4       	brne	.+2      	; 0x1bb6 <__stack+0x12b7>
    1bb4:	44 c3       	rjmp	.+1672   	; 0x223e <__stack+0x193f>
    1bb6:	80 91 bc 01 	lds	r24, 0x01BC	; 0x8001bc <cont_aa>
    1bba:	90 91 bd 01 	lds	r25, 0x01BD	; 0x8001bd <cont_aa+0x1>
    1bbe:	fc 01       	movw	r30, r24
    1bc0:	ee 0f       	add	r30, r30
    1bc2:	ff 1f       	adc	r31, r31
    1bc4:	ed 5d       	subi	r30, 0xDD	; 221
    1bc6:	fe 4f       	sbci	r31, 0xFE	; 254
    1bc8:	29 e0       	ldi	r18, 0x09	; 9
    1bca:	30 e0       	ldi	r19, 0x00	; 0
    1bcc:	31 83       	std	Z+1, r19	; 0x01
    1bce:	20 83       	st	Z, r18
    1bd0:	01 96       	adiw	r24, 0x01	; 1
    1bd2:	90 93 bd 01 	sts	0x01BD, r25	; 0x8001bd <cont_aa+0x1>
    1bd6:	80 93 bc 01 	sts	0x01BC, r24	; 0x8001bc <cont_aa>
    1bda:	31 c3       	rjmp	.+1634   	; 0x223e <__stack+0x193f>
    1bdc:	80 34       	cpi	r24, 0x40	; 64
    1bde:	91 05       	cpc	r25, r1
    1be0:	49 f5       	brne	.+82     	; 0x1c34 <__stack+0x1335>
    1be2:	80 91 dc 01 	lds	r24, 0x01DC	; 0x8001dc <state>
    1be6:	85 30       	cpi	r24, 0x05	; 5
    1be8:	29 f4       	brne	.+10     	; 0x1bf4 <__stack+0x12f5>
    1bea:	8b e0       	ldi	r24, 0x0B	; 11
    1bec:	80 93 dc 01 	sts	0x01DC, r24	; 0x8001dc <state>
    1bf0:	0e 94 c1 1e 	call	0x3d82	; 0x3d82 <msg_inserir_senha>
    1bf4:	91 e0       	ldi	r25, 0x01	; 1
    1bf6:	80 91 dc 01 	lds	r24, 0x01DC	; 0x8001dc <state>
    1bfa:	88 30       	cpi	r24, 0x08	; 8
    1bfc:	09 f0       	breq	.+2      	; 0x1c00 <__stack+0x1301>
    1bfe:	90 e0       	ldi	r25, 0x00	; 0
    1c00:	81 e0       	ldi	r24, 0x01	; 1
    1c02:	20 91 d8 01 	lds	r18, 0x01D8	; 0x8001d8 <count_senha>
    1c06:	30 91 d9 01 	lds	r19, 0x01D9	; 0x8001d9 <count_senha+0x1>
    1c0a:	24 30       	cpi	r18, 0x04	; 4
    1c0c:	31 05       	cpc	r19, r1
    1c0e:	09 f0       	breq	.+2      	; 0x1c12 <__stack+0x1313>
    1c10:	80 e0       	ldi	r24, 0x00	; 0
    1c12:	89 23       	and	r24, r25
    1c14:	09 f4       	brne	.+2      	; 0x1c18 <__stack+0x1319>
    1c16:	13 c3       	rjmp	.+1574   	; 0x223e <__stack+0x193f>
    1c18:	8c e0       	ldi	r24, 0x0C	; 12
    1c1a:	80 93 dc 01 	sts	0x01DC, r24	; 0x8001dc <state>
    1c1e:	81 e0       	ldi	r24, 0x01	; 1
    1c20:	90 e0       	ldi	r25, 0x00	; 0
    1c22:	90 93 d1 01 	sts	0x01D1, r25	; 0x8001d1 <flag_D_sensor+0x1>
    1c26:	80 93 d0 01 	sts	0x01D0, r24	; 0x8001d0 <flag_D_sensor>
    1c2a:	10 92 d9 01 	sts	0x01D9, r1	; 0x8001d9 <count_senha+0x1>
    1c2e:	10 92 d8 01 	sts	0x01D8, r1	; 0x8001d8 <count_senha>
    1c32:	05 c3       	rjmp	.+1546   	; 0x223e <__stack+0x193f>
    1c34:	80 33       	cpi	r24, 0x30	; 48
    1c36:	91 05       	cpc	r25, r1
    1c38:	11 f5       	brne	.+68     	; 0x1c7e <__stack+0x137f>
    1c3a:	10 92 dc 01 	sts	0x01DC, r1	; 0x8001dc <state>
    1c3e:	0e 94 11 21 	call	0x4222	; 0x4222 <clear_Display>
    1c42:	0e 94 ec 1f 	call	0x3fd8	; 0x3fd8 <msg_restauracao>
    1c46:	10 92 cf 01 	sts	0x01CF, r1	; 0x8001cf <flag_p+0x1>
    1c4a:	10 92 ce 01 	sts	0x01CE, r1	; 0x8001ce <flag_p>
    1c4e:	10 92 d3 01 	sts	0x01D3, r1	; 0x8001d3 <flag_sensor+0x1>
    1c52:	10 92 d2 01 	sts	0x01D2, r1	; 0x8001d2 <flag_sensor>
    1c56:	10 92 d1 01 	sts	0x01D1, r1	; 0x8001d1 <flag_D_sensor+0x1>
    1c5a:	10 92 d0 01 	sts	0x01D0, r1	; 0x8001d0 <flag_D_sensor>
    1c5e:	10 92 db 01 	sts	0x01DB, r1	; 0x8001db <flag_a_senha+0x1>
    1c62:	10 92 da 01 	sts	0x01DA, r1	; 0x8001da <flag_a_senha>
    1c66:	10 92 69 00 	sts	0x0069, r1	; 0x800069 <__TEXT_REGION_LENGTH__+0x7f8069>
    1c6a:	1d ba       	out	0x1d, r1	; 29
    1c6c:	62 e3       	ldi	r22, 0x32	; 50
    1c6e:	70 e0       	ldi	r23, 0x00	; 0
    1c70:	80 e0       	ldi	r24, 0x00	; 0
    1c72:	90 e0       	ldi	r25, 0x00	; 0
    1c74:	0e 94 47 1e 	call	0x3c8e	; 0x3c8e <delay_ms>
    1c78:	0e 94 4b 21 	call	0x4296	; 0x4296 <init_int1>
    1c7c:	e0 c2       	rjmp	.+1472   	; 0x223e <__stack+0x193f>
    1c7e:	80 32       	cpi	r24, 0x20	; 32
    1c80:	91 05       	cpc	r25, r1
    1c82:	09 f0       	breq	.+2      	; 0x1c86 <__stack+0x1387>
    1c84:	25 c1       	rjmp	.+586    	; 0x1ed0 <__stack+0x15d1>
    1c86:	91 e0       	ldi	r25, 0x01	; 1
    1c88:	80 91 dc 01 	lds	r24, 0x01DC	; 0x8001dc <state>
    1c8c:	88 30       	cpi	r24, 0x08	; 8
    1c8e:	09 f0       	breq	.+2      	; 0x1c92 <__stack+0x1393>
    1c90:	90 e0       	ldi	r25, 0x00	; 0
    1c92:	81 e0       	ldi	r24, 0x01	; 1
    1c94:	20 91 d8 01 	lds	r18, 0x01D8	; 0x8001d8 <count_senha>
    1c98:	30 91 d9 01 	lds	r19, 0x01D9	; 0x8001d9 <count_senha+0x1>
    1c9c:	24 30       	cpi	r18, 0x04	; 4
    1c9e:	31 05       	cpc	r19, r1
    1ca0:	0c f0       	brlt	.+2      	; 0x1ca4 <__stack+0x13a5>
    1ca2:	80 e0       	ldi	r24, 0x00	; 0
    1ca4:	89 23       	and	r24, r25
    1ca6:	a9 f0       	breq	.+42     	; 0x1cd2 <__stack+0x13d3>
    1ca8:	80 e3       	ldi	r24, 0x30	; 48
    1caa:	0e 94 36 1f 	call	0x3e6c	; 0x3e6c <send_word_lcd>
    1cae:	48 ea       	ldi	r20, 0xA8	; 168
    1cb0:	52 e0       	ldi	r21, 0x02	; 2
    1cb2:	60 e0       	ldi	r22, 0x00	; 0
    1cb4:	80 91 d8 01 	lds	r24, 0x01D8	; 0x8001d8 <count_senha>
    1cb8:	90 91 d9 01 	lds	r25, 0x01D9	; 0x8001d9 <count_senha+0x1>
    1cbc:	0e 94 1b 21 	call	0x4236	; 0x4236 <insert_senha>
    1cc0:	80 91 d8 01 	lds	r24, 0x01D8	; 0x8001d8 <count_senha>
    1cc4:	90 91 d9 01 	lds	r25, 0x01D9	; 0x8001d9 <count_senha+0x1>
    1cc8:	01 96       	adiw	r24, 0x01	; 1
    1cca:	90 93 d9 01 	sts	0x01D9, r25	; 0x8001d9 <count_senha+0x1>
    1cce:	80 93 d8 01 	sts	0x01D8, r24	; 0x8001d8 <count_senha>
    1cd2:	91 e0       	ldi	r25, 0x01	; 1
    1cd4:	80 91 dc 01 	lds	r24, 0x01DC	; 0x8001dc <state>
    1cd8:	89 30       	cpi	r24, 0x09	; 9
    1cda:	09 f0       	breq	.+2      	; 0x1cde <__stack+0x13df>
    1cdc:	90 e0       	ldi	r25, 0x00	; 0
    1cde:	81 e0       	ldi	r24, 0x01	; 1
    1ce0:	20 91 d8 01 	lds	r18, 0x01D8	; 0x8001d8 <count_senha>
    1ce4:	30 91 d9 01 	lds	r19, 0x01D9	; 0x8001d9 <count_senha+0x1>
    1ce8:	24 30       	cpi	r18, 0x04	; 4
    1cea:	31 05       	cpc	r19, r1
    1cec:	0c f0       	brlt	.+2      	; 0x1cf0 <__stack+0x13f1>
    1cee:	80 e0       	ldi	r24, 0x00	; 0
    1cf0:	89 23       	and	r24, r25
    1cf2:	a9 f0       	breq	.+42     	; 0x1d1e <__stack+0x141f>
    1cf4:	80 e3       	ldi	r24, 0x30	; 48
    1cf6:	0e 94 36 1f 	call	0x3e6c	; 0x3e6c <send_word_lcd>
    1cfa:	48 ea       	ldi	r20, 0xA8	; 168
    1cfc:	52 e0       	ldi	r21, 0x02	; 2
    1cfe:	60 e0       	ldi	r22, 0x00	; 0
    1d00:	80 91 d8 01 	lds	r24, 0x01D8	; 0x8001d8 <count_senha>
    1d04:	90 91 d9 01 	lds	r25, 0x01D9	; 0x8001d9 <count_senha+0x1>
    1d08:	0e 94 71 1e 	call	0x3ce2	; 0x3ce2 <senha_arm>
    1d0c:	80 91 d8 01 	lds	r24, 0x01D8	; 0x8001d8 <count_senha>
    1d10:	90 91 d9 01 	lds	r25, 0x01D9	; 0x8001d9 <count_senha+0x1>
    1d14:	01 96       	adiw	r24, 0x01	; 1
    1d16:	90 93 d9 01 	sts	0x01D9, r25	; 0x8001d9 <count_senha+0x1>
    1d1a:	80 93 d8 01 	sts	0x01D8, r24	; 0x8001d8 <count_senha>
    1d1e:	91 e0       	ldi	r25, 0x01	; 1
    1d20:	80 91 dc 01 	lds	r24, 0x01DC	; 0x8001dc <state>
    1d24:	8a 30       	cpi	r24, 0x0A	; 10
    1d26:	09 f0       	breq	.+2      	; 0x1d2a <__stack+0x142b>
    1d28:	90 e0       	ldi	r25, 0x00	; 0
    1d2a:	81 e0       	ldi	r24, 0x01	; 1
    1d2c:	20 91 d8 01 	lds	r18, 0x01D8	; 0x8001d8 <count_senha>
    1d30:	30 91 d9 01 	lds	r19, 0x01D9	; 0x8001d9 <count_senha+0x1>
    1d34:	24 30       	cpi	r18, 0x04	; 4
    1d36:	31 05       	cpc	r19, r1
    1d38:	0c f0       	brlt	.+2      	; 0x1d3c <__stack+0x143d>
    1d3a:	80 e0       	ldi	r24, 0x00	; 0
    1d3c:	89 23       	and	r24, r25
    1d3e:	a9 f0       	breq	.+42     	; 0x1d6a <__stack+0x146b>
    1d40:	80 e3       	ldi	r24, 0x30	; 48
    1d42:	0e 94 36 1f 	call	0x3e6c	; 0x3e6c <send_word_lcd>
    1d46:	48 ea       	ldi	r20, 0xA8	; 168
    1d48:	52 e0       	ldi	r21, 0x02	; 2
    1d4a:	60 e0       	ldi	r22, 0x00	; 0
    1d4c:	80 91 d8 01 	lds	r24, 0x01D8	; 0x8001d8 <count_senha>
    1d50:	90 91 d9 01 	lds	r25, 0x01D9	; 0x8001d9 <count_senha+0x1>
    1d54:	0e 94 1b 21 	call	0x4236	; 0x4236 <insert_senha>
    1d58:	80 91 d8 01 	lds	r24, 0x01D8	; 0x8001d8 <count_senha>
    1d5c:	90 91 d9 01 	lds	r25, 0x01D9	; 0x8001d9 <count_senha+0x1>
    1d60:	01 96       	adiw	r24, 0x01	; 1
    1d62:	90 93 d9 01 	sts	0x01D9, r25	; 0x8001d9 <count_senha+0x1>
    1d66:	80 93 d8 01 	sts	0x01D8, r24	; 0x8001d8 <count_senha>
    1d6a:	91 e0       	ldi	r25, 0x01	; 1
    1d6c:	80 91 dc 01 	lds	r24, 0x01DC	; 0x8001dc <state>
    1d70:	8b 30       	cpi	r24, 0x0B	; 11
    1d72:	09 f0       	breq	.+2      	; 0x1d76 <__stack+0x1477>
    1d74:	90 e0       	ldi	r25, 0x00	; 0
    1d76:	81 e0       	ldi	r24, 0x01	; 1
    1d78:	20 91 d8 01 	lds	r18, 0x01D8	; 0x8001d8 <count_senha>
    1d7c:	30 91 d9 01 	lds	r19, 0x01D9	; 0x8001d9 <count_senha+0x1>
    1d80:	24 30       	cpi	r18, 0x04	; 4
    1d82:	31 05       	cpc	r19, r1
    1d84:	0c f0       	brlt	.+2      	; 0x1d88 <__stack+0x1489>
    1d86:	80 e0       	ldi	r24, 0x00	; 0
    1d88:	89 23       	and	r24, r25
    1d8a:	a9 f0       	breq	.+42     	; 0x1db6 <__stack+0x14b7>
    1d8c:	80 e3       	ldi	r24, 0x30	; 48
    1d8e:	0e 94 36 1f 	call	0x3e6c	; 0x3e6c <send_word_lcd>
    1d92:	48 ea       	ldi	r20, 0xA8	; 168
    1d94:	52 e0       	ldi	r21, 0x02	; 2
    1d96:	60 e0       	ldi	r22, 0x00	; 0
    1d98:	80 91 d8 01 	lds	r24, 0x01D8	; 0x8001d8 <count_senha>
    1d9c:	90 91 d9 01 	lds	r25, 0x01D9	; 0x8001d9 <count_senha+0x1>
    1da0:	0e 94 1b 21 	call	0x4236	; 0x4236 <insert_senha>
    1da4:	80 91 d8 01 	lds	r24, 0x01D8	; 0x8001d8 <count_senha>
    1da8:	90 91 d9 01 	lds	r25, 0x01D9	; 0x8001d9 <count_senha+0x1>
    1dac:	01 96       	adiw	r24, 0x01	; 1
    1dae:	90 93 d9 01 	sts	0x01D9, r25	; 0x8001d9 <count_senha+0x1>
    1db2:	80 93 d8 01 	sts	0x01D8, r24	; 0x8001d8 <count_senha>
    1db6:	91 e0       	ldi	r25, 0x01	; 1
    1db8:	80 91 dc 01 	lds	r24, 0x01DC	; 0x8001dc <state>
    1dbc:	8f 30       	cpi	r24, 0x0F	; 15
    1dbe:	09 f0       	breq	.+2      	; 0x1dc2 <__stack+0x14c3>
    1dc0:	90 e0       	ldi	r25, 0x00	; 0
    1dc2:	81 e0       	ldi	r24, 0x01	; 1
    1dc4:	20 91 d2 01 	lds	r18, 0x01D2	; 0x8001d2 <flag_sensor>
    1dc8:	30 91 d3 01 	lds	r19, 0x01D3	; 0x8001d3 <flag_sensor+0x1>
    1dcc:	23 2b       	or	r18, r19
    1dce:	09 f0       	breq	.+2      	; 0x1dd2 <__stack+0x14d3>
    1dd0:	80 e0       	ldi	r24, 0x00	; 0
    1dd2:	89 23       	and	r24, r25
    1dd4:	21 f0       	breq	.+8      	; 0x1dde <__stack+0x14df>
    1dd6:	80 e0       	ldi	r24, 0x00	; 0
    1dd8:	90 e0       	ldi	r25, 0x00	; 0
    1dda:	0e 94 cc 17 	call	0x2f98	; 0x2f98 <hab_sensor>
    1dde:	20 91 dc 01 	lds	r18, 0x01DC	; 0x8001dc <state>
    1de2:	91 e0       	ldi	r25, 0x01	; 1
    1de4:	21 31       	cpi	r18, 0x11	; 17
    1de6:	09 f0       	breq	.+2      	; 0x1dea <__stack+0x14eb>
    1de8:	90 e0       	ldi	r25, 0x00	; 0
    1dea:	31 e0       	ldi	r19, 0x01	; 1
    1dec:	40 91 ca 01 	lds	r20, 0x01CA	; 0x8001ca <flag_z1>
    1df0:	50 91 cb 01 	lds	r21, 0x01CB	; 0x8001cb <flag_z1+0x1>
    1df4:	45 2b       	or	r20, r21
    1df6:	09 f0       	breq	.+2      	; 0x1dfa <__stack+0x14fb>
    1df8:	30 e0       	ldi	r19, 0x00	; 0
    1dfa:	81 e0       	ldi	r24, 0x01	; 1
    1dfc:	40 91 cc 01 	lds	r20, 0x01CC	; 0x8001cc <flag_z>
    1e00:	50 91 cd 01 	lds	r21, 0x01CD	; 0x8001cd <flag_z+0x1>
    1e04:	45 2b       	or	r20, r21
    1e06:	09 f0       	breq	.+2      	; 0x1e0a <__stack+0x150b>
    1e08:	80 e0       	ldi	r24, 0x00	; 0
    1e0a:	83 23       	and	r24, r19
    1e0c:	99 23       	and	r25, r25
    1e0e:	61 f0       	breq	.+24     	; 0x1e28 <__stack+0x1529>
    1e10:	88 23       	and	r24, r24
    1e12:	51 f0       	breq	.+20     	; 0x1e28 <__stack+0x1529>
    1e14:	10 92 01 01 	sts	0x0101, r1	; 0x800101 <__DATA_REGION_ORIGIN__+0x1>
    1e18:	10 92 00 01 	sts	0x0100, r1	; 0x800100 <__DATA_REGION_ORIGIN__>
    1e1c:	81 e0       	ldi	r24, 0x01	; 1
    1e1e:	90 e0       	ldi	r25, 0x00	; 0
    1e20:	90 93 cb 01 	sts	0x01CB, r25	; 0x8001cb <flag_z1+0x1>
    1e24:	80 93 ca 01 	sts	0x01CA, r24	; 0x8001ca <flag_z1>
    1e28:	40 91 be 01 	lds	r20, 0x01BE	; 0x8001be <cont_t>
    1e2c:	50 91 bf 01 	lds	r21, 0x01BF	; 0x8001bf <cont_t+0x1>
    1e30:	91 e0       	ldi	r25, 0x01	; 1
    1e32:	23 31       	cpi	r18, 0x13	; 19
    1e34:	09 f0       	breq	.+2      	; 0x1e38 <__stack+0x1539>
    1e36:	90 e0       	ldi	r25, 0x00	; 0
    1e38:	81 e0       	ldi	r24, 0x01	; 1
    1e3a:	42 30       	cpi	r20, 0x02	; 2
    1e3c:	51 05       	cpc	r21, r1
    1e3e:	0c f0       	brlt	.+2      	; 0x1e42 <__stack+0x1543>
    1e40:	80 e0       	ldi	r24, 0x00	; 0
    1e42:	89 23       	and	r24, r25
    1e44:	69 f0       	breq	.+26     	; 0x1e60 <__stack+0x1561>
    1e46:	fa 01       	movw	r30, r20
    1e48:	ee 0f       	add	r30, r30
    1e4a:	ff 1f       	adc	r31, r31
    1e4c:	e3 5f       	subi	r30, 0xF3	; 243
    1e4e:	fe 4f       	sbci	r31, 0xFE	; 254
    1e50:	11 82       	std	Z+1, r1	; 0x01
    1e52:	10 82       	st	Z, r1
    1e54:	4f 5f       	subi	r20, 0xFF	; 255
    1e56:	5f 4f       	sbci	r21, 0xFF	; 255
    1e58:	50 93 bf 01 	sts	0x01BF, r21	; 0x8001bf <cont_t+0x1>
    1e5c:	40 93 be 01 	sts	0x01BE, r20	; 0x8001be <cont_t>
    1e60:	81 e0       	ldi	r24, 0x01	; 1
    1e62:	40 91 be 01 	lds	r20, 0x01BE	; 0x8001be <cont_t>
    1e66:	50 91 bf 01 	lds	r21, 0x01BF	; 0x8001bf <cont_t+0x1>
    1e6a:	43 30       	cpi	r20, 0x03	; 3
    1e6c:	51 05       	cpc	r21, r1
    1e6e:	0c f0       	brlt	.+2      	; 0x1e72 <__stack+0x1573>
    1e70:	80 e0       	ldi	r24, 0x00	; 0
    1e72:	91 e0       	ldi	r25, 0x01	; 1
    1e74:	24 31       	cpi	r18, 0x14	; 20
    1e76:	09 f0       	breq	.+2      	; 0x1e7a <__stack+0x157b>
    1e78:	90 e0       	ldi	r25, 0x00	; 0
    1e7a:	98 23       	and	r25, r24
    1e7c:	89 f0       	breq	.+34     	; 0x1ea0 <__stack+0x15a1>
    1e7e:	40 91 ba 01 	lds	r20, 0x01BA	; 0x8001ba <cont_s>
    1e82:	50 91 bb 01 	lds	r21, 0x01BB	; 0x8001bb <cont_s+0x1>
    1e86:	fa 01       	movw	r30, r20
    1e88:	ee 0f       	add	r30, r30
    1e8a:	ff 1f       	adc	r31, r31
    1e8c:	e5 5d       	subi	r30, 0xD5	; 213
    1e8e:	fe 4f       	sbci	r31, 0xFE	; 254
    1e90:	11 82       	std	Z+1, r1	; 0x01
    1e92:	10 82       	st	Z, r1
    1e94:	4f 5f       	subi	r20, 0xFF	; 255
    1e96:	5f 4f       	sbci	r21, 0xFF	; 255
    1e98:	50 93 bb 01 	sts	0x01BB, r21	; 0x8001bb <cont_s+0x1>
    1e9c:	40 93 ba 01 	sts	0x01BA, r20	; 0x8001ba <cont_s>
    1ea0:	91 e0       	ldi	r25, 0x01	; 1
    1ea2:	22 31       	cpi	r18, 0x12	; 18
    1ea4:	09 f0       	breq	.+2      	; 0x1ea8 <__stack+0x15a9>
    1ea6:	90 e0       	ldi	r25, 0x00	; 0
    1ea8:	89 23       	and	r24, r25
    1eaa:	09 f4       	brne	.+2      	; 0x1eae <__stack+0x15af>
    1eac:	c8 c1       	rjmp	.+912    	; 0x223e <__stack+0x193f>
    1eae:	80 91 bc 01 	lds	r24, 0x01BC	; 0x8001bc <cont_aa>
    1eb2:	90 91 bd 01 	lds	r25, 0x01BD	; 0x8001bd <cont_aa+0x1>
    1eb6:	fc 01       	movw	r30, r24
    1eb8:	ee 0f       	add	r30, r30
    1eba:	ff 1f       	adc	r31, r31
    1ebc:	ed 5d       	subi	r30, 0xDD	; 221
    1ebe:	fe 4f       	sbci	r31, 0xFE	; 254
    1ec0:	11 82       	std	Z+1, r1	; 0x01
    1ec2:	10 82       	st	Z, r1
    1ec4:	01 96       	adiw	r24, 0x01	; 1
    1ec6:	90 93 bd 01 	sts	0x01BD, r25	; 0x8001bd <cont_aa+0x1>
    1eca:	80 93 bc 01 	sts	0x01BC, r24	; 0x8001bc <cont_aa>
    1ece:	b7 c1       	rjmp	.+878    	; 0x223e <__stack+0x193f>
    1ed0:	80 31       	cpi	r24, 0x10	; 16
    1ed2:	91 05       	cpc	r25, r1
    1ed4:	39 f5       	brne	.+78     	; 0x1f24 <__stack+0x1625>
    1ed6:	80 91 ce 01 	lds	r24, 0x01CE	; 0x8001ce <flag_p>
    1eda:	90 91 cf 01 	lds	r25, 0x01CF	; 0x8001cf <flag_p+0x1>
    1ede:	00 97       	sbiw	r24, 0x00	; 0
    1ee0:	b1 f4       	brne	.+44     	; 0x1f0e <__stack+0x160f>
    1ee2:	80 91 dc 01 	lds	r24, 0x01DC	; 0x8001dc <state>
    1ee6:	87 30       	cpi	r24, 0x07	; 7
    1ee8:	11 f0       	breq	.+4      	; 0x1eee <__stack+0x15ef>
    1eea:	85 30       	cpi	r24, 0x05	; 5
    1eec:	21 f4       	brne	.+8      	; 0x1ef6 <__stack+0x15f7>
    1eee:	0e 94 25 21 	call	0x424a	; 0x424a <StopTimer1>
    1ef2:	0e 94 f1 20 	call	0x41e2	; 0x41e2 <ZerarTemps>
    1ef6:	0e 94 5d 21 	call	0x42ba	; 0x42ba <StartSirene>
    1efa:	86 e0       	ldi	r24, 0x06	; 6
    1efc:	80 93 dc 01 	sts	0x01DC, r24	; 0x8001dc <state>
    1f00:	81 e0       	ldi	r24, 0x01	; 1
    1f02:	90 e0       	ldi	r25, 0x00	; 0
    1f04:	90 93 cf 01 	sts	0x01CF, r25	; 0x8001cf <flag_p+0x1>
    1f08:	80 93 ce 01 	sts	0x01CE, r24	; 0x8001ce <flag_p>
    1f0c:	98 c1       	rjmp	.+816    	; 0x223e <__stack+0x193f>
    1f0e:	01 97       	sbiw	r24, 0x01	; 1
    1f10:	09 f0       	breq	.+2      	; 0x1f14 <__stack+0x1615>
    1f12:	95 c1       	rjmp	.+810    	; 0x223e <__stack+0x193f>
    1f14:	0e 94 6d 21 	call	0x42da	; 0x42da <StopSirene>
    1f18:	81 e0       	ldi	r24, 0x01	; 1
    1f1a:	80 93 dc 01 	sts	0x01DC, r24	; 0x8001dc <state>
    1f1e:	0e 94 bd 1d 	call	0x3b7a	; 0x3b7a <msg_desativado>
    1f22:	8d c1       	rjmp	.+794    	; 0x223e <__stack+0x193f>
    1f24:	89 2b       	or	r24, r25
    1f26:	09 f0       	breq	.+2      	; 0x1f2a <__stack+0x162b>
    1f28:	8a c1       	rjmp	.+788    	; 0x223e <__stack+0x193f>
    1f2a:	91 e0       	ldi	r25, 0x01	; 1
    1f2c:	80 91 dc 01 	lds	r24, 0x01DC	; 0x8001dc <state>
    1f30:	88 30       	cpi	r24, 0x08	; 8
    1f32:	09 f0       	breq	.+2      	; 0x1f36 <__stack+0x1637>
    1f34:	90 e0       	ldi	r25, 0x00	; 0
    1f36:	81 e0       	ldi	r24, 0x01	; 1
    1f38:	20 91 d8 01 	lds	r18, 0x01D8	; 0x8001d8 <count_senha>
    1f3c:	30 91 d9 01 	lds	r19, 0x01D9	; 0x8001d9 <count_senha+0x1>
    1f40:	24 30       	cpi	r18, 0x04	; 4
    1f42:	31 05       	cpc	r19, r1
    1f44:	09 f0       	breq	.+2      	; 0x1f48 <__stack+0x1649>
    1f46:	80 e0       	ldi	r24, 0x00	; 0
    1f48:	89 23       	and	r24, r25
    1f4a:	89 f0       	breq	.+34     	; 0x1f6e <__stack+0x166f>
    1f4c:	8c e0       	ldi	r24, 0x0C	; 12
    1f4e:	80 93 dc 01 	sts	0x01DC, r24	; 0x8001dc <state>
    1f52:	0e 94 61 21 	call	0x42c2	; 0x42c2 <RTC_Read_Hours>
    1f56:	c8 2f       	mov	r28, r24
    1f58:	0e 94 65 21 	call	0x42ca	; 0x42ca <RTC_Read_Day>
    1f5c:	6c 2f       	mov	r22, r28
    1f5e:	0e 94 4d 1b 	call	0x369a	; 0x369a <UARTP>
    1f62:	0e 94 11 21 	call	0x4222	; 0x4222 <clear_Display>
    1f66:	10 92 d9 01 	sts	0x01D9, r1	; 0x8001d9 <count_senha+0x1>
    1f6a:	10 92 d8 01 	sts	0x01D8, r1	; 0x8001d8 <count_senha>
    1f6e:	91 e0       	ldi	r25, 0x01	; 1
    1f70:	80 91 dc 01 	lds	r24, 0x01DC	; 0x8001dc <state>
    1f74:	89 30       	cpi	r24, 0x09	; 9
    1f76:	09 f0       	breq	.+2      	; 0x1f7a <__stack+0x167b>
    1f78:	90 e0       	ldi	r25, 0x00	; 0
    1f7a:	81 e0       	ldi	r24, 0x01	; 1
    1f7c:	20 91 d8 01 	lds	r18, 0x01D8	; 0x8001d8 <count_senha>
    1f80:	30 91 d9 01 	lds	r19, 0x01D9	; 0x8001d9 <count_senha+0x1>
    1f84:	24 30       	cpi	r18, 0x04	; 4
    1f86:	31 05       	cpc	r19, r1
    1f88:	09 f0       	breq	.+2      	; 0x1f8c <__stack+0x168d>
    1f8a:	80 e0       	ldi	r24, 0x00	; 0
    1f8c:	89 23       	and	r24, r25
    1f8e:	99 f0       	breq	.+38     	; 0x1fb6 <__stack+0x16b7>
    1f90:	81 e0       	ldi	r24, 0x01	; 1
    1f92:	80 93 dc 01 	sts	0x01DC, r24	; 0x8001dc <state>
    1f96:	0e 94 61 21 	call	0x42c2	; 0x42c2 <RTC_Read_Hours>
    1f9a:	c8 2f       	mov	r28, r24
    1f9c:	0e 94 65 21 	call	0x42ca	; 0x42ca <RTC_Read_Day>
    1fa0:	6c 2f       	mov	r22, r28
    1fa2:	0e 94 4d 1b 	call	0x369a	; 0x369a <UARTP>
    1fa6:	0e 94 11 21 	call	0x4222	; 0x4222 <clear_Display>
    1faa:	0e 94 bd 1d 	call	0x3b7a	; 0x3b7a <msg_desativado>
    1fae:	10 92 d9 01 	sts	0x01D9, r1	; 0x8001d9 <count_senha+0x1>
    1fb2:	10 92 d8 01 	sts	0x01D8, r1	; 0x8001d8 <count_senha>
    1fb6:	91 e0       	ldi	r25, 0x01	; 1
    1fb8:	80 91 dc 01 	lds	r24, 0x01DC	; 0x8001dc <state>
    1fbc:	8a 30       	cpi	r24, 0x0A	; 10
    1fbe:	09 f0       	breq	.+2      	; 0x1fc2 <__stack+0x16c3>
    1fc0:	90 e0       	ldi	r25, 0x00	; 0
    1fc2:	81 e0       	ldi	r24, 0x01	; 1
    1fc4:	20 91 d8 01 	lds	r18, 0x01D8	; 0x8001d8 <count_senha>
    1fc8:	30 91 d9 01 	lds	r19, 0x01D9	; 0x8001d9 <count_senha+0x1>
    1fcc:	24 30       	cpi	r18, 0x04	; 4
    1fce:	31 05       	cpc	r19, r1
    1fd0:	09 f0       	breq	.+2      	; 0x1fd4 <__stack+0x16d5>
    1fd2:	80 e0       	ldi	r24, 0x00	; 0
    1fd4:	89 23       	and	r24, r25
    1fd6:	49 f0       	breq	.+18     	; 0x1fea <__stack+0x16eb>
    1fd8:	8d e0       	ldi	r24, 0x0D	; 13
    1fda:	80 93 dc 01 	sts	0x01DC, r24	; 0x8001dc <state>
    1fde:	0e 94 11 21 	call	0x4222	; 0x4222 <clear_Display>
    1fe2:	10 92 d9 01 	sts	0x01D9, r1	; 0x8001d9 <count_senha+0x1>
    1fe6:	10 92 d8 01 	sts	0x01D8, r1	; 0x8001d8 <count_senha>
    1fea:	91 e0       	ldi	r25, 0x01	; 1
    1fec:	80 91 dc 01 	lds	r24, 0x01DC	; 0x8001dc <state>
    1ff0:	8b 30       	cpi	r24, 0x0B	; 11
    1ff2:	09 f0       	breq	.+2      	; 0x1ff6 <__stack+0x16f7>
    1ff4:	90 e0       	ldi	r25, 0x00	; 0
    1ff6:	81 e0       	ldi	r24, 0x01	; 1
    1ff8:	20 91 d8 01 	lds	r18, 0x01D8	; 0x8001d8 <count_senha>
    1ffc:	30 91 d9 01 	lds	r19, 0x01D9	; 0x8001d9 <count_senha+0x1>
    2000:	24 30       	cpi	r18, 0x04	; 4
    2002:	31 05       	cpc	r19, r1
    2004:	09 f0       	breq	.+2      	; 0x2008 <__stack+0x1709>
    2006:	80 e0       	ldi	r24, 0x00	; 0
    2008:	89 23       	and	r24, r25
    200a:	49 f0       	breq	.+18     	; 0x201e <__stack+0x171f>
    200c:	8e e0       	ldi	r24, 0x0E	; 14
    200e:	80 93 dc 01 	sts	0x01DC, r24	; 0x8001dc <state>
    2012:	0e 94 11 21 	call	0x4222	; 0x4222 <clear_Display>
    2016:	10 92 d9 01 	sts	0x01D9, r1	; 0x8001d9 <count_senha+0x1>
    201a:	10 92 d8 01 	sts	0x01D8, r1	; 0x8001d8 <count_senha>
    201e:	91 e0       	ldi	r25, 0x01	; 1
    2020:	80 91 dc 01 	lds	r24, 0x01DC	; 0x8001dc <state>
    2024:	8f 30       	cpi	r24, 0x0F	; 15
    2026:	09 f0       	breq	.+2      	; 0x202a <__stack+0x172b>
    2028:	90 e0       	ldi	r25, 0x00	; 0
    202a:	81 e0       	ldi	r24, 0x01	; 1
    202c:	20 91 d2 01 	lds	r18, 0x01D2	; 0x8001d2 <flag_sensor>
    2030:	30 91 d3 01 	lds	r19, 0x01D3	; 0x8001d3 <flag_sensor+0x1>
    2034:	21 30       	cpi	r18, 0x01	; 1
    2036:	31 05       	cpc	r19, r1
    2038:	09 f0       	breq	.+2      	; 0x203c <__stack+0x173d>
    203a:	80 e0       	ldi	r24, 0x00	; 0
    203c:	89 23       	and	r24, r25
    203e:	a9 f0       	breq	.+42     	; 0x206a <__stack+0x176b>
    2040:	81 e0       	ldi	r24, 0x01	; 1
    2042:	80 93 dc 01 	sts	0x01DC, r24	; 0x8001dc <state>
    2046:	0e 94 bd 1d 	call	0x3b7a	; 0x3b7a <msg_desativado>
    204a:	10 92 d3 01 	sts	0x01D3, r1	; 0x8001d3 <flag_sensor+0x1>
    204e:	10 92 d2 01 	sts	0x01D2, r1	; 0x8001d2 <flag_sensor>
    2052:	10 92 07 01 	sts	0x0107, r1	; 0x800107 <User+0x1>
    2056:	10 92 06 01 	sts	0x0106, r1	; 0x800106 <User>
    205a:	0e 94 61 21 	call	0x42c2	; 0x42c2 <RTC_Read_Hours>
    205e:	c8 2f       	mov	r28, r24
    2060:	0e 94 65 21 	call	0x42ca	; 0x42ca <RTC_Read_Day>
    2064:	6c 2f       	mov	r22, r28
    2066:	0e 94 4d 1b 	call	0x369a	; 0x369a <UARTP>
    206a:	91 e0       	ldi	r25, 0x01	; 1
    206c:	80 91 dc 01 	lds	r24, 0x01DC	; 0x8001dc <state>
    2070:	80 31       	cpi	r24, 0x10	; 16
    2072:	09 f0       	breq	.+2      	; 0x2076 <__stack+0x1777>
    2074:	90 e0       	ldi	r25, 0x00	; 0
    2076:	81 e0       	ldi	r24, 0x01	; 1
    2078:	20 91 d2 01 	lds	r18, 0x01D2	; 0x8001d2 <flag_sensor>
    207c:	30 91 d3 01 	lds	r19, 0x01D3	; 0x8001d3 <flag_sensor+0x1>
    2080:	21 30       	cpi	r18, 0x01	; 1
    2082:	31 05       	cpc	r19, r1
    2084:	09 f0       	breq	.+2      	; 0x2088 <__stack+0x1789>
    2086:	80 e0       	ldi	r24, 0x00	; 0
    2088:	89 23       	and	r24, r25
    208a:	a9 f0       	breq	.+42     	; 0x20b6 <__stack+0x17b7>
    208c:	81 e0       	ldi	r24, 0x01	; 1
    208e:	80 93 dc 01 	sts	0x01DC, r24	; 0x8001dc <state>
    2092:	0e 94 bd 1d 	call	0x3b7a	; 0x3b7a <msg_desativado>
    2096:	10 92 d3 01 	sts	0x01D3, r1	; 0x8001d3 <flag_sensor+0x1>
    209a:	10 92 d2 01 	sts	0x01D2, r1	; 0x8001d2 <flag_sensor>
    209e:	10 92 07 01 	sts	0x0107, r1	; 0x800107 <User+0x1>
    20a2:	10 92 06 01 	sts	0x0106, r1	; 0x800106 <User>
    20a6:	0e 94 61 21 	call	0x42c2	; 0x42c2 <RTC_Read_Hours>
    20aa:	c8 2f       	mov	r28, r24
    20ac:	0e 94 65 21 	call	0x42ca	; 0x42ca <RTC_Read_Day>
    20b0:	6c 2f       	mov	r22, r28
    20b2:	0e 94 4d 1b 	call	0x369a	; 0x369a <UARTP>
    20b6:	91 e0       	ldi	r25, 0x01	; 1
    20b8:	80 91 dc 01 	lds	r24, 0x01DC	; 0x8001dc <state>
    20bc:	81 31       	cpi	r24, 0x11	; 17
    20be:	09 f0       	breq	.+2      	; 0x20c2 <__stack+0x17c3>
    20c0:	90 e0       	ldi	r25, 0x00	; 0
    20c2:	21 e0       	ldi	r18, 0x01	; 1
    20c4:	40 91 ca 01 	lds	r20, 0x01CA	; 0x8001ca <flag_z1>
    20c8:	50 91 cb 01 	lds	r21, 0x01CB	; 0x8001cb <flag_z1+0x1>
    20cc:	41 30       	cpi	r20, 0x01	; 1
    20ce:	51 05       	cpc	r21, r1
    20d0:	09 f0       	breq	.+2      	; 0x20d4 <__stack+0x17d5>
    20d2:	20 e0       	ldi	r18, 0x00	; 0
    20d4:	81 e0       	ldi	r24, 0x01	; 1
    20d6:	40 91 cc 01 	lds	r20, 0x01CC	; 0x8001cc <flag_z>
    20da:	50 91 cd 01 	lds	r21, 0x01CD	; 0x8001cd <flag_z+0x1>
    20de:	41 30       	cpi	r20, 0x01	; 1
    20e0:	51 05       	cpc	r21, r1
    20e2:	09 f0       	breq	.+2      	; 0x20e6 <__stack+0x17e7>
    20e4:	80 e0       	ldi	r24, 0x00	; 0
    20e6:	82 23       	and	r24, r18
    20e8:	99 23       	and	r25, r25
    20ea:	29 f1       	breq	.+74     	; 0x2136 <__stack+0x1837>
    20ec:	88 23       	and	r24, r24
    20ee:	19 f1       	breq	.+70     	; 0x2136 <__stack+0x1837>
    20f0:	81 e0       	ldi	r24, 0x01	; 1
    20f2:	80 93 dc 01 	sts	0x01DC, r24	; 0x8001dc <state>
    20f6:	60 91 04 01 	lds	r22, 0x0104	; 0x800104 <idzona>
    20fa:	70 91 05 01 	lds	r23, 0x0105	; 0x800105 <idzona+0x1>
    20fe:	80 91 00 01 	lds	r24, 0x0100	; 0x800100 <__DATA_REGION_ORIGIN__>
    2102:	90 91 01 01 	lds	r25, 0x0101	; 0x800101 <__DATA_REGION_ORIGIN__+0x1>
    2106:	0e 94 a9 13 	call	0x2752	; 0x2752 <assSensorZona>
    210a:	10 92 cd 01 	sts	0x01CD, r1	; 0x8001cd <flag_z+0x1>
    210e:	10 92 cc 01 	sts	0x01CC, r1	; 0x8001cc <flag_z>
    2112:	10 92 cb 01 	sts	0x01CB, r1	; 0x8001cb <flag_z1+0x1>
    2116:	10 92 ca 01 	sts	0x01CA, r1	; 0x8001ca <flag_z1>
    211a:	0e 94 bd 1d 	call	0x3b7a	; 0x3b7a <msg_desativado>
    211e:	10 92 07 01 	sts	0x0107, r1	; 0x800107 <User+0x1>
    2122:	10 92 06 01 	sts	0x0106, r1	; 0x800106 <User>
    2126:	0e 94 61 21 	call	0x42c2	; 0x42c2 <RTC_Read_Hours>
    212a:	c8 2f       	mov	r28, r24
    212c:	0e 94 65 21 	call	0x42ca	; 0x42ca <RTC_Read_Day>
    2130:	6c 2f       	mov	r22, r28
    2132:	0e 94 4d 1b 	call	0x369a	; 0x369a <UARTP>
    2136:	91 e0       	ldi	r25, 0x01	; 1
    2138:	80 91 dc 01 	lds	r24, 0x01DC	; 0x8001dc <state>
    213c:	83 31       	cpi	r24, 0x13	; 19
    213e:	09 f0       	breq	.+2      	; 0x2142 <__stack+0x1843>
    2140:	90 e0       	ldi	r25, 0x00	; 0
    2142:	21 e0       	ldi	r18, 0x01	; 1
    2144:	40 91 be 01 	lds	r20, 0x01BE	; 0x8001be <cont_t>
    2148:	50 91 bf 01 	lds	r21, 0x01BF	; 0x8001bf <cont_t+0x1>
    214c:	42 30       	cpi	r20, 0x02	; 2
    214e:	51 05       	cpc	r21, r1
    2150:	0c f4       	brge	.+2      	; 0x2154 <__stack+0x1855>
    2152:	20 e0       	ldi	r18, 0x00	; 0
    2154:	81 e0       	ldi	r24, 0x01	; 1
    2156:	40 91 c4 01 	lds	r20, 0x01C4	; 0x8001c4 <flag_timeout>
    215a:	50 91 c5 01 	lds	r21, 0x01C5	; 0x8001c5 <flag_timeout+0x1>
    215e:	41 30       	cpi	r20, 0x01	; 1
    2160:	51 05       	cpc	r21, r1
    2162:	09 f0       	breq	.+2      	; 0x2166 <__stack+0x1867>
    2164:	80 e0       	ldi	r24, 0x00	; 0
    2166:	82 23       	and	r24, r18
    2168:	99 23       	and	r25, r25
    216a:	c9 f0       	breq	.+50     	; 0x219e <__stack+0x189f>
    216c:	88 23       	and	r24, r24
    216e:	b9 f0       	breq	.+46     	; 0x219e <__stack+0x189f>
    2170:	81 e0       	ldi	r24, 0x01	; 1
    2172:	80 93 dc 01 	sts	0x01DC, r24	; 0x8001dc <state>
    2176:	0e 94 6e 20 	call	0x40dc	; 0x40dc <set_timeout>
    217a:	10 92 bf 01 	sts	0x01BF, r1	; 0x8001bf <cont_t+0x1>
    217e:	10 92 be 01 	sts	0x01BE, r1	; 0x8001be <cont_t>
    2182:	0e 94 bd 1d 	call	0x3b7a	; 0x3b7a <msg_desativado>
    2186:	10 92 07 01 	sts	0x0107, r1	; 0x800107 <User+0x1>
    218a:	10 92 06 01 	sts	0x0106, r1	; 0x800106 <User>
    218e:	0e 94 61 21 	call	0x42c2	; 0x42c2 <RTC_Read_Hours>
    2192:	c8 2f       	mov	r28, r24
    2194:	0e 94 65 21 	call	0x42ca	; 0x42ca <RTC_Read_Day>
    2198:	6c 2f       	mov	r22, r28
    219a:	0e 94 4d 1b 	call	0x369a	; 0x369a <UARTP>
    219e:	91 e0       	ldi	r25, 0x01	; 1
    21a0:	80 91 dc 01 	lds	r24, 0x01DC	; 0x8001dc <state>
    21a4:	84 31       	cpi	r24, 0x14	; 20
    21a6:	09 f0       	breq	.+2      	; 0x21aa <__stack+0x18ab>
    21a8:	90 e0       	ldi	r25, 0x00	; 0
    21aa:	81 e0       	ldi	r24, 0x01	; 1
    21ac:	20 91 ba 01 	lds	r18, 0x01BA	; 0x8001ba <cont_s>
    21b0:	30 91 bb 01 	lds	r19, 0x01BB	; 0x8001bb <cont_s+0x1>
    21b4:	23 30       	cpi	r18, 0x03	; 3
    21b6:	31 05       	cpc	r19, r1
    21b8:	0c f4       	brge	.+2      	; 0x21bc <__stack+0x18bd>
    21ba:	80 e0       	ldi	r24, 0x00	; 0
    21bc:	89 23       	and	r24, r25
    21be:	b9 f0       	breq	.+46     	; 0x21ee <__stack+0x18ef>
    21c0:	81 e0       	ldi	r24, 0x01	; 1
    21c2:	80 93 dc 01 	sts	0x01DC, r24	; 0x8001dc <state>
    21c6:	0e 94 c8 1f 	call	0x3f90	; 0x3f90 <set_timeS>
    21ca:	10 92 bb 01 	sts	0x01BB, r1	; 0x8001bb <cont_s+0x1>
    21ce:	10 92 ba 01 	sts	0x01BA, r1	; 0x8001ba <cont_s>
    21d2:	0e 94 bd 1d 	call	0x3b7a	; 0x3b7a <msg_desativado>
    21d6:	10 92 07 01 	sts	0x0107, r1	; 0x800107 <User+0x1>
    21da:	10 92 06 01 	sts	0x0106, r1	; 0x800106 <User>
    21de:	0e 94 61 21 	call	0x42c2	; 0x42c2 <RTC_Read_Hours>
    21e2:	c8 2f       	mov	r28, r24
    21e4:	0e 94 65 21 	call	0x42ca	; 0x42ca <RTC_Read_Day>
    21e8:	6c 2f       	mov	r22, r28
    21ea:	0e 94 4d 1b 	call	0x369a	; 0x369a <UARTP>
    21ee:	91 e0       	ldi	r25, 0x01	; 1
    21f0:	80 91 dc 01 	lds	r24, 0x01DC	; 0x8001dc <state>
    21f4:	82 31       	cpi	r24, 0x12	; 18
    21f6:	09 f0       	breq	.+2      	; 0x21fa <__stack+0x18fb>
    21f8:	90 e0       	ldi	r25, 0x00	; 0
    21fa:	81 e0       	ldi	r24, 0x01	; 1
    21fc:	20 91 bc 01 	lds	r18, 0x01BC	; 0x8001bc <cont_aa>
    2200:	30 91 bd 01 	lds	r19, 0x01BD	; 0x8001bd <cont_aa+0x1>
    2204:	23 30       	cpi	r18, 0x03	; 3
    2206:	31 05       	cpc	r19, r1
    2208:	0c f4       	brge	.+2      	; 0x220c <__stack+0x190d>
    220a:	80 e0       	ldi	r24, 0x00	; 0
    220c:	89 23       	and	r24, r25
    220e:	b9 f0       	breq	.+46     	; 0x223e <__stack+0x193f>
    2210:	81 e0       	ldi	r24, 0x01	; 1
    2212:	80 93 dc 01 	sts	0x01DC, r24	; 0x8001dc <state>
    2216:	0e 94 a4 1f 	call	0x3f48	; 0x3f48 <set_timeA>
    221a:	10 92 bd 01 	sts	0x01BD, r1	; 0x8001bd <cont_aa+0x1>
    221e:	10 92 bc 01 	sts	0x01BC, r1	; 0x8001bc <cont_aa>
    2222:	0e 94 bd 1d 	call	0x3b7a	; 0x3b7a <msg_desativado>
    2226:	10 92 07 01 	sts	0x0107, r1	; 0x800107 <User+0x1>
    222a:	10 92 06 01 	sts	0x0106, r1	; 0x800106 <User>
    222e:	0e 94 61 21 	call	0x42c2	; 0x42c2 <RTC_Read_Hours>
    2232:	c8 2f       	mov	r28, r24
    2234:	0e 94 65 21 	call	0x42ca	; 0x42ca <RTC_Read_Day>
    2238:	6c 2f       	mov	r22, r28
    223a:	0e 94 4d 1b 	call	0x369a	; 0x369a <UARTP>
    223e:	ff 91       	pop	r31
    2240:	ef 91       	pop	r30
    2242:	cf 91       	pop	r28
    2244:	bf 91       	pop	r27
    2246:	af 91       	pop	r26
    2248:	9f 91       	pop	r25
    224a:	8f 91       	pop	r24
    224c:	7f 91       	pop	r23
    224e:	6f 91       	pop	r22
    2250:	5f 91       	pop	r21
    2252:	4f 91       	pop	r20
    2254:	3f 91       	pop	r19
    2256:	2f 91       	pop	r18
    2258:	0f 90       	pop	r0
    225a:	0f be       	out	0x3f, r0	; 63
    225c:	0f 90       	pop	r0
    225e:	1f 90       	pop	r1
    2260:	18 95       	reti

Disassembly of section .text.UARTD:

0000370e <UARTD>:
    370e:	cf 93       	push	r28
    3710:	df 93       	push	r29
    3712:	d8 2f       	mov	r29, r24
    3714:	c6 2f       	mov	r28, r22
    3716:	6a ea       	ldi	r22, 0xAA	; 170
    3718:	72 e0       	ldi	r23, 0x02	; 2
    371a:	80 e0       	ldi	r24, 0x00	; 0
    371c:	0e 94 50 20 	call	0x40a0	; 0x40a0 <EnviarStringUART>
    3720:	0e 94 69 21 	call	0x42d2	; 0x42d2 <ProntoTXUART>
    3724:	88 23       	and	r24, r24
    3726:	e1 f3       	breq	.-8      	; 0x3720 <UARTD+0x12>
    3728:	80 91 06 01 	lds	r24, 0x0106	; 0x800106 <User>
    372c:	0e 94 94 1a 	call	0x3528	; 0x3528 <EnviarDec1Byte>
    3730:	6f e4       	ldi	r22, 0x4F	; 79
    3732:	72 e0       	ldi	r23, 0x02	; 2
    3734:	80 e0       	ldi	r24, 0x00	; 0
    3736:	0e 94 50 20 	call	0x40a0	; 0x40a0 <EnviarStringUART>
    373a:	0e 94 69 21 	call	0x42d2	; 0x42d2 <ProntoTXUART>
    373e:	88 23       	and	r24, r24
    3740:	e1 f3       	breq	.-8      	; 0x373a <UARTD+0x2c>
    3742:	8d 2f       	mov	r24, r29
    3744:	0e 94 94 1a 	call	0x3528	; 0x3528 <EnviarDec1Byte>
    3748:	69 e5       	ldi	r22, 0x59	; 89
    374a:	72 e0       	ldi	r23, 0x02	; 2
    374c:	80 e0       	ldi	r24, 0x00	; 0
    374e:	0e 94 50 20 	call	0x40a0	; 0x40a0 <EnviarStringUART>
    3752:	0e 94 69 21 	call	0x42d2	; 0x42d2 <ProntoTXUART>
    3756:	88 23       	and	r24, r24
    3758:	e1 f3       	breq	.-8      	; 0x3752 <UARTD+0x44>
    375a:	8c 2f       	mov	r24, r28
    375c:	0e 94 94 1a 	call	0x3528	; 0x3528 <EnviarDec1Byte>
    3760:	66 e6       	ldi	r22, 0x66	; 102
    3762:	72 e0       	ldi	r23, 0x02	; 2
    3764:	80 e0       	ldi	r24, 0x00	; 0
    3766:	0e 94 50 20 	call	0x40a0	; 0x40a0 <EnviarStringUART>
    376a:	0e 94 69 21 	call	0x42d2	; 0x42d2 <ProntoTXUART>
    376e:	88 23       	and	r24, r24
    3770:	e1 f3       	breq	.-8      	; 0x376a <UARTD+0x5c>
    3772:	6b e6       	ldi	r22, 0x6B	; 107
    3774:	72 e0       	ldi	r23, 0x02	; 2
    3776:	80 e0       	ldi	r24, 0x00	; 0
    3778:	0e 94 50 20 	call	0x40a0	; 0x40a0 <EnviarStringUART>
    377c:	df 91       	pop	r29
    377e:	cf 91       	pop	r28
    3780:	08 95       	ret

Disassembly of section .text.verify_senhaD:

00002b90 <verify_senhaD>:
    2b90:	cf 93       	push	r28
    2b92:	10 92 d7 01 	sts	0x01D7, r1	; 0x8001d7 <cont_a+0x1>
    2b96:	10 92 d6 01 	sts	0x01D6, r1	; 0x8001d6 <cont_a>
    2b9a:	10 92 d5 01 	sts	0x01D5, r1	; 0x8001d5 <cont_b+0x1>
    2b9e:	10 92 d4 01 	sts	0x01D4, r1	; 0x8001d4 <cont_b>
    2ba2:	15 c0       	rjmp	.+42     	; 0x2bce <verify_senhaD+0x3e>
    2ba4:	fc 01       	movw	r30, r24
    2ba6:	ef 5c       	subi	r30, 0xCF	; 207
    2ba8:	fe 4f       	sbci	r31, 0xFE	; 254
    2baa:	30 81       	ld	r19, Z
    2bac:	23 13       	cpse	r18, r19
    2bae:	0a c0       	rjmp	.+20     	; 0x2bc4 <verify_senhaD+0x34>
    2bb0:	20 91 d4 01 	lds	r18, 0x01D4	; 0x8001d4 <cont_b>
    2bb4:	30 91 d5 01 	lds	r19, 0x01D5	; 0x8001d5 <cont_b+0x1>
    2bb8:	2f 5f       	subi	r18, 0xFF	; 255
    2bba:	3f 4f       	sbci	r19, 0xFF	; 255
    2bbc:	30 93 d5 01 	sts	0x01D5, r19	; 0x8001d5 <cont_b+0x1>
    2bc0:	20 93 d4 01 	sts	0x01D4, r18	; 0x8001d4 <cont_b>
    2bc4:	01 96       	adiw	r24, 0x01	; 1
    2bc6:	90 93 d7 01 	sts	0x01D7, r25	; 0x8001d7 <cont_a+0x1>
    2bca:	80 93 d6 01 	sts	0x01D6, r24	; 0x8001d6 <cont_a>
    2bce:	80 91 d6 01 	lds	r24, 0x01D6	; 0x8001d6 <cont_a>
    2bd2:	90 91 d7 01 	lds	r25, 0x01D7	; 0x8001d7 <cont_a+0x1>
    2bd6:	fc 01       	movw	r30, r24
    2bd8:	ef 54       	subi	r30, 0x4F	; 79
    2bda:	fe 4f       	sbci	r31, 0xFE	; 254
    2bdc:	20 81       	ld	r18, Z
    2bde:	21 11       	cpse	r18, r1
    2be0:	e1 cf       	rjmp	.-62     	; 0x2ba4 <verify_senhaD+0x14>
    2be2:	80 91 d4 01 	lds	r24, 0x01D4	; 0x8001d4 <cont_b>
    2be6:	90 91 d5 01 	lds	r25, 0x01D5	; 0x8001d5 <cont_b+0x1>
    2bea:	04 97       	sbiw	r24, 0x04	; 4
    2bec:	a1 f4       	brne	.+40     	; 0x2c16 <verify_senhaD+0x86>
    2bee:	81 e0       	ldi	r24, 0x01	; 1
    2bf0:	80 93 dc 01 	sts	0x01DC, r24	; 0x8001dc <state>
    2bf4:	10 92 07 01 	sts	0x0107, r1	; 0x800107 <User+0x1>
    2bf8:	10 92 06 01 	sts	0x0106, r1	; 0x800106 <User>
    2bfc:	0e 94 61 21 	call	0x42c2	; 0x42c2 <RTC_Read_Hours>
    2c00:	c8 2f       	mov	r28, r24
    2c02:	0e 94 65 21 	call	0x42ca	; 0x42ca <RTC_Read_Day>
    2c06:	6c 2f       	mov	r22, r28
    2c08:	0e 94 87 1b 	call	0x370e	; 0x370e <UARTD>
    2c0c:	0e 94 11 21 	call	0x4222	; 0x4222 <clear_Display>
    2c10:	0e 94 bd 1d 	call	0x3b7a	; 0x3b7a <msg_desativado>
    2c14:	d1 c0       	rjmp	.+418    	; 0x2db8 <verify_senhaD+0x228>
    2c16:	10 92 d7 01 	sts	0x01D7, r1	; 0x8001d7 <cont_a+0x1>
    2c1a:	10 92 d6 01 	sts	0x01D6, r1	; 0x8001d6 <cont_a>
    2c1e:	10 92 d5 01 	sts	0x01D5, r1	; 0x8001d5 <cont_b+0x1>
    2c22:	10 92 d4 01 	sts	0x01D4, r1	; 0x8001d4 <cont_b>
    2c26:	15 c0       	rjmp	.+42     	; 0x2c52 <verify_senhaD+0xc2>
    2c28:	fc 01       	movw	r30, r24
    2c2a:	ef 5c       	subi	r30, 0xCF	; 207
    2c2c:	fe 4f       	sbci	r31, 0xFE	; 254
    2c2e:	30 81       	ld	r19, Z
    2c30:	23 13       	cpse	r18, r19
    2c32:	0a c0       	rjmp	.+20     	; 0x2c48 <verify_senhaD+0xb8>
    2c34:	20 91 d4 01 	lds	r18, 0x01D4	; 0x8001d4 <cont_b>
    2c38:	30 91 d5 01 	lds	r19, 0x01D5	; 0x8001d5 <cont_b+0x1>
    2c3c:	2f 5f       	subi	r18, 0xFF	; 255
    2c3e:	3f 4f       	sbci	r19, 0xFF	; 255
    2c40:	30 93 d5 01 	sts	0x01D5, r19	; 0x8001d5 <cont_b+0x1>
    2c44:	20 93 d4 01 	sts	0x01D4, r18	; 0x8001d4 <cont_b>
    2c48:	01 96       	adiw	r24, 0x01	; 1
    2c4a:	90 93 d7 01 	sts	0x01D7, r25	; 0x8001d7 <cont_a+0x1>
    2c4e:	80 93 d6 01 	sts	0x01D6, r24	; 0x8001d6 <cont_a>
    2c52:	80 91 d6 01 	lds	r24, 0x01D6	; 0x8001d6 <cont_a>
    2c56:	90 91 d7 01 	lds	r25, 0x01D7	; 0x8001d7 <cont_a+0x1>
    2c5a:	fc 01       	movw	r30, r24
    2c5c:	e4 55       	subi	r30, 0x54	; 84
    2c5e:	fe 4f       	sbci	r31, 0xFE	; 254
    2c60:	20 81       	ld	r18, Z
    2c62:	21 11       	cpse	r18, r1
    2c64:	e1 cf       	rjmp	.-62     	; 0x2c28 <verify_senhaD+0x98>
    2c66:	80 91 d4 01 	lds	r24, 0x01D4	; 0x8001d4 <cont_b>
    2c6a:	90 91 d5 01 	lds	r25, 0x01D5	; 0x8001d5 <cont_b+0x1>
    2c6e:	04 97       	sbiw	r24, 0x04	; 4
    2c70:	b1 f4       	brne	.+44     	; 0x2c9e <verify_senhaD+0x10e>
    2c72:	81 e0       	ldi	r24, 0x01	; 1
    2c74:	80 93 dc 01 	sts	0x01DC, r24	; 0x8001dc <state>
    2c78:	81 e0       	ldi	r24, 0x01	; 1
    2c7a:	90 e0       	ldi	r25, 0x00	; 0
    2c7c:	90 93 07 01 	sts	0x0107, r25	; 0x800107 <User+0x1>
    2c80:	80 93 06 01 	sts	0x0106, r24	; 0x800106 <User>
    2c84:	0e 94 61 21 	call	0x42c2	; 0x42c2 <RTC_Read_Hours>
    2c88:	c8 2f       	mov	r28, r24
    2c8a:	0e 94 65 21 	call	0x42ca	; 0x42ca <RTC_Read_Day>
    2c8e:	6c 2f       	mov	r22, r28
    2c90:	0e 94 87 1b 	call	0x370e	; 0x370e <UARTD>
    2c94:	0e 94 11 21 	call	0x4222	; 0x4222 <clear_Display>
    2c98:	0e 94 bd 1d 	call	0x3b7a	; 0x3b7a <msg_desativado>
    2c9c:	8d c0       	rjmp	.+282    	; 0x2db8 <verify_senhaD+0x228>
    2c9e:	10 92 d7 01 	sts	0x01D7, r1	; 0x8001d7 <cont_a+0x1>
    2ca2:	10 92 d6 01 	sts	0x01D6, r1	; 0x8001d6 <cont_a>
    2ca6:	10 92 d5 01 	sts	0x01D5, r1	; 0x8001d5 <cont_b+0x1>
    2caa:	10 92 d4 01 	sts	0x01D4, r1	; 0x8001d4 <cont_b>
    2cae:	15 c0       	rjmp	.+42     	; 0x2cda <verify_senhaD+0x14a>
    2cb0:	fc 01       	movw	r30, r24
    2cb2:	ef 5c       	subi	r30, 0xCF	; 207
    2cb4:	fe 4f       	sbci	r31, 0xFE	; 254
    2cb6:	30 81       	ld	r19, Z
    2cb8:	23 13       	cpse	r18, r19
    2cba:	0a c0       	rjmp	.+20     	; 0x2cd0 <verify_senhaD+0x140>
    2cbc:	20 91 d4 01 	lds	r18, 0x01D4	; 0x8001d4 <cont_b>
    2cc0:	30 91 d5 01 	lds	r19, 0x01D5	; 0x8001d5 <cont_b+0x1>
    2cc4:	2f 5f       	subi	r18, 0xFF	; 255
    2cc6:	3f 4f       	sbci	r19, 0xFF	; 255
    2cc8:	30 93 d5 01 	sts	0x01D5, r19	; 0x8001d5 <cont_b+0x1>
    2ccc:	20 93 d4 01 	sts	0x01D4, r18	; 0x8001d4 <cont_b>
    2cd0:	01 96       	adiw	r24, 0x01	; 1
    2cd2:	90 93 d7 01 	sts	0x01D7, r25	; 0x8001d7 <cont_a+0x1>
    2cd6:	80 93 d6 01 	sts	0x01D6, r24	; 0x8001d6 <cont_a>
    2cda:	80 91 d6 01 	lds	r24, 0x01D6	; 0x8001d6 <cont_a>
    2cde:	90 91 d7 01 	lds	r25, 0x01D7	; 0x8001d7 <cont_a+0x1>
    2ce2:	fc 01       	movw	r30, r24
    2ce4:	e9 55       	subi	r30, 0x59	; 89
    2ce6:	fe 4f       	sbci	r31, 0xFE	; 254
    2ce8:	20 81       	ld	r18, Z
    2cea:	21 11       	cpse	r18, r1
    2cec:	e1 cf       	rjmp	.-62     	; 0x2cb0 <verify_senhaD+0x120>
    2cee:	80 91 d4 01 	lds	r24, 0x01D4	; 0x8001d4 <cont_b>
    2cf2:	90 91 d5 01 	lds	r25, 0x01D5	; 0x8001d5 <cont_b+0x1>
    2cf6:	04 97       	sbiw	r24, 0x04	; 4
    2cf8:	b1 f4       	brne	.+44     	; 0x2d26 <verify_senhaD+0x196>
    2cfa:	81 e0       	ldi	r24, 0x01	; 1
    2cfc:	80 93 dc 01 	sts	0x01DC, r24	; 0x8001dc <state>
    2d00:	82 e0       	ldi	r24, 0x02	; 2
    2d02:	90 e0       	ldi	r25, 0x00	; 0
    2d04:	90 93 07 01 	sts	0x0107, r25	; 0x800107 <User+0x1>
    2d08:	80 93 06 01 	sts	0x0106, r24	; 0x800106 <User>
    2d0c:	0e 94 61 21 	call	0x42c2	; 0x42c2 <RTC_Read_Hours>
    2d10:	c8 2f       	mov	r28, r24
    2d12:	0e 94 65 21 	call	0x42ca	; 0x42ca <RTC_Read_Day>
    2d16:	6c 2f       	mov	r22, r28
    2d18:	0e 94 87 1b 	call	0x370e	; 0x370e <UARTD>
    2d1c:	0e 94 11 21 	call	0x4222	; 0x4222 <clear_Display>
    2d20:	0e 94 bd 1d 	call	0x3b7a	; 0x3b7a <msg_desativado>
    2d24:	49 c0       	rjmp	.+146    	; 0x2db8 <verify_senhaD+0x228>
    2d26:	10 92 d7 01 	sts	0x01D7, r1	; 0x8001d7 <cont_a+0x1>
    2d2a:	10 92 d6 01 	sts	0x01D6, r1	; 0x8001d6 <cont_a>
    2d2e:	10 92 d5 01 	sts	0x01D5, r1	; 0x8001d5 <cont_b+0x1>
    2d32:	10 92 d4 01 	sts	0x01D4, r1	; 0x8001d4 <cont_b>
    2d36:	15 c0       	rjmp	.+42     	; 0x2d62 <verify_senhaD+0x1d2>
    2d38:	fc 01       	movw	r30, r24
    2d3a:	ef 5c       	subi	r30, 0xCF	; 207
    2d3c:	fe 4f       	sbci	r31, 0xFE	; 254
    2d3e:	30 81       	ld	r19, Z
    2d40:	23 13       	cpse	r18, r19
    2d42:	0a c0       	rjmp	.+20     	; 0x2d58 <verify_senhaD+0x1c8>
    2d44:	20 91 d4 01 	lds	r18, 0x01D4	; 0x8001d4 <cont_b>
    2d48:	30 91 d5 01 	lds	r19, 0x01D5	; 0x8001d5 <cont_b+0x1>
    2d4c:	2f 5f       	subi	r18, 0xFF	; 255
    2d4e:	3f 4f       	sbci	r19, 0xFF	; 255
    2d50:	30 93 d5 01 	sts	0x01D5, r19	; 0x8001d5 <cont_b+0x1>
    2d54:	20 93 d4 01 	sts	0x01D4, r18	; 0x8001d4 <cont_b>
    2d58:	01 96       	adiw	r24, 0x01	; 1
    2d5a:	90 93 d7 01 	sts	0x01D7, r25	; 0x8001d7 <cont_a+0x1>
    2d5e:	80 93 d6 01 	sts	0x01D6, r24	; 0x8001d6 <cont_a>
    2d62:	80 91 d6 01 	lds	r24, 0x01D6	; 0x8001d6 <cont_a>
    2d66:	90 91 d7 01 	lds	r25, 0x01D7	; 0x8001d7 <cont_a+0x1>
    2d6a:	fc 01       	movw	r30, r24
    2d6c:	ee 55       	subi	r30, 0x5E	; 94
    2d6e:	fe 4f       	sbci	r31, 0xFE	; 254
    2d70:	20 81       	ld	r18, Z
    2d72:	21 11       	cpse	r18, r1
    2d74:	e1 cf       	rjmp	.-62     	; 0x2d38 <verify_senhaD+0x1a8>
    2d76:	80 91 d4 01 	lds	r24, 0x01D4	; 0x8001d4 <cont_b>
    2d7a:	90 91 d5 01 	lds	r25, 0x01D5	; 0x8001d5 <cont_b+0x1>
    2d7e:	04 97       	sbiw	r24, 0x04	; 4
    2d80:	b1 f4       	brne	.+44     	; 0x2dae <verify_senhaD+0x21e>
    2d82:	81 e0       	ldi	r24, 0x01	; 1
    2d84:	80 93 dc 01 	sts	0x01DC, r24	; 0x8001dc <state>
    2d88:	83 e0       	ldi	r24, 0x03	; 3
    2d8a:	90 e0       	ldi	r25, 0x00	; 0
    2d8c:	90 93 07 01 	sts	0x0107, r25	; 0x800107 <User+0x1>
    2d90:	80 93 06 01 	sts	0x0106, r24	; 0x800106 <User>
    2d94:	0e 94 61 21 	call	0x42c2	; 0x42c2 <RTC_Read_Hours>
    2d98:	c8 2f       	mov	r28, r24
    2d9a:	0e 94 65 21 	call	0x42ca	; 0x42ca <RTC_Read_Day>
    2d9e:	6c 2f       	mov	r22, r28
    2da0:	0e 94 87 1b 	call	0x370e	; 0x370e <UARTD>
    2da4:	0e 94 11 21 	call	0x4222	; 0x4222 <clear_Display>
    2da8:	0e 94 bd 1d 	call	0x3b7a	; 0x3b7a <msg_desativado>
    2dac:	05 c0       	rjmp	.+10     	; 0x2db8 <verify_senhaD+0x228>
    2dae:	85 e0       	ldi	r24, 0x05	; 5
    2db0:	80 93 dc 01 	sts	0x01DC, r24	; 0x8001dc <state>
    2db4:	0e 94 11 21 	call	0x4222	; 0x4222 <clear_Display>
    2db8:	cf 91       	pop	r28
    2dba:	08 95       	ret

Disassembly of section .text.main:

000032c0 <main>:
    32c0:	8f e3       	ldi	r24, 0x3F	; 63
    32c2:	87 b9       	out	0x07, r24	; 7
    32c4:	8e ef       	ldi	r24, 0xFE	; 254
    32c6:	84 b9       	out	0x04, r24	; 4
    32c8:	87 e0       	ldi	r24, 0x07	; 7
    32ca:	8a b9       	out	0x0a, r24	; 10
    32cc:	80 ef       	ldi	r24, 0xF0	; 240
    32ce:	8b b9       	out	0x0b, r24	; 11
    32d0:	0e 94 b4 20 	call	0x4168	; 0x4168 <SetupTimer1>
    32d4:	0e 94 42 21 	call	0x4284	; 0x4284 <SetupTimer0>
    32d8:	0e 94 4b 21 	call	0x4296	; 0x4296 <init_int1>
    32dc:	0e 94 bc 19 	call	0x3378	; 0x3378 <inicializa_display>
    32e0:	0e 94 2f 21 	call	0x425e	; 0x425e <SPI_Master_Setup>
    32e4:	0e 94 d6 1a 	call	0x35ac	; 0x35ac <RTC_Config>
    32e8:	20 e0       	ldi	r18, 0x00	; 0
    32ea:	32 e1       	ldi	r19, 0x12	; 18
    32ec:	4a e7       	ldi	r20, 0x7A	; 122
    32ee:	50 e0       	ldi	r21, 0x00	; 0
    32f0:	60 e8       	ldi	r22, 0x80	; 128
    32f2:	75 e2       	ldi	r23, 0x25	; 37
    32f4:	80 e0       	ldi	r24, 0x00	; 0
    32f6:	90 e0       	ldi	r25, 0x00	; 0
    32f8:	0e 94 0f 1f 	call	0x3e1e	; 0x3e1e <IniciarUART>
    32fc:	78 94       	sei
    32fe:	0e 94 5c 1f 	call	0x3eb8	; 0x3eb8 <shiftOut>
    3302:	e0 91 dc 01 	lds	r30, 0x01DC	; 0x8001dc <state>
    3306:	8e 2f       	mov	r24, r30
    3308:	90 e0       	ldi	r25, 0x00	; 0
    330a:	8f 30       	cpi	r24, 0x0F	; 15
    330c:	91 05       	cpc	r25, r1
    330e:	b8 f7       	brcc	.-18     	; 0x32fe <main+0x3e>
    3310:	fc 01       	movw	r30, r24
    3312:	ec 5c       	subi	r30, 0xCC	; 204
    3314:	ff 4f       	sbci	r31, 0xFF	; 255
    3316:	0c 94 57 21 	jmp	0x42ae	; 0x42ae <__tablejump2__>
    331a:	0e 94 25 21 	call	0x424a	; 0x424a <StopTimer1>
    331e:	8c e0       	ldi	r24, 0x0C	; 12
    3320:	90 e0       	ldi	r25, 0x00	; 0
    3322:	90 93 12 01 	sts	0x0112, r25	; 0x800112 <timeout+0x1>
    3326:	80 93 11 01 	sts	0x0111, r24	; 0x800111 <timeout>
    332a:	85 e0       	ldi	r24, 0x05	; 5
    332c:	90 e0       	ldi	r25, 0x00	; 0
    332e:	90 93 0b 01 	sts	0x010B, r25	; 0x80010b <t_sirene+0x1>
    3332:	80 93 0a 01 	sts	0x010A, r24	; 0x80010a <t_sirene>
    3336:	90 93 03 01 	sts	0x0103, r25	; 0x800103 <t_ativacao+0x1>
    333a:	80 93 02 01 	sts	0x0102, r24	; 0x800102 <t_ativacao>
    333e:	81 e0       	ldi	r24, 0x01	; 1
    3340:	80 93 dc 01 	sts	0x01DC, r24	; 0x8001dc <state>
    3344:	0e 94 bd 1d 	call	0x3b7a	; 0x3b7a <msg_desativado>
    3348:	da cf       	rjmp	.-76     	; 0x32fe <main+0x3e>
    334a:	10 92 de 01 	sts	0x01DE, r1	; 0x8001de <varEscritaSerial>
    334e:	d7 cf       	rjmp	.-82     	; 0x32fe <main+0x3e>
    3350:	0e 94 52 1a 	call	0x34a4	; 0x34a4 <shiftIn>
    3354:	0e 94 31 11 	call	0x2262	; 0x2262 <activate_sirene>
    3358:	d2 cf       	rjmp	.-92     	; 0x32fe <main+0x3e>
    335a:	0e 94 19 1e 	call	0x3c32	; 0x3c32 <msg_programacao>
    335e:	cf cf       	rjmp	.-98     	; 0x32fe <main+0x3e>
    3360:	0e 94 8c 1d 	call	0x3b18	; 0x3b18 <msg_panico>
    3364:	cc cf       	rjmp	.-104    	; 0x32fe <main+0x3e>
    3366:	0e 94 0b 1a 	call	0x3416	; 0x3416 <verify_senhaM>
    336a:	c9 cf       	rjmp	.-110    	; 0x32fe <main+0x3e>
    336c:	0e 94 de 16 	call	0x2dbc	; 0x2dbc <verify_senhaA>
    3370:	c6 cf       	rjmp	.-116    	; 0x32fe <main+0x3e>
    3372:	0e 94 c8 15 	call	0x2b90	; 0x2b90 <verify_senhaD>
    3376:	c3 cf       	rjmp	.-122    	; 0x32fe <main+0x3e>

Disassembly of section .text.libgcc.div:

0000401c <__udivmodsi4>:
    401c:	a1 e2       	ldi	r26, 0x21	; 33
    401e:	1a 2e       	mov	r1, r26
    4020:	aa 1b       	sub	r26, r26
    4022:	bb 1b       	sub	r27, r27
    4024:	fd 01       	movw	r30, r26
    4026:	0d c0       	rjmp	.+26     	; 0x4042 <__udivmodsi4_ep>

00004028 <__udivmodsi4_loop>:
    4028:	aa 1f       	adc	r26, r26
    402a:	bb 1f       	adc	r27, r27
    402c:	ee 1f       	adc	r30, r30
    402e:	ff 1f       	adc	r31, r31
    4030:	a2 17       	cp	r26, r18
    4032:	b3 07       	cpc	r27, r19
    4034:	e4 07       	cpc	r30, r20
    4036:	f5 07       	cpc	r31, r21
    4038:	20 f0       	brcs	.+8      	; 0x4042 <__udivmodsi4_ep>
    403a:	a2 1b       	sub	r26, r18
    403c:	b3 0b       	sbc	r27, r19
    403e:	e4 0b       	sbc	r30, r20
    4040:	f5 0b       	sbc	r31, r21

00004042 <__udivmodsi4_ep>:
    4042:	66 1f       	adc	r22, r22
    4044:	77 1f       	adc	r23, r23
    4046:	88 1f       	adc	r24, r24
    4048:	99 1f       	adc	r25, r25
    404a:	1a 94       	dec	r1
    404c:	69 f7       	brne	.-38     	; 0x4028 <__udivmodsi4_loop>
    404e:	60 95       	com	r22
    4050:	70 95       	com	r23
    4052:	80 95       	com	r24
    4054:	90 95       	com	r25
    4056:	9b 01       	movw	r18, r22
    4058:	ac 01       	movw	r20, r24
    405a:	bd 01       	movw	r22, r26
    405c:	cf 01       	movw	r24, r30
    405e:	08 95       	ret

Disassembly of section .text.libgcc:

000042ae <__tablejump2__>:
    42ae:	ee 0f       	add	r30, r30
    42b0:	ff 1f       	adc	r31, r31
    42b2:	05 90       	lpm	r0, Z+
    42b4:	f4 91       	lpm	r31, Z
    42b6:	e0 2d       	mov	r30, r0
    42b8:	09 94       	ijmp

Disassembly of section .text.libgcc.mul:

000041f8 <__muluhisi3>:
    41f8:	0e 94 d5 20 	call	0x41aa	; 0x41aa <__umulhisi3>
    41fc:	a5 9f       	mul	r26, r21
    41fe:	90 0d       	add	r25, r0
    4200:	b4 9f       	mul	r27, r20
    4202:	90 0d       	add	r25, r0
    4204:	a4 9f       	mul	r26, r20
    4206:	80 0d       	add	r24, r0
    4208:	91 1d       	adc	r25, r1
    420a:	11 24       	eor	r1, r1
    420c:	08 95       	ret

Disassembly of section .text.libgcc:

000041c8 <__movmemx_qi>:
    41c8:	99 27       	eor	r25, r25

000041ca <__movmemx_hi>:
    41ca:	77 fd       	sbrc	r23, 7
    41cc:	05 c0       	rjmp	.+10     	; 0x41d8 <__movmemx_hi+0xe>
    41ce:	05 90       	lpm	r0, Z+
    41d0:	0d 92       	st	X+, r0
    41d2:	01 97       	sbiw	r24, 0x01	; 1
    41d4:	e1 f7       	brne	.-8      	; 0x41ce <__movmemx_hi+0x4>
    41d6:	08 95       	ret
    41d8:	01 90       	ld	r0, Z+
    41da:	0d 92       	st	X+, r0
    41dc:	01 97       	sbiw	r24, 0x01	; 1
    41de:	e1 f7       	brne	.-8      	; 0x41d8 <__movmemx_hi+0xe>
    41e0:	08 95       	ret

Disassembly of section .text.libgcc.mul:

000041aa <__umulhisi3>:
    41aa:	a2 9f       	mul	r26, r18
    41ac:	b0 01       	movw	r22, r0
    41ae:	b3 9f       	mul	r27, r19
    41b0:	c0 01       	movw	r24, r0
    41b2:	a3 9f       	mul	r26, r19
    41b4:	70 0d       	add	r23, r0
    41b6:	81 1d       	adc	r24, r1
    41b8:	11 24       	eor	r1, r1
    41ba:	91 1d       	adc	r25, r1
    41bc:	b2 9f       	mul	r27, r18
    41be:	70 0d       	add	r23, r0
    41c0:	81 1d       	adc	r24, r1
    41c2:	11 24       	eor	r1, r1
    41c4:	91 1d       	adc	r25, r1
    41c6:	08 95       	ret
