
LCD_matrix.elf:     file format elf32-avr

Sections:
Idx Name          Size      VMA       LMA       File off  Algn
  0 .data         00000000  00800100  00800100  00003ea2  2**0
                  ALLOC, LOAD, DATA
  1 .text         000000f8  00000000  00000000  000000f4  2**1
                  CONTENTS, ALLOC, LOAD, READONLY, CODE
  2 .bss          00000034  00800100  00800100  00003ea2  2**0
                  ALLOC
  3 .comment      0000002f  00000000  00000000  00003ea2  2**0
                  CONTENTS, READONLY
  4 .debug_aranges 000001d8  00000000  00000000  00003ed1  2**0
                  CONTENTS, READONLY, DEBUGGING
  5 .debug_info   00002fd3  00000000  00000000  000040a9  2**0
                  CONTENTS, READONLY, DEBUGGING
  6 .debug_abbrev 00000802  00000000  00000000  0000707c  2**0
                  CONTENTS, READONLY, DEBUGGING
  7 .debug_line   00001fee  00000000  00000000  0000787e  2**0
                  CONTENTS, READONLY, DEBUGGING
  8 .debug_frame  0000054c  00000000  00000000  0000986c  2**2
                  CONTENTS, READONLY, DEBUGGING
  9 .debug_str    00000218  00000000  00000000  00009db8  2**0
                  CONTENTS, READONLY, DEBUGGING
 10 .debug_loc    00000b53  00000000  00000000  00009fd0  2**0
                  CONTENTS, READONLY, DEBUGGING
 11 .debug_ranges 000001c8  00000000  00000000  0000ab23  2**0
                  CONTENTS, READONLY, DEBUGGING
 12 .text         00000004  00003d30  00003d30  00003e24  2**1
                  CONTENTS, ALLOC, LOAD, READONLY, CODE
 13 .note.gnu.avr.deviceinfo 00000040  00000000  00000000  0000acec  2**2
                  CONTENTS, READONLY, DEBUGGING
 14 .text.SetBit  00000012  00003cda  00003cda  00003dce  2**1
                  CONTENTS, ALLOC, LOAD, READONLY, CODE
 15 .text.ClearBit 00000014  00003c8a  00003c8a  00003d7e  2**1
                  CONTENTS, ALLOC, LOAD, READONLY, CODE
 16 .text.shiftIn 00000084  000031fa  000031fa  000032ee  2**1
                  CONTENTS, ALLOC, LOAD, READONLY, CODE
 17 .text.shiftOut 00000048  000039e4  000039e4  00003ad8  2**1
                  CONTENTS, ALLOC, LOAD, READONLY, CODE
 18 .text.init_int1 0000000c  00003cfe  00003cfe  00003df2  2**1
                  CONTENTS, ALLOC, LOAD, READONLY, CODE
 19 .text.delay_ms 00000054  00003808  00003808  000038fc  2**1
                  CONTENTS, ALLOC, LOAD, READONLY, CODE
 20 .text.delay_ns 00000048  00003a2c  00003a2c  00003b20  2**1
                  CONTENTS, ALLOC, LOAD, READONLY, CODE
 21 .text.send_instruction_lcd 00000040  00003b48  00003b48  00003c3c  2**1
                  CONTENTS, ALLOC, LOAD, READONLY, CODE
 22 .text.clear_Display 00000014  00003c9e  00003c9e  00003d92  2**1
                  CONTENTS, ALLOC, LOAD, READONLY, CODE
 23 .text.send_instruction_lcd_nibble 00000020  00003c06  00003c06  00003cfa  2**1
                  CONTENTS, ALLOC, LOAD, READONLY, CODE
 24 .text.inicializa_display 0000009e  000030c0  000030c0  000031b4  2**1
                  CONTENTS, ALLOC, LOAD, READONLY, CODE
 25 .text.send_word_lcd 0000004c  00003998  00003998  00003a8c  2**1
                  CONTENTS, ALLOC, LOAD, READONLY, CODE
 26 .text.set_DDRAM_ADDR 0000004e  000038ae  000038ae  000039a2  2**1
                  CONTENTS, ALLOC, LOAD, READONLY, CODE
 27 .text.envia_frase 0000002c  00003bb8  00003bb8  00003cac  2**1
                  CONTENTS, ALLOC, LOAD, READONLY, CODE
 28 .progmemx.data 00000146  000000f8  000000f8  000001ec  2**0
                  CONTENTS, ALLOC, LOAD, READONLY, PROGMEMX
 29 .text.msg_inserir_senha 0000004e  000038fc  000038fc  000039f0  2**1
                  CONTENTS, ALLOC, LOAD, READONLY, CODE
 30 .text.msg_desativado 0000005c  000036f4  000036f4  000037e8  2**1
                  CONTENTS, ALLOC, LOAD, READONLY, CODE
 31 .text.msg_ativado 0000005c  00003750  00003750  00003844  2**1
                  CONTENTS, ALLOC, LOAD, READONLY, CODE
 32 .text.msg_programacao 0000005c  000037ac  000037ac  000038a0  2**1
                  CONTENTS, ALLOC, LOAD, READONLY, CODE
 33 .text.msg_altera_senha 0000004e  0000394a  0000394a  00003a3e  2**1
                  CONTENTS, ALLOC, LOAD, READONLY, CODE
 34 .text.msg_h_sensores 00000066  000032fc  000032fc  000033f0  2**1
                  CONTENTS, ALLOC, LOAD, READONLY, CODE
 35 .text.msg_d_sensores 00000066  00003362  00003362  00003456  2**1
                  CONTENTS, ALLOC, LOAD, READONLY, CODE
 36 .text.msg_panico 00000062  00003692  00003692  00003786  2**1
                  CONTENTS, ALLOC, LOAD, READONLY, CODE
 37 .text.msg_restauracao 00000044  00003b04  00003b04  00003bf8  2**1
                  CONTENTS, ALLOC, LOAD, READONLY, CODE
 38 .text.msg_h_zona 00000066  000033c8  000033c8  000034bc  2**1
                  CONTENTS, ALLOC, LOAD, READONLY, CODE
 39 .text.msg_d_zona 00000066  0000342e  0000342e  00003522  2**1
                  CONTENTS, ALLOC, LOAD, READONLY, CODE
 40 .text.msg_h_ass 00000066  00003494  00003494  00003588  2**1
                  CONTENTS, ALLOC, LOAD, READONLY, CODE
 41 .text.msg_d_ass 00000066  000034fa  000034fa  000035ee  2**1
                  CONTENTS, ALLOC, LOAD, READONLY, CODE
 42 .text.msg_ajusteTout 00000066  00003560  00003560  00003654  2**1
                  CONTENTS, ALLOC, LOAD, READONLY, CODE
 43 .text.msg_time_sirene 00000066  000035c6  000035c6  000036ba  2**1
                  CONTENTS, ALLOC, LOAD, READONLY, CODE
 44 .text.msg_temp_ativ 00000066  0000362c  0000362c  00003720  2**1
                  CONTENTS, ALLOC, LOAD, READONLY, CODE
 45 .text.insert_senha 00000014  00003cb2  00003cb2  00003da6  2**1
                  CONTENTS, ALLOC, LOAD, READONLY, CODE
 46 .text.senha_arm 00000052  0000385c  0000385c  00003950  2**1
                  CONTENTS, ALLOC, LOAD, READONLY, CODE
 47 .text.verify_senhaM 0000007e  0000327e  0000327e  00003372  2**1
                  CONTENTS, ALLOC, LOAD, READONLY, CODE
 48 .text.verify_senhaD 000001bc  00002a48  00002a48  00002b3c  2**1
                  CONTENTS, ALLOC, LOAD, READONLY, CODE
 49 .text.hab_sensor 00000146  00002dac  00002dac  00002ea0  2**1
                  CONTENTS, ALLOC, LOAD, READONLY, CODE
 50 .text.hab_zonas 000000cc  00002ff4  00002ff4  000030e8  2**1
                  CONTENTS, ALLOC, LOAD, READONLY, CODE
 51 .text.assSensorZona 0000043e  0000260a  0000260a  000026fe  2**1
                  CONTENTS, ALLOC, LOAD, READONLY, CODE
 52 .text.set_timeout 00000030  00003b88  00003b88  00003c7c  2**1
                  CONTENTS, ALLOC, LOAD, READONLY, CODE
 53 .text.set_timeA 00000048  00003a74  00003a74  00003b68  2**1
                  CONTENTS, ALLOC, LOAD, READONLY, CODE
 54 .text.set_timeS 00000048  00003abc  00003abc  00003bb0  2**1
                  CONTENTS, ALLOC, LOAD, READONLY, CODE
 55 .text.SetupTimer1 00000022  00003be4  00003be4  00003cd8  2**1
                  CONTENTS, ALLOC, LOAD, READONLY, CODE
 56 .text.StartTimer1 0000000c  00003d0a  00003d0a  00003dfe  2**1
                  CONTENTS, ALLOC, LOAD, READONLY, CODE
 57 .text.verify_senhaA 000001a8  00002c04  00002c04  00002cf8  2**1
                  CONTENTS, ALLOC, LOAD, READONLY, CODE
 58 .text.StopTimer1 00000014  00003cc6  00003cc6  00003dba  2**1
                  CONTENTS, ALLOC, LOAD, READONLY, CODE
 59 .text.SetupTimer0 00000012  00003cec  00003cec  00003de0  2**1
                  CONTENTS, ALLOC, LOAD, READONLY, CODE
 60 .text.ZerarTemps 00000016  00003c5e  00003c5e  00003d52  2**1
                  CONTENTS, ALLOC, LOAD, READONLY, CODE
 61 .text.StartSirene 00000008  00003d22  00003d22  00003e16  2**1
                  CONTENTS, ALLOC, LOAD, READONLY, CODE
 62 .text.activate_sirene 000004f0  0000211a  0000211a  0000220e  2**1
                  CONTENTS, ALLOC, LOAD, READONLY, CODE
 63 .text.main    0000009c  0000315e  0000315e  00003252  2**1
                  CONTENTS, ALLOC, LOAD, READONLY, CODE
 64 .text.StopSirene 00000006  00003d2a  00003d2a  00003e1e  2**1
                  CONTENTS, ALLOC, LOAD, READONLY, CODE
 65 .text.__vector_2 00001edc  0000023e  0000023e  00000332  2**1
                  CONTENTS, ALLOC, LOAD, READONLY, CODE
 66 .text.__vector_11 00000102  00002ef2  00002ef2  00002fe6  2**1
                  CONTENTS, ALLOC, LOAD, READONLY, CODE
 67 .bss.state    00000001  008001da  008001da  00003ea2  2**0
                  ALLOC
 68 .data.sensor7 00000006  00800170  00003d70  00003e64  2**0
                  CONTENTS, ALLOC, LOAD, DATA
 69 .data.sensor6 00000006  00800176  00003d76  00003e6a  2**0
                  CONTENTS, ALLOC, LOAD, DATA
 70 .data.sensor5 00000006  0080017c  00003d7c  00003e70  2**0
                  CONTENTS, ALLOC, LOAD, DATA
 71 .data.sensor4 00000006  00800182  00003d82  00003e76  2**0
                  CONTENTS, ALLOC, LOAD, DATA
 72 .data.sensor3 00000006  00800188  00003d88  00003e7c  2**0
                  CONTENTS, ALLOC, LOAD, DATA
 73 .data.sensor2 00000006  0080018e  00003d8e  00003e82  2**0
                  CONTENTS, ALLOC, LOAD, DATA
 74 .data.sensor1 00000006  00800194  00003d94  00003e88  2**0
                  CONTENTS, ALLOC, LOAD, DATA
 75 .bss.sensor0  00000006  0080019a  0080019a  00003ea2  2**0
                  ALLOC
 76 .data.zona3   00000014  00800134  00003d34  00003e28  2**0
                  CONTENTS, ALLOC, LOAD, DATA
 77 .data.zona2   00000014  00800148  00003d48  00003e3c  2**0
                  CONTENTS, ALLOC, LOAD, DATA
 78 .data.zona1   00000014  0080015c  00003d5c  00003e50  2**0
                  CONTENTS, ALLOC, LOAD, DATA
 79 .bss.cont_s   00000002  008001b8  008001b8  00003ea2  2**0
                  ALLOC
 80 .bss.cont_aa  00000002  008001ba  008001ba  00003ea2  2**0
                  ALLOC
 81 .bss.cont_t   00000002  008001bc  008001bc  00003ea2  2**0
                  ALLOC
 82 .bss.flag_tat 00000002  008001be  008001be  00003ea2  2**0
                  ALLOC
 83 .bss.flag_tsirene 00000002  008001c0  008001c0  00003ea2  2**0
                  ALLOC
 84 .bss.flag_timeout 00000002  008001c2  008001c2  00003ea2  2**0
                  ALLOC
 85 .bss.cont_ativacao 00000002  008001c4  008001c4  00003ea2  2**0
                  ALLOC
 86 .bss.cont_sirene 00000002  008001c6  008001c6  00003ea2  2**0
                  ALLOC
 87 .bss.cont_timeout 00000001  008001db  008001db  00003ea2  2**0
                  ALLOC
 88 .bss.flag_z1  00000002  008001c8  008001c8  00003ea2  2**0
                  ALLOC
 89 .bss.flag_z   00000002  008001ca  008001ca  00003ea2  2**0
                  ALLOC
 90 .bss.flag_p   00000002  008001cc  008001cc  00003ea2  2**0
                  ALLOC
 91 .bss.flag_D_sensor 00000002  008001ce  008001ce  00003ea2  2**0
                  ALLOC
 92 .bss.flag_sensor 00000002  008001d0  008001d0  00003ea2  2**0
                  ALLOC
 93 .bss.cont_b   00000002  008001d2  008001d2  00003ea2  2**0
                  ALLOC
 94 .bss.cont_a   00000002  008001d4  008001d4  00003ea2  2**0
                  ALLOC
 95 .bss.count_senha 00000002  008001d6  008001d6  00003ea2  2**0
                  ALLOC
 96 .bss.flag_a_senha 00000002  008001d8  008001d8  00003ea2  2**0
                  ALLOC
 97 .data.senha3  00000005  008001a0  00003d9a  00003e8e  2**0
                  CONTENTS, ALLOC, LOAD, DATA
 98 .data.senha2  00000005  008001a5  00003d9f  00003e93  2**0
                  CONTENTS, ALLOC, LOAD, DATA
 99 .data.senha1  00000005  008001aa  00003da4  00003e98  2**0
                  CONTENTS, ALLOC, LOAD, DATA
100 .data.mestre  00000005  008001af  00003da9  00003e9d  2**0
                  CONTENTS, ALLOC, LOAD, DATA
101 .bss.x        00000004  008001b4  008001b4  00003ea2  2**0
                  ALLOC
102 .bss.varEscritaSerial 00000001  008001dc  008001dc  00003ea2  2**0
                  ALLOC
103 .bss.varLeituraSerial 00000001  008001dd  008001dd  00003ea2  2**0
                  ALLOC
104 .text.libgcc  0000000c  00003d16  00003d16  00003e0a  2**1
                  CONTENTS, ALLOC, LOAD, READONLY, CODE
105 .text.libgcc.mul 00000016  00003c74  00003c74  00003d68  2**1
                  CONTENTS, ALLOC, LOAD, READONLY, CODE
106 .text.libgcc  0000001a  00003c44  00003c44  00003d38  2**1
                  CONTENTS, ALLOC, LOAD, READONLY, CODE
107 .text.libgcc.mul 0000001e  00003c26  00003c26  00003d1a  2**1
                  CONTENTS, ALLOC, LOAD, READONLY, CODE

Disassembly of section .text:

00000000 <__vectors>:
   0:	0c 94 52 00 	jmp	0xa4	; 0xa4 <__ctors_end>
   4:	0c 94 98 1e 	jmp	0x3d30	; 0x3d30 <__bad_interrupt>
   8:	0c 94 1f 01 	jmp	0x23e	; 0x23e <__vector_2>
   c:	0c 94 98 1e 	jmp	0x3d30	; 0x3d30 <__bad_interrupt>
  10:	0c 94 98 1e 	jmp	0x3d30	; 0x3d30 <__bad_interrupt>
  14:	0c 94 98 1e 	jmp	0x3d30	; 0x3d30 <__bad_interrupt>
  18:	0c 94 98 1e 	jmp	0x3d30	; 0x3d30 <__bad_interrupt>
  1c:	0c 94 98 1e 	jmp	0x3d30	; 0x3d30 <__bad_interrupt>
  20:	0c 94 98 1e 	jmp	0x3d30	; 0x3d30 <__bad_interrupt>
  24:	0c 94 98 1e 	jmp	0x3d30	; 0x3d30 <__bad_interrupt>
  28:	0c 94 98 1e 	jmp	0x3d30	; 0x3d30 <__bad_interrupt>
  2c:	0c 94 79 17 	jmp	0x2ef2	; 0x2ef2 <__vector_11>
  30:	0c 94 98 1e 	jmp	0x3d30	; 0x3d30 <__bad_interrupt>
  34:	0c 94 98 1e 	jmp	0x3d30	; 0x3d30 <__bad_interrupt>
  38:	0c 94 98 1e 	jmp	0x3d30	; 0x3d30 <__bad_interrupt>
  3c:	0c 94 98 1e 	jmp	0x3d30	; 0x3d30 <__bad_interrupt>
  40:	0c 94 98 1e 	jmp	0x3d30	; 0x3d30 <__bad_interrupt>
  44:	0c 94 98 1e 	jmp	0x3d30	; 0x3d30 <__bad_interrupt>
  48:	0c 94 98 1e 	jmp	0x3d30	; 0x3d30 <__bad_interrupt>
  4c:	0c 94 98 1e 	jmp	0x3d30	; 0x3d30 <__bad_interrupt>
  50:	0c 94 98 1e 	jmp	0x3d30	; 0x3d30 <__bad_interrupt>
  54:	0c 94 98 1e 	jmp	0x3d30	; 0x3d30 <__bad_interrupt>
  58:	0c 94 98 1e 	jmp	0x3d30	; 0x3d30 <__bad_interrupt>
  5c:	0c 94 98 1e 	jmp	0x3d30	; 0x3d30 <__bad_interrupt>
  60:	0c 94 98 1e 	jmp	0x3d30	; 0x3d30 <__bad_interrupt>
  64:	0c 94 98 1e 	jmp	0x3d30	; 0x3d30 <__bad_interrupt>
  68:	ce 18       	sub	r12, r14
  6a:	e6 18       	sub	r14, r6
  6c:	c0 18       	sub	r12, r0
  6e:	c0 18       	sub	r12, r0
  70:	c0 18       	sub	r12, r0
  72:	e9 18       	sub	r14, r9
  74:	f1 18       	sub	r15, r1
  76:	ee 18       	sub	r14, r14
  78:	c0 18       	sub	r12, r0
  7a:	c0 18       	sub	r12, r0
  7c:	c0 18       	sub	r12, r0
  7e:	c0 18       	sub	r12, r0
  80:	f4 18       	sub	r15, r4
  82:	f7 18       	sub	r15, r7
  84:	fa 18       	sub	r15, r10

00000086 <.dinit>:
  86:	01 00       	.word	0x0001	; ????
  88:	01 34       	cpi	r16, 0x41	; 65
  8a:	80 01       	movw	r16, r0
  8c:	34 01       	movw	r6, r8
  8e:	9a 00       	.word	0x009a	; ????
  90:	3d 34       	cpi	r19, 0x4D	; 77
  92:	01 9a       	sbi	0x00, 1	; 0
  94:	01 a0       	ldd	r0, Z+33	; 0x21
  96:	80 01       	movw	r16, r0
  98:	a0 01       	movw	r20, r0
  9a:	b4 00       	.word	0x00b4	; ????
  9c:	3d 9a       	sbi	0x07, 5	; 7
  9e:	01 b4       	in	r0, 0x21	; 33
  a0:	01 de       	rcall	.-1022   	; 0xfffffca4 <__eeprom_end+0xff7efca4>
  a2:	80 00       	.word	0x0080	; ????

000000a4 <__ctors_end>:
  a4:	11 24       	eor	r1, r1
  a6:	1f be       	out	0x3f, r1	; 63
  a8:	cf ef       	ldi	r28, 0xFF	; 255
  aa:	d8 e0       	ldi	r29, 0x08	; 8
  ac:	de bf       	out	0x3e, r29	; 62
  ae:	cd bf       	out	0x3d, r28	; 61

000000b0 <__do_copy_data>:
  b0:	e6 e8       	ldi	r30, 0x86	; 134
  b2:	f0 e0       	ldi	r31, 0x00	; 0
  b4:	40 e0       	ldi	r20, 0x00	; 0
  b6:	17 c0       	rjmp	.+46     	; 0xe6 <__do_clear_bss+0x8>
  b8:	b5 91       	lpm	r27, Z+
  ba:	a5 91       	lpm	r26, Z+
  bc:	35 91       	lpm	r19, Z+
  be:	25 91       	lpm	r18, Z+
  c0:	05 91       	lpm	r16, Z+
  c2:	07 fd       	sbrc	r16, 7
  c4:	0c c0       	rjmp	.+24     	; 0xde <__do_clear_bss>
  c6:	95 91       	lpm	r25, Z+
  c8:	85 91       	lpm	r24, Z+
  ca:	ef 01       	movw	r28, r30
  cc:	f9 2f       	mov	r31, r25
  ce:	e8 2f       	mov	r30, r24
  d0:	05 90       	lpm	r0, Z+
  d2:	0d 92       	st	X+, r0
  d4:	a2 17       	cp	r26, r18
  d6:	b3 07       	cpc	r27, r19
  d8:	d9 f7       	brne	.-10     	; 0xd0 <__do_copy_data+0x20>
  da:	fe 01       	movw	r30, r28
  dc:	04 c0       	rjmp	.+8      	; 0xe6 <__do_clear_bss+0x8>

000000de <__do_clear_bss>:
  de:	1d 92       	st	X+, r1
  e0:	a2 17       	cp	r26, r18
  e2:	b3 07       	cpc	r27, r19
  e4:	e1 f7       	brne	.-8      	; 0xde <__do_clear_bss>
  e6:	e3 3a       	cpi	r30, 0xA3	; 163
  e8:	f4 07       	cpc	r31, r20
  ea:	31 f7       	brne	.-52     	; 0xb8 <__do_copy_data+0x8>
  ec:	0e 94 af 18 	call	0x315e	; 0x315e <main>
  f0:	0c 94 7a 00 	jmp	0xf4	; 0xf4 <_exit>

000000f4 <_exit>:
  f4:	f8 94       	cli

000000f6 <__stop_program>:
  f6:	ff cf       	rjmp	.-2      	; 0xf6 <__stop_program>

Disassembly of section .text:

00003d30 <__bad_interrupt>:
    3d30:	0c 94 00 00 	jmp	0	; 0x0 <__TEXT_REGION_ORIGIN__>

Disassembly of section .text.SetBit:

00003cda <SetBit>:
}

void StopTimer0()
{
	TCCR0B &= ~((1 << CS02) | (1 << CS01) | (1 << CS00)); // sem prescaler, o timer para
	TCNT0 = 0; // zerado para não atrapalhar a próxima contagem
    3cda:	21 e0       	ldi	r18, 0x01	; 1
    3cdc:	30 e0       	ldi	r19, 0x00	; 0
    3cde:	02 c0       	rjmp	.+4      	; 0x3ce4 <SetBit+0xa>
    3ce0:	22 0f       	add	r18, r18
    3ce2:	33 1f       	adc	r19, r19
    3ce4:	6a 95       	dec	r22
    3ce6:	e2 f7       	brpl	.-8      	; 0x3ce0 <SetBit+0x6>
    3ce8:	82 2b       	or	r24, r18
    3cea:	08 95       	ret

Disassembly of section .text.ClearBit:

00003c8a <ClearBit>:
    3c8a:	21 e0       	ldi	r18, 0x01	; 1
    3c8c:	30 e0       	ldi	r19, 0x00	; 0
    3c8e:	02 c0       	rjmp	.+4      	; 0x3c94 <ClearBit+0xa>
    3c90:	22 0f       	add	r18, r18
    3c92:	33 1f       	adc	r19, r19
    3c94:	6a 95       	dec	r22
    3c96:	e2 f7       	brpl	.-8      	; 0x3c90 <ClearBit+0x6>
    3c98:	20 95       	com	r18
    3c9a:	82 23       	and	r24, r18
    3c9c:	08 95       	ret

Disassembly of section .text.shiftIn:

000031fa <shiftIn>:
    31fa:	cf 93       	push	r28
    31fc:	85 b1       	in	r24, 0x05	; 5
    31fe:	80 64       	ori	r24, 0x40	; 64
    3200:	85 b9       	out	0x05, r24	; 5
    3202:	85 b1       	in	r24, 0x05	; 5
    3204:	82 60       	ori	r24, 0x02	; 2
    3206:	85 b9       	out	0x05, r24	; 5
    3208:	85 b1       	in	r24, 0x05	; 5
    320a:	8d 7f       	andi	r24, 0xFD	; 253
    320c:	85 b9       	out	0x05, r24	; 5
    320e:	85 b1       	in	r24, 0x05	; 5
    3210:	8f 7b       	andi	r24, 0xBF	; 191
    3212:	85 b9       	out	0x05, r24	; 5
    3214:	c0 e0       	ldi	r28, 0x00	; 0
    3216:	2f c0       	rjmp	.+94     	; 0x3276 <shiftIn+0x7c>
    3218:	18 9b       	sbis	0x03, 0	; 3
    321a:	15 c0       	rjmp	.+42     	; 0x3246 <shiftIn+0x4c>
    321c:	80 91 dd 01 	lds	r24, 0x01DD	; 0x8001dd <varLeituraSerial>
    3220:	21 e0       	ldi	r18, 0x01	; 1
    3222:	30 e0       	ldi	r19, 0x00	; 0
    3224:	0c 2e       	mov	r0, r28
    3226:	02 c0       	rjmp	.+4      	; 0x322c <shiftIn+0x32>
    3228:	22 0f       	add	r18, r18
    322a:	33 1f       	adc	r19, r19
    322c:	0a 94       	dec	r0
    322e:	e2 f7       	brpl	.-8      	; 0x3228 <shiftIn+0x2e>
    3230:	20 95       	com	r18
    3232:	30 95       	com	r19
    3234:	28 2b       	or	r18, r24
    3236:	23 2b       	or	r18, r19
    3238:	b9 f0       	breq	.+46     	; 0x3268 <shiftIn+0x6e>
    323a:	6c 2f       	mov	r22, r28
    323c:	0e 94 6d 1e 	call	0x3cda	; 0x3cda <SetBit>
    3240:	80 93 dd 01 	sts	0x01DD, r24	; 0x8001dd <varLeituraSerial>
    3244:	11 c0       	rjmp	.+34     	; 0x3268 <shiftIn+0x6e>
    3246:	80 91 dd 01 	lds	r24, 0x01DD	; 0x8001dd <varLeituraSerial>
    324a:	28 2f       	mov	r18, r24
    324c:	30 e0       	ldi	r19, 0x00	; 0
    324e:	0c 2e       	mov	r0, r28
    3250:	02 c0       	rjmp	.+4      	; 0x3256 <shiftIn+0x5c>
    3252:	35 95       	asr	r19
    3254:	27 95       	ror	r18
    3256:	0a 94       	dec	r0
    3258:	e2 f7       	brpl	.-8      	; 0x3252 <shiftIn+0x58>
    325a:	20 ff       	sbrs	r18, 0
    325c:	05 c0       	rjmp	.+10     	; 0x3268 <shiftIn+0x6e>
    325e:	6c 2f       	mov	r22, r28
    3260:	0e 94 45 1e 	call	0x3c8a	; 0x3c8a <ClearBit>
    3264:	80 93 dd 01 	sts	0x01DD, r24	; 0x8001dd <varLeituraSerial>
    3268:	85 b1       	in	r24, 0x05	; 5
    326a:	82 60       	ori	r24, 0x02	; 2
    326c:	85 b9       	out	0x05, r24	; 5
    326e:	85 b1       	in	r24, 0x05	; 5
    3270:	8d 7f       	andi	r24, 0xFD	; 253
    3272:	85 b9       	out	0x05, r24	; 5
    3274:	cf 5f       	subi	r28, 0xFF	; 255
    3276:	c8 30       	cpi	r28, 0x08	; 8
    3278:	78 f2       	brcs	.-98     	; 0x3218 <shiftIn+0x1e>
    327a:	cf 91       	pop	r28
    327c:	08 95       	ret

Disassembly of section .text.shiftOut:

000039e4 <shiftOut>:
    39e4:	20 e0       	ldi	r18, 0x00	; 0
    39e6:	19 c0       	rjmp	.+50     	; 0x3a1a <shiftOut+0x36>
    39e8:	80 91 dc 01 	lds	r24, 0x01DC	; 0x8001dc <varEscritaSerial>
    39ec:	90 e0       	ldi	r25, 0x00	; 0
    39ee:	02 2e       	mov	r0, r18
    39f0:	02 c0       	rjmp	.+4      	; 0x39f6 <shiftOut+0x12>
    39f2:	95 95       	asr	r25
    39f4:	87 95       	ror	r24
    39f6:	0a 94       	dec	r0
    39f8:	e2 f7       	brpl	.-8      	; 0x39f2 <shiftOut+0xe>
    39fa:	80 ff       	sbrs	r24, 0
    39fc:	04 c0       	rjmp	.+8      	; 0x3a06 <shiftOut+0x22>
    39fe:	8b b1       	in	r24, 0x0b	; 11
    3a00:	84 60       	ori	r24, 0x04	; 4
    3a02:	8b b9       	out	0x0b, r24	; 11
    3a04:	03 c0       	rjmp	.+6      	; 0x3a0c <shiftOut+0x28>
    3a06:	8b b1       	in	r24, 0x0b	; 11
    3a08:	8b 7f       	andi	r24, 0xFB	; 251
    3a0a:	8b b9       	out	0x0b, r24	; 11
    3a0c:	85 b1       	in	r24, 0x05	; 5
    3a0e:	82 60       	ori	r24, 0x02	; 2
    3a10:	85 b9       	out	0x05, r24	; 5
    3a12:	85 b1       	in	r24, 0x05	; 5
    3a14:	8d 7f       	andi	r24, 0xFD	; 253
    3a16:	85 b9       	out	0x05, r24	; 5
    3a18:	2f 5f       	subi	r18, 0xFF	; 255
    3a1a:	28 30       	cpi	r18, 0x08	; 8
    3a1c:	28 f3       	brcs	.-54     	; 0x39e8 <shiftOut+0x4>
    3a1e:	83 b1       	in	r24, 0x03	; 3
    3a20:	8f 77       	andi	r24, 0x7F	; 127
    3a22:	83 b9       	out	0x03, r24	; 3
    3a24:	83 b1       	in	r24, 0x03	; 3
    3a26:	80 68       	ori	r24, 0x80	; 128
    3a28:	83 b9       	out	0x03, r24	; 3
    3a2a:	08 95       	ret

Disassembly of section .text.init_int1:

00003cfe <init_int1>:

// INTERRUPÇÃO EXTERNA //

void init_int1(){
	
	EICRA = (1<<ISC11) | (1<<ISC10);
    3cfe:	8c e0       	ldi	r24, 0x0C	; 12
    3d00:	80 93 69 00 	sts	0x0069, r24	; 0x800069 <__TEXT_REGION_LENGTH__+0x7f8069>
	EIMSK = (1<<INT1);
    3d04:	82 e0       	ldi	r24, 0x02	; 2
    3d06:	8d bb       	out	0x1d, r24	; 29
    3d08:	08 95       	ret

Disassembly of section .text.delay_ms:

00003808 <delay_ms>:
}

void StopTimer0()
{
	TCCR0B &= ~((1 << CS02) | (1 << CS01) | (1 << CS00)); // sem prescaler, o timer para
	TCNT0 = 0; // zerado para não atrapalhar a próxima contagem
    3808:	9b 01       	movw	r18, r22
    380a:	ac 01       	movw	r20, r24
    380c:	10 92 b4 01 	sts	0x01B4, r1	; 0x8001b4 <x>
    3810:	10 92 b5 01 	sts	0x01B5, r1	; 0x8001b5 <x+0x1>
    3814:	10 92 b6 01 	sts	0x01B6, r1	; 0x8001b6 <x+0x2>
    3818:	10 92 b7 01 	sts	0x01B7, r1	; 0x8001b7 <x+0x3>
    381c:	a8 ee       	ldi	r26, 0xE8	; 232
    381e:	b3 e0       	ldi	r27, 0x03	; 3
    3820:	0e 94 3a 1e 	call	0x3c74	; 0x3c74 <__muluhisi3>
    3824:	ab 01       	movw	r20, r22
    3826:	bc 01       	movw	r22, r24
    3828:	0b c0       	rjmp	.+22     	; 0x3840 <delay_ms+0x38>
    382a:	01 96       	adiw	r24, 0x01	; 1
    382c:	a1 1d       	adc	r26, r1
    382e:	b1 1d       	adc	r27, r1
    3830:	80 93 b4 01 	sts	0x01B4, r24	; 0x8001b4 <x>
    3834:	90 93 b5 01 	sts	0x01B5, r25	; 0x8001b5 <x+0x1>
    3838:	a0 93 b6 01 	sts	0x01B6, r26	; 0x8001b6 <x+0x2>
    383c:	b0 93 b7 01 	sts	0x01B7, r27	; 0x8001b7 <x+0x3>
    3840:	80 91 b4 01 	lds	r24, 0x01B4	; 0x8001b4 <x>
    3844:	90 91 b5 01 	lds	r25, 0x01B5	; 0x8001b5 <x+0x1>
    3848:	a0 91 b6 01 	lds	r26, 0x01B6	; 0x8001b6 <x+0x2>
    384c:	b0 91 b7 01 	lds	r27, 0x01B7	; 0x8001b7 <x+0x3>
    3850:	48 17       	cp	r20, r24
    3852:	59 07       	cpc	r21, r25
    3854:	6a 07       	cpc	r22, r26
    3856:	7b 07       	cpc	r23, r27
    3858:	44 f7       	brge	.-48     	; 0x382a <delay_ms+0x22>
    385a:	08 95       	ret

Disassembly of section .text.delay_ns:

00003a2c <delay_ns>:
    3a2c:	ab 01       	movw	r20, r22
    3a2e:	bc 01       	movw	r22, r24
    3a30:	10 92 b4 01 	sts	0x01B4, r1	; 0x8001b4 <x>
    3a34:	10 92 b5 01 	sts	0x01B5, r1	; 0x8001b5 <x+0x1>
    3a38:	10 92 b6 01 	sts	0x01B6, r1	; 0x8001b6 <x+0x2>
    3a3c:	10 92 b7 01 	sts	0x01B7, r1	; 0x8001b7 <x+0x3>
    3a40:	0b c0       	rjmp	.+22     	; 0x3a58 <delay_ns+0x2c>
    3a42:	01 96       	adiw	r24, 0x01	; 1
    3a44:	a1 1d       	adc	r26, r1
    3a46:	b1 1d       	adc	r27, r1
    3a48:	80 93 b4 01 	sts	0x01B4, r24	; 0x8001b4 <x>
    3a4c:	90 93 b5 01 	sts	0x01B5, r25	; 0x8001b5 <x+0x1>
    3a50:	a0 93 b6 01 	sts	0x01B6, r26	; 0x8001b6 <x+0x2>
    3a54:	b0 93 b7 01 	sts	0x01B7, r27	; 0x8001b7 <x+0x3>
    3a58:	80 91 b4 01 	lds	r24, 0x01B4	; 0x8001b4 <x>
    3a5c:	90 91 b5 01 	lds	r25, 0x01B5	; 0x8001b5 <x+0x1>
    3a60:	a0 91 b6 01 	lds	r26, 0x01B6	; 0x8001b6 <x+0x2>
    3a64:	b0 91 b7 01 	lds	r27, 0x01B7	; 0x8001b7 <x+0x3>
    3a68:	48 17       	cp	r20, r24
    3a6a:	59 07       	cpc	r21, r25
    3a6c:	6a 07       	cpc	r22, r26
    3a6e:	7b 07       	cpc	r23, r27
    3a70:	44 f7       	brge	.-48     	; 0x3a42 <delay_ns+0x16>
    3a72:	08 95       	ret

Disassembly of section .text.send_instruction_lcd:

00003b48 <send_instruction_lcd>:
    3b48:	98 b1       	in	r25, 0x08	; 8
    3b4a:	90 7c       	andi	r25, 0xC0	; 192
    3b4c:	98 b9       	out	0x08, r25	; 8
    3b4e:	98 b1       	in	r25, 0x08	; 8
    3b50:	9f 7e       	andi	r25, 0xEF	; 239
    3b52:	98 b9       	out	0x08, r25	; 8
    3b54:	98 b1       	in	r25, 0x08	; 8
    3b56:	90 62       	ori	r25, 0x20	; 32
    3b58:	98 b9       	out	0x08, r25	; 8
    3b5a:	98 b1       	in	r25, 0x08	; 8
    3b5c:	28 2f       	mov	r18, r24
    3b5e:	22 95       	swap	r18
    3b60:	2f 70       	andi	r18, 0x0F	; 15
    3b62:	92 2b       	or	r25, r18
    3b64:	98 b9       	out	0x08, r25	; 8
    3b66:	98 b1       	in	r25, 0x08	; 8
    3b68:	9f 7d       	andi	r25, 0xDF	; 223
    3b6a:	98 b9       	out	0x08, r25	; 8
    3b6c:	98 b1       	in	r25, 0x08	; 8
    3b6e:	90 7c       	andi	r25, 0xC0	; 192
    3b70:	98 b9       	out	0x08, r25	; 8
    3b72:	98 b1       	in	r25, 0x08	; 8
    3b74:	90 62       	ori	r25, 0x20	; 32
    3b76:	98 b9       	out	0x08, r25	; 8
    3b78:	98 b1       	in	r25, 0x08	; 8
    3b7a:	8f 70       	andi	r24, 0x0F	; 15
    3b7c:	89 2b       	or	r24, r25
    3b7e:	88 b9       	out	0x08, r24	; 8
    3b80:	88 b1       	in	r24, 0x08	; 8
    3b82:	8f 7d       	andi	r24, 0xDF	; 223
    3b84:	88 b9       	out	0x08, r24	; 8
    3b86:	08 95       	ret

Disassembly of section .text.clear_Display:

00003c9e <clear_Display>:
    3c9e:	81 e0       	ldi	r24, 0x01	; 1
    3ca0:	0e 94 a4 1d 	call	0x3b48	; 0x3b48 <send_instruction_lcd>
    3ca4:	6f e0       	ldi	r22, 0x0F	; 15
    3ca6:	70 e0       	ldi	r23, 0x00	; 0
    3ca8:	80 e0       	ldi	r24, 0x00	; 0
    3caa:	90 e0       	ldi	r25, 0x00	; 0
    3cac:	0e 94 04 1c 	call	0x3808	; 0x3808 <delay_ms>
    3cb0:	08 95       	ret

Disassembly of section .text.send_instruction_lcd_nibble:

00003c06 <send_instruction_lcd_nibble>:
    3c06:	98 b1       	in	r25, 0x08	; 8
    3c08:	90 7c       	andi	r25, 0xC0	; 192
    3c0a:	98 b9       	out	0x08, r25	; 8
    3c0c:	98 b1       	in	r25, 0x08	; 8
    3c0e:	9f 7e       	andi	r25, 0xEF	; 239
    3c10:	98 b9       	out	0x08, r25	; 8
    3c12:	98 b1       	in	r25, 0x08	; 8
    3c14:	90 62       	ori	r25, 0x20	; 32
    3c16:	98 b9       	out	0x08, r25	; 8
    3c18:	98 b1       	in	r25, 0x08	; 8
    3c1a:	89 2b       	or	r24, r25
    3c1c:	88 b9       	out	0x08, r24	; 8
    3c1e:	88 b1       	in	r24, 0x08	; 8
    3c20:	8f 7d       	andi	r24, 0xDF	; 223
    3c22:	88 b9       	out	0x08, r24	; 8
    3c24:	08 95       	ret

Disassembly of section .text.inicializa_display:

000030c0 <inicializa_display>:
    30c0:	6f e0       	ldi	r22, 0x0F	; 15
    30c2:	70 e0       	ldi	r23, 0x00	; 0
    30c4:	80 e0       	ldi	r24, 0x00	; 0
    30c6:	90 e0       	ldi	r25, 0x00	; 0
    30c8:	0e 94 04 1c 	call	0x3808	; 0x3808 <delay_ms>
    30cc:	83 e0       	ldi	r24, 0x03	; 3
    30ce:	0e 94 03 1e 	call	0x3c06	; 0x3c06 <send_instruction_lcd_nibble>
    30d2:	65 e0       	ldi	r22, 0x05	; 5
    30d4:	70 e0       	ldi	r23, 0x00	; 0
    30d6:	80 e0       	ldi	r24, 0x00	; 0
    30d8:	90 e0       	ldi	r25, 0x00	; 0
    30da:	0e 94 04 1c 	call	0x3808	; 0x3808 <delay_ms>
    30de:	83 e0       	ldi	r24, 0x03	; 3
    30e0:	0e 94 03 1e 	call	0x3c06	; 0x3c06 <send_instruction_lcd_nibble>
    30e4:	64 e6       	ldi	r22, 0x64	; 100
    30e6:	70 e0       	ldi	r23, 0x00	; 0
    30e8:	80 e0       	ldi	r24, 0x00	; 0
    30ea:	90 e0       	ldi	r25, 0x00	; 0
    30ec:	0e 94 16 1d 	call	0x3a2c	; 0x3a2c <delay_ns>
    30f0:	83 e0       	ldi	r24, 0x03	; 3
    30f2:	0e 94 03 1e 	call	0x3c06	; 0x3c06 <send_instruction_lcd_nibble>
    30f6:	68 e2       	ldi	r22, 0x28	; 40
    30f8:	70 e0       	ldi	r23, 0x00	; 0
    30fa:	80 e0       	ldi	r24, 0x00	; 0
    30fc:	90 e0       	ldi	r25, 0x00	; 0
    30fe:	0e 94 16 1d 	call	0x3a2c	; 0x3a2c <delay_ns>
    3102:	82 e0       	ldi	r24, 0x02	; 2
    3104:	0e 94 03 1e 	call	0x3c06	; 0x3c06 <send_instruction_lcd_nibble>
    3108:	68 e2       	ldi	r22, 0x28	; 40
    310a:	70 e0       	ldi	r23, 0x00	; 0
    310c:	80 e0       	ldi	r24, 0x00	; 0
    310e:	90 e0       	ldi	r25, 0x00	; 0
    3110:	0e 94 16 1d 	call	0x3a2c	; 0x3a2c <delay_ns>
    3114:	88 e2       	ldi	r24, 0x28	; 40
    3116:	0e 94 a4 1d 	call	0x3b48	; 0x3b48 <send_instruction_lcd>
    311a:	68 e2       	ldi	r22, 0x28	; 40
    311c:	70 e0       	ldi	r23, 0x00	; 0
    311e:	80 e0       	ldi	r24, 0x00	; 0
    3120:	90 e0       	ldi	r25, 0x00	; 0
    3122:	0e 94 16 1d 	call	0x3a2c	; 0x3a2c <delay_ns>
    3126:	81 e0       	ldi	r24, 0x01	; 1
    3128:	0e 94 a4 1d 	call	0x3b48	; 0x3b48 <send_instruction_lcd>
    312c:	62 e0       	ldi	r22, 0x02	; 2
    312e:	70 e0       	ldi	r23, 0x00	; 0
    3130:	80 e0       	ldi	r24, 0x00	; 0
    3132:	90 e0       	ldi	r25, 0x00	; 0
    3134:	0e 94 04 1c 	call	0x3808	; 0x3808 <delay_ms>
    3138:	86 e0       	ldi	r24, 0x06	; 6
    313a:	0e 94 a4 1d 	call	0x3b48	; 0x3b48 <send_instruction_lcd>
    313e:	68 e2       	ldi	r22, 0x28	; 40
    3140:	70 e0       	ldi	r23, 0x00	; 0
    3142:	80 e0       	ldi	r24, 0x00	; 0
    3144:	90 e0       	ldi	r25, 0x00	; 0
    3146:	0e 94 16 1d 	call	0x3a2c	; 0x3a2c <delay_ns>
    314a:	8c e0       	ldi	r24, 0x0C	; 12
    314c:	0e 94 a4 1d 	call	0x3b48	; 0x3b48 <send_instruction_lcd>
    3150:	68 e2       	ldi	r22, 0x28	; 40
    3152:	70 e0       	ldi	r23, 0x00	; 0
    3154:	80 e0       	ldi	r24, 0x00	; 0
    3156:	90 e0       	ldi	r25, 0x00	; 0
    3158:	0e 94 16 1d 	call	0x3a2c	; 0x3a2c <delay_ns>
    315c:	08 95       	ret

Disassembly of section .text.send_word_lcd:

00003998 <send_word_lcd>:
    3998:	98 b1       	in	r25, 0x08	; 8
    399a:	90 7f       	andi	r25, 0xF0	; 240
    399c:	98 b9       	out	0x08, r25	; 8
    399e:	98 b1       	in	r25, 0x08	; 8
    39a0:	90 61       	ori	r25, 0x10	; 16
    39a2:	98 b9       	out	0x08, r25	; 8
    39a4:	98 b1       	in	r25, 0x08	; 8
    39a6:	90 62       	ori	r25, 0x20	; 32
    39a8:	98 b9       	out	0x08, r25	; 8
    39aa:	98 b1       	in	r25, 0x08	; 8
    39ac:	28 2f       	mov	r18, r24
    39ae:	22 95       	swap	r18
    39b0:	2f 70       	andi	r18, 0x0F	; 15
    39b2:	92 2b       	or	r25, r18
    39b4:	98 b9       	out	0x08, r25	; 8
    39b6:	98 b1       	in	r25, 0x08	; 8
    39b8:	9f 7d       	andi	r25, 0xDF	; 223
    39ba:	98 b9       	out	0x08, r25	; 8
    39bc:	98 b1       	in	r25, 0x08	; 8
    39be:	90 7f       	andi	r25, 0xF0	; 240
    39c0:	98 b9       	out	0x08, r25	; 8
    39c2:	98 b1       	in	r25, 0x08	; 8
    39c4:	90 62       	ori	r25, 0x20	; 32
    39c6:	98 b9       	out	0x08, r25	; 8
    39c8:	98 b1       	in	r25, 0x08	; 8
    39ca:	8f 70       	andi	r24, 0x0F	; 15
    39cc:	89 2b       	or	r24, r25
    39ce:	88 b9       	out	0x08, r24	; 8
    39d0:	88 b1       	in	r24, 0x08	; 8
    39d2:	8f 7d       	andi	r24, 0xDF	; 223
    39d4:	88 b9       	out	0x08, r24	; 8
    39d6:	6b e2       	ldi	r22, 0x2B	; 43
    39d8:	70 e0       	ldi	r23, 0x00	; 0
    39da:	80 e0       	ldi	r24, 0x00	; 0
    39dc:	90 e0       	ldi	r25, 0x00	; 0
    39de:	0e 94 16 1d 	call	0x3a2c	; 0x3a2c <delay_ns>
    39e2:	08 95       	ret

Disassembly of section .text.set_DDRAM_ADDR:

000038ae <set_DDRAM_ADDR>:
    38ae:	80 68       	ori	r24, 0x80	; 128
    38b0:	98 b1       	in	r25, 0x08	; 8
    38b2:	90 7c       	andi	r25, 0xC0	; 192
    38b4:	98 b9       	out	0x08, r25	; 8
    38b6:	98 b1       	in	r25, 0x08	; 8
    38b8:	9f 7e       	andi	r25, 0xEF	; 239
    38ba:	98 b9       	out	0x08, r25	; 8
    38bc:	98 b1       	in	r25, 0x08	; 8
    38be:	90 62       	ori	r25, 0x20	; 32
    38c0:	98 b9       	out	0x08, r25	; 8
    38c2:	98 b1       	in	r25, 0x08	; 8
    38c4:	28 2f       	mov	r18, r24
    38c6:	22 95       	swap	r18
    38c8:	2f 70       	andi	r18, 0x0F	; 15
    38ca:	92 2b       	or	r25, r18
    38cc:	98 b9       	out	0x08, r25	; 8
    38ce:	98 b1       	in	r25, 0x08	; 8
    38d0:	9f 7d       	andi	r25, 0xDF	; 223
    38d2:	98 b9       	out	0x08, r25	; 8
    38d4:	98 b1       	in	r25, 0x08	; 8
    38d6:	90 7c       	andi	r25, 0xC0	; 192
    38d8:	98 b9       	out	0x08, r25	; 8
    38da:	98 b1       	in	r25, 0x08	; 8
    38dc:	90 62       	ori	r25, 0x20	; 32
    38de:	98 b9       	out	0x08, r25	; 8
    38e0:	98 b1       	in	r25, 0x08	; 8
    38e2:	8f 70       	andi	r24, 0x0F	; 15
    38e4:	89 2b       	or	r24, r25
    38e6:	88 b9       	out	0x08, r24	; 8
    38e8:	88 b1       	in	r24, 0x08	; 8
    38ea:	8f 7d       	andi	r24, 0xDF	; 223
    38ec:	88 b9       	out	0x08, r24	; 8
    38ee:	6b e2       	ldi	r22, 0x2B	; 43
    38f0:	70 e0       	ldi	r23, 0x00	; 0
    38f2:	80 e0       	ldi	r24, 0x00	; 0
    38f4:	90 e0       	ldi	r25, 0x00	; 0
    38f6:	0e 94 16 1d 	call	0x3a2c	; 0x3a2c <delay_ns>
    38fa:	08 95       	ret

Disassembly of section .text.envia_frase:

00003bb8 <envia_frase>:
    3bb8:	0f 93       	push	r16
    3bba:	1f 93       	push	r17
    3bbc:	cf 93       	push	r28
    3bbe:	8c 01       	movw	r16, r24
    3bc0:	86 2f       	mov	r24, r22
    3bc2:	0e 94 57 1c 	call	0x38ae	; 0x38ae <set_DDRAM_ADDR>
    3bc6:	c0 e0       	ldi	r28, 0x00	; 0
    3bc8:	03 c0       	rjmp	.+6      	; 0x3bd0 <envia_frase+0x18>
    3bca:	0e 94 cc 1c 	call	0x3998	; 0x3998 <send_word_lcd>
    3bce:	cf 5f       	subi	r28, 0xFF	; 255
    3bd0:	f8 01       	movw	r30, r16
    3bd2:	ec 0f       	add	r30, r28
    3bd4:	f1 1d       	adc	r31, r1
    3bd6:	80 81       	ld	r24, Z
    3bd8:	81 11       	cpse	r24, r1
    3bda:	f7 cf       	rjmp	.-18     	; 0x3bca <envia_frase+0x12>
    3bdc:	cf 91       	pop	r28
    3bde:	1f 91       	pop	r17
    3be0:	0f 91       	pop	r16
    3be2:	08 95       	ret

Disassembly of section .text.msg_inserir_senha:

000038fc <msg_inserir_senha>:
    38fc:	cf 93       	push	r28
    38fe:	df 93       	push	r29
    3900:	cd b7       	in	r28, 0x3d	; 61
    3902:	de b7       	in	r29, 0x3e	; 62
    3904:	61 97       	sbiw	r28, 0x11	; 17
    3906:	0f b6       	in	r0, 0x3f	; 63
    3908:	f8 94       	cli
    390a:	de bf       	out	0x3e, r29	; 62
    390c:	0f be       	out	0x3f, r0	; 63
    390e:	cd bf       	out	0x3d, r28	; 61
    3910:	0e 94 4f 1e 	call	0x3c9e	; 0x3c9e <clear_Display>
    3914:	28 ef       	ldi	r18, 0xF8	; 248
    3916:	30 e0       	ldi	r19, 0x00	; 0
    3918:	40 e0       	ldi	r20, 0x00	; 0
    391a:	81 e1       	ldi	r24, 0x11	; 17
    391c:	f9 01       	movw	r30, r18
    391e:	de 01       	movw	r26, r28
    3920:	11 96       	adiw	r26, 0x01	; 1
    3922:	74 2f       	mov	r23, r20
    3924:	0e 94 22 1e 	call	0x3c44	; 0x3c44 <__movmemx_qi>
    3928:	60 e0       	ldi	r22, 0x00	; 0
    392a:	ce 01       	movw	r24, r28
    392c:	01 96       	adiw	r24, 0x01	; 1
    392e:	0e 94 dc 1d 	call	0x3bb8	; 0x3bb8 <envia_frase>
    3932:	80 ec       	ldi	r24, 0xC0	; 192
    3934:	0e 94 a4 1d 	call	0x3b48	; 0x3b48 <send_instruction_lcd>
    3938:	61 96       	adiw	r28, 0x11	; 17
    393a:	0f b6       	in	r0, 0x3f	; 63
    393c:	f8 94       	cli
    393e:	de bf       	out	0x3e, r29	; 62
    3940:	0f be       	out	0x3f, r0	; 63
    3942:	cd bf       	out	0x3d, r28	; 61
    3944:	df 91       	pop	r29
    3946:	cf 91       	pop	r28
    3948:	08 95       	ret

Disassembly of section .text.msg_desativado:

000036f4 <msg_desativado>:
    36f4:	cf 93       	push	r28
    36f6:	df 93       	push	r29
    36f8:	cd b7       	in	r28, 0x3d	; 61
    36fa:	de b7       	in	r29, 0x3e	; 62
    36fc:	62 97       	sbiw	r28, 0x12	; 18
    36fe:	0f b6       	in	r0, 0x3f	; 63
    3700:	f8 94       	cli
    3702:	de bf       	out	0x3e, r29	; 62
    3704:	0f be       	out	0x3f, r0	; 63
    3706:	cd bf       	out	0x3d, r28	; 61
    3708:	29 e0       	ldi	r18, 0x09	; 9
    370a:	31 e0       	ldi	r19, 0x01	; 1
    370c:	40 e0       	ldi	r20, 0x00	; 0
    370e:	81 e1       	ldi	r24, 0x11	; 17
    3710:	f9 01       	movw	r30, r18
    3712:	de 01       	movw	r26, r28
    3714:	11 96       	adiw	r26, 0x01	; 1
    3716:	74 2f       	mov	r23, r20
    3718:	0e 94 22 1e 	call	0x3c44	; 0x3c44 <__movmemx_qi>
    371c:	60 e0       	ldi	r22, 0x00	; 0
    371e:	ce 01       	movw	r24, r28
    3720:	01 96       	adiw	r24, 0x01	; 1
    3722:	0e 94 dc 1d 	call	0x3bb8	; 0x3bb8 <envia_frase>
    3726:	1a 8a       	std	Y+18, r1	; 0x12
    3728:	60 e4       	ldi	r22, 0x40	; 64
    372a:	ce 01       	movw	r24, r28
    372c:	42 96       	adiw	r24, 0x12	; 18
    372e:	0e 94 dc 1d 	call	0x3bb8	; 0x3bb8 <envia_frase>
    3732:	63 e0       	ldi	r22, 0x03	; 3
    3734:	70 e0       	ldi	r23, 0x00	; 0
    3736:	80 e0       	ldi	r24, 0x00	; 0
    3738:	90 e0       	ldi	r25, 0x00	; 0
    373a:	0e 94 04 1c 	call	0x3808	; 0x3808 <delay_ms>
    373e:	62 96       	adiw	r28, 0x12	; 18
    3740:	0f b6       	in	r0, 0x3f	; 63
    3742:	f8 94       	cli
    3744:	de bf       	out	0x3e, r29	; 62
    3746:	0f be       	out	0x3f, r0	; 63
    3748:	cd bf       	out	0x3d, r28	; 61
    374a:	df 91       	pop	r29
    374c:	cf 91       	pop	r28
    374e:	08 95       	ret

Disassembly of section .text.msg_ativado:

00003750 <msg_ativado>:
    3750:	cf 93       	push	r28
    3752:	df 93       	push	r29
    3754:	cd b7       	in	r28, 0x3d	; 61
    3756:	de b7       	in	r29, 0x3e	; 62
    3758:	2f 97       	sbiw	r28, 0x0f	; 15
    375a:	0f b6       	in	r0, 0x3f	; 63
    375c:	f8 94       	cli
    375e:	de bf       	out	0x3e, r29	; 62
    3760:	0f be       	out	0x3f, r0	; 63
    3762:	cd bf       	out	0x3d, r28	; 61
    3764:	2a e1       	ldi	r18, 0x1A	; 26
    3766:	31 e0       	ldi	r19, 0x01	; 1
    3768:	40 e0       	ldi	r20, 0x00	; 0
    376a:	8e e0       	ldi	r24, 0x0E	; 14
    376c:	f9 01       	movw	r30, r18
    376e:	de 01       	movw	r26, r28
    3770:	11 96       	adiw	r26, 0x01	; 1
    3772:	74 2f       	mov	r23, r20
    3774:	0e 94 22 1e 	call	0x3c44	; 0x3c44 <__movmemx_qi>
    3778:	60 e0       	ldi	r22, 0x00	; 0
    377a:	ce 01       	movw	r24, r28
    377c:	01 96       	adiw	r24, 0x01	; 1
    377e:	0e 94 dc 1d 	call	0x3bb8	; 0x3bb8 <envia_frase>
    3782:	1f 86       	std	Y+15, r1	; 0x0f
    3784:	60 e4       	ldi	r22, 0x40	; 64
    3786:	ce 01       	movw	r24, r28
    3788:	0f 96       	adiw	r24, 0x0f	; 15
    378a:	0e 94 dc 1d 	call	0x3bb8	; 0x3bb8 <envia_frase>
    378e:	63 e0       	ldi	r22, 0x03	; 3
    3790:	70 e0       	ldi	r23, 0x00	; 0
    3792:	80 e0       	ldi	r24, 0x00	; 0
    3794:	90 e0       	ldi	r25, 0x00	; 0
    3796:	0e 94 04 1c 	call	0x3808	; 0x3808 <delay_ms>
    379a:	2f 96       	adiw	r28, 0x0f	; 15
    379c:	0f b6       	in	r0, 0x3f	; 63
    379e:	f8 94       	cli
    37a0:	de bf       	out	0x3e, r29	; 62
    37a2:	0f be       	out	0x3f, r0	; 63
    37a4:	cd bf       	out	0x3d, r28	; 61
    37a6:	df 91       	pop	r29
    37a8:	cf 91       	pop	r28
    37aa:	08 95       	ret

Disassembly of section .text.msg_programacao:

000037ac <msg_programacao>:
    37ac:	cf 93       	push	r28
    37ae:	df 93       	push	r29
    37b0:	cd b7       	in	r28, 0x3d	; 61
    37b2:	de b7       	in	r29, 0x3e	; 62
    37b4:	62 97       	sbiw	r28, 0x12	; 18
    37b6:	0f b6       	in	r0, 0x3f	; 63
    37b8:	f8 94       	cli
    37ba:	de bf       	out	0x3e, r29	; 62
    37bc:	0f be       	out	0x3f, r0	; 63
    37be:	cd bf       	out	0x3d, r28	; 61
    37c0:	28 e2       	ldi	r18, 0x28	; 40
    37c2:	31 e0       	ldi	r19, 0x01	; 1
    37c4:	40 e0       	ldi	r20, 0x00	; 0
    37c6:	81 e1       	ldi	r24, 0x11	; 17
    37c8:	f9 01       	movw	r30, r18
    37ca:	de 01       	movw	r26, r28
    37cc:	11 96       	adiw	r26, 0x01	; 1
    37ce:	74 2f       	mov	r23, r20
    37d0:	0e 94 22 1e 	call	0x3c44	; 0x3c44 <__movmemx_qi>
    37d4:	60 e0       	ldi	r22, 0x00	; 0
    37d6:	ce 01       	movw	r24, r28
    37d8:	01 96       	adiw	r24, 0x01	; 1
    37da:	0e 94 dc 1d 	call	0x3bb8	; 0x3bb8 <envia_frase>
    37de:	1a 8a       	std	Y+18, r1	; 0x12
    37e0:	60 e4       	ldi	r22, 0x40	; 64
    37e2:	ce 01       	movw	r24, r28
    37e4:	42 96       	adiw	r24, 0x12	; 18
    37e6:	0e 94 dc 1d 	call	0x3bb8	; 0x3bb8 <envia_frase>
    37ea:	63 e0       	ldi	r22, 0x03	; 3
    37ec:	70 e0       	ldi	r23, 0x00	; 0
    37ee:	80 e0       	ldi	r24, 0x00	; 0
    37f0:	90 e0       	ldi	r25, 0x00	; 0
    37f2:	0e 94 04 1c 	call	0x3808	; 0x3808 <delay_ms>
    37f6:	62 96       	adiw	r28, 0x12	; 18
    37f8:	0f b6       	in	r0, 0x3f	; 63
    37fa:	f8 94       	cli
    37fc:	de bf       	out	0x3e, r29	; 62
    37fe:	0f be       	out	0x3f, r0	; 63
    3800:	cd bf       	out	0x3d, r28	; 61
    3802:	df 91       	pop	r29
    3804:	cf 91       	pop	r28
    3806:	08 95       	ret

Disassembly of section .text.msg_altera_senha:

0000394a <msg_altera_senha>:
    394a:	cf 93       	push	r28
    394c:	df 93       	push	r29
    394e:	cd b7       	in	r28, 0x3d	; 61
    3950:	de b7       	in	r29, 0x3e	; 62
    3952:	60 97       	sbiw	r28, 0x10	; 16
    3954:	0f b6       	in	r0, 0x3f	; 63
    3956:	f8 94       	cli
    3958:	de bf       	out	0x3e, r29	; 62
    395a:	0f be       	out	0x3f, r0	; 63
    395c:	cd bf       	out	0x3d, r28	; 61
    395e:	0e 94 4f 1e 	call	0x3c9e	; 0x3c9e <clear_Display>
    3962:	29 e3       	ldi	r18, 0x39	; 57
    3964:	31 e0       	ldi	r19, 0x01	; 1
    3966:	40 e0       	ldi	r20, 0x00	; 0
    3968:	80 e1       	ldi	r24, 0x10	; 16
    396a:	f9 01       	movw	r30, r18
    396c:	de 01       	movw	r26, r28
    396e:	11 96       	adiw	r26, 0x01	; 1
    3970:	74 2f       	mov	r23, r20
    3972:	0e 94 22 1e 	call	0x3c44	; 0x3c44 <__movmemx_qi>
    3976:	60 e0       	ldi	r22, 0x00	; 0
    3978:	ce 01       	movw	r24, r28
    397a:	01 96       	adiw	r24, 0x01	; 1
    397c:	0e 94 dc 1d 	call	0x3bb8	; 0x3bb8 <envia_frase>
    3980:	80 ec       	ldi	r24, 0xC0	; 192
    3982:	0e 94 a4 1d 	call	0x3b48	; 0x3b48 <send_instruction_lcd>
    3986:	60 96       	adiw	r28, 0x10	; 16
    3988:	0f b6       	in	r0, 0x3f	; 63
    398a:	f8 94       	cli
    398c:	de bf       	out	0x3e, r29	; 62
    398e:	0f be       	out	0x3f, r0	; 63
    3990:	cd bf       	out	0x3d, r28	; 61
    3992:	df 91       	pop	r29
    3994:	cf 91       	pop	r28
    3996:	08 95       	ret

Disassembly of section .text.msg_h_sensores:

000032fc <msg_h_sensores>:
    32fc:	cf 93       	push	r28
    32fe:	df 93       	push	r29
    3300:	cd b7       	in	r28, 0x3d	; 61
    3302:	de b7       	in	r29, 0x3e	; 62
    3304:	6d 97       	sbiw	r28, 0x1d	; 29
    3306:	0f b6       	in	r0, 0x3f	; 63
    3308:	f8 94       	cli
    330a:	de bf       	out	0x3e, r29	; 62
    330c:	0f be       	out	0x3f, r0	; 63
    330e:	cd bf       	out	0x3d, r28	; 61
    3310:	0e 94 4f 1e 	call	0x3c9e	; 0x3c9e <clear_Display>
    3314:	29 e4       	ldi	r18, 0x49	; 73
    3316:	31 e0       	ldi	r19, 0x01	; 1
    3318:	40 e0       	ldi	r20, 0x00	; 0
    331a:	8f e0       	ldi	r24, 0x0F	; 15
    331c:	f9 01       	movw	r30, r18
    331e:	de 01       	movw	r26, r28
    3320:	11 96       	adiw	r26, 0x01	; 1
    3322:	74 2f       	mov	r23, r20
    3324:	0e 94 22 1e 	call	0x3c44	; 0x3c44 <__movmemx_qi>
    3328:	60 e0       	ldi	r22, 0x00	; 0
    332a:	ce 01       	movw	r24, r28
    332c:	01 96       	adiw	r24, 0x01	; 1
    332e:	0e 94 dc 1d 	call	0x3bb8	; 0x3bb8 <envia_frase>
    3332:	28 e5       	ldi	r18, 0x58	; 88
    3334:	31 e0       	ldi	r19, 0x01	; 1
    3336:	40 e0       	ldi	r20, 0x00	; 0
    3338:	8e e0       	ldi	r24, 0x0E	; 14
    333a:	f9 01       	movw	r30, r18
    333c:	de 01       	movw	r26, r28
    333e:	50 96       	adiw	r26, 0x10	; 16
    3340:	74 2f       	mov	r23, r20
    3342:	0e 94 22 1e 	call	0x3c44	; 0x3c44 <__movmemx_qi>
    3346:	60 e4       	ldi	r22, 0x40	; 64
    3348:	ce 01       	movw	r24, r28
    334a:	40 96       	adiw	r24, 0x10	; 16
    334c:	0e 94 dc 1d 	call	0x3bb8	; 0x3bb8 <envia_frase>
    3350:	6d 96       	adiw	r28, 0x1d	; 29
    3352:	0f b6       	in	r0, 0x3f	; 63
    3354:	f8 94       	cli
    3356:	de bf       	out	0x3e, r29	; 62
    3358:	0f be       	out	0x3f, r0	; 63
    335a:	cd bf       	out	0x3d, r28	; 61
    335c:	df 91       	pop	r29
    335e:	cf 91       	pop	r28
    3360:	08 95       	ret

Disassembly of section .text.msg_d_sensores:

00003362 <msg_d_sensores>:
    3362:	cf 93       	push	r28
    3364:	df 93       	push	r29
    3366:	cd b7       	in	r28, 0x3d	; 61
    3368:	de b7       	in	r29, 0x3e	; 62
    336a:	6e 97       	sbiw	r28, 0x1e	; 30
    336c:	0f b6       	in	r0, 0x3f	; 63
    336e:	f8 94       	cli
    3370:	de bf       	out	0x3e, r29	; 62
    3372:	0f be       	out	0x3f, r0	; 63
    3374:	cd bf       	out	0x3d, r28	; 61
    3376:	0e 94 4f 1e 	call	0x3c9e	; 0x3c9e <clear_Display>
    337a:	29 e4       	ldi	r18, 0x49	; 73
    337c:	31 e0       	ldi	r19, 0x01	; 1
    337e:	40 e0       	ldi	r20, 0x00	; 0
    3380:	8f e0       	ldi	r24, 0x0F	; 15
    3382:	f9 01       	movw	r30, r18
    3384:	de 01       	movw	r26, r28
    3386:	11 96       	adiw	r26, 0x01	; 1
    3388:	74 2f       	mov	r23, r20
    338a:	0e 94 22 1e 	call	0x3c44	; 0x3c44 <__movmemx_qi>
    338e:	60 e0       	ldi	r22, 0x00	; 0
    3390:	ce 01       	movw	r24, r28
    3392:	01 96       	adiw	r24, 0x01	; 1
    3394:	0e 94 dc 1d 	call	0x3bb8	; 0x3bb8 <envia_frase>
    3398:	26 e6       	ldi	r18, 0x66	; 102
    339a:	31 e0       	ldi	r19, 0x01	; 1
    339c:	40 e0       	ldi	r20, 0x00	; 0
    339e:	8f e0       	ldi	r24, 0x0F	; 15
    33a0:	f9 01       	movw	r30, r18
    33a2:	de 01       	movw	r26, r28
    33a4:	50 96       	adiw	r26, 0x10	; 16
    33a6:	74 2f       	mov	r23, r20
    33a8:	0e 94 22 1e 	call	0x3c44	; 0x3c44 <__movmemx_qi>
    33ac:	60 e4       	ldi	r22, 0x40	; 64
    33ae:	ce 01       	movw	r24, r28
    33b0:	40 96       	adiw	r24, 0x10	; 16
    33b2:	0e 94 dc 1d 	call	0x3bb8	; 0x3bb8 <envia_frase>
    33b6:	6e 96       	adiw	r28, 0x1e	; 30
    33b8:	0f b6       	in	r0, 0x3f	; 63
    33ba:	f8 94       	cli
    33bc:	de bf       	out	0x3e, r29	; 62
    33be:	0f be       	out	0x3f, r0	; 63
    33c0:	cd bf       	out	0x3d, r28	; 61
    33c2:	df 91       	pop	r29
    33c4:	cf 91       	pop	r28
    33c6:	08 95       	ret

Disassembly of section .text.msg_panico:

00003692 <msg_panico>:
    3692:	cf 93       	push	r28
    3694:	df 93       	push	r29
    3696:	cd b7       	in	r28, 0x3d	; 61
    3698:	de b7       	in	r29, 0x3e	; 62
    369a:	6e 97       	sbiw	r28, 0x1e	; 30
    369c:	0f b6       	in	r0, 0x3f	; 63
    369e:	f8 94       	cli
    36a0:	de bf       	out	0x3e, r29	; 62
    36a2:	0f be       	out	0x3f, r0	; 63
    36a4:	cd bf       	out	0x3d, r28	; 61
    36a6:	25 e7       	ldi	r18, 0x75	; 117
    36a8:	31 e0       	ldi	r19, 0x01	; 1
    36aa:	40 e0       	ldi	r20, 0x00	; 0
    36ac:	8e e0       	ldi	r24, 0x0E	; 14
    36ae:	f9 01       	movw	r30, r18
    36b0:	de 01       	movw	r26, r28
    36b2:	11 96       	adiw	r26, 0x01	; 1
    36b4:	74 2f       	mov	r23, r20
    36b6:	0e 94 22 1e 	call	0x3c44	; 0x3c44 <__movmemx_qi>
    36ba:	60 e0       	ldi	r22, 0x00	; 0
    36bc:	ce 01       	movw	r24, r28
    36be:	01 96       	adiw	r24, 0x01	; 1
    36c0:	0e 94 dc 1d 	call	0x3bb8	; 0x3bb8 <envia_frase>
    36c4:	23 e8       	ldi	r18, 0x83	; 131
    36c6:	31 e0       	ldi	r19, 0x01	; 1
    36c8:	40 e0       	ldi	r20, 0x00	; 0
    36ca:	80 e1       	ldi	r24, 0x10	; 16
    36cc:	f9 01       	movw	r30, r18
    36ce:	de 01       	movw	r26, r28
    36d0:	1f 96       	adiw	r26, 0x0f	; 15
    36d2:	74 2f       	mov	r23, r20
    36d4:	0e 94 22 1e 	call	0x3c44	; 0x3c44 <__movmemx_qi>
    36d8:	60 e4       	ldi	r22, 0x40	; 64
    36da:	ce 01       	movw	r24, r28
    36dc:	0f 96       	adiw	r24, 0x0f	; 15
    36de:	0e 94 dc 1d 	call	0x3bb8	; 0x3bb8 <envia_frase>
    36e2:	6e 96       	adiw	r28, 0x1e	; 30
    36e4:	0f b6       	in	r0, 0x3f	; 63
    36e6:	f8 94       	cli
    36e8:	de bf       	out	0x3e, r29	; 62
    36ea:	0f be       	out	0x3f, r0	; 63
    36ec:	cd bf       	out	0x3d, r28	; 61
    36ee:	df 91       	pop	r29
    36f0:	cf 91       	pop	r28
    36f2:	08 95       	ret

Disassembly of section .text.msg_restauracao:

00003b04 <msg_restauracao>:
    3b04:	cf 93       	push	r28
    3b06:	df 93       	push	r29
    3b08:	cd b7       	in	r28, 0x3d	; 61
    3b0a:	de b7       	in	r29, 0x3e	; 62
    3b0c:	2d 97       	sbiw	r28, 0x0d	; 13
    3b0e:	0f b6       	in	r0, 0x3f	; 63
    3b10:	f8 94       	cli
    3b12:	de bf       	out	0x3e, r29	; 62
    3b14:	0f be       	out	0x3f, r0	; 63
    3b16:	cd bf       	out	0x3d, r28	; 61
    3b18:	23 e9       	ldi	r18, 0x93	; 147
    3b1a:	31 e0       	ldi	r19, 0x01	; 1
    3b1c:	40 e0       	ldi	r20, 0x00	; 0
    3b1e:	8d e0       	ldi	r24, 0x0D	; 13
    3b20:	f9 01       	movw	r30, r18
    3b22:	de 01       	movw	r26, r28
    3b24:	11 96       	adiw	r26, 0x01	; 1
    3b26:	74 2f       	mov	r23, r20
    3b28:	0e 94 22 1e 	call	0x3c44	; 0x3c44 <__movmemx_qi>
    3b2c:	60 e0       	ldi	r22, 0x00	; 0
    3b2e:	ce 01       	movw	r24, r28
    3b30:	01 96       	adiw	r24, 0x01	; 1
    3b32:	0e 94 dc 1d 	call	0x3bb8	; 0x3bb8 <envia_frase>
    3b36:	2d 96       	adiw	r28, 0x0d	; 13
    3b38:	0f b6       	in	r0, 0x3f	; 63
    3b3a:	f8 94       	cli
    3b3c:	de bf       	out	0x3e, r29	; 62
    3b3e:	0f be       	out	0x3f, r0	; 63
    3b40:	cd bf       	out	0x3d, r28	; 61
    3b42:	df 91       	pop	r29
    3b44:	cf 91       	pop	r28
    3b46:	08 95       	ret

Disassembly of section .text.msg_h_zona:

000033c8 <msg_h_zona>:
    33c8:	cf 93       	push	r28
    33ca:	df 93       	push	r29
    33cc:	cd b7       	in	r28, 0x3d	; 61
    33ce:	de b7       	in	r29, 0x3e	; 62
    33d0:	6a 97       	sbiw	r28, 0x1a	; 26
    33d2:	0f b6       	in	r0, 0x3f	; 63
    33d4:	f8 94       	cli
    33d6:	de bf       	out	0x3e, r29	; 62
    33d8:	0f be       	out	0x3f, r0	; 63
    33da:	cd bf       	out	0x3d, r28	; 61
    33dc:	0e 94 4f 1e 	call	0x3c9e	; 0x3c9e <clear_Display>
    33e0:	20 ea       	ldi	r18, 0xA0	; 160
    33e2:	31 e0       	ldi	r19, 0x01	; 1
    33e4:	40 e0       	ldi	r20, 0x00	; 0
    33e6:	8d e0       	ldi	r24, 0x0D	; 13
    33e8:	f9 01       	movw	r30, r18
    33ea:	de 01       	movw	r26, r28
    33ec:	11 96       	adiw	r26, 0x01	; 1
    33ee:	74 2f       	mov	r23, r20
    33f0:	0e 94 22 1e 	call	0x3c44	; 0x3c44 <__movmemx_qi>
    33f4:	60 e0       	ldi	r22, 0x00	; 0
    33f6:	ce 01       	movw	r24, r28
    33f8:	01 96       	adiw	r24, 0x01	; 1
    33fa:	0e 94 dc 1d 	call	0x3bb8	; 0x3bb8 <envia_frase>
    33fe:	2d ea       	ldi	r18, 0xAD	; 173
    3400:	31 e0       	ldi	r19, 0x01	; 1
    3402:	40 e0       	ldi	r20, 0x00	; 0
    3404:	8d e0       	ldi	r24, 0x0D	; 13
    3406:	f9 01       	movw	r30, r18
    3408:	de 01       	movw	r26, r28
    340a:	1e 96       	adiw	r26, 0x0e	; 14
    340c:	74 2f       	mov	r23, r20
    340e:	0e 94 22 1e 	call	0x3c44	; 0x3c44 <__movmemx_qi>
    3412:	60 e4       	ldi	r22, 0x40	; 64
    3414:	ce 01       	movw	r24, r28
    3416:	0e 96       	adiw	r24, 0x0e	; 14
    3418:	0e 94 dc 1d 	call	0x3bb8	; 0x3bb8 <envia_frase>
    341c:	6a 96       	adiw	r28, 0x1a	; 26
    341e:	0f b6       	in	r0, 0x3f	; 63
    3420:	f8 94       	cli
    3422:	de bf       	out	0x3e, r29	; 62
    3424:	0f be       	out	0x3f, r0	; 63
    3426:	cd bf       	out	0x3d, r28	; 61
    3428:	df 91       	pop	r29
    342a:	cf 91       	pop	r28
    342c:	08 95       	ret

Disassembly of section .text.msg_d_zona:

0000342e <msg_d_zona>:
    342e:	cf 93       	push	r28
    3430:	df 93       	push	r29
    3432:	cd b7       	in	r28, 0x3d	; 61
    3434:	de b7       	in	r29, 0x3e	; 62
    3436:	6b 97       	sbiw	r28, 0x1b	; 27
    3438:	0f b6       	in	r0, 0x3f	; 63
    343a:	f8 94       	cli
    343c:	de bf       	out	0x3e, r29	; 62
    343e:	0f be       	out	0x3f, r0	; 63
    3440:	cd bf       	out	0x3d, r28	; 61
    3442:	0e 94 4f 1e 	call	0x3c9e	; 0x3c9e <clear_Display>
    3446:	20 ea       	ldi	r18, 0xA0	; 160
    3448:	31 e0       	ldi	r19, 0x01	; 1
    344a:	40 e0       	ldi	r20, 0x00	; 0
    344c:	8d e0       	ldi	r24, 0x0D	; 13
    344e:	f9 01       	movw	r30, r18
    3450:	de 01       	movw	r26, r28
    3452:	11 96       	adiw	r26, 0x01	; 1
    3454:	74 2f       	mov	r23, r20
    3456:	0e 94 22 1e 	call	0x3c44	; 0x3c44 <__movmemx_qi>
    345a:	60 e0       	ldi	r22, 0x00	; 0
    345c:	ce 01       	movw	r24, r28
    345e:	01 96       	adiw	r24, 0x01	; 1
    3460:	0e 94 dc 1d 	call	0x3bb8	; 0x3bb8 <envia_frase>
    3464:	2a eb       	ldi	r18, 0xBA	; 186
    3466:	31 e0       	ldi	r19, 0x01	; 1
    3468:	40 e0       	ldi	r20, 0x00	; 0
    346a:	8e e0       	ldi	r24, 0x0E	; 14
    346c:	f9 01       	movw	r30, r18
    346e:	de 01       	movw	r26, r28
    3470:	1e 96       	adiw	r26, 0x0e	; 14
    3472:	74 2f       	mov	r23, r20
    3474:	0e 94 22 1e 	call	0x3c44	; 0x3c44 <__movmemx_qi>
    3478:	60 e4       	ldi	r22, 0x40	; 64
    347a:	ce 01       	movw	r24, r28
    347c:	0e 96       	adiw	r24, 0x0e	; 14
    347e:	0e 94 dc 1d 	call	0x3bb8	; 0x3bb8 <envia_frase>
    3482:	6b 96       	adiw	r28, 0x1b	; 27
    3484:	0f b6       	in	r0, 0x3f	; 63
    3486:	f8 94       	cli
    3488:	de bf       	out	0x3e, r29	; 62
    348a:	0f be       	out	0x3f, r0	; 63
    348c:	cd bf       	out	0x3d, r28	; 61
    348e:	df 91       	pop	r29
    3490:	cf 91       	pop	r28
    3492:	08 95       	ret

Disassembly of section .text.msg_h_ass:

00003494 <msg_h_ass>:
    3494:	cf 93       	push	r28
    3496:	df 93       	push	r29
    3498:	cd b7       	in	r28, 0x3d	; 61
    349a:	de b7       	in	r29, 0x3e	; 62
    349c:	6b 97       	sbiw	r28, 0x1b	; 27
    349e:	0f b6       	in	r0, 0x3f	; 63
    34a0:	f8 94       	cli
    34a2:	de bf       	out	0x3e, r29	; 62
    34a4:	0f be       	out	0x3f, r0	; 63
    34a6:	cd bf       	out	0x3d, r28	; 61
    34a8:	0e 94 4f 1e 	call	0x3c9e	; 0x3c9e <clear_Display>
    34ac:	28 ec       	ldi	r18, 0xC8	; 200
    34ae:	31 e0       	ldi	r19, 0x01	; 1
    34b0:	40 e0       	ldi	r20, 0x00	; 0
    34b2:	8d e0       	ldi	r24, 0x0D	; 13
    34b4:	f9 01       	movw	r30, r18
    34b6:	de 01       	movw	r26, r28
    34b8:	11 96       	adiw	r26, 0x01	; 1
    34ba:	74 2f       	mov	r23, r20
    34bc:	0e 94 22 1e 	call	0x3c44	; 0x3c44 <__movmemx_qi>
    34c0:	60 e0       	ldi	r22, 0x00	; 0
    34c2:	ce 01       	movw	r24, r28
    34c4:	01 96       	adiw	r24, 0x01	; 1
    34c6:	0e 94 dc 1d 	call	0x3bb8	; 0x3bb8 <envia_frase>
    34ca:	25 ed       	ldi	r18, 0xD5	; 213
    34cc:	31 e0       	ldi	r19, 0x01	; 1
    34ce:	40 e0       	ldi	r20, 0x00	; 0
    34d0:	8e e0       	ldi	r24, 0x0E	; 14
    34d2:	f9 01       	movw	r30, r18
    34d4:	de 01       	movw	r26, r28
    34d6:	1e 96       	adiw	r26, 0x0e	; 14
    34d8:	74 2f       	mov	r23, r20
    34da:	0e 94 22 1e 	call	0x3c44	; 0x3c44 <__movmemx_qi>
    34de:	60 e4       	ldi	r22, 0x40	; 64
    34e0:	ce 01       	movw	r24, r28
    34e2:	0e 96       	adiw	r24, 0x0e	; 14
    34e4:	0e 94 dc 1d 	call	0x3bb8	; 0x3bb8 <envia_frase>
    34e8:	6b 96       	adiw	r28, 0x1b	; 27
    34ea:	0f b6       	in	r0, 0x3f	; 63
    34ec:	f8 94       	cli
    34ee:	de bf       	out	0x3e, r29	; 62
    34f0:	0f be       	out	0x3f, r0	; 63
    34f2:	cd bf       	out	0x3d, r28	; 61
    34f4:	df 91       	pop	r29
    34f6:	cf 91       	pop	r28
    34f8:	08 95       	ret

Disassembly of section .text.msg_d_ass:

000034fa <msg_d_ass>:
    34fa:	cf 93       	push	r28
    34fc:	df 93       	push	r29
    34fe:	cd b7       	in	r28, 0x3d	; 61
    3500:	de b7       	in	r29, 0x3e	; 62
    3502:	6c 97       	sbiw	r28, 0x1c	; 28
    3504:	0f b6       	in	r0, 0x3f	; 63
    3506:	f8 94       	cli
    3508:	de bf       	out	0x3e, r29	; 62
    350a:	0f be       	out	0x3f, r0	; 63
    350c:	cd bf       	out	0x3d, r28	; 61
    350e:	0e 94 4f 1e 	call	0x3c9e	; 0x3c9e <clear_Display>
    3512:	23 ee       	ldi	r18, 0xE3	; 227
    3514:	31 e0       	ldi	r19, 0x01	; 1
    3516:	40 e0       	ldi	r20, 0x00	; 0
    3518:	8e e0       	ldi	r24, 0x0E	; 14
    351a:	f9 01       	movw	r30, r18
    351c:	de 01       	movw	r26, r28
    351e:	11 96       	adiw	r26, 0x01	; 1
    3520:	74 2f       	mov	r23, r20
    3522:	0e 94 22 1e 	call	0x3c44	; 0x3c44 <__movmemx_qi>
    3526:	60 e0       	ldi	r22, 0x00	; 0
    3528:	ce 01       	movw	r24, r28
    352a:	01 96       	adiw	r24, 0x01	; 1
    352c:	0e 94 dc 1d 	call	0x3bb8	; 0x3bb8 <envia_frase>
    3530:	25 ed       	ldi	r18, 0xD5	; 213
    3532:	31 e0       	ldi	r19, 0x01	; 1
    3534:	40 e0       	ldi	r20, 0x00	; 0
    3536:	8e e0       	ldi	r24, 0x0E	; 14
    3538:	f9 01       	movw	r30, r18
    353a:	de 01       	movw	r26, r28
    353c:	1f 96       	adiw	r26, 0x0f	; 15
    353e:	74 2f       	mov	r23, r20
    3540:	0e 94 22 1e 	call	0x3c44	; 0x3c44 <__movmemx_qi>
    3544:	60 e4       	ldi	r22, 0x40	; 64
    3546:	ce 01       	movw	r24, r28
    3548:	0f 96       	adiw	r24, 0x0f	; 15
    354a:	0e 94 dc 1d 	call	0x3bb8	; 0x3bb8 <envia_frase>
    354e:	6c 96       	adiw	r28, 0x1c	; 28
    3550:	0f b6       	in	r0, 0x3f	; 63
    3552:	f8 94       	cli
    3554:	de bf       	out	0x3e, r29	; 62
    3556:	0f be       	out	0x3f, r0	; 63
    3558:	cd bf       	out	0x3d, r28	; 61
    355a:	df 91       	pop	r29
    355c:	cf 91       	pop	r28
    355e:	08 95       	ret

Disassembly of section .text.msg_ajusteTout:

00003560 <msg_ajusteTout>:
    3560:	cf 93       	push	r28
    3562:	df 93       	push	r29
    3564:	cd b7       	in	r28, 0x3d	; 61
    3566:	de b7       	in	r29, 0x3e	; 62
    3568:	6b 97       	sbiw	r28, 0x1b	; 27
    356a:	0f b6       	in	r0, 0x3f	; 63
    356c:	f8 94       	cli
    356e:	de bf       	out	0x3e, r29	; 62
    3570:	0f be       	out	0x3f, r0	; 63
    3572:	cd bf       	out	0x3d, r28	; 61
    3574:	0e 94 4f 1e 	call	0x3c9e	; 0x3c9e <clear_Display>
    3578:	21 ef       	ldi	r18, 0xF1	; 241
    357a:	31 e0       	ldi	r19, 0x01	; 1
    357c:	40 e0       	ldi	r20, 0x00	; 0
    357e:	8e e0       	ldi	r24, 0x0E	; 14
    3580:	f9 01       	movw	r30, r18
    3582:	de 01       	movw	r26, r28
    3584:	11 96       	adiw	r26, 0x01	; 1
    3586:	74 2f       	mov	r23, r20
    3588:	0e 94 22 1e 	call	0x3c44	; 0x3c44 <__movmemx_qi>
    358c:	60 e0       	ldi	r22, 0x00	; 0
    358e:	ce 01       	movw	r24, r28
    3590:	01 96       	adiw	r24, 0x01	; 1
    3592:	0e 94 dc 1d 	call	0x3bb8	; 0x3bb8 <envia_frase>
    3596:	2f ef       	ldi	r18, 0xFF	; 255
    3598:	31 e0       	ldi	r19, 0x01	; 1
    359a:	40 e0       	ldi	r20, 0x00	; 0
    359c:	8d e0       	ldi	r24, 0x0D	; 13
    359e:	f9 01       	movw	r30, r18
    35a0:	de 01       	movw	r26, r28
    35a2:	1f 96       	adiw	r26, 0x0f	; 15
    35a4:	74 2f       	mov	r23, r20
    35a6:	0e 94 22 1e 	call	0x3c44	; 0x3c44 <__movmemx_qi>
    35aa:	60 e4       	ldi	r22, 0x40	; 64
    35ac:	ce 01       	movw	r24, r28
    35ae:	0f 96       	adiw	r24, 0x0f	; 15
    35b0:	0e 94 dc 1d 	call	0x3bb8	; 0x3bb8 <envia_frase>
    35b4:	6b 96       	adiw	r28, 0x1b	; 27
    35b6:	0f b6       	in	r0, 0x3f	; 63
    35b8:	f8 94       	cli
    35ba:	de bf       	out	0x3e, r29	; 62
    35bc:	0f be       	out	0x3f, r0	; 63
    35be:	cd bf       	out	0x3d, r28	; 61
    35c0:	df 91       	pop	r29
    35c2:	cf 91       	pop	r28
    35c4:	08 95       	ret

Disassembly of section .text.msg_time_sirene:

000035c6 <msg_time_sirene>:
    35c6:	cf 93       	push	r28
    35c8:	df 93       	push	r29
    35ca:	cd b7       	in	r28, 0x3d	; 61
    35cc:	de b7       	in	r29, 0x3e	; 62
    35ce:	6e 97       	sbiw	r28, 0x1e	; 30
    35d0:	0f b6       	in	r0, 0x3f	; 63
    35d2:	f8 94       	cli
    35d4:	de bf       	out	0x3e, r29	; 62
    35d6:	0f be       	out	0x3f, r0	; 63
    35d8:	cd bf       	out	0x3d, r28	; 61
    35da:	0e 94 4f 1e 	call	0x3c9e	; 0x3c9e <clear_Display>
    35de:	21 ef       	ldi	r18, 0xF1	; 241
    35e0:	31 e0       	ldi	r19, 0x01	; 1
    35e2:	40 e0       	ldi	r20, 0x00	; 0
    35e4:	8e e0       	ldi	r24, 0x0E	; 14
    35e6:	f9 01       	movw	r30, r18
    35e8:	de 01       	movw	r26, r28
    35ea:	11 96       	adiw	r26, 0x01	; 1
    35ec:	74 2f       	mov	r23, r20
    35ee:	0e 94 22 1e 	call	0x3c44	; 0x3c44 <__movmemx_qi>
    35f2:	60 e0       	ldi	r22, 0x00	; 0
    35f4:	ce 01       	movw	r24, r28
    35f6:	01 96       	adiw	r24, 0x01	; 1
    35f8:	0e 94 dc 1d 	call	0x3bb8	; 0x3bb8 <envia_frase>
    35fc:	2c e0       	ldi	r18, 0x0C	; 12
    35fe:	32 e0       	ldi	r19, 0x02	; 2
    3600:	40 e0       	ldi	r20, 0x00	; 0
    3602:	80 e1       	ldi	r24, 0x10	; 16
    3604:	f9 01       	movw	r30, r18
    3606:	de 01       	movw	r26, r28
    3608:	1f 96       	adiw	r26, 0x0f	; 15
    360a:	74 2f       	mov	r23, r20
    360c:	0e 94 22 1e 	call	0x3c44	; 0x3c44 <__movmemx_qi>
    3610:	60 e4       	ldi	r22, 0x40	; 64
    3612:	ce 01       	movw	r24, r28
    3614:	0f 96       	adiw	r24, 0x0f	; 15
    3616:	0e 94 dc 1d 	call	0x3bb8	; 0x3bb8 <envia_frase>
    361a:	6e 96       	adiw	r28, 0x1e	; 30
    361c:	0f b6       	in	r0, 0x3f	; 63
    361e:	f8 94       	cli
    3620:	de bf       	out	0x3e, r29	; 62
    3622:	0f be       	out	0x3f, r0	; 63
    3624:	cd bf       	out	0x3d, r28	; 61
    3626:	df 91       	pop	r29
    3628:	cf 91       	pop	r28
    362a:	08 95       	ret

Disassembly of section .text.msg_temp_ativ:

0000362c <msg_temp_ativ>:
    362c:	cf 93       	push	r28
    362e:	df 93       	push	r29
    3630:	cd b7       	in	r28, 0x3d	; 61
    3632:	de b7       	in	r29, 0x3e	; 62
    3634:	6c 97       	sbiw	r28, 0x1c	; 28
    3636:	0f b6       	in	r0, 0x3f	; 63
    3638:	f8 94       	cli
    363a:	de bf       	out	0x3e, r29	; 62
    363c:	0f be       	out	0x3f, r0	; 63
    363e:	cd bf       	out	0x3d, r28	; 61
    3640:	0e 94 4f 1e 	call	0x3c9e	; 0x3c9e <clear_Display>
    3644:	21 ef       	ldi	r18, 0xF1	; 241
    3646:	31 e0       	ldi	r19, 0x01	; 1
    3648:	40 e0       	ldi	r20, 0x00	; 0
    364a:	8e e0       	ldi	r24, 0x0E	; 14
    364c:	f9 01       	movw	r30, r18
    364e:	de 01       	movw	r26, r28
    3650:	11 96       	adiw	r26, 0x01	; 1
    3652:	74 2f       	mov	r23, r20
    3654:	0e 94 22 1e 	call	0x3c44	; 0x3c44 <__movmemx_qi>
    3658:	60 e0       	ldi	r22, 0x00	; 0
    365a:	ce 01       	movw	r24, r28
    365c:	01 96       	adiw	r24, 0x01	; 1
    365e:	0e 94 dc 1d 	call	0x3bb8	; 0x3bb8 <envia_frase>
    3662:	2c e1       	ldi	r18, 0x1C	; 28
    3664:	32 e0       	ldi	r19, 0x02	; 2
    3666:	40 e0       	ldi	r20, 0x00	; 0
    3668:	8e e0       	ldi	r24, 0x0E	; 14
    366a:	f9 01       	movw	r30, r18
    366c:	de 01       	movw	r26, r28
    366e:	1f 96       	adiw	r26, 0x0f	; 15
    3670:	74 2f       	mov	r23, r20
    3672:	0e 94 22 1e 	call	0x3c44	; 0x3c44 <__movmemx_qi>
    3676:	60 e4       	ldi	r22, 0x40	; 64
    3678:	ce 01       	movw	r24, r28
    367a:	0f 96       	adiw	r24, 0x0f	; 15
    367c:	0e 94 dc 1d 	call	0x3bb8	; 0x3bb8 <envia_frase>
    3680:	6c 96       	adiw	r28, 0x1c	; 28
    3682:	0f b6       	in	r0, 0x3f	; 63
    3684:	f8 94       	cli
    3686:	de bf       	out	0x3e, r29	; 62
    3688:	0f be       	out	0x3f, r0	; 63
    368a:	cd bf       	out	0x3d, r28	; 61
    368c:	df 91       	pop	r29
    368e:	cf 91       	pop	r28
    3690:	08 95       	ret

Disassembly of section .text.insert_senha:

00003cb2 <insert_senha>:
    3cb2:	e4 2f       	mov	r30, r20
    3cb4:	f5 2f       	mov	r31, r21
    3cb6:	24 91       	lpm	r18, Z
    3cb8:	67 fd       	sbrc	r22, 7
    3cba:	20 81       	ld	r18, Z
    3cbc:	81 5d       	subi	r24, 0xD1	; 209
    3cbe:	9e 4f       	sbci	r25, 0xFE	; 254
    3cc0:	fc 01       	movw	r30, r24
    3cc2:	20 83       	st	Z, r18
    3cc4:	08 95       	ret

Disassembly of section .text.senha_arm:

0000385c <senha_arm>:
    385c:	20 91 27 01 	lds	r18, 0x0127	; 0x800127 <addr_senha>
    3860:	30 91 28 01 	lds	r19, 0x0128	; 0x800128 <addr_senha+0x1>
    3864:	21 30       	cpi	r18, 0x01	; 1
    3866:	31 05       	cpc	r19, r1
    3868:	49 f4       	brne	.+18     	; 0x387c <senha_arm+0x20>
    386a:	e4 2f       	mov	r30, r20
    386c:	f5 2f       	mov	r31, r21
    386e:	74 91       	lpm	r23, Z
    3870:	67 fd       	sbrc	r22, 7
    3872:	70 81       	ld	r23, Z
    3874:	fc 01       	movw	r30, r24
    3876:	e6 55       	subi	r30, 0x56	; 86
    3878:	fe 4f       	sbci	r31, 0xFE	; 254
    387a:	70 83       	st	Z, r23
    387c:	22 30       	cpi	r18, 0x02	; 2
    387e:	31 05       	cpc	r19, r1
    3880:	49 f4       	brne	.+18     	; 0x3894 <senha_arm+0x38>
    3882:	e4 2f       	mov	r30, r20
    3884:	f5 2f       	mov	r31, r21
    3886:	74 91       	lpm	r23, Z
    3888:	67 fd       	sbrc	r22, 7
    388a:	70 81       	ld	r23, Z
    388c:	fc 01       	movw	r30, r24
    388e:	eb 55       	subi	r30, 0x5B	; 91
    3890:	fe 4f       	sbci	r31, 0xFE	; 254
    3892:	70 83       	st	Z, r23
    3894:	23 30       	cpi	r18, 0x03	; 3
    3896:	31 05       	cpc	r19, r1
    3898:	49 f4       	brne	.+18     	; 0x38ac <senha_arm+0x50>
    389a:	e4 2f       	mov	r30, r20
    389c:	f5 2f       	mov	r31, r21
    389e:	24 91       	lpm	r18, Z
    38a0:	67 fd       	sbrc	r22, 7
    38a2:	20 81       	ld	r18, Z
    38a4:	fc 01       	movw	r30, r24
    38a6:	e0 56       	subi	r30, 0x60	; 96
    38a8:	fe 4f       	sbci	r31, 0xFE	; 254
    38aa:	20 83       	st	Z, r18
    38ac:	08 95       	ret

Disassembly of section .text.verify_senhaM:

0000327e <verify_senhaM>:
    327e:	10 92 d5 01 	sts	0x01D5, r1	; 0x8001d5 <cont_a+0x1>
    3282:	10 92 d4 01 	sts	0x01D4, r1	; 0x8001d4 <cont_a>
    3286:	10 92 d3 01 	sts	0x01D3, r1	; 0x8001d3 <cont_b+0x1>
    328a:	10 92 d2 01 	sts	0x01D2, r1	; 0x8001d2 <cont_b>
    328e:	15 c0       	rjmp	.+42     	; 0x32ba <verify_senhaM+0x3c>
    3290:	fc 01       	movw	r30, r24
    3292:	e1 5d       	subi	r30, 0xD1	; 209
    3294:	fe 4f       	sbci	r31, 0xFE	; 254
    3296:	30 81       	ld	r19, Z
    3298:	23 13       	cpse	r18, r19
    329a:	0a c0       	rjmp	.+20     	; 0x32b0 <verify_senhaM+0x32>
    329c:	20 91 d2 01 	lds	r18, 0x01D2	; 0x8001d2 <cont_b>
    32a0:	30 91 d3 01 	lds	r19, 0x01D3	; 0x8001d3 <cont_b+0x1>
    32a4:	2f 5f       	subi	r18, 0xFF	; 255
    32a6:	3f 4f       	sbci	r19, 0xFF	; 255
    32a8:	30 93 d3 01 	sts	0x01D3, r19	; 0x8001d3 <cont_b+0x1>
    32ac:	20 93 d2 01 	sts	0x01D2, r18	; 0x8001d2 <cont_b>
    32b0:	01 96       	adiw	r24, 0x01	; 1
    32b2:	90 93 d5 01 	sts	0x01D5, r25	; 0x8001d5 <cont_a+0x1>
    32b6:	80 93 d4 01 	sts	0x01D4, r24	; 0x8001d4 <cont_a>
    32ba:	80 91 d4 01 	lds	r24, 0x01D4	; 0x8001d4 <cont_a>
    32be:	90 91 d5 01 	lds	r25, 0x01D5	; 0x8001d5 <cont_a+0x1>
    32c2:	fc 01       	movw	r30, r24
    32c4:	e1 55       	subi	r30, 0x51	; 81
    32c6:	fe 4f       	sbci	r31, 0xFE	; 254
    32c8:	20 81       	ld	r18, Z
    32ca:	21 11       	cpse	r18, r1
    32cc:	e1 cf       	rjmp	.-62     	; 0x3290 <verify_senhaM+0x12>
    32ce:	80 91 d2 01 	lds	r24, 0x01D2	; 0x8001d2 <cont_b>
    32d2:	90 91 d3 01 	lds	r25, 0x01D3	; 0x8001d3 <cont_b+0x1>
    32d6:	04 97       	sbiw	r24, 0x04	; 4
    32d8:	49 f4       	brne	.+18     	; 0x32ec <verify_senhaM+0x6e>
    32da:	87 e0       	ldi	r24, 0x07	; 7
    32dc:	80 93 da 01 	sts	0x01DA, r24	; 0x8001da <state>
    32e0:	80 e4       	ldi	r24, 0x40	; 64
    32e2:	80 93 dc 01 	sts	0x01DC, r24	; 0x8001dc <varEscritaSerial>
    32e6:	0e 94 4f 1e 	call	0x3c9e	; 0x3c9e <clear_Display>
    32ea:	08 95       	ret
    32ec:	81 e0       	ldi	r24, 0x01	; 1
    32ee:	80 93 da 01 	sts	0x01DA, r24	; 0x8001da <state>
    32f2:	0e 94 4f 1e 	call	0x3c9e	; 0x3c9e <clear_Display>
    32f6:	0e 94 7a 1b 	call	0x36f4	; 0x36f4 <msg_desativado>
    32fa:	08 95       	ret

Disassembly of section .text.verify_senhaD:

00002a48 <verify_senhaD>:
    2a48:	10 92 d5 01 	sts	0x01D5, r1	; 0x8001d5 <cont_a+0x1>
    2a4c:	10 92 d4 01 	sts	0x01D4, r1	; 0x8001d4 <cont_a>
    2a50:	10 92 d3 01 	sts	0x01D3, r1	; 0x8001d3 <cont_b+0x1>
    2a54:	10 92 d2 01 	sts	0x01D2, r1	; 0x8001d2 <cont_b>
    2a58:	15 c0       	rjmp	.+42     	; 0x2a84 <verify_senhaD+0x3c>
    2a5a:	fc 01       	movw	r30, r24
    2a5c:	e1 5d       	subi	r30, 0xD1	; 209
    2a5e:	fe 4f       	sbci	r31, 0xFE	; 254
    2a60:	30 81       	ld	r19, Z
    2a62:	23 13       	cpse	r18, r19
    2a64:	0a c0       	rjmp	.+20     	; 0x2a7a <verify_senhaD+0x32>
    2a66:	20 91 d2 01 	lds	r18, 0x01D2	; 0x8001d2 <cont_b>
    2a6a:	30 91 d3 01 	lds	r19, 0x01D3	; 0x8001d3 <cont_b+0x1>
    2a6e:	2f 5f       	subi	r18, 0xFF	; 255
    2a70:	3f 4f       	sbci	r19, 0xFF	; 255
    2a72:	30 93 d3 01 	sts	0x01D3, r19	; 0x8001d3 <cont_b+0x1>
    2a76:	20 93 d2 01 	sts	0x01D2, r18	; 0x8001d2 <cont_b>
    2a7a:	01 96       	adiw	r24, 0x01	; 1
    2a7c:	90 93 d5 01 	sts	0x01D5, r25	; 0x8001d5 <cont_a+0x1>
    2a80:	80 93 d4 01 	sts	0x01D4, r24	; 0x8001d4 <cont_a>
    2a84:	80 91 d4 01 	lds	r24, 0x01D4	; 0x8001d4 <cont_a>
    2a88:	90 91 d5 01 	lds	r25, 0x01D5	; 0x8001d5 <cont_a+0x1>
    2a8c:	fc 01       	movw	r30, r24
    2a8e:	e1 55       	subi	r30, 0x51	; 81
    2a90:	fe 4f       	sbci	r31, 0xFE	; 254
    2a92:	20 81       	ld	r18, Z
    2a94:	21 11       	cpse	r18, r1
    2a96:	e1 cf       	rjmp	.-62     	; 0x2a5a <verify_senhaD+0x12>
    2a98:	80 91 d2 01 	lds	r24, 0x01D2	; 0x8001d2 <cont_b>
    2a9c:	90 91 d3 01 	lds	r25, 0x01D3	; 0x8001d3 <cont_b+0x1>
    2aa0:	04 97       	sbiw	r24, 0x04	; 4
    2aa2:	41 f4       	brne	.+16     	; 0x2ab4 <verify_senhaD+0x6c>
    2aa4:	81 e0       	ldi	r24, 0x01	; 1
    2aa6:	80 93 da 01 	sts	0x01DA, r24	; 0x8001da <state>
    2aaa:	0e 94 4f 1e 	call	0x3c9e	; 0x3c9e <clear_Display>
    2aae:	0e 94 7a 1b 	call	0x36f4	; 0x36f4 <msg_desativado>
    2ab2:	08 95       	ret
    2ab4:	10 92 d5 01 	sts	0x01D5, r1	; 0x8001d5 <cont_a+0x1>
    2ab8:	10 92 d4 01 	sts	0x01D4, r1	; 0x8001d4 <cont_a>
    2abc:	10 92 d3 01 	sts	0x01D3, r1	; 0x8001d3 <cont_b+0x1>
    2ac0:	10 92 d2 01 	sts	0x01D2, r1	; 0x8001d2 <cont_b>
    2ac4:	15 c0       	rjmp	.+42     	; 0x2af0 <verify_senhaD+0xa8>
    2ac6:	fc 01       	movw	r30, r24
    2ac8:	e1 5d       	subi	r30, 0xD1	; 209
    2aca:	fe 4f       	sbci	r31, 0xFE	; 254
    2acc:	30 81       	ld	r19, Z
    2ace:	23 13       	cpse	r18, r19
    2ad0:	0a c0       	rjmp	.+20     	; 0x2ae6 <verify_senhaD+0x9e>
    2ad2:	20 91 d2 01 	lds	r18, 0x01D2	; 0x8001d2 <cont_b>
    2ad6:	30 91 d3 01 	lds	r19, 0x01D3	; 0x8001d3 <cont_b+0x1>
    2ada:	2f 5f       	subi	r18, 0xFF	; 255
    2adc:	3f 4f       	sbci	r19, 0xFF	; 255
    2ade:	30 93 d3 01 	sts	0x01D3, r19	; 0x8001d3 <cont_b+0x1>
    2ae2:	20 93 d2 01 	sts	0x01D2, r18	; 0x8001d2 <cont_b>
    2ae6:	01 96       	adiw	r24, 0x01	; 1
    2ae8:	90 93 d5 01 	sts	0x01D5, r25	; 0x8001d5 <cont_a+0x1>
    2aec:	80 93 d4 01 	sts	0x01D4, r24	; 0x8001d4 <cont_a>
    2af0:	80 91 d4 01 	lds	r24, 0x01D4	; 0x8001d4 <cont_a>
    2af4:	90 91 d5 01 	lds	r25, 0x01D5	; 0x8001d5 <cont_a+0x1>
    2af8:	fc 01       	movw	r30, r24
    2afa:	e6 55       	subi	r30, 0x56	; 86
    2afc:	fe 4f       	sbci	r31, 0xFE	; 254
    2afe:	20 81       	ld	r18, Z
    2b00:	21 11       	cpse	r18, r1
    2b02:	e1 cf       	rjmp	.-62     	; 0x2ac6 <verify_senhaD+0x7e>
    2b04:	80 91 d2 01 	lds	r24, 0x01D2	; 0x8001d2 <cont_b>
    2b08:	90 91 d3 01 	lds	r25, 0x01D3	; 0x8001d3 <cont_b+0x1>
    2b0c:	04 97       	sbiw	r24, 0x04	; 4
    2b0e:	41 f4       	brne	.+16     	; 0x2b20 <verify_senhaD+0xd8>
    2b10:	81 e0       	ldi	r24, 0x01	; 1
    2b12:	80 93 da 01 	sts	0x01DA, r24	; 0x8001da <state>
    2b16:	0e 94 4f 1e 	call	0x3c9e	; 0x3c9e <clear_Display>
    2b1a:	0e 94 7a 1b 	call	0x36f4	; 0x36f4 <msg_desativado>
    2b1e:	08 95       	ret
    2b20:	10 92 d5 01 	sts	0x01D5, r1	; 0x8001d5 <cont_a+0x1>
    2b24:	10 92 d4 01 	sts	0x01D4, r1	; 0x8001d4 <cont_a>
    2b28:	10 92 d3 01 	sts	0x01D3, r1	; 0x8001d3 <cont_b+0x1>
    2b2c:	10 92 d2 01 	sts	0x01D2, r1	; 0x8001d2 <cont_b>
    2b30:	15 c0       	rjmp	.+42     	; 0x2b5c <verify_senhaD+0x114>
    2b32:	fc 01       	movw	r30, r24
    2b34:	e1 5d       	subi	r30, 0xD1	; 209
    2b36:	fe 4f       	sbci	r31, 0xFE	; 254
    2b38:	30 81       	ld	r19, Z
    2b3a:	23 13       	cpse	r18, r19
    2b3c:	0a c0       	rjmp	.+20     	; 0x2b52 <verify_senhaD+0x10a>
    2b3e:	20 91 d2 01 	lds	r18, 0x01D2	; 0x8001d2 <cont_b>
    2b42:	30 91 d3 01 	lds	r19, 0x01D3	; 0x8001d3 <cont_b+0x1>
    2b46:	2f 5f       	subi	r18, 0xFF	; 255
    2b48:	3f 4f       	sbci	r19, 0xFF	; 255
    2b4a:	30 93 d3 01 	sts	0x01D3, r19	; 0x8001d3 <cont_b+0x1>
    2b4e:	20 93 d2 01 	sts	0x01D2, r18	; 0x8001d2 <cont_b>
    2b52:	01 96       	adiw	r24, 0x01	; 1
    2b54:	90 93 d5 01 	sts	0x01D5, r25	; 0x8001d5 <cont_a+0x1>
    2b58:	80 93 d4 01 	sts	0x01D4, r24	; 0x8001d4 <cont_a>
    2b5c:	80 91 d4 01 	lds	r24, 0x01D4	; 0x8001d4 <cont_a>
    2b60:	90 91 d5 01 	lds	r25, 0x01D5	; 0x8001d5 <cont_a+0x1>
    2b64:	fc 01       	movw	r30, r24
    2b66:	eb 55       	subi	r30, 0x5B	; 91
    2b68:	fe 4f       	sbci	r31, 0xFE	; 254
    2b6a:	20 81       	ld	r18, Z
    2b6c:	21 11       	cpse	r18, r1
    2b6e:	e1 cf       	rjmp	.-62     	; 0x2b32 <verify_senhaD+0xea>
    2b70:	80 91 d2 01 	lds	r24, 0x01D2	; 0x8001d2 <cont_b>
    2b74:	90 91 d3 01 	lds	r25, 0x01D3	; 0x8001d3 <cont_b+0x1>
    2b78:	04 97       	sbiw	r24, 0x04	; 4
    2b7a:	41 f4       	brne	.+16     	; 0x2b8c <verify_senhaD+0x144>
    2b7c:	81 e0       	ldi	r24, 0x01	; 1
    2b7e:	80 93 da 01 	sts	0x01DA, r24	; 0x8001da <state>
    2b82:	0e 94 4f 1e 	call	0x3c9e	; 0x3c9e <clear_Display>
    2b86:	0e 94 7a 1b 	call	0x36f4	; 0x36f4 <msg_desativado>
    2b8a:	08 95       	ret
    2b8c:	10 92 d5 01 	sts	0x01D5, r1	; 0x8001d5 <cont_a+0x1>
    2b90:	10 92 d4 01 	sts	0x01D4, r1	; 0x8001d4 <cont_a>
    2b94:	10 92 d3 01 	sts	0x01D3, r1	; 0x8001d3 <cont_b+0x1>
    2b98:	10 92 d2 01 	sts	0x01D2, r1	; 0x8001d2 <cont_b>
    2b9c:	15 c0       	rjmp	.+42     	; 0x2bc8 <verify_senhaD+0x180>
    2b9e:	fc 01       	movw	r30, r24
    2ba0:	e1 5d       	subi	r30, 0xD1	; 209
    2ba2:	fe 4f       	sbci	r31, 0xFE	; 254
    2ba4:	30 81       	ld	r19, Z
    2ba6:	23 13       	cpse	r18, r19
    2ba8:	0a c0       	rjmp	.+20     	; 0x2bbe <verify_senhaD+0x176>
    2baa:	20 91 d2 01 	lds	r18, 0x01D2	; 0x8001d2 <cont_b>
    2bae:	30 91 d3 01 	lds	r19, 0x01D3	; 0x8001d3 <cont_b+0x1>
    2bb2:	2f 5f       	subi	r18, 0xFF	; 255
    2bb4:	3f 4f       	sbci	r19, 0xFF	; 255
    2bb6:	30 93 d3 01 	sts	0x01D3, r19	; 0x8001d3 <cont_b+0x1>
    2bba:	20 93 d2 01 	sts	0x01D2, r18	; 0x8001d2 <cont_b>
    2bbe:	01 96       	adiw	r24, 0x01	; 1
    2bc0:	90 93 d5 01 	sts	0x01D5, r25	; 0x8001d5 <cont_a+0x1>
    2bc4:	80 93 d4 01 	sts	0x01D4, r24	; 0x8001d4 <cont_a>
    2bc8:	80 91 d4 01 	lds	r24, 0x01D4	; 0x8001d4 <cont_a>
    2bcc:	90 91 d5 01 	lds	r25, 0x01D5	; 0x8001d5 <cont_a+0x1>
    2bd0:	fc 01       	movw	r30, r24
    2bd2:	e0 56       	subi	r30, 0x60	; 96
    2bd4:	fe 4f       	sbci	r31, 0xFE	; 254
    2bd6:	20 81       	ld	r18, Z
    2bd8:	21 11       	cpse	r18, r1
    2bda:	e1 cf       	rjmp	.-62     	; 0x2b9e <verify_senhaD+0x156>
    2bdc:	80 91 d2 01 	lds	r24, 0x01D2	; 0x8001d2 <cont_b>
    2be0:	90 91 d3 01 	lds	r25, 0x01D3	; 0x8001d3 <cont_b+0x1>
    2be4:	04 97       	sbiw	r24, 0x04	; 4
    2be6:	41 f4       	brne	.+16     	; 0x2bf8 <verify_senhaD+0x1b0>
    2be8:	81 e0       	ldi	r24, 0x01	; 1
    2bea:	80 93 da 01 	sts	0x01DA, r24	; 0x8001da <state>
    2bee:	0e 94 4f 1e 	call	0x3c9e	; 0x3c9e <clear_Display>
    2bf2:	0e 94 7a 1b 	call	0x36f4	; 0x36f4 <msg_desativado>
    2bf6:	08 95       	ret
    2bf8:	85 e0       	ldi	r24, 0x05	; 5
    2bfa:	80 93 da 01 	sts	0x01DA, r24	; 0x8001da <state>
    2bfe:	0e 94 4f 1e 	call	0x3c9e	; 0x3c9e <clear_Display>
    2c02:	08 95       	ret

Disassembly of section .text.hab_sensor:

00002dac <hab_sensor>:
    2dac:	21 e0       	ldi	r18, 0x01	; 1
    2dae:	30 e0       	ldi	r19, 0x00	; 0
    2db0:	30 93 d1 01 	sts	0x01D1, r19	; 0x8001d1 <flag_sensor+0x1>
    2db4:	20 93 d0 01 	sts	0x01D0, r18	; 0x8001d0 <flag_sensor>
    2db8:	20 91 ce 01 	lds	r18, 0x01CE	; 0x8001ce <flag_D_sensor>
    2dbc:	30 91 cf 01 	lds	r19, 0x01CF	; 0x8001cf <flag_D_sensor+0x1>
    2dc0:	21 15       	cp	r18, r1
    2dc2:	31 05       	cpc	r19, r1
    2dc4:	09 f0       	breq	.+2      	; 0x2dc8 <hab_sensor+0x1c>
    2dc6:	4f c0       	rjmp	.+158    	; 0x2e66 <hab_sensor+0xba>
    2dc8:	00 97       	sbiw	r24, 0x00	; 0
    2dca:	39 f4       	brne	.+14     	; 0x2dda <hab_sensor+0x2e>
    2dcc:	81 e0       	ldi	r24, 0x01	; 1
    2dce:	90 e0       	ldi	r25, 0x00	; 0
    2dd0:	90 93 9d 01 	sts	0x019D, r25	; 0x80019d <sensor0+0x3>
    2dd4:	80 93 9c 01 	sts	0x019C, r24	; 0x80019c <sensor0+0x2>
    2dd8:	08 95       	ret
    2dda:	81 30       	cpi	r24, 0x01	; 1
    2ddc:	91 05       	cpc	r25, r1
    2dde:	39 f4       	brne	.+14     	; 0x2dee <hab_sensor+0x42>
    2de0:	81 e0       	ldi	r24, 0x01	; 1
    2de2:	90 e0       	ldi	r25, 0x00	; 0
    2de4:	90 93 97 01 	sts	0x0197, r25	; 0x800197 <sensor1+0x3>
    2de8:	80 93 96 01 	sts	0x0196, r24	; 0x800196 <sensor1+0x2>
    2dec:	08 95       	ret
    2dee:	82 30       	cpi	r24, 0x02	; 2
    2df0:	91 05       	cpc	r25, r1
    2df2:	39 f4       	brne	.+14     	; 0x2e02 <hab_sensor+0x56>
    2df4:	81 e0       	ldi	r24, 0x01	; 1
    2df6:	90 e0       	ldi	r25, 0x00	; 0
    2df8:	90 93 91 01 	sts	0x0191, r25	; 0x800191 <sensor2+0x3>
    2dfc:	80 93 90 01 	sts	0x0190, r24	; 0x800190 <sensor2+0x2>
    2e00:	08 95       	ret
    2e02:	83 30       	cpi	r24, 0x03	; 3
    2e04:	91 05       	cpc	r25, r1
    2e06:	39 f4       	brne	.+14     	; 0x2e16 <hab_sensor+0x6a>
    2e08:	81 e0       	ldi	r24, 0x01	; 1
    2e0a:	90 e0       	ldi	r25, 0x00	; 0
    2e0c:	90 93 8b 01 	sts	0x018B, r25	; 0x80018b <sensor3+0x3>
    2e10:	80 93 8a 01 	sts	0x018A, r24	; 0x80018a <sensor3+0x2>
    2e14:	08 95       	ret
    2e16:	84 30       	cpi	r24, 0x04	; 4
    2e18:	91 05       	cpc	r25, r1
    2e1a:	39 f4       	brne	.+14     	; 0x2e2a <hab_sensor+0x7e>
    2e1c:	81 e0       	ldi	r24, 0x01	; 1
    2e1e:	90 e0       	ldi	r25, 0x00	; 0
    2e20:	90 93 85 01 	sts	0x0185, r25	; 0x800185 <sensor4+0x3>
    2e24:	80 93 84 01 	sts	0x0184, r24	; 0x800184 <sensor4+0x2>
    2e28:	08 95       	ret
    2e2a:	85 30       	cpi	r24, 0x05	; 5
    2e2c:	91 05       	cpc	r25, r1
    2e2e:	39 f4       	brne	.+14     	; 0x2e3e <hab_sensor+0x92>
    2e30:	81 e0       	ldi	r24, 0x01	; 1
    2e32:	90 e0       	ldi	r25, 0x00	; 0
    2e34:	90 93 7f 01 	sts	0x017F, r25	; 0x80017f <sensor5+0x3>
    2e38:	80 93 7e 01 	sts	0x017E, r24	; 0x80017e <sensor5+0x2>
    2e3c:	08 95       	ret
    2e3e:	86 30       	cpi	r24, 0x06	; 6
    2e40:	91 05       	cpc	r25, r1
    2e42:	39 f4       	brne	.+14     	; 0x2e52 <hab_sensor+0xa6>
    2e44:	81 e0       	ldi	r24, 0x01	; 1
    2e46:	90 e0       	ldi	r25, 0x00	; 0
    2e48:	90 93 79 01 	sts	0x0179, r25	; 0x800179 <sensor6+0x3>
    2e4c:	80 93 78 01 	sts	0x0178, r24	; 0x800178 <sensor6+0x2>
    2e50:	08 95       	ret
    2e52:	07 97       	sbiw	r24, 0x07	; 7
    2e54:	09 f0       	breq	.+2      	; 0x2e58 <hab_sensor+0xac>
    2e56:	4c c0       	rjmp	.+152    	; 0x2ef0 <hab_sensor+0x144>
    2e58:	81 e0       	ldi	r24, 0x01	; 1
    2e5a:	90 e0       	ldi	r25, 0x00	; 0
    2e5c:	90 93 73 01 	sts	0x0173, r25	; 0x800173 <sensor7+0x3>
    2e60:	80 93 72 01 	sts	0x0172, r24	; 0x800172 <sensor7+0x2>
    2e64:	08 95       	ret
    2e66:	21 30       	cpi	r18, 0x01	; 1
    2e68:	31 05       	cpc	r19, r1
    2e6a:	09 f0       	breq	.+2      	; 0x2e6e <hab_sensor+0xc2>
    2e6c:	41 c0       	rjmp	.+130    	; 0x2ef0 <hab_sensor+0x144>
    2e6e:	00 97       	sbiw	r24, 0x00	; 0
    2e70:	29 f4       	brne	.+10     	; 0x2e7c <hab_sensor+0xd0>
    2e72:	10 92 9d 01 	sts	0x019D, r1	; 0x80019d <sensor0+0x3>
    2e76:	10 92 9c 01 	sts	0x019C, r1	; 0x80019c <sensor0+0x2>
    2e7a:	36 c0       	rjmp	.+108    	; 0x2ee8 <hab_sensor+0x13c>
    2e7c:	81 30       	cpi	r24, 0x01	; 1
    2e7e:	91 05       	cpc	r25, r1
    2e80:	29 f4       	brne	.+10     	; 0x2e8c <hab_sensor+0xe0>
    2e82:	10 92 97 01 	sts	0x0197, r1	; 0x800197 <sensor1+0x3>
    2e86:	10 92 96 01 	sts	0x0196, r1	; 0x800196 <sensor1+0x2>
    2e8a:	2e c0       	rjmp	.+92     	; 0x2ee8 <hab_sensor+0x13c>
    2e8c:	82 30       	cpi	r24, 0x02	; 2
    2e8e:	91 05       	cpc	r25, r1
    2e90:	29 f4       	brne	.+10     	; 0x2e9c <hab_sensor+0xf0>
    2e92:	10 92 91 01 	sts	0x0191, r1	; 0x800191 <sensor2+0x3>
    2e96:	10 92 90 01 	sts	0x0190, r1	; 0x800190 <sensor2+0x2>
    2e9a:	26 c0       	rjmp	.+76     	; 0x2ee8 <hab_sensor+0x13c>
    2e9c:	83 30       	cpi	r24, 0x03	; 3
    2e9e:	91 05       	cpc	r25, r1
    2ea0:	29 f4       	brne	.+10     	; 0x2eac <hab_sensor+0x100>
    2ea2:	10 92 8b 01 	sts	0x018B, r1	; 0x80018b <sensor3+0x3>
    2ea6:	10 92 8a 01 	sts	0x018A, r1	; 0x80018a <sensor3+0x2>
    2eaa:	1e c0       	rjmp	.+60     	; 0x2ee8 <hab_sensor+0x13c>
    2eac:	84 30       	cpi	r24, 0x04	; 4
    2eae:	91 05       	cpc	r25, r1
    2eb0:	29 f4       	brne	.+10     	; 0x2ebc <hab_sensor+0x110>
    2eb2:	10 92 85 01 	sts	0x0185, r1	; 0x800185 <sensor4+0x3>
    2eb6:	10 92 84 01 	sts	0x0184, r1	; 0x800184 <sensor4+0x2>
    2eba:	16 c0       	rjmp	.+44     	; 0x2ee8 <hab_sensor+0x13c>
    2ebc:	85 30       	cpi	r24, 0x05	; 5
    2ebe:	91 05       	cpc	r25, r1
    2ec0:	29 f4       	brne	.+10     	; 0x2ecc <hab_sensor+0x120>
    2ec2:	10 92 7f 01 	sts	0x017F, r1	; 0x80017f <sensor5+0x3>
    2ec6:	10 92 7e 01 	sts	0x017E, r1	; 0x80017e <sensor5+0x2>
    2eca:	0e c0       	rjmp	.+28     	; 0x2ee8 <hab_sensor+0x13c>
    2ecc:	86 30       	cpi	r24, 0x06	; 6
    2ece:	91 05       	cpc	r25, r1
    2ed0:	29 f4       	brne	.+10     	; 0x2edc <hab_sensor+0x130>
    2ed2:	10 92 79 01 	sts	0x0179, r1	; 0x800179 <sensor6+0x3>
    2ed6:	10 92 78 01 	sts	0x0178, r1	; 0x800178 <sensor6+0x2>
    2eda:	06 c0       	rjmp	.+12     	; 0x2ee8 <hab_sensor+0x13c>
    2edc:	07 97       	sbiw	r24, 0x07	; 7
    2ede:	21 f4       	brne	.+8      	; 0x2ee8 <hab_sensor+0x13c>
    2ee0:	10 92 73 01 	sts	0x0173, r1	; 0x800173 <sensor7+0x3>
    2ee4:	10 92 72 01 	sts	0x0172, r1	; 0x800172 <sensor7+0x2>
    2ee8:	10 92 cf 01 	sts	0x01CF, r1	; 0x8001cf <flag_D_sensor+0x1>
    2eec:	10 92 ce 01 	sts	0x01CE, r1	; 0x8001ce <flag_D_sensor>
    2ef0:	08 95       	ret

Disassembly of section .text.hab_zonas:

00002ff4 <hab_zonas>:
    2ff4:	21 e0       	ldi	r18, 0x01	; 1
    2ff6:	30 e0       	ldi	r19, 0x00	; 0
    2ff8:	30 93 d1 01 	sts	0x01D1, r19	; 0x8001d1 <flag_sensor+0x1>
    2ffc:	20 93 d0 01 	sts	0x01D0, r18	; 0x8001d0 <flag_sensor>
    3000:	20 91 ce 01 	lds	r18, 0x01CE	; 0x8001ce <flag_D_sensor>
    3004:	30 91 cf 01 	lds	r19, 0x01CF	; 0x8001cf <flag_D_sensor+0x1>
    3008:	21 15       	cp	r18, r1
    300a:	31 05       	cpc	r19, r1
    300c:	61 f5       	brne	.+88     	; 0x3066 <hab_zonas+0x72>
    300e:	81 30       	cpi	r24, 0x01	; 1
    3010:	91 05       	cpc	r25, r1
    3012:	61 f4       	brne	.+24     	; 0x302c <hab_zonas+0x38>
    3014:	81 e0       	ldi	r24, 0x01	; 1
    3016:	90 e0       	ldi	r25, 0x00	; 0
    3018:	90 93 5f 01 	sts	0x015F, r25	; 0x80015f <zona1+0x3>
    301c:	80 93 5e 01 	sts	0x015E, r24	; 0x80015e <zona1+0x2>
    3020:	80 91 11 01 	lds	r24, 0x0111	; 0x800111 <var_aux_1>
    3024:	80 62       	ori	r24, 0x20	; 32
    3026:	80 93 11 01 	sts	0x0111, r24	; 0x800111 <var_aux_1>
    302a:	08 95       	ret
    302c:	82 30       	cpi	r24, 0x02	; 2
    302e:	91 05       	cpc	r25, r1
    3030:	61 f4       	brne	.+24     	; 0x304a <hab_zonas+0x56>
    3032:	81 e0       	ldi	r24, 0x01	; 1
    3034:	90 e0       	ldi	r25, 0x00	; 0
    3036:	90 93 4b 01 	sts	0x014B, r25	; 0x80014b <zona2+0x3>
    303a:	80 93 4a 01 	sts	0x014A, r24	; 0x80014a <zona2+0x2>
    303e:	80 91 11 01 	lds	r24, 0x0111	; 0x800111 <var_aux_1>
    3042:	80 61       	ori	r24, 0x10	; 16
    3044:	80 93 11 01 	sts	0x0111, r24	; 0x800111 <var_aux_1>
    3048:	08 95       	ret
    304a:	03 97       	sbiw	r24, 0x03	; 3
    304c:	c1 f5       	brne	.+112    	; 0x30be <hab_zonas+0xca>
    304e:	81 e0       	ldi	r24, 0x01	; 1
    3050:	90 e0       	ldi	r25, 0x00	; 0
    3052:	90 93 37 01 	sts	0x0137, r25	; 0x800137 <_end+0x3>
    3056:	80 93 36 01 	sts	0x0136, r24	; 0x800136 <_end+0x2>
    305a:	80 91 11 01 	lds	r24, 0x0111	; 0x800111 <var_aux_1>
    305e:	88 60       	ori	r24, 0x08	; 8
    3060:	80 93 11 01 	sts	0x0111, r24	; 0x800111 <var_aux_1>
    3064:	08 95       	ret
    3066:	21 30       	cpi	r18, 0x01	; 1
    3068:	31 05       	cpc	r19, r1
    306a:	49 f5       	brne	.+82     	; 0x30be <hab_zonas+0xca>
    306c:	81 30       	cpi	r24, 0x01	; 1
    306e:	91 05       	cpc	r25, r1
    3070:	51 f4       	brne	.+20     	; 0x3086 <hab_zonas+0x92>
    3072:	10 92 5f 01 	sts	0x015F, r1	; 0x80015f <zona1+0x3>
    3076:	10 92 5e 01 	sts	0x015E, r1	; 0x80015e <zona1+0x2>
    307a:	80 91 11 01 	lds	r24, 0x0111	; 0x800111 <var_aux_1>
    307e:	8f 7d       	andi	r24, 0xDF	; 223
    3080:	80 93 11 01 	sts	0x0111, r24	; 0x800111 <var_aux_1>
    3084:	18 c0       	rjmp	.+48     	; 0x30b6 <hab_zonas+0xc2>
    3086:	82 30       	cpi	r24, 0x02	; 2
    3088:	91 05       	cpc	r25, r1
    308a:	51 f4       	brne	.+20     	; 0x30a0 <hab_zonas+0xac>
    308c:	10 92 4b 01 	sts	0x014B, r1	; 0x80014b <zona2+0x3>
    3090:	10 92 4a 01 	sts	0x014A, r1	; 0x80014a <zona2+0x2>
    3094:	80 91 11 01 	lds	r24, 0x0111	; 0x800111 <var_aux_1>
    3098:	8f 7e       	andi	r24, 0xEF	; 239
    309a:	80 93 11 01 	sts	0x0111, r24	; 0x800111 <var_aux_1>
    309e:	0b c0       	rjmp	.+22     	; 0x30b6 <hab_zonas+0xc2>
    30a0:	03 97       	sbiw	r24, 0x03	; 3
    30a2:	49 f4       	brne	.+18     	; 0x30b6 <hab_zonas+0xc2>
    30a4:	10 92 37 01 	sts	0x0137, r1	; 0x800137 <_end+0x3>
    30a8:	10 92 36 01 	sts	0x0136, r1	; 0x800136 <_end+0x2>
    30ac:	80 91 11 01 	lds	r24, 0x0111	; 0x800111 <var_aux_1>
    30b0:	87 7f       	andi	r24, 0xF7	; 247
    30b2:	80 93 11 01 	sts	0x0111, r24	; 0x800111 <var_aux_1>
    30b6:	10 92 cf 01 	sts	0x01CF, r1	; 0x8001cf <flag_D_sensor+0x1>
    30ba:	10 92 ce 01 	sts	0x01CE, r1	; 0x8001ce <flag_D_sensor>
    30be:	08 95       	ret

Disassembly of section .text.assSensorZona:

0000260a <assSensorZona>:
    260a:	20 91 ce 01 	lds	r18, 0x01CE	; 0x8001ce <flag_D_sensor>
    260e:	30 91 cf 01 	lds	r19, 0x01CF	; 0x8001cf <flag_D_sensor+0x1>
    2612:	21 15       	cp	r18, r1
    2614:	31 05       	cpc	r19, r1
    2616:	09 f0       	breq	.+2      	; 0x261a <assSensorZona+0x10>
    2618:	64 c1       	rjmp	.+712    	; 0x28e2 <assSensorZona+0x2d8>
    261a:	61 30       	cpi	r22, 0x01	; 1
    261c:	71 05       	cpc	r23, r1
    261e:	09 f0       	breq	.+2      	; 0x2622 <assSensorZona+0x18>
    2620:	68 c0       	rjmp	.+208    	; 0x26f2 <assSensorZona+0xe8>
    2622:	00 97       	sbiw	r24, 0x00	; 0
    2624:	51 f4       	brne	.+20     	; 0x263a <assSensorZona+0x30>
    2626:	21 e0       	ldi	r18, 0x01	; 1
    2628:	30 e0       	ldi	r19, 0x00	; 0
    262a:	30 93 61 01 	sts	0x0161, r19	; 0x800161 <zona1+0x5>
    262e:	20 93 60 01 	sts	0x0160, r18	; 0x800160 <zona1+0x4>
    2632:	30 93 9f 01 	sts	0x019F, r19	; 0x80019f <sensor0+0x5>
    2636:	20 93 9e 01 	sts	0x019E, r18	; 0x80019e <sensor0+0x4>
    263a:	81 30       	cpi	r24, 0x01	; 1
    263c:	91 05       	cpc	r25, r1
    263e:	51 f4       	brne	.+20     	; 0x2654 <assSensorZona+0x4a>
    2640:	21 e0       	ldi	r18, 0x01	; 1
    2642:	30 e0       	ldi	r19, 0x00	; 0
    2644:	30 93 63 01 	sts	0x0163, r19	; 0x800163 <zona1+0x7>
    2648:	20 93 62 01 	sts	0x0162, r18	; 0x800162 <zona1+0x6>
    264c:	30 93 99 01 	sts	0x0199, r19	; 0x800199 <sensor1+0x5>
    2650:	20 93 98 01 	sts	0x0198, r18	; 0x800198 <sensor1+0x4>
    2654:	82 30       	cpi	r24, 0x02	; 2
    2656:	91 05       	cpc	r25, r1
    2658:	51 f4       	brne	.+20     	; 0x266e <assSensorZona+0x64>
    265a:	21 e0       	ldi	r18, 0x01	; 1
    265c:	30 e0       	ldi	r19, 0x00	; 0
    265e:	30 93 65 01 	sts	0x0165, r19	; 0x800165 <zona1+0x9>
    2662:	20 93 64 01 	sts	0x0164, r18	; 0x800164 <zona1+0x8>
    2666:	30 93 93 01 	sts	0x0193, r19	; 0x800193 <sensor2+0x5>
    266a:	20 93 92 01 	sts	0x0192, r18	; 0x800192 <sensor2+0x4>
    266e:	83 30       	cpi	r24, 0x03	; 3
    2670:	91 05       	cpc	r25, r1
    2672:	51 f4       	brne	.+20     	; 0x2688 <assSensorZona+0x7e>
    2674:	21 e0       	ldi	r18, 0x01	; 1
    2676:	30 e0       	ldi	r19, 0x00	; 0
    2678:	30 93 67 01 	sts	0x0167, r19	; 0x800167 <zona1+0xb>
    267c:	20 93 66 01 	sts	0x0166, r18	; 0x800166 <zona1+0xa>
    2680:	30 93 8d 01 	sts	0x018D, r19	; 0x80018d <sensor3+0x5>
    2684:	20 93 8c 01 	sts	0x018C, r18	; 0x80018c <sensor3+0x4>
    2688:	84 30       	cpi	r24, 0x04	; 4
    268a:	91 05       	cpc	r25, r1
    268c:	51 f4       	brne	.+20     	; 0x26a2 <assSensorZona+0x98>
    268e:	21 e0       	ldi	r18, 0x01	; 1
    2690:	30 e0       	ldi	r19, 0x00	; 0
    2692:	30 93 69 01 	sts	0x0169, r19	; 0x800169 <zona1+0xd>
    2696:	20 93 68 01 	sts	0x0168, r18	; 0x800168 <zona1+0xc>
    269a:	30 93 87 01 	sts	0x0187, r19	; 0x800187 <sensor4+0x5>
    269e:	20 93 86 01 	sts	0x0186, r18	; 0x800186 <sensor4+0x4>
    26a2:	85 30       	cpi	r24, 0x05	; 5
    26a4:	91 05       	cpc	r25, r1
    26a6:	51 f4       	brne	.+20     	; 0x26bc <assSensorZona+0xb2>
    26a8:	21 e0       	ldi	r18, 0x01	; 1
    26aa:	30 e0       	ldi	r19, 0x00	; 0
    26ac:	30 93 6b 01 	sts	0x016B, r19	; 0x80016b <zona1+0xf>
    26b0:	20 93 6a 01 	sts	0x016A, r18	; 0x80016a <zona1+0xe>
    26b4:	30 93 81 01 	sts	0x0181, r19	; 0x800181 <sensor5+0x5>
    26b8:	20 93 80 01 	sts	0x0180, r18	; 0x800180 <sensor5+0x4>
    26bc:	86 30       	cpi	r24, 0x06	; 6
    26be:	91 05       	cpc	r25, r1
    26c0:	51 f4       	brne	.+20     	; 0x26d6 <assSensorZona+0xcc>
    26c2:	21 e0       	ldi	r18, 0x01	; 1
    26c4:	30 e0       	ldi	r19, 0x00	; 0
    26c6:	30 93 6d 01 	sts	0x016D, r19	; 0x80016d <zona1+0x11>
    26ca:	20 93 6c 01 	sts	0x016C, r18	; 0x80016c <zona1+0x10>
    26ce:	30 93 7b 01 	sts	0x017B, r19	; 0x80017b <sensor6+0x5>
    26d2:	20 93 7a 01 	sts	0x017A, r18	; 0x80017a <sensor6+0x4>
    26d6:	07 97       	sbiw	r24, 0x07	; 7
    26d8:	09 f0       	breq	.+2      	; 0x26dc <assSensorZona+0xd2>
    26da:	b5 c1       	rjmp	.+874    	; 0x2a46 <assSensorZona+0x43c>
    26dc:	81 e0       	ldi	r24, 0x01	; 1
    26de:	90 e0       	ldi	r25, 0x00	; 0
    26e0:	90 93 6f 01 	sts	0x016F, r25	; 0x80016f <zona1+0x13>
    26e4:	80 93 6e 01 	sts	0x016E, r24	; 0x80016e <zona1+0x12>
    26e8:	90 93 75 01 	sts	0x0175, r25	; 0x800175 <sensor7+0x5>
    26ec:	80 93 74 01 	sts	0x0174, r24	; 0x800174 <sensor7+0x4>
    26f0:	08 95       	ret
    26f2:	62 30       	cpi	r22, 0x02	; 2
    26f4:	71 05       	cpc	r23, r1
    26f6:	09 f0       	breq	.+2      	; 0x26fa <assSensorZona+0xf0>
    26f8:	78 c0       	rjmp	.+240    	; 0x27ea <assSensorZona+0x1e0>
    26fa:	00 97       	sbiw	r24, 0x00	; 0
    26fc:	61 f4       	brne	.+24     	; 0x2716 <assSensorZona+0x10c>
    26fe:	21 e0       	ldi	r18, 0x01	; 1
    2700:	30 e0       	ldi	r19, 0x00	; 0
    2702:	30 93 61 01 	sts	0x0161, r19	; 0x800161 <zona1+0x5>
    2706:	20 93 60 01 	sts	0x0160, r18	; 0x800160 <zona1+0x4>
    270a:	22 e0       	ldi	r18, 0x02	; 2
    270c:	30 e0       	ldi	r19, 0x00	; 0
    270e:	30 93 9f 01 	sts	0x019F, r19	; 0x80019f <sensor0+0x5>
    2712:	20 93 9e 01 	sts	0x019E, r18	; 0x80019e <sensor0+0x4>
    2716:	81 30       	cpi	r24, 0x01	; 1
    2718:	91 05       	cpc	r25, r1
    271a:	61 f4       	brne	.+24     	; 0x2734 <assSensorZona+0x12a>
    271c:	21 e0       	ldi	r18, 0x01	; 1
    271e:	30 e0       	ldi	r19, 0x00	; 0
    2720:	30 93 63 01 	sts	0x0163, r19	; 0x800163 <zona1+0x7>
    2724:	20 93 62 01 	sts	0x0162, r18	; 0x800162 <zona1+0x6>
    2728:	22 e0       	ldi	r18, 0x02	; 2
    272a:	30 e0       	ldi	r19, 0x00	; 0
    272c:	30 93 99 01 	sts	0x0199, r19	; 0x800199 <sensor1+0x5>
    2730:	20 93 98 01 	sts	0x0198, r18	; 0x800198 <sensor1+0x4>
    2734:	82 30       	cpi	r24, 0x02	; 2
    2736:	91 05       	cpc	r25, r1
    2738:	61 f4       	brne	.+24     	; 0x2752 <assSensorZona+0x148>
    273a:	21 e0       	ldi	r18, 0x01	; 1
    273c:	30 e0       	ldi	r19, 0x00	; 0
    273e:	30 93 65 01 	sts	0x0165, r19	; 0x800165 <zona1+0x9>
    2742:	20 93 64 01 	sts	0x0164, r18	; 0x800164 <zona1+0x8>
    2746:	22 e0       	ldi	r18, 0x02	; 2
    2748:	30 e0       	ldi	r19, 0x00	; 0
    274a:	30 93 93 01 	sts	0x0193, r19	; 0x800193 <sensor2+0x5>
    274e:	20 93 92 01 	sts	0x0192, r18	; 0x800192 <sensor2+0x4>
    2752:	83 30       	cpi	r24, 0x03	; 3
    2754:	91 05       	cpc	r25, r1
    2756:	61 f4       	brne	.+24     	; 0x2770 <assSensorZona+0x166>
    2758:	21 e0       	ldi	r18, 0x01	; 1
    275a:	30 e0       	ldi	r19, 0x00	; 0
    275c:	30 93 67 01 	sts	0x0167, r19	; 0x800167 <zona1+0xb>
    2760:	20 93 66 01 	sts	0x0166, r18	; 0x800166 <zona1+0xa>
    2764:	22 e0       	ldi	r18, 0x02	; 2
    2766:	30 e0       	ldi	r19, 0x00	; 0
    2768:	30 93 8d 01 	sts	0x018D, r19	; 0x80018d <sensor3+0x5>
    276c:	20 93 8c 01 	sts	0x018C, r18	; 0x80018c <sensor3+0x4>
    2770:	84 30       	cpi	r24, 0x04	; 4
    2772:	91 05       	cpc	r25, r1
    2774:	61 f4       	brne	.+24     	; 0x278e <assSensorZona+0x184>
    2776:	21 e0       	ldi	r18, 0x01	; 1
    2778:	30 e0       	ldi	r19, 0x00	; 0
    277a:	30 93 69 01 	sts	0x0169, r19	; 0x800169 <zona1+0xd>
    277e:	20 93 68 01 	sts	0x0168, r18	; 0x800168 <zona1+0xc>
    2782:	22 e0       	ldi	r18, 0x02	; 2
    2784:	30 e0       	ldi	r19, 0x00	; 0
    2786:	30 93 87 01 	sts	0x0187, r19	; 0x800187 <sensor4+0x5>
    278a:	20 93 86 01 	sts	0x0186, r18	; 0x800186 <sensor4+0x4>
    278e:	85 30       	cpi	r24, 0x05	; 5
    2790:	91 05       	cpc	r25, r1
    2792:	61 f4       	brne	.+24     	; 0x27ac <assSensorZona+0x1a2>
    2794:	21 e0       	ldi	r18, 0x01	; 1
    2796:	30 e0       	ldi	r19, 0x00	; 0
    2798:	30 93 6b 01 	sts	0x016B, r19	; 0x80016b <zona1+0xf>
    279c:	20 93 6a 01 	sts	0x016A, r18	; 0x80016a <zona1+0xe>
    27a0:	22 e0       	ldi	r18, 0x02	; 2
    27a2:	30 e0       	ldi	r19, 0x00	; 0
    27a4:	30 93 81 01 	sts	0x0181, r19	; 0x800181 <sensor5+0x5>
    27a8:	20 93 80 01 	sts	0x0180, r18	; 0x800180 <sensor5+0x4>
    27ac:	86 30       	cpi	r24, 0x06	; 6
    27ae:	91 05       	cpc	r25, r1
    27b0:	61 f4       	brne	.+24     	; 0x27ca <assSensorZona+0x1c0>
    27b2:	21 e0       	ldi	r18, 0x01	; 1
    27b4:	30 e0       	ldi	r19, 0x00	; 0
    27b6:	30 93 6d 01 	sts	0x016D, r19	; 0x80016d <zona1+0x11>
    27ba:	20 93 6c 01 	sts	0x016C, r18	; 0x80016c <zona1+0x10>
    27be:	22 e0       	ldi	r18, 0x02	; 2
    27c0:	30 e0       	ldi	r19, 0x00	; 0
    27c2:	30 93 7b 01 	sts	0x017B, r19	; 0x80017b <sensor6+0x5>
    27c6:	20 93 7a 01 	sts	0x017A, r18	; 0x80017a <sensor6+0x4>
    27ca:	07 97       	sbiw	r24, 0x07	; 7
    27cc:	09 f0       	breq	.+2      	; 0x27d0 <assSensorZona+0x1c6>
    27ce:	3b c1       	rjmp	.+630    	; 0x2a46 <assSensorZona+0x43c>
    27d0:	81 e0       	ldi	r24, 0x01	; 1
    27d2:	90 e0       	ldi	r25, 0x00	; 0
    27d4:	90 93 6f 01 	sts	0x016F, r25	; 0x80016f <zona1+0x13>
    27d8:	80 93 6e 01 	sts	0x016E, r24	; 0x80016e <zona1+0x12>
    27dc:	82 e0       	ldi	r24, 0x02	; 2
    27de:	90 e0       	ldi	r25, 0x00	; 0
    27e0:	90 93 75 01 	sts	0x0175, r25	; 0x800175 <sensor7+0x5>
    27e4:	80 93 74 01 	sts	0x0174, r24	; 0x800174 <sensor7+0x4>
    27e8:	08 95       	ret
    27ea:	63 30       	cpi	r22, 0x03	; 3
    27ec:	71 05       	cpc	r23, r1
    27ee:	09 f0       	breq	.+2      	; 0x27f2 <assSensorZona+0x1e8>
    27f0:	2a c1       	rjmp	.+596    	; 0x2a46 <assSensorZona+0x43c>
    27f2:	00 97       	sbiw	r24, 0x00	; 0
    27f4:	61 f4       	brne	.+24     	; 0x280e <assSensorZona+0x204>
    27f6:	21 e0       	ldi	r18, 0x01	; 1
    27f8:	30 e0       	ldi	r19, 0x00	; 0
    27fa:	30 93 61 01 	sts	0x0161, r19	; 0x800161 <zona1+0x5>
    27fe:	20 93 60 01 	sts	0x0160, r18	; 0x800160 <zona1+0x4>
    2802:	23 e0       	ldi	r18, 0x03	; 3
    2804:	30 e0       	ldi	r19, 0x00	; 0
    2806:	30 93 9f 01 	sts	0x019F, r19	; 0x80019f <sensor0+0x5>
    280a:	20 93 9e 01 	sts	0x019E, r18	; 0x80019e <sensor0+0x4>
    280e:	81 30       	cpi	r24, 0x01	; 1
    2810:	91 05       	cpc	r25, r1
    2812:	61 f4       	brne	.+24     	; 0x282c <assSensorZona+0x222>
    2814:	21 e0       	ldi	r18, 0x01	; 1
    2816:	30 e0       	ldi	r19, 0x00	; 0
    2818:	30 93 63 01 	sts	0x0163, r19	; 0x800163 <zona1+0x7>
    281c:	20 93 62 01 	sts	0x0162, r18	; 0x800162 <zona1+0x6>
    2820:	23 e0       	ldi	r18, 0x03	; 3
    2822:	30 e0       	ldi	r19, 0x00	; 0
    2824:	30 93 99 01 	sts	0x0199, r19	; 0x800199 <sensor1+0x5>
    2828:	20 93 98 01 	sts	0x0198, r18	; 0x800198 <sensor1+0x4>
    282c:	82 30       	cpi	r24, 0x02	; 2
    282e:	91 05       	cpc	r25, r1
    2830:	61 f4       	brne	.+24     	; 0x284a <assSensorZona+0x240>
    2832:	21 e0       	ldi	r18, 0x01	; 1
    2834:	30 e0       	ldi	r19, 0x00	; 0
    2836:	30 93 65 01 	sts	0x0165, r19	; 0x800165 <zona1+0x9>
    283a:	20 93 64 01 	sts	0x0164, r18	; 0x800164 <zona1+0x8>
    283e:	23 e0       	ldi	r18, 0x03	; 3
    2840:	30 e0       	ldi	r19, 0x00	; 0
    2842:	30 93 93 01 	sts	0x0193, r19	; 0x800193 <sensor2+0x5>
    2846:	20 93 92 01 	sts	0x0192, r18	; 0x800192 <sensor2+0x4>
    284a:	83 30       	cpi	r24, 0x03	; 3
    284c:	91 05       	cpc	r25, r1
    284e:	61 f4       	brne	.+24     	; 0x2868 <assSensorZona+0x25e>
    2850:	21 e0       	ldi	r18, 0x01	; 1
    2852:	30 e0       	ldi	r19, 0x00	; 0
    2854:	30 93 67 01 	sts	0x0167, r19	; 0x800167 <zona1+0xb>
    2858:	20 93 66 01 	sts	0x0166, r18	; 0x800166 <zona1+0xa>
    285c:	23 e0       	ldi	r18, 0x03	; 3
    285e:	30 e0       	ldi	r19, 0x00	; 0
    2860:	30 93 8d 01 	sts	0x018D, r19	; 0x80018d <sensor3+0x5>
    2864:	20 93 8c 01 	sts	0x018C, r18	; 0x80018c <sensor3+0x4>
    2868:	84 30       	cpi	r24, 0x04	; 4
    286a:	91 05       	cpc	r25, r1
    286c:	61 f4       	brne	.+24     	; 0x2886 <assSensorZona+0x27c>
    286e:	21 e0       	ldi	r18, 0x01	; 1
    2870:	30 e0       	ldi	r19, 0x00	; 0
    2872:	30 93 69 01 	sts	0x0169, r19	; 0x800169 <zona1+0xd>
    2876:	20 93 68 01 	sts	0x0168, r18	; 0x800168 <zona1+0xc>
    287a:	23 e0       	ldi	r18, 0x03	; 3
    287c:	30 e0       	ldi	r19, 0x00	; 0
    287e:	30 93 87 01 	sts	0x0187, r19	; 0x800187 <sensor4+0x5>
    2882:	20 93 86 01 	sts	0x0186, r18	; 0x800186 <sensor4+0x4>
    2886:	85 30       	cpi	r24, 0x05	; 5
    2888:	91 05       	cpc	r25, r1
    288a:	61 f4       	brne	.+24     	; 0x28a4 <assSensorZona+0x29a>
    288c:	21 e0       	ldi	r18, 0x01	; 1
    288e:	30 e0       	ldi	r19, 0x00	; 0
    2890:	30 93 6b 01 	sts	0x016B, r19	; 0x80016b <zona1+0xf>
    2894:	20 93 6a 01 	sts	0x016A, r18	; 0x80016a <zona1+0xe>
    2898:	23 e0       	ldi	r18, 0x03	; 3
    289a:	30 e0       	ldi	r19, 0x00	; 0
    289c:	30 93 81 01 	sts	0x0181, r19	; 0x800181 <sensor5+0x5>
    28a0:	20 93 80 01 	sts	0x0180, r18	; 0x800180 <sensor5+0x4>
    28a4:	86 30       	cpi	r24, 0x06	; 6
    28a6:	91 05       	cpc	r25, r1
    28a8:	61 f4       	brne	.+24     	; 0x28c2 <assSensorZona+0x2b8>
    28aa:	21 e0       	ldi	r18, 0x01	; 1
    28ac:	30 e0       	ldi	r19, 0x00	; 0
    28ae:	30 93 6d 01 	sts	0x016D, r19	; 0x80016d <zona1+0x11>
    28b2:	20 93 6c 01 	sts	0x016C, r18	; 0x80016c <zona1+0x10>
    28b6:	23 e0       	ldi	r18, 0x03	; 3
    28b8:	30 e0       	ldi	r19, 0x00	; 0
    28ba:	30 93 7b 01 	sts	0x017B, r19	; 0x80017b <sensor6+0x5>
    28be:	20 93 7a 01 	sts	0x017A, r18	; 0x80017a <sensor6+0x4>
    28c2:	07 97       	sbiw	r24, 0x07	; 7
    28c4:	09 f0       	breq	.+2      	; 0x28c8 <assSensorZona+0x2be>
    28c6:	bf c0       	rjmp	.+382    	; 0x2a46 <assSensorZona+0x43c>
    28c8:	81 e0       	ldi	r24, 0x01	; 1
    28ca:	90 e0       	ldi	r25, 0x00	; 0
    28cc:	90 93 6f 01 	sts	0x016F, r25	; 0x80016f <zona1+0x13>
    28d0:	80 93 6e 01 	sts	0x016E, r24	; 0x80016e <zona1+0x12>
    28d4:	83 e0       	ldi	r24, 0x03	; 3
    28d6:	90 e0       	ldi	r25, 0x00	; 0
    28d8:	90 93 75 01 	sts	0x0175, r25	; 0x800175 <sensor7+0x5>
    28dc:	80 93 74 01 	sts	0x0174, r24	; 0x800174 <sensor7+0x4>
    28e0:	08 95       	ret
    28e2:	21 30       	cpi	r18, 0x01	; 1
    28e4:	31 05       	cpc	r19, r1
    28e6:	09 f0       	breq	.+2      	; 0x28ea <assSensorZona+0x2e0>
    28e8:	ae c0       	rjmp	.+348    	; 0x2a46 <assSensorZona+0x43c>
    28ea:	61 30       	cpi	r22, 0x01	; 1
    28ec:	71 05       	cpc	r23, r1
    28ee:	c1 f5       	brne	.+112    	; 0x2960 <assSensorZona+0x356>
    28f0:	00 97       	sbiw	r24, 0x00	; 0
    28f2:	21 f4       	brne	.+8      	; 0x28fc <assSensorZona+0x2f2>
    28f4:	10 92 61 01 	sts	0x0161, r1	; 0x800161 <zona1+0x5>
    28f8:	10 92 60 01 	sts	0x0160, r1	; 0x800160 <zona1+0x4>
    28fc:	81 30       	cpi	r24, 0x01	; 1
    28fe:	91 05       	cpc	r25, r1
    2900:	21 f4       	brne	.+8      	; 0x290a <assSensorZona+0x300>
    2902:	10 92 63 01 	sts	0x0163, r1	; 0x800163 <zona1+0x7>
    2906:	10 92 62 01 	sts	0x0162, r1	; 0x800162 <zona1+0x6>
    290a:	82 30       	cpi	r24, 0x02	; 2
    290c:	91 05       	cpc	r25, r1
    290e:	21 f4       	brne	.+8      	; 0x2918 <assSensorZona+0x30e>
    2910:	10 92 65 01 	sts	0x0165, r1	; 0x800165 <zona1+0x9>
    2914:	10 92 64 01 	sts	0x0164, r1	; 0x800164 <zona1+0x8>
    2918:	83 30       	cpi	r24, 0x03	; 3
    291a:	91 05       	cpc	r25, r1
    291c:	21 f4       	brne	.+8      	; 0x2926 <assSensorZona+0x31c>
    291e:	10 92 67 01 	sts	0x0167, r1	; 0x800167 <zona1+0xb>
    2922:	10 92 66 01 	sts	0x0166, r1	; 0x800166 <zona1+0xa>
    2926:	84 30       	cpi	r24, 0x04	; 4
    2928:	91 05       	cpc	r25, r1
    292a:	21 f4       	brne	.+8      	; 0x2934 <assSensorZona+0x32a>
    292c:	10 92 69 01 	sts	0x0169, r1	; 0x800169 <zona1+0xd>
    2930:	10 92 68 01 	sts	0x0168, r1	; 0x800168 <zona1+0xc>
    2934:	85 30       	cpi	r24, 0x05	; 5
    2936:	91 05       	cpc	r25, r1
    2938:	21 f4       	brne	.+8      	; 0x2942 <assSensorZona+0x338>
    293a:	10 92 6b 01 	sts	0x016B, r1	; 0x80016b <zona1+0xf>
    293e:	10 92 6a 01 	sts	0x016A, r1	; 0x80016a <zona1+0xe>
    2942:	86 30       	cpi	r24, 0x06	; 6
    2944:	91 05       	cpc	r25, r1
    2946:	21 f4       	brne	.+8      	; 0x2950 <assSensorZona+0x346>
    2948:	10 92 6d 01 	sts	0x016D, r1	; 0x80016d <zona1+0x11>
    294c:	10 92 6c 01 	sts	0x016C, r1	; 0x80016c <zona1+0x10>
    2950:	07 97       	sbiw	r24, 0x07	; 7
    2952:	09 f0       	breq	.+2      	; 0x2956 <assSensorZona+0x34c>
    2954:	78 c0       	rjmp	.+240    	; 0x2a46 <assSensorZona+0x43c>
    2956:	10 92 6f 01 	sts	0x016F, r1	; 0x80016f <zona1+0x13>
    295a:	10 92 6e 01 	sts	0x016E, r1	; 0x80016e <zona1+0x12>
    295e:	08 95       	ret
    2960:	62 30       	cpi	r22, 0x02	; 2
    2962:	71 05       	cpc	r23, r1
    2964:	b9 f5       	brne	.+110    	; 0x29d4 <assSensorZona+0x3ca>
    2966:	00 97       	sbiw	r24, 0x00	; 0
    2968:	21 f4       	brne	.+8      	; 0x2972 <assSensorZona+0x368>
    296a:	10 92 61 01 	sts	0x0161, r1	; 0x800161 <zona1+0x5>
    296e:	10 92 60 01 	sts	0x0160, r1	; 0x800160 <zona1+0x4>
    2972:	81 30       	cpi	r24, 0x01	; 1
    2974:	91 05       	cpc	r25, r1
    2976:	21 f4       	brne	.+8      	; 0x2980 <assSensorZona+0x376>
    2978:	10 92 63 01 	sts	0x0163, r1	; 0x800163 <zona1+0x7>
    297c:	10 92 62 01 	sts	0x0162, r1	; 0x800162 <zona1+0x6>
    2980:	82 30       	cpi	r24, 0x02	; 2
    2982:	91 05       	cpc	r25, r1
    2984:	21 f4       	brne	.+8      	; 0x298e <assSensorZona+0x384>
    2986:	10 92 65 01 	sts	0x0165, r1	; 0x800165 <zona1+0x9>
    298a:	10 92 64 01 	sts	0x0164, r1	; 0x800164 <zona1+0x8>
    298e:	83 30       	cpi	r24, 0x03	; 3
    2990:	91 05       	cpc	r25, r1
    2992:	21 f4       	brne	.+8      	; 0x299c <assSensorZona+0x392>
    2994:	10 92 67 01 	sts	0x0167, r1	; 0x800167 <zona1+0xb>
    2998:	10 92 66 01 	sts	0x0166, r1	; 0x800166 <zona1+0xa>
    299c:	84 30       	cpi	r24, 0x04	; 4
    299e:	91 05       	cpc	r25, r1
    29a0:	21 f4       	brne	.+8      	; 0x29aa <assSensorZona+0x3a0>
    29a2:	10 92 69 01 	sts	0x0169, r1	; 0x800169 <zona1+0xd>
    29a6:	10 92 68 01 	sts	0x0168, r1	; 0x800168 <zona1+0xc>
    29aa:	85 30       	cpi	r24, 0x05	; 5
    29ac:	91 05       	cpc	r25, r1
    29ae:	21 f4       	brne	.+8      	; 0x29b8 <assSensorZona+0x3ae>
    29b0:	10 92 6b 01 	sts	0x016B, r1	; 0x80016b <zona1+0xf>
    29b4:	10 92 6a 01 	sts	0x016A, r1	; 0x80016a <zona1+0xe>
    29b8:	86 30       	cpi	r24, 0x06	; 6
    29ba:	91 05       	cpc	r25, r1
    29bc:	21 f4       	brne	.+8      	; 0x29c6 <assSensorZona+0x3bc>
    29be:	10 92 6d 01 	sts	0x016D, r1	; 0x80016d <zona1+0x11>
    29c2:	10 92 6c 01 	sts	0x016C, r1	; 0x80016c <zona1+0x10>
    29c6:	07 97       	sbiw	r24, 0x07	; 7
    29c8:	f1 f5       	brne	.+124    	; 0x2a46 <assSensorZona+0x43c>
    29ca:	10 92 6f 01 	sts	0x016F, r1	; 0x80016f <zona1+0x13>
    29ce:	10 92 6e 01 	sts	0x016E, r1	; 0x80016e <zona1+0x12>
    29d2:	08 95       	ret
    29d4:	63 30       	cpi	r22, 0x03	; 3
    29d6:	71 05       	cpc	r23, r1
    29d8:	b1 f5       	brne	.+108    	; 0x2a46 <assSensorZona+0x43c>
    29da:	00 97       	sbiw	r24, 0x00	; 0
    29dc:	21 f4       	brne	.+8      	; 0x29e6 <assSensorZona+0x3dc>
    29de:	10 92 61 01 	sts	0x0161, r1	; 0x800161 <zona1+0x5>
    29e2:	10 92 60 01 	sts	0x0160, r1	; 0x800160 <zona1+0x4>
    29e6:	81 30       	cpi	r24, 0x01	; 1
    29e8:	91 05       	cpc	r25, r1
    29ea:	21 f4       	brne	.+8      	; 0x29f4 <assSensorZona+0x3ea>
    29ec:	10 92 63 01 	sts	0x0163, r1	; 0x800163 <zona1+0x7>
    29f0:	10 92 62 01 	sts	0x0162, r1	; 0x800162 <zona1+0x6>
    29f4:	82 30       	cpi	r24, 0x02	; 2
    29f6:	91 05       	cpc	r25, r1
    29f8:	21 f4       	brne	.+8      	; 0x2a02 <assSensorZona+0x3f8>
    29fa:	10 92 65 01 	sts	0x0165, r1	; 0x800165 <zona1+0x9>
    29fe:	10 92 64 01 	sts	0x0164, r1	; 0x800164 <zona1+0x8>
    2a02:	83 30       	cpi	r24, 0x03	; 3
    2a04:	91 05       	cpc	r25, r1
    2a06:	21 f4       	brne	.+8      	; 0x2a10 <assSensorZona+0x406>
    2a08:	10 92 67 01 	sts	0x0167, r1	; 0x800167 <zona1+0xb>
    2a0c:	10 92 66 01 	sts	0x0166, r1	; 0x800166 <zona1+0xa>
    2a10:	84 30       	cpi	r24, 0x04	; 4
    2a12:	91 05       	cpc	r25, r1
    2a14:	21 f4       	brne	.+8      	; 0x2a1e <assSensorZona+0x414>
    2a16:	10 92 69 01 	sts	0x0169, r1	; 0x800169 <zona1+0xd>
    2a1a:	10 92 68 01 	sts	0x0168, r1	; 0x800168 <zona1+0xc>
    2a1e:	85 30       	cpi	r24, 0x05	; 5
    2a20:	91 05       	cpc	r25, r1
    2a22:	21 f4       	brne	.+8      	; 0x2a2c <assSensorZona+0x422>
    2a24:	10 92 6b 01 	sts	0x016B, r1	; 0x80016b <zona1+0xf>
    2a28:	10 92 6a 01 	sts	0x016A, r1	; 0x80016a <zona1+0xe>
    2a2c:	86 30       	cpi	r24, 0x06	; 6
    2a2e:	91 05       	cpc	r25, r1
    2a30:	21 f4       	brne	.+8      	; 0x2a3a <assSensorZona+0x430>
    2a32:	10 92 6d 01 	sts	0x016D, r1	; 0x80016d <zona1+0x11>
    2a36:	10 92 6c 01 	sts	0x016C, r1	; 0x80016c <zona1+0x10>
    2a3a:	07 97       	sbiw	r24, 0x07	; 7
    2a3c:	21 f4       	brne	.+8      	; 0x2a46 <assSensorZona+0x43c>
    2a3e:	10 92 6f 01 	sts	0x016F, r1	; 0x80016f <zona1+0x13>
    2a42:	10 92 6e 01 	sts	0x016E, r1	; 0x80016e <zona1+0x12>
    2a46:	08 95       	ret

Disassembly of section .text.set_timeout:

00003b88 <set_timeout>:
    3b88:	eb e0       	ldi	r30, 0x0B	; 11
    3b8a:	f1 e0       	ldi	r31, 0x01	; 1
    3b8c:	80 81       	ld	r24, Z
    3b8e:	91 81       	ldd	r25, Z+1	; 0x01
    3b90:	9c 01       	movw	r18, r24
    3b92:	22 0f       	add	r18, r18
    3b94:	33 1f       	adc	r19, r19
    3b96:	88 0f       	add	r24, r24
    3b98:	99 1f       	adc	r25, r25
    3b9a:	88 0f       	add	r24, r24
    3b9c:	99 1f       	adc	r25, r25
    3b9e:	88 0f       	add	r24, r24
    3ba0:	99 1f       	adc	r25, r25
    3ba2:	82 0f       	add	r24, r18
    3ba4:	93 1f       	adc	r25, r19
    3ba6:	22 81       	ldd	r18, Z+2	; 0x02
    3ba8:	33 81       	ldd	r19, Z+3	; 0x03
    3baa:	82 0f       	add	r24, r18
    3bac:	93 1f       	adc	r25, r19
    3bae:	90 93 10 01 	sts	0x0110, r25	; 0x800110 <timeout+0x1>
    3bb2:	80 93 0f 01 	sts	0x010F, r24	; 0x80010f <timeout>
    3bb6:	08 95       	ret

Disassembly of section .text.set_timeA:

00003a74 <set_timeA>:
    3a74:	e1 e2       	ldi	r30, 0x21	; 33
    3a76:	f1 e0       	ldi	r31, 0x01	; 1
    3a78:	80 81       	ld	r24, Z
    3a7a:	91 81       	ldd	r25, Z+1	; 0x01
    3a7c:	24 e6       	ldi	r18, 0x64	; 100
    3a7e:	28 9f       	mul	r18, r24
    3a80:	a0 01       	movw	r20, r0
    3a82:	29 9f       	mul	r18, r25
    3a84:	50 0d       	add	r21, r0
    3a86:	11 24       	eor	r1, r1
    3a88:	82 81       	ldd	r24, Z+2	; 0x02
    3a8a:	93 81       	ldd	r25, Z+3	; 0x03
    3a8c:	bc 01       	movw	r22, r24
    3a8e:	66 0f       	add	r22, r22
    3a90:	77 1f       	adc	r23, r23
    3a92:	9c 01       	movw	r18, r24
    3a94:	22 0f       	add	r18, r18
    3a96:	33 1f       	adc	r19, r19
    3a98:	22 0f       	add	r18, r18
    3a9a:	33 1f       	adc	r19, r19
    3a9c:	22 0f       	add	r18, r18
    3a9e:	33 1f       	adc	r19, r19
    3aa0:	cb 01       	movw	r24, r22
    3aa2:	82 0f       	add	r24, r18
    3aa4:	93 1f       	adc	r25, r19
    3aa6:	84 0f       	add	r24, r20
    3aa8:	95 1f       	adc	r25, r21
    3aaa:	24 81       	ldd	r18, Z+4	; 0x04
    3aac:	35 81       	ldd	r19, Z+5	; 0x05
    3aae:	82 0f       	add	r24, r18
    3ab0:	93 1f       	adc	r25, r19
    3ab2:	90 93 03 01 	sts	0x0103, r25	; 0x800103 <t_ativacao+0x1>
    3ab6:	80 93 02 01 	sts	0x0102, r24	; 0x800102 <t_ativacao>
    3aba:	08 95       	ret

Disassembly of section .text.set_timeS:

00003abc <set_timeS>:
    3abc:	e9 e2       	ldi	r30, 0x29	; 41
    3abe:	f1 e0       	ldi	r31, 0x01	; 1
    3ac0:	80 81       	ld	r24, Z
    3ac2:	91 81       	ldd	r25, Z+1	; 0x01
    3ac4:	24 e6       	ldi	r18, 0x64	; 100
    3ac6:	28 9f       	mul	r18, r24
    3ac8:	a0 01       	movw	r20, r0
    3aca:	29 9f       	mul	r18, r25
    3acc:	50 0d       	add	r21, r0
    3ace:	11 24       	eor	r1, r1
    3ad0:	82 81       	ldd	r24, Z+2	; 0x02
    3ad2:	93 81       	ldd	r25, Z+3	; 0x03
    3ad4:	bc 01       	movw	r22, r24
    3ad6:	66 0f       	add	r22, r22
    3ad8:	77 1f       	adc	r23, r23
    3ada:	9c 01       	movw	r18, r24
    3adc:	22 0f       	add	r18, r18
    3ade:	33 1f       	adc	r19, r19
    3ae0:	22 0f       	add	r18, r18
    3ae2:	33 1f       	adc	r19, r19
    3ae4:	22 0f       	add	r18, r18
    3ae6:	33 1f       	adc	r19, r19
    3ae8:	cb 01       	movw	r24, r22
    3aea:	82 0f       	add	r24, r18
    3aec:	93 1f       	adc	r25, r19
    3aee:	84 0f       	add	r24, r20
    3af0:	95 1f       	adc	r25, r21
    3af2:	24 81       	ldd	r18, Z+4	; 0x04
    3af4:	35 81       	ldd	r19, Z+5	; 0x05
    3af6:	82 0f       	add	r24, r18
    3af8:	93 1f       	adc	r25, r19
    3afa:	90 93 09 01 	sts	0x0109, r25	; 0x800109 <t_sirene+0x1>
    3afe:	80 93 08 01 	sts	0x0108, r24	; 0x800108 <t_sirene>
    3b02:	08 95       	ret

Disassembly of section .text.SetupTimer1:

00003be4 <SetupTimer1>:
    3be4:	e1 e8       	ldi	r30, 0x81	; 129
    3be6:	f0 e0       	ldi	r31, 0x00	; 0
    3be8:	80 81       	ld	r24, Z
    3bea:	88 60       	ori	r24, 0x08	; 8
    3bec:	80 83       	st	Z, r24
    3bee:	ef e6       	ldi	r30, 0x6F	; 111
    3bf0:	f0 e0       	ldi	r31, 0x00	; 0
    3bf2:	80 81       	ld	r24, Z
    3bf4:	82 60       	ori	r24, 0x02	; 2
    3bf6:	80 83       	st	Z, r24
    3bf8:	82 e1       	ldi	r24, 0x12	; 18
    3bfa:	9a e7       	ldi	r25, 0x7A	; 122
    3bfc:	90 93 89 00 	sts	0x0089, r25	; 0x800089 <__TEXT_REGION_LENGTH__+0x7f8089>
    3c00:	80 93 88 00 	sts	0x0088, r24	; 0x800088 <__TEXT_REGION_LENGTH__+0x7f8088>
    3c04:	08 95       	ret

Disassembly of section .text.StartTimer1:

00003d0a <StartTimer1>:
}

void StartTimer1()
{
	// para contar 1 segundo o OCR1A deve ter o valor de 31250.. e o prescale 256
	TCCR1B |= (1 << CS12) + (0 << CS11) + (0 << CS10); //setando o prescaler = 256, a contagem começa
    3d0a:	e1 e8       	ldi	r30, 0x81	; 129
    3d0c:	f0 e0       	ldi	r31, 0x00	; 0
    3d0e:	80 81       	ld	r24, Z
    3d10:	84 60       	ori	r24, 0x04	; 4
    3d12:	80 83       	st	Z, r24
    3d14:	08 95       	ret

Disassembly of section .text.verify_senhaA:

00002c04 <verify_senhaA>:
}

void StopTimer0()
{
	TCCR0B &= ~((1 << CS02) | (1 << CS01) | (1 << CS00)); // sem prescaler, o timer para
	TCNT0 = 0; // zerado para não atrapalhar a próxima contagem
    2c04:	10 92 d5 01 	sts	0x01D5, r1	; 0x8001d5 <cont_a+0x1>
    2c08:	10 92 d4 01 	sts	0x01D4, r1	; 0x8001d4 <cont_a>
    2c0c:	10 92 d3 01 	sts	0x01D3, r1	; 0x8001d3 <cont_b+0x1>
    2c10:	10 92 d2 01 	sts	0x01D2, r1	; 0x8001d2 <cont_b>
    2c14:	15 c0       	rjmp	.+42     	; 0x2c40 <verify_senhaA+0x3c>
    2c16:	fc 01       	movw	r30, r24
    2c18:	e1 5d       	subi	r30, 0xD1	; 209
    2c1a:	fe 4f       	sbci	r31, 0xFE	; 254
    2c1c:	30 81       	ld	r19, Z
    2c1e:	23 13       	cpse	r18, r19
    2c20:	0a c0       	rjmp	.+20     	; 0x2c36 <verify_senhaA+0x32>
    2c22:	20 91 d2 01 	lds	r18, 0x01D2	; 0x8001d2 <cont_b>
    2c26:	30 91 d3 01 	lds	r19, 0x01D3	; 0x8001d3 <cont_b+0x1>
    2c2a:	2f 5f       	subi	r18, 0xFF	; 255
    2c2c:	3f 4f       	sbci	r19, 0xFF	; 255
    2c2e:	30 93 d3 01 	sts	0x01D3, r19	; 0x8001d3 <cont_b+0x1>
    2c32:	20 93 d2 01 	sts	0x01D2, r18	; 0x8001d2 <cont_b>
    2c36:	01 96       	adiw	r24, 0x01	; 1
    2c38:	90 93 d5 01 	sts	0x01D5, r25	; 0x8001d5 <cont_a+0x1>
    2c3c:	80 93 d4 01 	sts	0x01D4, r24	; 0x8001d4 <cont_a>
    2c40:	80 91 d4 01 	lds	r24, 0x01D4	; 0x8001d4 <cont_a>
    2c44:	90 91 d5 01 	lds	r25, 0x01D5	; 0x8001d5 <cont_a+0x1>
    2c48:	fc 01       	movw	r30, r24
    2c4a:	e1 55       	subi	r30, 0x51	; 81
    2c4c:	fe 4f       	sbci	r31, 0xFE	; 254
    2c4e:	20 81       	ld	r18, Z
    2c50:	21 11       	cpse	r18, r1
    2c52:	e1 cf       	rjmp	.-62     	; 0x2c16 <verify_senhaA+0x12>
    2c54:	80 91 d2 01 	lds	r24, 0x01D2	; 0x8001d2 <cont_b>
    2c58:	90 91 d3 01 	lds	r25, 0x01D3	; 0x8001d3 <cont_b+0x1>
    2c5c:	04 97       	sbiw	r24, 0x04	; 4
    2c5e:	29 f4       	brne	.+10     	; 0x2c6a <verify_senhaA+0x66>
    2c60:	0e 94 4f 1e 	call	0x3c9e	; 0x3c9e <clear_Display>
    2c64:	0e 94 85 1e 	call	0x3d0a	; 0x3d0a <StartTimer1>
    2c68:	08 95       	ret
    2c6a:	10 92 d5 01 	sts	0x01D5, r1	; 0x8001d5 <cont_a+0x1>
    2c6e:	10 92 d4 01 	sts	0x01D4, r1	; 0x8001d4 <cont_a>
    2c72:	10 92 d3 01 	sts	0x01D3, r1	; 0x8001d3 <cont_b+0x1>
    2c76:	10 92 d2 01 	sts	0x01D2, r1	; 0x8001d2 <cont_b>
    2c7a:	15 c0       	rjmp	.+42     	; 0x2ca6 <verify_senhaA+0xa2>
    2c7c:	fc 01       	movw	r30, r24
    2c7e:	e1 5d       	subi	r30, 0xD1	; 209
    2c80:	fe 4f       	sbci	r31, 0xFE	; 254
    2c82:	30 81       	ld	r19, Z
    2c84:	23 13       	cpse	r18, r19
    2c86:	0a c0       	rjmp	.+20     	; 0x2c9c <verify_senhaA+0x98>
    2c88:	20 91 d2 01 	lds	r18, 0x01D2	; 0x8001d2 <cont_b>
    2c8c:	30 91 d3 01 	lds	r19, 0x01D3	; 0x8001d3 <cont_b+0x1>
    2c90:	2f 5f       	subi	r18, 0xFF	; 255
    2c92:	3f 4f       	sbci	r19, 0xFF	; 255
    2c94:	30 93 d3 01 	sts	0x01D3, r19	; 0x8001d3 <cont_b+0x1>
    2c98:	20 93 d2 01 	sts	0x01D2, r18	; 0x8001d2 <cont_b>
    2c9c:	01 96       	adiw	r24, 0x01	; 1
    2c9e:	90 93 d5 01 	sts	0x01D5, r25	; 0x8001d5 <cont_a+0x1>
    2ca2:	80 93 d4 01 	sts	0x01D4, r24	; 0x8001d4 <cont_a>
    2ca6:	80 91 d4 01 	lds	r24, 0x01D4	; 0x8001d4 <cont_a>
    2caa:	90 91 d5 01 	lds	r25, 0x01D5	; 0x8001d5 <cont_a+0x1>
    2cae:	fc 01       	movw	r30, r24
    2cb0:	e6 55       	subi	r30, 0x56	; 86
    2cb2:	fe 4f       	sbci	r31, 0xFE	; 254
    2cb4:	20 81       	ld	r18, Z
    2cb6:	21 11       	cpse	r18, r1
    2cb8:	e1 cf       	rjmp	.-62     	; 0x2c7c <verify_senhaA+0x78>
    2cba:	80 91 d2 01 	lds	r24, 0x01D2	; 0x8001d2 <cont_b>
    2cbe:	90 91 d3 01 	lds	r25, 0x01D3	; 0x8001d3 <cont_b+0x1>
    2cc2:	04 97       	sbiw	r24, 0x04	; 4
    2cc4:	29 f4       	brne	.+10     	; 0x2cd0 <verify_senhaA+0xcc>
    2cc6:	0e 94 4f 1e 	call	0x3c9e	; 0x3c9e <clear_Display>
    2cca:	0e 94 85 1e 	call	0x3d0a	; 0x3d0a <StartTimer1>
    2cce:	08 95       	ret
    2cd0:	10 92 d5 01 	sts	0x01D5, r1	; 0x8001d5 <cont_a+0x1>
    2cd4:	10 92 d4 01 	sts	0x01D4, r1	; 0x8001d4 <cont_a>
    2cd8:	10 92 d3 01 	sts	0x01D3, r1	; 0x8001d3 <cont_b+0x1>
    2cdc:	10 92 d2 01 	sts	0x01D2, r1	; 0x8001d2 <cont_b>
    2ce0:	15 c0       	rjmp	.+42     	; 0x2d0c <verify_senhaA+0x108>
    2ce2:	fc 01       	movw	r30, r24
    2ce4:	e1 5d       	subi	r30, 0xD1	; 209
    2ce6:	fe 4f       	sbci	r31, 0xFE	; 254
    2ce8:	30 81       	ld	r19, Z
    2cea:	23 13       	cpse	r18, r19
    2cec:	0a c0       	rjmp	.+20     	; 0x2d02 <verify_senhaA+0xfe>
    2cee:	20 91 d2 01 	lds	r18, 0x01D2	; 0x8001d2 <cont_b>
    2cf2:	30 91 d3 01 	lds	r19, 0x01D3	; 0x8001d3 <cont_b+0x1>
    2cf6:	2f 5f       	subi	r18, 0xFF	; 255
    2cf8:	3f 4f       	sbci	r19, 0xFF	; 255
    2cfa:	30 93 d3 01 	sts	0x01D3, r19	; 0x8001d3 <cont_b+0x1>
    2cfe:	20 93 d2 01 	sts	0x01D2, r18	; 0x8001d2 <cont_b>
    2d02:	01 96       	adiw	r24, 0x01	; 1
    2d04:	90 93 d5 01 	sts	0x01D5, r25	; 0x8001d5 <cont_a+0x1>
    2d08:	80 93 d4 01 	sts	0x01D4, r24	; 0x8001d4 <cont_a>
    2d0c:	80 91 d4 01 	lds	r24, 0x01D4	; 0x8001d4 <cont_a>
    2d10:	90 91 d5 01 	lds	r25, 0x01D5	; 0x8001d5 <cont_a+0x1>
    2d14:	fc 01       	movw	r30, r24
    2d16:	eb 55       	subi	r30, 0x5B	; 91
    2d18:	fe 4f       	sbci	r31, 0xFE	; 254
    2d1a:	20 81       	ld	r18, Z
    2d1c:	21 11       	cpse	r18, r1
    2d1e:	e1 cf       	rjmp	.-62     	; 0x2ce2 <verify_senhaA+0xde>
    2d20:	80 91 d2 01 	lds	r24, 0x01D2	; 0x8001d2 <cont_b>
    2d24:	90 91 d3 01 	lds	r25, 0x01D3	; 0x8001d3 <cont_b+0x1>
    2d28:	04 97       	sbiw	r24, 0x04	; 4
    2d2a:	29 f4       	brne	.+10     	; 0x2d36 <verify_senhaA+0x132>
    2d2c:	0e 94 4f 1e 	call	0x3c9e	; 0x3c9e <clear_Display>
    2d30:	0e 94 85 1e 	call	0x3d0a	; 0x3d0a <StartTimer1>
    2d34:	08 95       	ret
    2d36:	10 92 d5 01 	sts	0x01D5, r1	; 0x8001d5 <cont_a+0x1>
    2d3a:	10 92 d4 01 	sts	0x01D4, r1	; 0x8001d4 <cont_a>
    2d3e:	10 92 d3 01 	sts	0x01D3, r1	; 0x8001d3 <cont_b+0x1>
    2d42:	10 92 d2 01 	sts	0x01D2, r1	; 0x8001d2 <cont_b>
    2d46:	15 c0       	rjmp	.+42     	; 0x2d72 <verify_senhaA+0x16e>
    2d48:	fc 01       	movw	r30, r24
    2d4a:	e1 5d       	subi	r30, 0xD1	; 209
    2d4c:	fe 4f       	sbci	r31, 0xFE	; 254
    2d4e:	30 81       	ld	r19, Z
    2d50:	23 13       	cpse	r18, r19
    2d52:	0a c0       	rjmp	.+20     	; 0x2d68 <verify_senhaA+0x164>
    2d54:	20 91 d2 01 	lds	r18, 0x01D2	; 0x8001d2 <cont_b>
    2d58:	30 91 d3 01 	lds	r19, 0x01D3	; 0x8001d3 <cont_b+0x1>
    2d5c:	2f 5f       	subi	r18, 0xFF	; 255
    2d5e:	3f 4f       	sbci	r19, 0xFF	; 255
    2d60:	30 93 d3 01 	sts	0x01D3, r19	; 0x8001d3 <cont_b+0x1>
    2d64:	20 93 d2 01 	sts	0x01D2, r18	; 0x8001d2 <cont_b>
    2d68:	01 96       	adiw	r24, 0x01	; 1
    2d6a:	90 93 d5 01 	sts	0x01D5, r25	; 0x8001d5 <cont_a+0x1>
    2d6e:	80 93 d4 01 	sts	0x01D4, r24	; 0x8001d4 <cont_a>
    2d72:	80 91 d4 01 	lds	r24, 0x01D4	; 0x8001d4 <cont_a>
    2d76:	90 91 d5 01 	lds	r25, 0x01D5	; 0x8001d5 <cont_a+0x1>
    2d7a:	fc 01       	movw	r30, r24
    2d7c:	e0 56       	subi	r30, 0x60	; 96
    2d7e:	fe 4f       	sbci	r31, 0xFE	; 254
    2d80:	20 81       	ld	r18, Z
    2d82:	21 11       	cpse	r18, r1
    2d84:	e1 cf       	rjmp	.-62     	; 0x2d48 <verify_senhaA+0x144>
    2d86:	80 91 d2 01 	lds	r24, 0x01D2	; 0x8001d2 <cont_b>
    2d8a:	90 91 d3 01 	lds	r25, 0x01D3	; 0x8001d3 <cont_b+0x1>
    2d8e:	04 97       	sbiw	r24, 0x04	; 4
    2d90:	29 f4       	brne	.+10     	; 0x2d9c <verify_senhaA+0x198>
    2d92:	0e 94 4f 1e 	call	0x3c9e	; 0x3c9e <clear_Display>
    2d96:	0e 94 85 1e 	call	0x3d0a	; 0x3d0a <StartTimer1>
    2d9a:	08 95       	ret
    2d9c:	81 e0       	ldi	r24, 0x01	; 1
    2d9e:	80 93 da 01 	sts	0x01DA, r24	; 0x8001da <state>
    2da2:	0e 94 4f 1e 	call	0x3c9e	; 0x3c9e <clear_Display>
    2da6:	0e 94 7a 1b 	call	0x36f4	; 0x36f4 <msg_desativado>
    2daa:	08 95       	ret

Disassembly of section .text.StopTimer1:

00003cc6 <StopTimer1>:
    3cc6:	e1 e8       	ldi	r30, 0x81	; 129
    3cc8:	f0 e0       	ldi	r31, 0x00	; 0
    3cca:	80 81       	ld	r24, Z
    3ccc:	88 7f       	andi	r24, 0xF8	; 248
    3cce:	80 83       	st	Z, r24
    3cd0:	10 92 85 00 	sts	0x0085, r1	; 0x800085 <__TEXT_REGION_LENGTH__+0x7f8085>
    3cd4:	10 92 84 00 	sts	0x0084, r1	; 0x800084 <__TEXT_REGION_LENGTH__+0x7f8084>
    3cd8:	08 95       	ret

Disassembly of section .text.SetupTimer0:

00003cec <SetupTimer0>:
	
}

void SetupTimer0()
{
	TCCR0A |= (1<<WGM01); //WGM12-CTC mode | clkIO/1 (no prescaling)
    3cec:	84 b5       	in	r24, 0x24	; 36
    3cee:	82 60       	ori	r24, 0x02	; 2
    3cf0:	84 bd       	out	0x24, r24	; 36
	TIMSK0 |= (1<<OCIE0A); // Output Compare A Match Interrupt Enable
    3cf2:	ee e6       	ldi	r30, 0x6E	; 110
    3cf4:	f0 e0       	ldi	r31, 0x00	; 0
    3cf6:	80 81       	ld	r24, Z
    3cf8:	82 60       	ori	r24, 0x02	; 2
    3cfa:	80 83       	st	Z, r24
    3cfc:	08 95       	ret

Disassembly of section .text.ZerarTemps:

00003c5e <ZerarTemps>:
}

void StopTimer0()
{
	TCCR0B &= ~((1 << CS02) | (1 << CS01) | (1 << CS00)); // sem prescaler, o timer para
	TCNT0 = 0; // zerado para não atrapalhar a próxima contagem
    3c5e:	10 92 db 01 	sts	0x01DB, r1	; 0x8001db <cont_timeout>
    3c62:	10 92 c5 01 	sts	0x01C5, r1	; 0x8001c5 <cont_ativacao+0x1>
    3c66:	10 92 c4 01 	sts	0x01C4, r1	; 0x8001c4 <cont_ativacao>
    3c6a:	10 92 c7 01 	sts	0x01C7, r1	; 0x8001c7 <cont_sirene+0x1>
    3c6e:	10 92 c6 01 	sts	0x01C6, r1	; 0x8001c6 <cont_sirene>
    3c72:	08 95       	ret

Disassembly of section .text.StartSirene:

00003d22 <StartSirene>:
}

/////////////////////////// SIRENE \\\\\\\\\\\\\\\\\\\\\\\\\\\\\\\\\\/
void StartSirene()
{
	PORTD |= (1 << BUZZER); // sirene
    3d22:	8b b1       	in	r24, 0x0b	; 11
    3d24:	81 60       	ori	r24, 0x01	; 1
    3d26:	8b b9       	out	0x0b, r24	; 11
    3d28:	08 95       	ret

Disassembly of section .text.activate_sirene:

0000211a <activate_sirene>:
}

void StopTimer0()
{
	TCCR0B &= ~((1 << CS02) | (1 << CS01) | (1 << CS00)); // sem prescaler, o timer para
	TCNT0 = 0; // zerado para não atrapalhar a próxima contagem
    211a:	80 91 9c 01 	lds	r24, 0x019C	; 0x80019c <sensor0+0x2>
    211e:	90 91 9d 01 	lds	r25, 0x019D	; 0x80019d <sensor0+0x3>
    2122:	01 97       	sbiw	r24, 0x01	; 1
    2124:	09 f0       	breq	.+2      	; 0x2128 <activate_sirene+0xe>
    2126:	3e c0       	rjmp	.+124    	; 0x21a4 <activate_sirene+0x8a>
    2128:	20 91 9e 01 	lds	r18, 0x019E	; 0x80019e <sensor0+0x4>
    212c:	30 91 9f 01 	lds	r19, 0x019F	; 0x80019f <sensor0+0x5>
    2130:	40 91 5e 01 	lds	r20, 0x015E	; 0x80015e <zona1+0x2>
    2134:	50 91 5f 01 	lds	r21, 0x015F	; 0x80015f <zona1+0x3>
    2138:	91 e0       	ldi	r25, 0x01	; 1
    213a:	21 30       	cpi	r18, 0x01	; 1
    213c:	31 05       	cpc	r19, r1
    213e:	09 f0       	breq	.+2      	; 0x2142 <activate_sirene+0x28>
    2140:	90 e0       	ldi	r25, 0x00	; 0
    2142:	81 e0       	ldi	r24, 0x01	; 1
    2144:	41 30       	cpi	r20, 0x01	; 1
    2146:	51 05       	cpc	r21, r1
    2148:	09 f0       	breq	.+2      	; 0x214c <activate_sirene+0x32>
    214a:	80 e0       	ldi	r24, 0x00	; 0
    214c:	89 23       	and	r24, r25
    214e:	19 f0       	breq	.+6      	; 0x2156 <activate_sirene+0x3c>
    2150:	0e 94 91 1e 	call	0x3d22	; 0x3d22 <StartSirene>
    2154:	08 95       	ret
    2156:	40 91 4a 01 	lds	r20, 0x014A	; 0x80014a <zona2+0x2>
    215a:	50 91 4b 01 	lds	r21, 0x014B	; 0x80014b <zona2+0x3>
    215e:	91 e0       	ldi	r25, 0x01	; 1
    2160:	22 30       	cpi	r18, 0x02	; 2
    2162:	31 05       	cpc	r19, r1
    2164:	09 f0       	breq	.+2      	; 0x2168 <activate_sirene+0x4e>
    2166:	90 e0       	ldi	r25, 0x00	; 0
    2168:	81 e0       	ldi	r24, 0x01	; 1
    216a:	41 30       	cpi	r20, 0x01	; 1
    216c:	51 05       	cpc	r21, r1
    216e:	09 f0       	breq	.+2      	; 0x2172 <activate_sirene+0x58>
    2170:	80 e0       	ldi	r24, 0x00	; 0
    2172:	89 23       	and	r24, r25
    2174:	19 f0       	breq	.+6      	; 0x217c <activate_sirene+0x62>
    2176:	0e 94 91 1e 	call	0x3d22	; 0x3d22 <StartSirene>
    217a:	08 95       	ret
    217c:	40 91 36 01 	lds	r20, 0x0136	; 0x800136 <_end+0x2>
    2180:	50 91 37 01 	lds	r21, 0x0137	; 0x800137 <_end+0x3>
    2184:	91 e0       	ldi	r25, 0x01	; 1
    2186:	23 30       	cpi	r18, 0x03	; 3
    2188:	31 05       	cpc	r19, r1
    218a:	09 f0       	breq	.+2      	; 0x218e <activate_sirene+0x74>
    218c:	90 e0       	ldi	r25, 0x00	; 0
    218e:	81 e0       	ldi	r24, 0x01	; 1
    2190:	41 30       	cpi	r20, 0x01	; 1
    2192:	51 05       	cpc	r21, r1
    2194:	09 f0       	breq	.+2      	; 0x2198 <activate_sirene+0x7e>
    2196:	80 e0       	ldi	r24, 0x00	; 0
    2198:	89 23       	and	r24, r25
    219a:	09 f4       	brne	.+2      	; 0x219e <activate_sirene+0x84>
    219c:	35 c2       	rjmp	.+1130   	; 0x2608 <activate_sirene+0x4ee>
    219e:	0e 94 91 1e 	call	0x3d22	; 0x3d22 <StartSirene>
    21a2:	08 95       	ret
    21a4:	40 91 96 01 	lds	r20, 0x0196	; 0x800196 <sensor1+0x2>
    21a8:	50 91 97 01 	lds	r21, 0x0197	; 0x800197 <sensor1+0x3>
    21ac:	90 91 dd 01 	lds	r25, 0x01DD	; 0x8001dd <varLeituraSerial>
    21b0:	39 2f       	mov	r19, r25
    21b2:	33 1f       	adc	r19, r19
    21b4:	33 27       	eor	r19, r19
    21b6:	33 1f       	adc	r19, r19
    21b8:	21 e0       	ldi	r18, 0x01	; 1
    21ba:	41 30       	cpi	r20, 0x01	; 1
    21bc:	51 05       	cpc	r21, r1
    21be:	09 f0       	breq	.+2      	; 0x21c2 <activate_sirene+0xa8>
    21c0:	20 e0       	ldi	r18, 0x00	; 0
    21c2:	81 e0       	ldi	r24, 0x01	; 1
    21c4:	31 11       	cpse	r19, r1
    21c6:	80 e0       	ldi	r24, 0x00	; 0
    21c8:	82 23       	and	r24, r18
    21ca:	09 f4       	brne	.+2      	; 0x21ce <activate_sirene+0xb4>
    21cc:	3e c0       	rjmp	.+124    	; 0x224a <activate_sirene+0x130>
    21ce:	20 91 98 01 	lds	r18, 0x0198	; 0x800198 <sensor1+0x4>
    21d2:	30 91 99 01 	lds	r19, 0x0199	; 0x800199 <sensor1+0x5>
    21d6:	40 91 5e 01 	lds	r20, 0x015E	; 0x80015e <zona1+0x2>
    21da:	50 91 5f 01 	lds	r21, 0x015F	; 0x80015f <zona1+0x3>
    21de:	91 e0       	ldi	r25, 0x01	; 1
    21e0:	21 30       	cpi	r18, 0x01	; 1
    21e2:	31 05       	cpc	r19, r1
    21e4:	09 f0       	breq	.+2      	; 0x21e8 <activate_sirene+0xce>
    21e6:	90 e0       	ldi	r25, 0x00	; 0
    21e8:	81 e0       	ldi	r24, 0x01	; 1
    21ea:	41 30       	cpi	r20, 0x01	; 1
    21ec:	51 05       	cpc	r21, r1
    21ee:	09 f0       	breq	.+2      	; 0x21f2 <activate_sirene+0xd8>
    21f0:	80 e0       	ldi	r24, 0x00	; 0
    21f2:	89 23       	and	r24, r25
    21f4:	19 f0       	breq	.+6      	; 0x21fc <activate_sirene+0xe2>
    21f6:	0e 94 91 1e 	call	0x3d22	; 0x3d22 <StartSirene>
    21fa:	08 95       	ret
    21fc:	40 91 4a 01 	lds	r20, 0x014A	; 0x80014a <zona2+0x2>
    2200:	50 91 4b 01 	lds	r21, 0x014B	; 0x80014b <zona2+0x3>
    2204:	91 e0       	ldi	r25, 0x01	; 1
    2206:	22 30       	cpi	r18, 0x02	; 2
    2208:	31 05       	cpc	r19, r1
    220a:	09 f0       	breq	.+2      	; 0x220e <activate_sirene+0xf4>
    220c:	90 e0       	ldi	r25, 0x00	; 0
    220e:	81 e0       	ldi	r24, 0x01	; 1
    2210:	41 30       	cpi	r20, 0x01	; 1
    2212:	51 05       	cpc	r21, r1
    2214:	09 f0       	breq	.+2      	; 0x2218 <activate_sirene+0xfe>
    2216:	80 e0       	ldi	r24, 0x00	; 0
    2218:	89 23       	and	r24, r25
    221a:	19 f0       	breq	.+6      	; 0x2222 <activate_sirene+0x108>
    221c:	0e 94 91 1e 	call	0x3d22	; 0x3d22 <StartSirene>
    2220:	08 95       	ret
    2222:	40 91 36 01 	lds	r20, 0x0136	; 0x800136 <_end+0x2>
    2226:	50 91 37 01 	lds	r21, 0x0137	; 0x800137 <_end+0x3>
    222a:	91 e0       	ldi	r25, 0x01	; 1
    222c:	23 30       	cpi	r18, 0x03	; 3
    222e:	31 05       	cpc	r19, r1
    2230:	09 f0       	breq	.+2      	; 0x2234 <activate_sirene+0x11a>
    2232:	90 e0       	ldi	r25, 0x00	; 0
    2234:	81 e0       	ldi	r24, 0x01	; 1
    2236:	41 30       	cpi	r20, 0x01	; 1
    2238:	51 05       	cpc	r21, r1
    223a:	09 f0       	breq	.+2      	; 0x223e <activate_sirene+0x124>
    223c:	80 e0       	ldi	r24, 0x00	; 0
    223e:	89 23       	and	r24, r25
    2240:	09 f4       	brne	.+2      	; 0x2244 <activate_sirene+0x12a>
    2242:	e2 c1       	rjmp	.+964    	; 0x2608 <activate_sirene+0x4ee>
    2244:	0e 94 91 1e 	call	0x3d22	; 0x3d22 <StartSirene>
    2248:	08 95       	ret
    224a:	40 91 90 01 	lds	r20, 0x0190	; 0x800190 <sensor2+0x2>
    224e:	50 91 91 01 	lds	r21, 0x0191	; 0x800191 <sensor2+0x3>
    2252:	29 2f       	mov	r18, r25
    2254:	22 95       	swap	r18
    2256:	26 95       	lsr	r18
    2258:	26 95       	lsr	r18
    225a:	23 70       	andi	r18, 0x03	; 3
    225c:	81 e0       	ldi	r24, 0x01	; 1
    225e:	82 27       	eor	r24, r18
    2260:	81 70       	andi	r24, 0x01	; 1
    2262:	21 e0       	ldi	r18, 0x01	; 1
    2264:	41 30       	cpi	r20, 0x01	; 1
    2266:	51 05       	cpc	r21, r1
    2268:	09 f0       	breq	.+2      	; 0x226c <activate_sirene+0x152>
    226a:	20 e0       	ldi	r18, 0x00	; 0
    226c:	82 23       	and	r24, r18
    226e:	09 f4       	brne	.+2      	; 0x2272 <activate_sirene+0x158>
    2270:	3e c0       	rjmp	.+124    	; 0x22ee <activate_sirene+0x1d4>
    2272:	20 91 92 01 	lds	r18, 0x0192	; 0x800192 <sensor2+0x4>
    2276:	30 91 93 01 	lds	r19, 0x0193	; 0x800193 <sensor2+0x5>
    227a:	40 91 5e 01 	lds	r20, 0x015E	; 0x80015e <zona1+0x2>
    227e:	50 91 5f 01 	lds	r21, 0x015F	; 0x80015f <zona1+0x3>
    2282:	91 e0       	ldi	r25, 0x01	; 1
    2284:	21 30       	cpi	r18, 0x01	; 1
    2286:	31 05       	cpc	r19, r1
    2288:	09 f0       	breq	.+2      	; 0x228c <activate_sirene+0x172>
    228a:	90 e0       	ldi	r25, 0x00	; 0
    228c:	81 e0       	ldi	r24, 0x01	; 1
    228e:	41 30       	cpi	r20, 0x01	; 1
    2290:	51 05       	cpc	r21, r1
    2292:	09 f0       	breq	.+2      	; 0x2296 <activate_sirene+0x17c>
    2294:	80 e0       	ldi	r24, 0x00	; 0
    2296:	89 23       	and	r24, r25
    2298:	19 f0       	breq	.+6      	; 0x22a0 <activate_sirene+0x186>
    229a:	0e 94 91 1e 	call	0x3d22	; 0x3d22 <StartSirene>
    229e:	08 95       	ret
    22a0:	40 91 4a 01 	lds	r20, 0x014A	; 0x80014a <zona2+0x2>
    22a4:	50 91 4b 01 	lds	r21, 0x014B	; 0x80014b <zona2+0x3>
    22a8:	91 e0       	ldi	r25, 0x01	; 1
    22aa:	22 30       	cpi	r18, 0x02	; 2
    22ac:	31 05       	cpc	r19, r1
    22ae:	09 f0       	breq	.+2      	; 0x22b2 <activate_sirene+0x198>
    22b0:	90 e0       	ldi	r25, 0x00	; 0
    22b2:	81 e0       	ldi	r24, 0x01	; 1
    22b4:	41 30       	cpi	r20, 0x01	; 1
    22b6:	51 05       	cpc	r21, r1
    22b8:	09 f0       	breq	.+2      	; 0x22bc <activate_sirene+0x1a2>
    22ba:	80 e0       	ldi	r24, 0x00	; 0
    22bc:	89 23       	and	r24, r25
    22be:	19 f0       	breq	.+6      	; 0x22c6 <activate_sirene+0x1ac>
    22c0:	0e 94 91 1e 	call	0x3d22	; 0x3d22 <StartSirene>
    22c4:	08 95       	ret
    22c6:	40 91 36 01 	lds	r20, 0x0136	; 0x800136 <_end+0x2>
    22ca:	50 91 37 01 	lds	r21, 0x0137	; 0x800137 <_end+0x3>
    22ce:	91 e0       	ldi	r25, 0x01	; 1
    22d0:	23 30       	cpi	r18, 0x03	; 3
    22d2:	31 05       	cpc	r19, r1
    22d4:	09 f0       	breq	.+2      	; 0x22d8 <activate_sirene+0x1be>
    22d6:	90 e0       	ldi	r25, 0x00	; 0
    22d8:	81 e0       	ldi	r24, 0x01	; 1
    22da:	41 30       	cpi	r20, 0x01	; 1
    22dc:	51 05       	cpc	r21, r1
    22de:	09 f0       	breq	.+2      	; 0x22e2 <activate_sirene+0x1c8>
    22e0:	80 e0       	ldi	r24, 0x00	; 0
    22e2:	89 23       	and	r24, r25
    22e4:	09 f4       	brne	.+2      	; 0x22e8 <activate_sirene+0x1ce>
    22e6:	90 c1       	rjmp	.+800    	; 0x2608 <activate_sirene+0x4ee>
    22e8:	0e 94 91 1e 	call	0x3d22	; 0x3d22 <StartSirene>
    22ec:	08 95       	ret
    22ee:	40 91 8a 01 	lds	r20, 0x018A	; 0x80018a <sensor3+0x2>
    22f2:	50 91 8b 01 	lds	r21, 0x018B	; 0x80018b <sensor3+0x3>
    22f6:	29 2f       	mov	r18, r25
    22f8:	22 95       	swap	r18
    22fa:	26 95       	lsr	r18
    22fc:	27 70       	andi	r18, 0x07	; 7
    22fe:	81 e0       	ldi	r24, 0x01	; 1
    2300:	82 27       	eor	r24, r18
    2302:	81 70       	andi	r24, 0x01	; 1
    2304:	21 e0       	ldi	r18, 0x01	; 1
    2306:	41 30       	cpi	r20, 0x01	; 1
    2308:	51 05       	cpc	r21, r1
    230a:	09 f0       	breq	.+2      	; 0x230e <activate_sirene+0x1f4>
    230c:	20 e0       	ldi	r18, 0x00	; 0
    230e:	82 23       	and	r24, r18
    2310:	09 f4       	brne	.+2      	; 0x2314 <activate_sirene+0x1fa>
    2312:	3e c0       	rjmp	.+124    	; 0x2390 <activate_sirene+0x276>
    2314:	20 91 8c 01 	lds	r18, 0x018C	; 0x80018c <sensor3+0x4>
    2318:	30 91 8d 01 	lds	r19, 0x018D	; 0x80018d <sensor3+0x5>
    231c:	40 91 5e 01 	lds	r20, 0x015E	; 0x80015e <zona1+0x2>
    2320:	50 91 5f 01 	lds	r21, 0x015F	; 0x80015f <zona1+0x3>
    2324:	91 e0       	ldi	r25, 0x01	; 1
    2326:	21 30       	cpi	r18, 0x01	; 1
    2328:	31 05       	cpc	r19, r1
    232a:	09 f0       	breq	.+2      	; 0x232e <activate_sirene+0x214>
    232c:	90 e0       	ldi	r25, 0x00	; 0
    232e:	81 e0       	ldi	r24, 0x01	; 1
    2330:	41 30       	cpi	r20, 0x01	; 1
    2332:	51 05       	cpc	r21, r1
    2334:	09 f0       	breq	.+2      	; 0x2338 <activate_sirene+0x21e>
    2336:	80 e0       	ldi	r24, 0x00	; 0
    2338:	89 23       	and	r24, r25
    233a:	19 f0       	breq	.+6      	; 0x2342 <activate_sirene+0x228>
    233c:	0e 94 91 1e 	call	0x3d22	; 0x3d22 <StartSirene>
    2340:	08 95       	ret
    2342:	40 91 4a 01 	lds	r20, 0x014A	; 0x80014a <zona2+0x2>
    2346:	50 91 4b 01 	lds	r21, 0x014B	; 0x80014b <zona2+0x3>
    234a:	91 e0       	ldi	r25, 0x01	; 1
    234c:	22 30       	cpi	r18, 0x02	; 2
    234e:	31 05       	cpc	r19, r1
    2350:	09 f0       	breq	.+2      	; 0x2354 <activate_sirene+0x23a>
    2352:	90 e0       	ldi	r25, 0x00	; 0
    2354:	81 e0       	ldi	r24, 0x01	; 1
    2356:	41 30       	cpi	r20, 0x01	; 1
    2358:	51 05       	cpc	r21, r1
    235a:	09 f0       	breq	.+2      	; 0x235e <activate_sirene+0x244>
    235c:	80 e0       	ldi	r24, 0x00	; 0
    235e:	89 23       	and	r24, r25
    2360:	19 f0       	breq	.+6      	; 0x2368 <activate_sirene+0x24e>
    2362:	0e 94 91 1e 	call	0x3d22	; 0x3d22 <StartSirene>
    2366:	08 95       	ret
    2368:	40 91 36 01 	lds	r20, 0x0136	; 0x800136 <_end+0x2>
    236c:	50 91 37 01 	lds	r21, 0x0137	; 0x800137 <_end+0x3>
    2370:	91 e0       	ldi	r25, 0x01	; 1
    2372:	23 30       	cpi	r18, 0x03	; 3
    2374:	31 05       	cpc	r19, r1
    2376:	09 f0       	breq	.+2      	; 0x237a <activate_sirene+0x260>
    2378:	90 e0       	ldi	r25, 0x00	; 0
    237a:	81 e0       	ldi	r24, 0x01	; 1
    237c:	41 30       	cpi	r20, 0x01	; 1
    237e:	51 05       	cpc	r21, r1
    2380:	09 f0       	breq	.+2      	; 0x2384 <activate_sirene+0x26a>
    2382:	80 e0       	ldi	r24, 0x00	; 0
    2384:	89 23       	and	r24, r25
    2386:	09 f4       	brne	.+2      	; 0x238a <activate_sirene+0x270>
    2388:	3f c1       	rjmp	.+638    	; 0x2608 <activate_sirene+0x4ee>
    238a:	0e 94 91 1e 	call	0x3d22	; 0x3d22 <StartSirene>
    238e:	08 95       	ret
    2390:	40 91 84 01 	lds	r20, 0x0184	; 0x800184 <sensor4+0x2>
    2394:	50 91 85 01 	lds	r21, 0x0185	; 0x800185 <sensor4+0x3>
    2398:	29 2f       	mov	r18, r25
    239a:	22 95       	swap	r18
    239c:	2f 70       	andi	r18, 0x0F	; 15
    239e:	81 e0       	ldi	r24, 0x01	; 1
    23a0:	82 27       	eor	r24, r18
    23a2:	81 70       	andi	r24, 0x01	; 1
    23a4:	21 e0       	ldi	r18, 0x01	; 1
    23a6:	41 30       	cpi	r20, 0x01	; 1
    23a8:	51 05       	cpc	r21, r1
    23aa:	09 f0       	breq	.+2      	; 0x23ae <activate_sirene+0x294>
    23ac:	20 e0       	ldi	r18, 0x00	; 0
    23ae:	82 23       	and	r24, r18
    23b0:	09 f4       	brne	.+2      	; 0x23b4 <activate_sirene+0x29a>
    23b2:	3e c0       	rjmp	.+124    	; 0x2430 <activate_sirene+0x316>
    23b4:	20 91 86 01 	lds	r18, 0x0186	; 0x800186 <sensor4+0x4>
    23b8:	30 91 87 01 	lds	r19, 0x0187	; 0x800187 <sensor4+0x5>
    23bc:	40 91 5e 01 	lds	r20, 0x015E	; 0x80015e <zona1+0x2>
    23c0:	50 91 5f 01 	lds	r21, 0x015F	; 0x80015f <zona1+0x3>
    23c4:	91 e0       	ldi	r25, 0x01	; 1
    23c6:	21 30       	cpi	r18, 0x01	; 1
    23c8:	31 05       	cpc	r19, r1
    23ca:	09 f0       	breq	.+2      	; 0x23ce <activate_sirene+0x2b4>
    23cc:	90 e0       	ldi	r25, 0x00	; 0
    23ce:	81 e0       	ldi	r24, 0x01	; 1
    23d0:	41 30       	cpi	r20, 0x01	; 1
    23d2:	51 05       	cpc	r21, r1
    23d4:	09 f0       	breq	.+2      	; 0x23d8 <activate_sirene+0x2be>
    23d6:	80 e0       	ldi	r24, 0x00	; 0
    23d8:	89 23       	and	r24, r25
    23da:	19 f0       	breq	.+6      	; 0x23e2 <activate_sirene+0x2c8>
    23dc:	0e 94 91 1e 	call	0x3d22	; 0x3d22 <StartSirene>
    23e0:	08 95       	ret
    23e2:	40 91 4a 01 	lds	r20, 0x014A	; 0x80014a <zona2+0x2>
    23e6:	50 91 4b 01 	lds	r21, 0x014B	; 0x80014b <zona2+0x3>
    23ea:	91 e0       	ldi	r25, 0x01	; 1
    23ec:	22 30       	cpi	r18, 0x02	; 2
    23ee:	31 05       	cpc	r19, r1
    23f0:	09 f0       	breq	.+2      	; 0x23f4 <activate_sirene+0x2da>
    23f2:	90 e0       	ldi	r25, 0x00	; 0
    23f4:	81 e0       	ldi	r24, 0x01	; 1
    23f6:	41 30       	cpi	r20, 0x01	; 1
    23f8:	51 05       	cpc	r21, r1
    23fa:	09 f0       	breq	.+2      	; 0x23fe <activate_sirene+0x2e4>
    23fc:	80 e0       	ldi	r24, 0x00	; 0
    23fe:	89 23       	and	r24, r25
    2400:	19 f0       	breq	.+6      	; 0x2408 <activate_sirene+0x2ee>
    2402:	0e 94 91 1e 	call	0x3d22	; 0x3d22 <StartSirene>
    2406:	08 95       	ret
    2408:	40 91 36 01 	lds	r20, 0x0136	; 0x800136 <_end+0x2>
    240c:	50 91 37 01 	lds	r21, 0x0137	; 0x800137 <_end+0x3>
    2410:	91 e0       	ldi	r25, 0x01	; 1
    2412:	23 30       	cpi	r18, 0x03	; 3
    2414:	31 05       	cpc	r19, r1
    2416:	09 f0       	breq	.+2      	; 0x241a <activate_sirene+0x300>
    2418:	90 e0       	ldi	r25, 0x00	; 0
    241a:	81 e0       	ldi	r24, 0x01	; 1
    241c:	41 30       	cpi	r20, 0x01	; 1
    241e:	51 05       	cpc	r21, r1
    2420:	09 f0       	breq	.+2      	; 0x2424 <activate_sirene+0x30a>
    2422:	80 e0       	ldi	r24, 0x00	; 0
    2424:	89 23       	and	r24, r25
    2426:	09 f4       	brne	.+2      	; 0x242a <activate_sirene+0x310>
    2428:	ef c0       	rjmp	.+478    	; 0x2608 <activate_sirene+0x4ee>
    242a:	0e 94 91 1e 	call	0x3d22	; 0x3d22 <StartSirene>
    242e:	08 95       	ret
    2430:	40 91 7e 01 	lds	r20, 0x017E	; 0x80017e <sensor5+0x2>
    2434:	50 91 7f 01 	lds	r21, 0x017F	; 0x80017f <sensor5+0x3>
    2438:	29 2f       	mov	r18, r25
    243a:	26 95       	lsr	r18
    243c:	26 95       	lsr	r18
    243e:	26 95       	lsr	r18
    2440:	81 e0       	ldi	r24, 0x01	; 1
    2442:	82 27       	eor	r24, r18
    2444:	81 70       	andi	r24, 0x01	; 1
    2446:	21 e0       	ldi	r18, 0x01	; 1
    2448:	41 30       	cpi	r20, 0x01	; 1
    244a:	51 05       	cpc	r21, r1
    244c:	09 f0       	breq	.+2      	; 0x2450 <activate_sirene+0x336>
    244e:	20 e0       	ldi	r18, 0x00	; 0
    2450:	82 23       	and	r24, r18
    2452:	09 f4       	brne	.+2      	; 0x2456 <activate_sirene+0x33c>
    2454:	3e c0       	rjmp	.+124    	; 0x24d2 <activate_sirene+0x3b8>
    2456:	20 91 80 01 	lds	r18, 0x0180	; 0x800180 <sensor5+0x4>
    245a:	30 91 81 01 	lds	r19, 0x0181	; 0x800181 <sensor5+0x5>
    245e:	40 91 5e 01 	lds	r20, 0x015E	; 0x80015e <zona1+0x2>
    2462:	50 91 5f 01 	lds	r21, 0x015F	; 0x80015f <zona1+0x3>
    2466:	91 e0       	ldi	r25, 0x01	; 1
    2468:	21 30       	cpi	r18, 0x01	; 1
    246a:	31 05       	cpc	r19, r1
    246c:	09 f0       	breq	.+2      	; 0x2470 <activate_sirene+0x356>
    246e:	90 e0       	ldi	r25, 0x00	; 0
    2470:	81 e0       	ldi	r24, 0x01	; 1
    2472:	41 30       	cpi	r20, 0x01	; 1
    2474:	51 05       	cpc	r21, r1
    2476:	09 f0       	breq	.+2      	; 0x247a <activate_sirene+0x360>
    2478:	80 e0       	ldi	r24, 0x00	; 0
    247a:	89 23       	and	r24, r25
    247c:	19 f0       	breq	.+6      	; 0x2484 <activate_sirene+0x36a>
    247e:	0e 94 91 1e 	call	0x3d22	; 0x3d22 <StartSirene>
    2482:	08 95       	ret
    2484:	40 91 4a 01 	lds	r20, 0x014A	; 0x80014a <zona2+0x2>
    2488:	50 91 4b 01 	lds	r21, 0x014B	; 0x80014b <zona2+0x3>
    248c:	91 e0       	ldi	r25, 0x01	; 1
    248e:	22 30       	cpi	r18, 0x02	; 2
    2490:	31 05       	cpc	r19, r1
    2492:	09 f0       	breq	.+2      	; 0x2496 <activate_sirene+0x37c>
    2494:	90 e0       	ldi	r25, 0x00	; 0
    2496:	81 e0       	ldi	r24, 0x01	; 1
    2498:	41 30       	cpi	r20, 0x01	; 1
    249a:	51 05       	cpc	r21, r1
    249c:	09 f0       	breq	.+2      	; 0x24a0 <activate_sirene+0x386>
    249e:	80 e0       	ldi	r24, 0x00	; 0
    24a0:	89 23       	and	r24, r25
    24a2:	19 f0       	breq	.+6      	; 0x24aa <activate_sirene+0x390>
    24a4:	0e 94 91 1e 	call	0x3d22	; 0x3d22 <StartSirene>
    24a8:	08 95       	ret
    24aa:	40 91 36 01 	lds	r20, 0x0136	; 0x800136 <_end+0x2>
    24ae:	50 91 37 01 	lds	r21, 0x0137	; 0x800137 <_end+0x3>
    24b2:	91 e0       	ldi	r25, 0x01	; 1
    24b4:	23 30       	cpi	r18, 0x03	; 3
    24b6:	31 05       	cpc	r19, r1
    24b8:	09 f0       	breq	.+2      	; 0x24bc <activate_sirene+0x3a2>
    24ba:	90 e0       	ldi	r25, 0x00	; 0
    24bc:	81 e0       	ldi	r24, 0x01	; 1
    24be:	41 30       	cpi	r20, 0x01	; 1
    24c0:	51 05       	cpc	r21, r1
    24c2:	09 f0       	breq	.+2      	; 0x24c6 <activate_sirene+0x3ac>
    24c4:	80 e0       	ldi	r24, 0x00	; 0
    24c6:	89 23       	and	r24, r25
    24c8:	09 f4       	brne	.+2      	; 0x24cc <activate_sirene+0x3b2>
    24ca:	9e c0       	rjmp	.+316    	; 0x2608 <activate_sirene+0x4ee>
    24cc:	0e 94 91 1e 	call	0x3d22	; 0x3d22 <StartSirene>
    24d0:	08 95       	ret
    24d2:	40 91 78 01 	lds	r20, 0x0178	; 0x800178 <sensor6+0x2>
    24d6:	50 91 79 01 	lds	r21, 0x0179	; 0x800179 <sensor6+0x3>
    24da:	29 2f       	mov	r18, r25
    24dc:	26 95       	lsr	r18
    24de:	26 95       	lsr	r18
    24e0:	81 e0       	ldi	r24, 0x01	; 1
    24e2:	82 27       	eor	r24, r18
    24e4:	81 70       	andi	r24, 0x01	; 1
    24e6:	21 e0       	ldi	r18, 0x01	; 1
    24e8:	41 30       	cpi	r20, 0x01	; 1
    24ea:	51 05       	cpc	r21, r1
    24ec:	09 f0       	breq	.+2      	; 0x24f0 <activate_sirene+0x3d6>
    24ee:	20 e0       	ldi	r18, 0x00	; 0
    24f0:	82 23       	and	r24, r18
    24f2:	09 f4       	brne	.+2      	; 0x24f6 <activate_sirene+0x3dc>
    24f4:	3e c0       	rjmp	.+124    	; 0x2572 <activate_sirene+0x458>
    24f6:	20 91 7a 01 	lds	r18, 0x017A	; 0x80017a <sensor6+0x4>
    24fa:	30 91 7b 01 	lds	r19, 0x017B	; 0x80017b <sensor6+0x5>
    24fe:	40 91 5e 01 	lds	r20, 0x015E	; 0x80015e <zona1+0x2>
    2502:	50 91 5f 01 	lds	r21, 0x015F	; 0x80015f <zona1+0x3>
    2506:	91 e0       	ldi	r25, 0x01	; 1
    2508:	21 30       	cpi	r18, 0x01	; 1
    250a:	31 05       	cpc	r19, r1
    250c:	09 f0       	breq	.+2      	; 0x2510 <activate_sirene+0x3f6>
    250e:	90 e0       	ldi	r25, 0x00	; 0
    2510:	81 e0       	ldi	r24, 0x01	; 1
    2512:	41 30       	cpi	r20, 0x01	; 1
    2514:	51 05       	cpc	r21, r1
    2516:	09 f0       	breq	.+2      	; 0x251a <activate_sirene+0x400>
    2518:	80 e0       	ldi	r24, 0x00	; 0
    251a:	89 23       	and	r24, r25
    251c:	19 f0       	breq	.+6      	; 0x2524 <activate_sirene+0x40a>
    251e:	0e 94 91 1e 	call	0x3d22	; 0x3d22 <StartSirene>
    2522:	08 95       	ret
    2524:	40 91 4a 01 	lds	r20, 0x014A	; 0x80014a <zona2+0x2>
    2528:	50 91 4b 01 	lds	r21, 0x014B	; 0x80014b <zona2+0x3>
    252c:	91 e0       	ldi	r25, 0x01	; 1
    252e:	22 30       	cpi	r18, 0x02	; 2
    2530:	31 05       	cpc	r19, r1
    2532:	09 f0       	breq	.+2      	; 0x2536 <activate_sirene+0x41c>
    2534:	90 e0       	ldi	r25, 0x00	; 0
    2536:	81 e0       	ldi	r24, 0x01	; 1
    2538:	41 30       	cpi	r20, 0x01	; 1
    253a:	51 05       	cpc	r21, r1
    253c:	09 f0       	breq	.+2      	; 0x2540 <activate_sirene+0x426>
    253e:	80 e0       	ldi	r24, 0x00	; 0
    2540:	89 23       	and	r24, r25
    2542:	19 f0       	breq	.+6      	; 0x254a <activate_sirene+0x430>
    2544:	0e 94 91 1e 	call	0x3d22	; 0x3d22 <StartSirene>
    2548:	08 95       	ret
    254a:	40 91 36 01 	lds	r20, 0x0136	; 0x800136 <_end+0x2>
    254e:	50 91 37 01 	lds	r21, 0x0137	; 0x800137 <_end+0x3>
    2552:	91 e0       	ldi	r25, 0x01	; 1
    2554:	23 30       	cpi	r18, 0x03	; 3
    2556:	31 05       	cpc	r19, r1
    2558:	09 f0       	breq	.+2      	; 0x255c <activate_sirene+0x442>
    255a:	90 e0       	ldi	r25, 0x00	; 0
    255c:	81 e0       	ldi	r24, 0x01	; 1
    255e:	41 30       	cpi	r20, 0x01	; 1
    2560:	51 05       	cpc	r21, r1
    2562:	09 f0       	breq	.+2      	; 0x2566 <activate_sirene+0x44c>
    2564:	80 e0       	ldi	r24, 0x00	; 0
    2566:	89 23       	and	r24, r25
    2568:	09 f4       	brne	.+2      	; 0x256c <activate_sirene+0x452>
    256a:	4e c0       	rjmp	.+156    	; 0x2608 <activate_sirene+0x4ee>
    256c:	0e 94 91 1e 	call	0x3d22	; 0x3d22 <StartSirene>
    2570:	08 95       	ret
    2572:	20 91 72 01 	lds	r18, 0x0172	; 0x800172 <sensor7+0x2>
    2576:	30 91 73 01 	lds	r19, 0x0173	; 0x800173 <sensor7+0x3>
    257a:	96 95       	lsr	r25
    257c:	81 e0       	ldi	r24, 0x01	; 1
    257e:	98 27       	eor	r25, r24
    2580:	91 70       	andi	r25, 0x01	; 1
    2582:	21 30       	cpi	r18, 0x01	; 1
    2584:	31 05       	cpc	r19, r1
    2586:	09 f0       	breq	.+2      	; 0x258a <activate_sirene+0x470>
    2588:	80 e0       	ldi	r24, 0x00	; 0
    258a:	98 23       	and	r25, r24
    258c:	09 f4       	brne	.+2      	; 0x2590 <activate_sirene+0x476>
    258e:	3c c0       	rjmp	.+120    	; 0x2608 <activate_sirene+0x4ee>
    2590:	20 91 74 01 	lds	r18, 0x0174	; 0x800174 <sensor7+0x4>
    2594:	30 91 75 01 	lds	r19, 0x0175	; 0x800175 <sensor7+0x5>
    2598:	40 91 5e 01 	lds	r20, 0x015E	; 0x80015e <zona1+0x2>
    259c:	50 91 5f 01 	lds	r21, 0x015F	; 0x80015f <zona1+0x3>
    25a0:	91 e0       	ldi	r25, 0x01	; 1
    25a2:	21 30       	cpi	r18, 0x01	; 1
    25a4:	31 05       	cpc	r19, r1
    25a6:	09 f0       	breq	.+2      	; 0x25aa <activate_sirene+0x490>
    25a8:	90 e0       	ldi	r25, 0x00	; 0
    25aa:	81 e0       	ldi	r24, 0x01	; 1
    25ac:	41 30       	cpi	r20, 0x01	; 1
    25ae:	51 05       	cpc	r21, r1
    25b0:	09 f0       	breq	.+2      	; 0x25b4 <activate_sirene+0x49a>
    25b2:	80 e0       	ldi	r24, 0x00	; 0
    25b4:	89 23       	and	r24, r25
    25b6:	19 f0       	breq	.+6      	; 0x25be <activate_sirene+0x4a4>
    25b8:	0e 94 91 1e 	call	0x3d22	; 0x3d22 <StartSirene>
    25bc:	08 95       	ret
    25be:	40 91 4a 01 	lds	r20, 0x014A	; 0x80014a <zona2+0x2>
    25c2:	50 91 4b 01 	lds	r21, 0x014B	; 0x80014b <zona2+0x3>
    25c6:	91 e0       	ldi	r25, 0x01	; 1
    25c8:	22 30       	cpi	r18, 0x02	; 2
    25ca:	31 05       	cpc	r19, r1
    25cc:	09 f0       	breq	.+2      	; 0x25d0 <activate_sirene+0x4b6>
    25ce:	90 e0       	ldi	r25, 0x00	; 0
    25d0:	81 e0       	ldi	r24, 0x01	; 1
    25d2:	41 30       	cpi	r20, 0x01	; 1
    25d4:	51 05       	cpc	r21, r1
    25d6:	09 f0       	breq	.+2      	; 0x25da <activate_sirene+0x4c0>
    25d8:	80 e0       	ldi	r24, 0x00	; 0
    25da:	89 23       	and	r24, r25
    25dc:	19 f0       	breq	.+6      	; 0x25e4 <activate_sirene+0x4ca>
    25de:	0e 94 91 1e 	call	0x3d22	; 0x3d22 <StartSirene>
    25e2:	08 95       	ret
    25e4:	40 91 36 01 	lds	r20, 0x0136	; 0x800136 <_end+0x2>
    25e8:	50 91 37 01 	lds	r21, 0x0137	; 0x800137 <_end+0x3>
    25ec:	91 e0       	ldi	r25, 0x01	; 1
    25ee:	23 30       	cpi	r18, 0x03	; 3
    25f0:	31 05       	cpc	r19, r1
    25f2:	09 f0       	breq	.+2      	; 0x25f6 <activate_sirene+0x4dc>
    25f4:	90 e0       	ldi	r25, 0x00	; 0
    25f6:	81 e0       	ldi	r24, 0x01	; 1
    25f8:	41 30       	cpi	r20, 0x01	; 1
    25fa:	51 05       	cpc	r21, r1
    25fc:	09 f0       	breq	.+2      	; 0x2600 <activate_sirene+0x4e6>
    25fe:	80 e0       	ldi	r24, 0x00	; 0
    2600:	89 23       	and	r24, r25
    2602:	11 f0       	breq	.+4      	; 0x2608 <activate_sirene+0x4ee>
    2604:	0e 94 91 1e 	call	0x3d22	; 0x3d22 <StartSirene>
    2608:	08 95       	ret

Disassembly of section .text.main:

0000315e <main>:
    315e:	8f e3       	ldi	r24, 0x3F	; 63
    3160:	87 b9       	out	0x07, r24	; 7
    3162:	8e ef       	ldi	r24, 0xFE	; 254
    3164:	84 b9       	out	0x04, r24	; 4
    3166:	87 e0       	ldi	r24, 0x07	; 7
    3168:	8a b9       	out	0x0a, r24	; 10
    316a:	80 ef       	ldi	r24, 0xF0	; 240
    316c:	8b b9       	out	0x0b, r24	; 11
    316e:	0e 94 f2 1d 	call	0x3be4	; 0x3be4 <SetupTimer1>
    3172:	0e 94 76 1e 	call	0x3cec	; 0x3cec <SetupTimer0>
    3176:	0e 94 7f 1e 	call	0x3cfe	; 0x3cfe <init_int1>
    317a:	0e 94 60 18 	call	0x30c0	; 0x30c0 <inicializa_display>
    317e:	78 94       	sei
    3180:	0e 94 f2 1c 	call	0x39e4	; 0x39e4 <shiftOut>
    3184:	e0 91 da 01 	lds	r30, 0x01DA	; 0x8001da <state>
    3188:	8e 2f       	mov	r24, r30
    318a:	90 e0       	ldi	r25, 0x00	; 0
    318c:	8f 30       	cpi	r24, 0x0F	; 15
    318e:	91 05       	cpc	r25, r1
    3190:	b8 f7       	brcc	.-18     	; 0x3180 <main+0x22>
    3192:	fc 01       	movw	r30, r24
    3194:	ec 5c       	subi	r30, 0xCC	; 204
    3196:	ff 4f       	sbci	r31, 0xFF	; 255
    3198:	0c 94 8b 1e 	jmp	0x3d16	; 0x3d16 <__tablejump2__>
    319c:	0e 94 63 1e 	call	0x3cc6	; 0x3cc6 <StopTimer1>
    31a0:	8c e0       	ldi	r24, 0x0C	; 12
    31a2:	90 e0       	ldi	r25, 0x00	; 0
    31a4:	90 93 10 01 	sts	0x0110, r25	; 0x800110 <timeout+0x1>
    31a8:	80 93 0f 01 	sts	0x010F, r24	; 0x80010f <timeout>
    31ac:	85 e0       	ldi	r24, 0x05	; 5
    31ae:	90 e0       	ldi	r25, 0x00	; 0
    31b0:	90 93 09 01 	sts	0x0109, r25	; 0x800109 <t_sirene+0x1>
    31b4:	80 93 08 01 	sts	0x0108, r24	; 0x800108 <t_sirene>
    31b8:	90 93 03 01 	sts	0x0103, r25	; 0x800103 <t_ativacao+0x1>
    31bc:	80 93 02 01 	sts	0x0102, r24	; 0x800102 <t_ativacao>
    31c0:	81 e0       	ldi	r24, 0x01	; 1
    31c2:	80 93 da 01 	sts	0x01DA, r24	; 0x8001da <state>
    31c6:	0e 94 7a 1b 	call	0x36f4	; 0x36f4 <msg_desativado>
    31ca:	da cf       	rjmp	.-76     	; 0x3180 <main+0x22>
    31cc:	10 92 dc 01 	sts	0x01DC, r1	; 0x8001dc <varEscritaSerial>
    31d0:	d7 cf       	rjmp	.-82     	; 0x3180 <main+0x22>
    31d2:	0e 94 fd 18 	call	0x31fa	; 0x31fa <shiftIn>
    31d6:	0e 94 8d 10 	call	0x211a	; 0x211a <activate_sirene>
    31da:	d2 cf       	rjmp	.-92     	; 0x3180 <main+0x22>
    31dc:	0e 94 d6 1b 	call	0x37ac	; 0x37ac <msg_programacao>
    31e0:	cf cf       	rjmp	.-98     	; 0x3180 <main+0x22>
    31e2:	0e 94 49 1b 	call	0x3692	; 0x3692 <msg_panico>
    31e6:	cc cf       	rjmp	.-104    	; 0x3180 <main+0x22>
    31e8:	0e 94 3f 19 	call	0x327e	; 0x327e <verify_senhaM>
    31ec:	c9 cf       	rjmp	.-110    	; 0x3180 <main+0x22>
    31ee:	0e 94 02 16 	call	0x2c04	; 0x2c04 <verify_senhaA>
    31f2:	c6 cf       	rjmp	.-116    	; 0x3180 <main+0x22>
    31f4:	0e 94 24 15 	call	0x2a48	; 0x2a48 <verify_senhaD>
    31f8:	c3 cf       	rjmp	.-122    	; 0x3180 <main+0x22>

Disassembly of section .text.StopSirene:

00003d2a <StopSirene>:
	PORTD |= (1 << BUZZER); // sirene
}

void StopSirene()
{
	PORTD &= (0 << BUZZER); // sirene
    3d2a:	8b b1       	in	r24, 0x0b	; 11
    3d2c:	1b b8       	out	0x0b, r1	; 11
    3d2e:	08 95       	ret

Disassembly of section .text.__vector_2:

0000023e <__vector_2>:
}

void StopTimer0()
{
	TCCR0B &= ~((1 << CS02) | (1 << CS01) | (1 << CS00)); // sem prescaler, o timer para
	TCNT0 = 0; // zerado para não atrapalhar a próxima contagem
     23e:	1f 92       	push	r1
     240:	0f 92       	push	r0
     242:	0f b6       	in	r0, 0x3f	; 63
     244:	0f 92       	push	r0
     246:	11 24       	eor	r1, r1
     248:	2f 93       	push	r18
     24a:	3f 93       	push	r19
     24c:	4f 93       	push	r20
     24e:	5f 93       	push	r21
     250:	6f 93       	push	r22
     252:	7f 93       	push	r23
     254:	8f 93       	push	r24
     256:	9f 93       	push	r25
     258:	af 93       	push	r26
     25a:	bf 93       	push	r27
     25c:	ef 93       	push	r30
     25e:	ff 93       	push	r31
     260:	89 b1       	in	r24, 0x09	; 9
     262:	80 7f       	andi	r24, 0xF0	; 240
     264:	90 e0       	ldi	r25, 0x00	; 0
     266:	90 93 07 01 	sts	0x0107, r25	; 0x800107 <valor_pinod+0x1>
     26a:	80 93 06 01 	sts	0x0106, r24	; 0x800106 <valor_pinod>
     26e:	80 3f       	cpi	r24, 0xF0	; 240
     270:	91 05       	cpc	r25, r1
     272:	09 f0       	breq	.+2      	; 0x276 <__vector_2+0x38>
     274:	6b c1       	rjmp	.+726    	; 0x54c <__EEPROM_REGION_LENGTH__+0x14c>
     276:	91 e0       	ldi	r25, 0x01	; 1
     278:	80 91 da 01 	lds	r24, 0x01DA	; 0x8001da <state>
     27c:	88 30       	cpi	r24, 0x08	; 8
     27e:	09 f0       	breq	.+2      	; 0x282 <__vector_2+0x44>
     280:	90 e0       	ldi	r25, 0x00	; 0
     282:	81 e0       	ldi	r24, 0x01	; 1
     284:	20 91 d6 01 	lds	r18, 0x01D6	; 0x8001d6 <count_senha>
     288:	30 91 d7 01 	lds	r19, 0x01D7	; 0x8001d7 <count_senha+0x1>
     28c:	24 30       	cpi	r18, 0x04	; 4
     28e:	31 05       	cpc	r19, r1
     290:	0c f0       	brlt	.+2      	; 0x294 <__vector_2+0x56>
     292:	80 e0       	ldi	r24, 0x00	; 0
     294:	89 23       	and	r24, r25
     296:	a9 f0       	breq	.+42     	; 0x2c2 <__vector_2+0x84>
     298:	81 e3       	ldi	r24, 0x31	; 49
     29a:	0e 94 cc 1c 	call	0x3998	; 0x3998 <send_word_lcd>
     29e:	4a e2       	ldi	r20, 0x2A	; 42
     2a0:	52 e0       	ldi	r21, 0x02	; 2
     2a2:	60 e0       	ldi	r22, 0x00	; 0
     2a4:	80 91 d6 01 	lds	r24, 0x01D6	; 0x8001d6 <count_senha>
     2a8:	90 91 d7 01 	lds	r25, 0x01D7	; 0x8001d7 <count_senha+0x1>
     2ac:	0e 94 59 1e 	call	0x3cb2	; 0x3cb2 <insert_senha>
     2b0:	80 91 d6 01 	lds	r24, 0x01D6	; 0x8001d6 <count_senha>
     2b4:	90 91 d7 01 	lds	r25, 0x01D7	; 0x8001d7 <count_senha+0x1>
     2b8:	01 96       	adiw	r24, 0x01	; 1
     2ba:	90 93 d7 01 	sts	0x01D7, r25	; 0x8001d7 <count_senha+0x1>
     2be:	80 93 d6 01 	sts	0x01D6, r24	; 0x8001d6 <count_senha>
     2c2:	91 e0       	ldi	r25, 0x01	; 1
     2c4:	80 91 da 01 	lds	r24, 0x01DA	; 0x8001da <state>
     2c8:	89 30       	cpi	r24, 0x09	; 9
     2ca:	09 f0       	breq	.+2      	; 0x2ce <__vector_2+0x90>
     2cc:	90 e0       	ldi	r25, 0x00	; 0
     2ce:	81 e0       	ldi	r24, 0x01	; 1
     2d0:	20 91 d6 01 	lds	r18, 0x01D6	; 0x8001d6 <count_senha>
     2d4:	30 91 d7 01 	lds	r19, 0x01D7	; 0x8001d7 <count_senha+0x1>
     2d8:	24 30       	cpi	r18, 0x04	; 4
     2da:	31 05       	cpc	r19, r1
     2dc:	0c f0       	brlt	.+2      	; 0x2e0 <__vector_2+0xa2>
     2de:	80 e0       	ldi	r24, 0x00	; 0
     2e0:	89 23       	and	r24, r25
     2e2:	a9 f0       	breq	.+42     	; 0x30e <__vector_2+0xd0>
     2e4:	81 e3       	ldi	r24, 0x31	; 49
     2e6:	0e 94 cc 1c 	call	0x3998	; 0x3998 <send_word_lcd>
     2ea:	4a e2       	ldi	r20, 0x2A	; 42
     2ec:	52 e0       	ldi	r21, 0x02	; 2
     2ee:	60 e0       	ldi	r22, 0x00	; 0
     2f0:	80 91 d6 01 	lds	r24, 0x01D6	; 0x8001d6 <count_senha>
     2f4:	90 91 d7 01 	lds	r25, 0x01D7	; 0x8001d7 <count_senha+0x1>
     2f8:	0e 94 2e 1c 	call	0x385c	; 0x385c <senha_arm>
     2fc:	80 91 d6 01 	lds	r24, 0x01D6	; 0x8001d6 <count_senha>
     300:	90 91 d7 01 	lds	r25, 0x01D7	; 0x8001d7 <count_senha+0x1>
     304:	01 96       	adiw	r24, 0x01	; 1
     306:	90 93 d7 01 	sts	0x01D7, r25	; 0x8001d7 <count_senha+0x1>
     30a:	80 93 d6 01 	sts	0x01D6, r24	; 0x8001d6 <count_senha>
     30e:	91 e0       	ldi	r25, 0x01	; 1
     310:	80 91 da 01 	lds	r24, 0x01DA	; 0x8001da <state>
     314:	8a 30       	cpi	r24, 0x0A	; 10
     316:	09 f0       	breq	.+2      	; 0x31a <__vector_2+0xdc>
     318:	90 e0       	ldi	r25, 0x00	; 0
     31a:	81 e0       	ldi	r24, 0x01	; 1
     31c:	20 91 d6 01 	lds	r18, 0x01D6	; 0x8001d6 <count_senha>
     320:	30 91 d7 01 	lds	r19, 0x01D7	; 0x8001d7 <count_senha+0x1>
     324:	24 30       	cpi	r18, 0x04	; 4
     326:	31 05       	cpc	r19, r1
     328:	0c f0       	brlt	.+2      	; 0x32c <__vector_2+0xee>
     32a:	80 e0       	ldi	r24, 0x00	; 0
     32c:	89 23       	and	r24, r25
     32e:	a9 f0       	breq	.+42     	; 0x35a <__vector_2+0x11c>
     330:	81 e3       	ldi	r24, 0x31	; 49
     332:	0e 94 cc 1c 	call	0x3998	; 0x3998 <send_word_lcd>
     336:	4a e2       	ldi	r20, 0x2A	; 42
     338:	52 e0       	ldi	r21, 0x02	; 2
     33a:	60 e0       	ldi	r22, 0x00	; 0
     33c:	80 91 d6 01 	lds	r24, 0x01D6	; 0x8001d6 <count_senha>
     340:	90 91 d7 01 	lds	r25, 0x01D7	; 0x8001d7 <count_senha+0x1>
     344:	0e 94 59 1e 	call	0x3cb2	; 0x3cb2 <insert_senha>
     348:	80 91 d6 01 	lds	r24, 0x01D6	; 0x8001d6 <count_senha>
     34c:	90 91 d7 01 	lds	r25, 0x01D7	; 0x8001d7 <count_senha+0x1>
     350:	01 96       	adiw	r24, 0x01	; 1
     352:	90 93 d7 01 	sts	0x01D7, r25	; 0x8001d7 <count_senha+0x1>
     356:	80 93 d6 01 	sts	0x01D6, r24	; 0x8001d6 <count_senha>
     35a:	91 e0       	ldi	r25, 0x01	; 1
     35c:	80 91 da 01 	lds	r24, 0x01DA	; 0x8001da <state>
     360:	8b 30       	cpi	r24, 0x0B	; 11
     362:	09 f0       	breq	.+2      	; 0x366 <__vector_2+0x128>
     364:	90 e0       	ldi	r25, 0x00	; 0
     366:	81 e0       	ldi	r24, 0x01	; 1
     368:	20 91 d6 01 	lds	r18, 0x01D6	; 0x8001d6 <count_senha>
     36c:	30 91 d7 01 	lds	r19, 0x01D7	; 0x8001d7 <count_senha+0x1>
     370:	24 30       	cpi	r18, 0x04	; 4
     372:	31 05       	cpc	r19, r1
     374:	0c f0       	brlt	.+2      	; 0x378 <__vector_2+0x13a>
     376:	80 e0       	ldi	r24, 0x00	; 0
     378:	89 23       	and	r24, r25
     37a:	a9 f0       	breq	.+42     	; 0x3a6 <__vector_2+0x168>
     37c:	81 e3       	ldi	r24, 0x31	; 49
     37e:	0e 94 cc 1c 	call	0x3998	; 0x3998 <send_word_lcd>
     382:	4a e2       	ldi	r20, 0x2A	; 42
     384:	52 e0       	ldi	r21, 0x02	; 2
     386:	60 e0       	ldi	r22, 0x00	; 0
     388:	80 91 d6 01 	lds	r24, 0x01D6	; 0x8001d6 <count_senha>
     38c:	90 91 d7 01 	lds	r25, 0x01D7	; 0x8001d7 <count_senha+0x1>
     390:	0e 94 59 1e 	call	0x3cb2	; 0x3cb2 <insert_senha>
     394:	80 91 d6 01 	lds	r24, 0x01D6	; 0x8001d6 <count_senha>
     398:	90 91 d7 01 	lds	r25, 0x01D7	; 0x8001d7 <count_senha+0x1>
     39c:	01 96       	adiw	r24, 0x01	; 1
     39e:	90 93 d7 01 	sts	0x01D7, r25	; 0x8001d7 <count_senha+0x1>
     3a2:	80 93 d6 01 	sts	0x01D6, r24	; 0x8001d6 <count_senha>
     3a6:	91 e0       	ldi	r25, 0x01	; 1
     3a8:	80 91 da 01 	lds	r24, 0x01DA	; 0x8001da <state>
     3ac:	87 30       	cpi	r24, 0x07	; 7
     3ae:	09 f0       	breq	.+2      	; 0x3b2 <__vector_2+0x174>
     3b0:	90 e0       	ldi	r25, 0x00	; 0
     3b2:	81 e0       	ldi	r24, 0x01	; 1
     3b4:	20 91 d8 01 	lds	r18, 0x01D8	; 0x8001d8 <flag_a_senha>
     3b8:	30 91 d9 01 	lds	r19, 0x01D9	; 0x8001d9 <flag_a_senha+0x1>
     3bc:	21 30       	cpi	r18, 0x01	; 1
     3be:	31 05       	cpc	r19, r1
     3c0:	09 f0       	breq	.+2      	; 0x3c4 <__vector_2+0x186>
     3c2:	80 e0       	ldi	r24, 0x00	; 0
     3c4:	89 23       	and	r24, r25
     3c6:	79 f0       	breq	.+30     	; 0x3e6 <__vector_2+0x1a8>
     3c8:	89 e0       	ldi	r24, 0x09	; 9
     3ca:	80 93 da 01 	sts	0x01DA, r24	; 0x8001da <state>
     3ce:	0e 94 a5 1c 	call	0x394a	; 0x394a <msg_altera_senha>
     3d2:	81 e0       	ldi	r24, 0x01	; 1
     3d4:	90 e0       	ldi	r25, 0x00	; 0
     3d6:	90 93 28 01 	sts	0x0128, r25	; 0x800128 <addr_senha+0x1>
     3da:	80 93 27 01 	sts	0x0127, r24	; 0x800127 <addr_senha>
     3de:	10 92 d9 01 	sts	0x01D9, r1	; 0x8001d9 <flag_a_senha+0x1>
     3e2:	10 92 d8 01 	sts	0x01D8, r1	; 0x8001d8 <flag_a_senha>
     3e6:	91 e0       	ldi	r25, 0x01	; 1
     3e8:	80 91 da 01 	lds	r24, 0x01DA	; 0x8001da <state>
     3ec:	8f 30       	cpi	r24, 0x0F	; 15
     3ee:	09 f0       	breq	.+2      	; 0x3f2 <__vector_2+0x1b4>
     3f0:	90 e0       	ldi	r25, 0x00	; 0
     3f2:	81 e0       	ldi	r24, 0x01	; 1
     3f4:	20 91 d0 01 	lds	r18, 0x01D0	; 0x8001d0 <flag_sensor>
     3f8:	30 91 d1 01 	lds	r19, 0x01D1	; 0x8001d1 <flag_sensor+0x1>
     3fc:	23 2b       	or	r18, r19
     3fe:	09 f0       	breq	.+2      	; 0x402 <__EEPROM_REGION_LENGTH__+0x2>
     400:	80 e0       	ldi	r24, 0x00	; 0
     402:	89 23       	and	r24, r25
     404:	21 f0       	breq	.+8      	; 0x40e <__EEPROM_REGION_LENGTH__+0xe>
     406:	81 e0       	ldi	r24, 0x01	; 1
     408:	90 e0       	ldi	r25, 0x00	; 0
     40a:	0e 94 d6 16 	call	0x2dac	; 0x2dac <hab_sensor>
     40e:	91 e0       	ldi	r25, 0x01	; 1
     410:	80 91 da 01 	lds	r24, 0x01DA	; 0x8001da <state>
     414:	80 31       	cpi	r24, 0x10	; 16
     416:	09 f0       	breq	.+2      	; 0x41a <__EEPROM_REGION_LENGTH__+0x1a>
     418:	90 e0       	ldi	r25, 0x00	; 0
     41a:	81 e0       	ldi	r24, 0x01	; 1
     41c:	20 91 d0 01 	lds	r18, 0x01D0	; 0x8001d0 <flag_sensor>
     420:	30 91 d1 01 	lds	r19, 0x01D1	; 0x8001d1 <flag_sensor+0x1>
     424:	23 2b       	or	r18, r19
     426:	09 f0       	breq	.+2      	; 0x42a <__EEPROM_REGION_LENGTH__+0x2a>
     428:	80 e0       	ldi	r24, 0x00	; 0
     42a:	89 23       	and	r24, r25
     42c:	21 f0       	breq	.+8      	; 0x436 <__EEPROM_REGION_LENGTH__+0x36>
     42e:	81 e0       	ldi	r24, 0x01	; 1
     430:	90 e0       	ldi	r25, 0x00	; 0
     432:	0e 94 fa 17 	call	0x2ff4	; 0x2ff4 <hab_zonas>
     436:	90 91 da 01 	lds	r25, 0x01DA	; 0x8001da <state>
     43a:	21 e0       	ldi	r18, 0x01	; 1
     43c:	40 91 c8 01 	lds	r20, 0x01C8	; 0x8001c8 <flag_z1>
     440:	50 91 c9 01 	lds	r21, 0x01C9	; 0x8001c9 <flag_z1+0x1>
     444:	45 2b       	or	r20, r21
     446:	09 f0       	breq	.+2      	; 0x44a <__EEPROM_REGION_LENGTH__+0x4a>
     448:	20 e0       	ldi	r18, 0x00	; 0
     44a:	81 e0       	ldi	r24, 0x01	; 1
     44c:	91 31       	cpi	r25, 0x11	; 17
     44e:	09 f0       	breq	.+2      	; 0x452 <__EEPROM_REGION_LENGTH__+0x52>
     450:	80 e0       	ldi	r24, 0x00	; 0
     452:	82 23       	and	r24, r18
     454:	f9 f0       	breq	.+62     	; 0x494 <__EEPROM_REGION_LENGTH__+0x94>
     456:	20 91 ca 01 	lds	r18, 0x01CA	; 0x8001ca <flag_z>
     45a:	30 91 cb 01 	lds	r19, 0x01CB	; 0x8001cb <flag_z+0x1>
     45e:	21 15       	cp	r18, r1
     460:	31 05       	cpc	r19, r1
     462:	59 f4       	brne	.+22     	; 0x47a <__EEPROM_REGION_LENGTH__+0x7a>
     464:	21 e0       	ldi	r18, 0x01	; 1
     466:	30 e0       	ldi	r19, 0x00	; 0
     468:	30 93 01 01 	sts	0x0101, r19	; 0x800101 <__DATA_REGION_ORIGIN__+0x1>
     46c:	20 93 00 01 	sts	0x0100, r18	; 0x800100 <__DATA_REGION_ORIGIN__>
     470:	30 93 cb 01 	sts	0x01CB, r19	; 0x8001cb <flag_z+0x1>
     474:	20 93 ca 01 	sts	0x01CA, r18	; 0x8001ca <flag_z>
     478:	0d c0       	rjmp	.+26     	; 0x494 <__EEPROM_REGION_LENGTH__+0x94>
     47a:	21 30       	cpi	r18, 0x01	; 1
     47c:	31 05       	cpc	r19, r1
     47e:	51 f4       	brne	.+20     	; 0x494 <__EEPROM_REGION_LENGTH__+0x94>
     480:	21 e0       	ldi	r18, 0x01	; 1
     482:	30 e0       	ldi	r19, 0x00	; 0
     484:	30 93 05 01 	sts	0x0105, r19	; 0x800105 <idzona+0x1>
     488:	20 93 04 01 	sts	0x0104, r18	; 0x800104 <idzona>
     48c:	30 93 c9 01 	sts	0x01C9, r19	; 0x8001c9 <flag_z1+0x1>
     490:	20 93 c8 01 	sts	0x01C8, r18	; 0x8001c8 <flag_z1>
     494:	20 91 bc 01 	lds	r18, 0x01BC	; 0x8001bc <cont_t>
     498:	30 91 bd 01 	lds	r19, 0x01BD	; 0x8001bd <cont_t+0x1>
     49c:	41 e0       	ldi	r20, 0x01	; 1
     49e:	93 31       	cpi	r25, 0x13	; 19
     4a0:	09 f0       	breq	.+2      	; 0x4a4 <__EEPROM_REGION_LENGTH__+0xa4>
     4a2:	40 e0       	ldi	r20, 0x00	; 0
     4a4:	81 e0       	ldi	r24, 0x01	; 1
     4a6:	22 30       	cpi	r18, 0x02	; 2
     4a8:	31 05       	cpc	r19, r1
     4aa:	0c f0       	brlt	.+2      	; 0x4ae <__EEPROM_REGION_LENGTH__+0xae>
     4ac:	80 e0       	ldi	r24, 0x00	; 0
     4ae:	84 23       	and	r24, r20
     4b0:	79 f0       	breq	.+30     	; 0x4d0 <__EEPROM_REGION_LENGTH__+0xd0>
     4b2:	f9 01       	movw	r30, r18
     4b4:	ee 0f       	add	r30, r30
     4b6:	ff 1f       	adc	r31, r31
     4b8:	e5 5f       	subi	r30, 0xF5	; 245
     4ba:	fe 4f       	sbci	r31, 0xFE	; 254
     4bc:	41 e0       	ldi	r20, 0x01	; 1
     4be:	50 e0       	ldi	r21, 0x00	; 0
     4c0:	51 83       	std	Z+1, r21	; 0x01
     4c2:	40 83       	st	Z, r20
     4c4:	2f 5f       	subi	r18, 0xFF	; 255
     4c6:	3f 4f       	sbci	r19, 0xFF	; 255
     4c8:	30 93 bd 01 	sts	0x01BD, r19	; 0x8001bd <cont_t+0x1>
     4cc:	20 93 bc 01 	sts	0x01BC, r18	; 0x8001bc <cont_t>
     4d0:	81 e0       	ldi	r24, 0x01	; 1
     4d2:	20 91 bc 01 	lds	r18, 0x01BC	; 0x8001bc <cont_t>
     4d6:	30 91 bd 01 	lds	r19, 0x01BD	; 0x8001bd <cont_t+0x1>
     4da:	23 30       	cpi	r18, 0x03	; 3
     4dc:	31 05       	cpc	r19, r1
     4de:	0c f0       	brlt	.+2      	; 0x4e2 <__EEPROM_REGION_LENGTH__+0xe2>
     4e0:	80 e0       	ldi	r24, 0x00	; 0
     4e2:	21 e0       	ldi	r18, 0x01	; 1
     4e4:	94 31       	cpi	r25, 0x14	; 20
     4e6:	09 f0       	breq	.+2      	; 0x4ea <__EEPROM_REGION_LENGTH__+0xea>
     4e8:	20 e0       	ldi	r18, 0x00	; 0
     4ea:	28 23       	and	r18, r24
     4ec:	99 f0       	breq	.+38     	; 0x514 <__EEPROM_REGION_LENGTH__+0x114>
     4ee:	20 91 b8 01 	lds	r18, 0x01B8	; 0x8001b8 <cont_s>
     4f2:	30 91 b9 01 	lds	r19, 0x01B9	; 0x8001b9 <cont_s+0x1>
     4f6:	f9 01       	movw	r30, r18
     4f8:	ee 0f       	add	r30, r30
     4fa:	ff 1f       	adc	r31, r31
     4fc:	e7 5d       	subi	r30, 0xD7	; 215
     4fe:	fe 4f       	sbci	r31, 0xFE	; 254
     500:	41 e0       	ldi	r20, 0x01	; 1
     502:	50 e0       	ldi	r21, 0x00	; 0
     504:	51 83       	std	Z+1, r21	; 0x01
     506:	40 83       	st	Z, r20
     508:	2f 5f       	subi	r18, 0xFF	; 255
     50a:	3f 4f       	sbci	r19, 0xFF	; 255
     50c:	30 93 b9 01 	sts	0x01B9, r19	; 0x8001b9 <cont_s+0x1>
     510:	20 93 b8 01 	sts	0x01B8, r18	; 0x8001b8 <cont_s>
     514:	21 e0       	ldi	r18, 0x01	; 1
     516:	92 31       	cpi	r25, 0x12	; 18
     518:	09 f0       	breq	.+2      	; 0x51c <__EEPROM_REGION_LENGTH__+0x11c>
     51a:	20 e0       	ldi	r18, 0x00	; 0
     51c:	82 23       	and	r24, r18
     51e:	11 f4       	brne	.+4      	; 0x524 <__EEPROM_REGION_LENGTH__+0x124>
     520:	0c 94 7c 10 	jmp	0x20f8	; 0x20f8 <__stack+0x17f9>
     524:	80 91 ba 01 	lds	r24, 0x01BA	; 0x8001ba <cont_aa>
     528:	90 91 bb 01 	lds	r25, 0x01BB	; 0x8001bb <cont_aa+0x1>
     52c:	fc 01       	movw	r30, r24
     52e:	ee 0f       	add	r30, r30
     530:	ff 1f       	adc	r31, r31
     532:	ef 5d       	subi	r30, 0xDF	; 223
     534:	fe 4f       	sbci	r31, 0xFE	; 254
     536:	21 e0       	ldi	r18, 0x01	; 1
     538:	30 e0       	ldi	r19, 0x00	; 0
     53a:	31 83       	std	Z+1, r19	; 0x01
     53c:	20 83       	st	Z, r18
     53e:	01 96       	adiw	r24, 0x01	; 1
     540:	90 93 bb 01 	sts	0x01BB, r25	; 0x8001bb <cont_aa+0x1>
     544:	80 93 ba 01 	sts	0x01BA, r24	; 0x8001ba <cont_aa>
     548:	0c 94 7c 10 	jmp	0x20f8	; 0x20f8 <__stack+0x17f9>
     54c:	80 3e       	cpi	r24, 0xE0	; 224
     54e:	91 05       	cpc	r25, r1
     550:	09 f0       	breq	.+2      	; 0x554 <__EEPROM_REGION_LENGTH__+0x154>
     552:	88 c1       	rjmp	.+784    	; 0x864 <__DATA_REGION_LENGTH__+0x64>
     554:	91 e0       	ldi	r25, 0x01	; 1
     556:	80 91 da 01 	lds	r24, 0x01DA	; 0x8001da <state>
     55a:	88 30       	cpi	r24, 0x08	; 8
     55c:	09 f0       	breq	.+2      	; 0x560 <__EEPROM_REGION_LENGTH__+0x160>
     55e:	90 e0       	ldi	r25, 0x00	; 0
     560:	81 e0       	ldi	r24, 0x01	; 1
     562:	20 91 d6 01 	lds	r18, 0x01D6	; 0x8001d6 <count_senha>
     566:	30 91 d7 01 	lds	r19, 0x01D7	; 0x8001d7 <count_senha+0x1>
     56a:	24 30       	cpi	r18, 0x04	; 4
     56c:	31 05       	cpc	r19, r1
     56e:	0c f0       	brlt	.+2      	; 0x572 <__EEPROM_REGION_LENGTH__+0x172>
     570:	80 e0       	ldi	r24, 0x00	; 0
     572:	89 23       	and	r24, r25
     574:	a9 f0       	breq	.+42     	; 0x5a0 <__EEPROM_REGION_LENGTH__+0x1a0>
     576:	82 e3       	ldi	r24, 0x32	; 50
     578:	0e 94 cc 1c 	call	0x3998	; 0x3998 <send_word_lcd>
     57c:	4c e2       	ldi	r20, 0x2C	; 44
     57e:	52 e0       	ldi	r21, 0x02	; 2
     580:	60 e0       	ldi	r22, 0x00	; 0
     582:	80 91 d6 01 	lds	r24, 0x01D6	; 0x8001d6 <count_senha>
     586:	90 91 d7 01 	lds	r25, 0x01D7	; 0x8001d7 <count_senha+0x1>
     58a:	0e 94 59 1e 	call	0x3cb2	; 0x3cb2 <insert_senha>
     58e:	80 91 d6 01 	lds	r24, 0x01D6	; 0x8001d6 <count_senha>
     592:	90 91 d7 01 	lds	r25, 0x01D7	; 0x8001d7 <count_senha+0x1>
     596:	01 96       	adiw	r24, 0x01	; 1
     598:	90 93 d7 01 	sts	0x01D7, r25	; 0x8001d7 <count_senha+0x1>
     59c:	80 93 d6 01 	sts	0x01D6, r24	; 0x8001d6 <count_senha>
     5a0:	91 e0       	ldi	r25, 0x01	; 1
     5a2:	80 91 da 01 	lds	r24, 0x01DA	; 0x8001da <state>
     5a6:	89 30       	cpi	r24, 0x09	; 9
     5a8:	09 f0       	breq	.+2      	; 0x5ac <__EEPROM_REGION_LENGTH__+0x1ac>
     5aa:	90 e0       	ldi	r25, 0x00	; 0
     5ac:	81 e0       	ldi	r24, 0x01	; 1
     5ae:	20 91 d6 01 	lds	r18, 0x01D6	; 0x8001d6 <count_senha>
     5b2:	30 91 d7 01 	lds	r19, 0x01D7	; 0x8001d7 <count_senha+0x1>
     5b6:	24 30       	cpi	r18, 0x04	; 4
     5b8:	31 05       	cpc	r19, r1
     5ba:	0c f0       	brlt	.+2      	; 0x5be <__EEPROM_REGION_LENGTH__+0x1be>
     5bc:	80 e0       	ldi	r24, 0x00	; 0
     5be:	89 23       	and	r24, r25
     5c0:	a9 f0       	breq	.+42     	; 0x5ec <__EEPROM_REGION_LENGTH__+0x1ec>
     5c2:	82 e3       	ldi	r24, 0x32	; 50
     5c4:	0e 94 cc 1c 	call	0x3998	; 0x3998 <send_word_lcd>
     5c8:	4c e2       	ldi	r20, 0x2C	; 44
     5ca:	52 e0       	ldi	r21, 0x02	; 2
     5cc:	60 e0       	ldi	r22, 0x00	; 0
     5ce:	80 91 d6 01 	lds	r24, 0x01D6	; 0x8001d6 <count_senha>
     5d2:	90 91 d7 01 	lds	r25, 0x01D7	; 0x8001d7 <count_senha+0x1>
     5d6:	0e 94 2e 1c 	call	0x385c	; 0x385c <senha_arm>
     5da:	80 91 d6 01 	lds	r24, 0x01D6	; 0x8001d6 <count_senha>
     5de:	90 91 d7 01 	lds	r25, 0x01D7	; 0x8001d7 <count_senha+0x1>
     5e2:	01 96       	adiw	r24, 0x01	; 1
     5e4:	90 93 d7 01 	sts	0x01D7, r25	; 0x8001d7 <count_senha+0x1>
     5e8:	80 93 d6 01 	sts	0x01D6, r24	; 0x8001d6 <count_senha>
     5ec:	91 e0       	ldi	r25, 0x01	; 1
     5ee:	80 91 da 01 	lds	r24, 0x01DA	; 0x8001da <state>
     5f2:	8a 30       	cpi	r24, 0x0A	; 10
     5f4:	09 f0       	breq	.+2      	; 0x5f8 <__EEPROM_REGION_LENGTH__+0x1f8>
     5f6:	90 e0       	ldi	r25, 0x00	; 0
     5f8:	81 e0       	ldi	r24, 0x01	; 1
     5fa:	20 91 d6 01 	lds	r18, 0x01D6	; 0x8001d6 <count_senha>
     5fe:	30 91 d7 01 	lds	r19, 0x01D7	; 0x8001d7 <count_senha+0x1>
     602:	24 30       	cpi	r18, 0x04	; 4
     604:	31 05       	cpc	r19, r1
     606:	0c f0       	brlt	.+2      	; 0x60a <__EEPROM_REGION_LENGTH__+0x20a>
     608:	80 e0       	ldi	r24, 0x00	; 0
     60a:	89 23       	and	r24, r25
     60c:	a9 f0       	breq	.+42     	; 0x638 <__EEPROM_REGION_LENGTH__+0x238>
     60e:	82 e3       	ldi	r24, 0x32	; 50
     610:	0e 94 cc 1c 	call	0x3998	; 0x3998 <send_word_lcd>
     614:	4c e2       	ldi	r20, 0x2C	; 44
     616:	52 e0       	ldi	r21, 0x02	; 2
     618:	60 e0       	ldi	r22, 0x00	; 0
     61a:	80 91 d6 01 	lds	r24, 0x01D6	; 0x8001d6 <count_senha>
     61e:	90 91 d7 01 	lds	r25, 0x01D7	; 0x8001d7 <count_senha+0x1>
     622:	0e 94 59 1e 	call	0x3cb2	; 0x3cb2 <insert_senha>
     626:	80 91 d6 01 	lds	r24, 0x01D6	; 0x8001d6 <count_senha>
     62a:	90 91 d7 01 	lds	r25, 0x01D7	; 0x8001d7 <count_senha+0x1>
     62e:	01 96       	adiw	r24, 0x01	; 1
     630:	90 93 d7 01 	sts	0x01D7, r25	; 0x8001d7 <count_senha+0x1>
     634:	80 93 d6 01 	sts	0x01D6, r24	; 0x8001d6 <count_senha>
     638:	91 e0       	ldi	r25, 0x01	; 1
     63a:	80 91 da 01 	lds	r24, 0x01DA	; 0x8001da <state>
     63e:	8b 30       	cpi	r24, 0x0B	; 11
     640:	09 f0       	breq	.+2      	; 0x644 <__EEPROM_REGION_LENGTH__+0x244>
     642:	90 e0       	ldi	r25, 0x00	; 0
     644:	81 e0       	ldi	r24, 0x01	; 1
     646:	20 91 d6 01 	lds	r18, 0x01D6	; 0x8001d6 <count_senha>
     64a:	30 91 d7 01 	lds	r19, 0x01D7	; 0x8001d7 <count_senha+0x1>
     64e:	24 30       	cpi	r18, 0x04	; 4
     650:	31 05       	cpc	r19, r1
     652:	0c f0       	brlt	.+2      	; 0x656 <__EEPROM_REGION_LENGTH__+0x256>
     654:	80 e0       	ldi	r24, 0x00	; 0
     656:	89 23       	and	r24, r25
     658:	a9 f0       	breq	.+42     	; 0x684 <__EEPROM_REGION_LENGTH__+0x284>
     65a:	82 e3       	ldi	r24, 0x32	; 50
     65c:	0e 94 cc 1c 	call	0x3998	; 0x3998 <send_word_lcd>
     660:	4c e2       	ldi	r20, 0x2C	; 44
     662:	52 e0       	ldi	r21, 0x02	; 2
     664:	60 e0       	ldi	r22, 0x00	; 0
     666:	80 91 d6 01 	lds	r24, 0x01D6	; 0x8001d6 <count_senha>
     66a:	90 91 d7 01 	lds	r25, 0x01D7	; 0x8001d7 <count_senha+0x1>
     66e:	0e 94 59 1e 	call	0x3cb2	; 0x3cb2 <insert_senha>
     672:	80 91 d6 01 	lds	r24, 0x01D6	; 0x8001d6 <count_senha>
     676:	90 91 d7 01 	lds	r25, 0x01D7	; 0x8001d7 <count_senha+0x1>
     67a:	01 96       	adiw	r24, 0x01	; 1
     67c:	90 93 d7 01 	sts	0x01D7, r25	; 0x8001d7 <count_senha+0x1>
     680:	80 93 d6 01 	sts	0x01D6, r24	; 0x8001d6 <count_senha>
     684:	91 e0       	ldi	r25, 0x01	; 1
     686:	80 91 da 01 	lds	r24, 0x01DA	; 0x8001da <state>
     68a:	87 30       	cpi	r24, 0x07	; 7
     68c:	09 f0       	breq	.+2      	; 0x690 <__EEPROM_REGION_LENGTH__+0x290>
     68e:	90 e0       	ldi	r25, 0x00	; 0
     690:	20 91 d8 01 	lds	r18, 0x01D8	; 0x8001d8 <flag_a_senha>
     694:	30 91 d9 01 	lds	r19, 0x01D9	; 0x8001d9 <flag_a_senha+0x1>
     698:	41 e0       	ldi	r20, 0x01	; 1
     69a:	60 91 c2 01 	lds	r22, 0x01C2	; 0x8001c2 <flag_timeout>
     69e:	70 91 c3 01 	lds	r23, 0x01C3	; 0x8001c3 <flag_timeout+0x1>
     6a2:	67 2b       	or	r22, r23
     6a4:	09 f0       	breq	.+2      	; 0x6a8 <__EEPROM_REGION_LENGTH__+0x2a8>
     6a6:	40 e0       	ldi	r20, 0x00	; 0
     6a8:	81 e0       	ldi	r24, 0x01	; 1
     6aa:	21 15       	cp	r18, r1
     6ac:	31 05       	cpc	r19, r1
     6ae:	09 f0       	breq	.+2      	; 0x6b2 <__EEPROM_REGION_LENGTH__+0x2b2>
     6b0:	80 e0       	ldi	r24, 0x00	; 0
     6b2:	84 23       	and	r24, r20
     6b4:	99 23       	and	r25, r25
     6b6:	49 f0       	breq	.+18     	; 0x6ca <__EEPROM_REGION_LENGTH__+0x2ca>
     6b8:	88 23       	and	r24, r24
     6ba:	39 f0       	breq	.+14     	; 0x6ca <__EEPROM_REGION_LENGTH__+0x2ca>
     6bc:	81 e0       	ldi	r24, 0x01	; 1
     6be:	90 e0       	ldi	r25, 0x00	; 0
     6c0:	90 93 d9 01 	sts	0x01D9, r25	; 0x8001d9 <flag_a_senha+0x1>
     6c4:	80 93 d8 01 	sts	0x01D8, r24	; 0x8001d8 <flag_a_senha>
     6c8:	16 c0       	rjmp	.+44     	; 0x6f6 <__EEPROM_REGION_LENGTH__+0x2f6>
     6ca:	81 e0       	ldi	r24, 0x01	; 1
     6cc:	21 30       	cpi	r18, 0x01	; 1
     6ce:	31 05       	cpc	r19, r1
     6d0:	09 f0       	breq	.+2      	; 0x6d4 <__EEPROM_REGION_LENGTH__+0x2d4>
     6d2:	80 e0       	ldi	r24, 0x00	; 0
     6d4:	98 23       	and	r25, r24
     6d6:	79 f0       	breq	.+30     	; 0x6f6 <__EEPROM_REGION_LENGTH__+0x2f6>
     6d8:	89 e0       	ldi	r24, 0x09	; 9
     6da:	80 93 da 01 	sts	0x01DA, r24	; 0x8001da <state>
     6de:	0e 94 a5 1c 	call	0x394a	; 0x394a <msg_altera_senha>
     6e2:	82 e0       	ldi	r24, 0x02	; 2
     6e4:	90 e0       	ldi	r25, 0x00	; 0
     6e6:	90 93 28 01 	sts	0x0128, r25	; 0x800128 <addr_senha+0x1>
     6ea:	80 93 27 01 	sts	0x0127, r24	; 0x800127 <addr_senha>
     6ee:	10 92 d9 01 	sts	0x01D9, r1	; 0x8001d9 <flag_a_senha+0x1>
     6f2:	10 92 d8 01 	sts	0x01D8, r1	; 0x8001d8 <flag_a_senha>
     6f6:	91 e0       	ldi	r25, 0x01	; 1
     6f8:	80 91 da 01 	lds	r24, 0x01DA	; 0x8001da <state>
     6fc:	8f 30       	cpi	r24, 0x0F	; 15
     6fe:	09 f0       	breq	.+2      	; 0x702 <__EEPROM_REGION_LENGTH__+0x302>
     700:	90 e0       	ldi	r25, 0x00	; 0
     702:	81 e0       	ldi	r24, 0x01	; 1
     704:	20 91 d0 01 	lds	r18, 0x01D0	; 0x8001d0 <flag_sensor>
     708:	30 91 d1 01 	lds	r19, 0x01D1	; 0x8001d1 <flag_sensor+0x1>
     70c:	23 2b       	or	r18, r19
     70e:	09 f0       	breq	.+2      	; 0x712 <__EEPROM_REGION_LENGTH__+0x312>
     710:	80 e0       	ldi	r24, 0x00	; 0
     712:	89 23       	and	r24, r25
     714:	21 f0       	breq	.+8      	; 0x71e <__EEPROM_REGION_LENGTH__+0x31e>
     716:	82 e0       	ldi	r24, 0x02	; 2
     718:	90 e0       	ldi	r25, 0x00	; 0
     71a:	0e 94 d6 16 	call	0x2dac	; 0x2dac <hab_sensor>
     71e:	91 e0       	ldi	r25, 0x01	; 1
     720:	80 91 da 01 	lds	r24, 0x01DA	; 0x8001da <state>
     724:	80 31       	cpi	r24, 0x10	; 16
     726:	09 f0       	breq	.+2      	; 0x72a <__EEPROM_REGION_LENGTH__+0x32a>
     728:	90 e0       	ldi	r25, 0x00	; 0
     72a:	81 e0       	ldi	r24, 0x01	; 1
     72c:	20 91 d0 01 	lds	r18, 0x01D0	; 0x8001d0 <flag_sensor>
     730:	30 91 d1 01 	lds	r19, 0x01D1	; 0x8001d1 <flag_sensor+0x1>
     734:	23 2b       	or	r18, r19
     736:	09 f0       	breq	.+2      	; 0x73a <__EEPROM_REGION_LENGTH__+0x33a>
     738:	80 e0       	ldi	r24, 0x00	; 0
     73a:	89 23       	and	r24, r25
     73c:	21 f0       	breq	.+8      	; 0x746 <__EEPROM_REGION_LENGTH__+0x346>
     73e:	82 e0       	ldi	r24, 0x02	; 2
     740:	90 e0       	ldi	r25, 0x00	; 0
     742:	0e 94 fa 17 	call	0x2ff4	; 0x2ff4 <hab_zonas>
     746:	90 91 da 01 	lds	r25, 0x01DA	; 0x8001da <state>
     74a:	21 e0       	ldi	r18, 0x01	; 1
     74c:	40 91 c8 01 	lds	r20, 0x01C8	; 0x8001c8 <flag_z1>
     750:	50 91 c9 01 	lds	r21, 0x01C9	; 0x8001c9 <flag_z1+0x1>
     754:	45 2b       	or	r20, r21
     756:	09 f0       	breq	.+2      	; 0x75a <__EEPROM_REGION_LENGTH__+0x35a>
     758:	20 e0       	ldi	r18, 0x00	; 0
     75a:	81 e0       	ldi	r24, 0x01	; 1
     75c:	91 31       	cpi	r25, 0x11	; 17
     75e:	09 f0       	breq	.+2      	; 0x762 <__EEPROM_REGION_LENGTH__+0x362>
     760:	80 e0       	ldi	r24, 0x00	; 0
     762:	82 23       	and	r24, r18
     764:	19 f1       	breq	.+70     	; 0x7ac <__EEPROM_REGION_LENGTH__+0x3ac>
     766:	20 91 ca 01 	lds	r18, 0x01CA	; 0x8001ca <flag_z>
     76a:	30 91 cb 01 	lds	r19, 0x01CB	; 0x8001cb <flag_z+0x1>
     76e:	21 15       	cp	r18, r1
     770:	31 05       	cpc	r19, r1
     772:	69 f4       	brne	.+26     	; 0x78e <__EEPROM_REGION_LENGTH__+0x38e>
     774:	22 e0       	ldi	r18, 0x02	; 2
     776:	30 e0       	ldi	r19, 0x00	; 0
     778:	30 93 01 01 	sts	0x0101, r19	; 0x800101 <__DATA_REGION_ORIGIN__+0x1>
     77c:	20 93 00 01 	sts	0x0100, r18	; 0x800100 <__DATA_REGION_ORIGIN__>
     780:	21 e0       	ldi	r18, 0x01	; 1
     782:	30 e0       	ldi	r19, 0x00	; 0
     784:	30 93 cb 01 	sts	0x01CB, r19	; 0x8001cb <flag_z+0x1>
     788:	20 93 ca 01 	sts	0x01CA, r18	; 0x8001ca <flag_z>
     78c:	0f c0       	rjmp	.+30     	; 0x7ac <__EEPROM_REGION_LENGTH__+0x3ac>
     78e:	21 30       	cpi	r18, 0x01	; 1
     790:	31 05       	cpc	r19, r1
     792:	61 f4       	brne	.+24     	; 0x7ac <__EEPROM_REGION_LENGTH__+0x3ac>
     794:	22 e0       	ldi	r18, 0x02	; 2
     796:	30 e0       	ldi	r19, 0x00	; 0
     798:	30 93 05 01 	sts	0x0105, r19	; 0x800105 <idzona+0x1>
     79c:	20 93 04 01 	sts	0x0104, r18	; 0x800104 <idzona>
     7a0:	21 e0       	ldi	r18, 0x01	; 1
     7a2:	30 e0       	ldi	r19, 0x00	; 0
     7a4:	30 93 c9 01 	sts	0x01C9, r19	; 0x8001c9 <flag_z1+0x1>
     7a8:	20 93 c8 01 	sts	0x01C8, r18	; 0x8001c8 <flag_z1>
     7ac:	20 91 bc 01 	lds	r18, 0x01BC	; 0x8001bc <cont_t>
     7b0:	30 91 bd 01 	lds	r19, 0x01BD	; 0x8001bd <cont_t+0x1>
     7b4:	41 e0       	ldi	r20, 0x01	; 1
     7b6:	93 31       	cpi	r25, 0x13	; 19
     7b8:	09 f0       	breq	.+2      	; 0x7bc <__EEPROM_REGION_LENGTH__+0x3bc>
     7ba:	40 e0       	ldi	r20, 0x00	; 0
     7bc:	81 e0       	ldi	r24, 0x01	; 1
     7be:	22 30       	cpi	r18, 0x02	; 2
     7c0:	31 05       	cpc	r19, r1
     7c2:	0c f0       	brlt	.+2      	; 0x7c6 <__EEPROM_REGION_LENGTH__+0x3c6>
     7c4:	80 e0       	ldi	r24, 0x00	; 0
     7c6:	84 23       	and	r24, r20
     7c8:	79 f0       	breq	.+30     	; 0x7e8 <__EEPROM_REGION_LENGTH__+0x3e8>
     7ca:	f9 01       	movw	r30, r18
     7cc:	ee 0f       	add	r30, r30
     7ce:	ff 1f       	adc	r31, r31
     7d0:	e5 5f       	subi	r30, 0xF5	; 245
     7d2:	fe 4f       	sbci	r31, 0xFE	; 254
     7d4:	42 e0       	ldi	r20, 0x02	; 2
     7d6:	50 e0       	ldi	r21, 0x00	; 0
     7d8:	51 83       	std	Z+1, r21	; 0x01
     7da:	40 83       	st	Z, r20
     7dc:	2f 5f       	subi	r18, 0xFF	; 255
     7de:	3f 4f       	sbci	r19, 0xFF	; 255
     7e0:	30 93 bd 01 	sts	0x01BD, r19	; 0x8001bd <cont_t+0x1>
     7e4:	20 93 bc 01 	sts	0x01BC, r18	; 0x8001bc <cont_t>
     7e8:	81 e0       	ldi	r24, 0x01	; 1
     7ea:	20 91 bc 01 	lds	r18, 0x01BC	; 0x8001bc <cont_t>
     7ee:	30 91 bd 01 	lds	r19, 0x01BD	; 0x8001bd <cont_t+0x1>
     7f2:	23 30       	cpi	r18, 0x03	; 3
     7f4:	31 05       	cpc	r19, r1
     7f6:	0c f0       	brlt	.+2      	; 0x7fa <__EEPROM_REGION_LENGTH__+0x3fa>
     7f8:	80 e0       	ldi	r24, 0x00	; 0
     7fa:	21 e0       	ldi	r18, 0x01	; 1
     7fc:	94 31       	cpi	r25, 0x14	; 20
     7fe:	09 f0       	breq	.+2      	; 0x802 <__DATA_REGION_LENGTH__+0x2>
     800:	20 e0       	ldi	r18, 0x00	; 0
     802:	28 23       	and	r18, r24
     804:	99 f0       	breq	.+38     	; 0x82c <__DATA_REGION_LENGTH__+0x2c>
     806:	20 91 b8 01 	lds	r18, 0x01B8	; 0x8001b8 <cont_s>
     80a:	30 91 b9 01 	lds	r19, 0x01B9	; 0x8001b9 <cont_s+0x1>
     80e:	f9 01       	movw	r30, r18
     810:	ee 0f       	add	r30, r30
     812:	ff 1f       	adc	r31, r31
     814:	e7 5d       	subi	r30, 0xD7	; 215
     816:	fe 4f       	sbci	r31, 0xFE	; 254
     818:	42 e0       	ldi	r20, 0x02	; 2
     81a:	50 e0       	ldi	r21, 0x00	; 0
     81c:	51 83       	std	Z+1, r21	; 0x01
     81e:	40 83       	st	Z, r20
     820:	2f 5f       	subi	r18, 0xFF	; 255
     822:	3f 4f       	sbci	r19, 0xFF	; 255
     824:	30 93 b9 01 	sts	0x01B9, r19	; 0x8001b9 <cont_s+0x1>
     828:	20 93 b8 01 	sts	0x01B8, r18	; 0x8001b8 <cont_s>
     82c:	21 e0       	ldi	r18, 0x01	; 1
     82e:	92 31       	cpi	r25, 0x12	; 18
     830:	09 f0       	breq	.+2      	; 0x834 <__DATA_REGION_LENGTH__+0x34>
     832:	20 e0       	ldi	r18, 0x00	; 0
     834:	82 23       	and	r24, r18
     836:	11 f4       	brne	.+4      	; 0x83c <__DATA_REGION_LENGTH__+0x3c>
     838:	0c 94 7c 10 	jmp	0x20f8	; 0x20f8 <__stack+0x17f9>
     83c:	80 91 ba 01 	lds	r24, 0x01BA	; 0x8001ba <cont_aa>
     840:	90 91 bb 01 	lds	r25, 0x01BB	; 0x8001bb <cont_aa+0x1>
     844:	fc 01       	movw	r30, r24
     846:	ee 0f       	add	r30, r30
     848:	ff 1f       	adc	r31, r31
     84a:	ef 5d       	subi	r30, 0xDF	; 223
     84c:	fe 4f       	sbci	r31, 0xFE	; 254
     84e:	22 e0       	ldi	r18, 0x02	; 2
     850:	30 e0       	ldi	r19, 0x00	; 0
     852:	31 83       	std	Z+1, r19	; 0x01
     854:	20 83       	st	Z, r18
     856:	01 96       	adiw	r24, 0x01	; 1
     858:	90 93 bb 01 	sts	0x01BB, r25	; 0x8001bb <cont_aa+0x1>
     85c:	80 93 ba 01 	sts	0x01BA, r24	; 0x8001ba <cont_aa>
     860:	0c 94 7c 10 	jmp	0x20f8	; 0x20f8 <__stack+0x17f9>
     864:	80 3d       	cpi	r24, 0xD0	; 208
     866:	91 05       	cpc	r25, r1
     868:	09 f0       	breq	.+2      	; 0x86c <__DATA_REGION_LENGTH__+0x6c>
     86a:	9d c1       	rjmp	.+826    	; 0xba6 <__stack+0x2a7>
     86c:	91 e0       	ldi	r25, 0x01	; 1
     86e:	80 91 da 01 	lds	r24, 0x01DA	; 0x8001da <state>
     872:	88 30       	cpi	r24, 0x08	; 8
     874:	09 f0       	breq	.+2      	; 0x878 <__DATA_REGION_LENGTH__+0x78>
     876:	90 e0       	ldi	r25, 0x00	; 0
     878:	81 e0       	ldi	r24, 0x01	; 1
     87a:	20 91 d6 01 	lds	r18, 0x01D6	; 0x8001d6 <count_senha>
     87e:	30 91 d7 01 	lds	r19, 0x01D7	; 0x8001d7 <count_senha+0x1>
     882:	24 30       	cpi	r18, 0x04	; 4
     884:	31 05       	cpc	r19, r1
     886:	0c f0       	brlt	.+2      	; 0x88a <__DATA_REGION_LENGTH__+0x8a>
     888:	80 e0       	ldi	r24, 0x00	; 0
     88a:	89 23       	and	r24, r25
     88c:	a9 f0       	breq	.+42     	; 0x8b8 <__DATA_REGION_LENGTH__+0xb8>
     88e:	83 e3       	ldi	r24, 0x33	; 51
     890:	0e 94 cc 1c 	call	0x3998	; 0x3998 <send_word_lcd>
     894:	4e e2       	ldi	r20, 0x2E	; 46
     896:	52 e0       	ldi	r21, 0x02	; 2
     898:	60 e0       	ldi	r22, 0x00	; 0
     89a:	80 91 d6 01 	lds	r24, 0x01D6	; 0x8001d6 <count_senha>
     89e:	90 91 d7 01 	lds	r25, 0x01D7	; 0x8001d7 <count_senha+0x1>
     8a2:	0e 94 59 1e 	call	0x3cb2	; 0x3cb2 <insert_senha>
     8a6:	80 91 d6 01 	lds	r24, 0x01D6	; 0x8001d6 <count_senha>
     8aa:	90 91 d7 01 	lds	r25, 0x01D7	; 0x8001d7 <count_senha+0x1>
     8ae:	01 96       	adiw	r24, 0x01	; 1
     8b0:	90 93 d7 01 	sts	0x01D7, r25	; 0x8001d7 <count_senha+0x1>
     8b4:	80 93 d6 01 	sts	0x01D6, r24	; 0x8001d6 <count_senha>
     8b8:	91 e0       	ldi	r25, 0x01	; 1
     8ba:	80 91 da 01 	lds	r24, 0x01DA	; 0x8001da <state>
     8be:	89 30       	cpi	r24, 0x09	; 9
     8c0:	09 f0       	breq	.+2      	; 0x8c4 <__DATA_REGION_LENGTH__+0xc4>
     8c2:	90 e0       	ldi	r25, 0x00	; 0
     8c4:	81 e0       	ldi	r24, 0x01	; 1
     8c6:	20 91 d6 01 	lds	r18, 0x01D6	; 0x8001d6 <count_senha>
     8ca:	30 91 d7 01 	lds	r19, 0x01D7	; 0x8001d7 <count_senha+0x1>
     8ce:	24 30       	cpi	r18, 0x04	; 4
     8d0:	31 05       	cpc	r19, r1
     8d2:	0c f0       	brlt	.+2      	; 0x8d6 <__DATA_REGION_LENGTH__+0xd6>
     8d4:	80 e0       	ldi	r24, 0x00	; 0
     8d6:	89 23       	and	r24, r25
     8d8:	a9 f0       	breq	.+42     	; 0x904 <__stack+0x5>
     8da:	83 e3       	ldi	r24, 0x33	; 51
     8dc:	0e 94 cc 1c 	call	0x3998	; 0x3998 <send_word_lcd>
     8e0:	4e e2       	ldi	r20, 0x2E	; 46
     8e2:	52 e0       	ldi	r21, 0x02	; 2
     8e4:	60 e0       	ldi	r22, 0x00	; 0
     8e6:	80 91 d6 01 	lds	r24, 0x01D6	; 0x8001d6 <count_senha>
     8ea:	90 91 d7 01 	lds	r25, 0x01D7	; 0x8001d7 <count_senha+0x1>
     8ee:	0e 94 2e 1c 	call	0x385c	; 0x385c <senha_arm>
     8f2:	80 91 d6 01 	lds	r24, 0x01D6	; 0x8001d6 <count_senha>
     8f6:	90 91 d7 01 	lds	r25, 0x01D7	; 0x8001d7 <count_senha+0x1>
     8fa:	01 96       	adiw	r24, 0x01	; 1
     8fc:	90 93 d7 01 	sts	0x01D7, r25	; 0x8001d7 <count_senha+0x1>
     900:	80 93 d6 01 	sts	0x01D6, r24	; 0x8001d6 <count_senha>
     904:	91 e0       	ldi	r25, 0x01	; 1
     906:	80 91 da 01 	lds	r24, 0x01DA	; 0x8001da <state>
     90a:	8a 30       	cpi	r24, 0x0A	; 10
     90c:	09 f0       	breq	.+2      	; 0x910 <__stack+0x11>
     90e:	90 e0       	ldi	r25, 0x00	; 0
     910:	81 e0       	ldi	r24, 0x01	; 1
     912:	20 91 d6 01 	lds	r18, 0x01D6	; 0x8001d6 <count_senha>
     916:	30 91 d7 01 	lds	r19, 0x01D7	; 0x8001d7 <count_senha+0x1>
     91a:	24 30       	cpi	r18, 0x04	; 4
     91c:	31 05       	cpc	r19, r1
     91e:	0c f0       	brlt	.+2      	; 0x922 <__stack+0x23>
     920:	80 e0       	ldi	r24, 0x00	; 0
     922:	89 23       	and	r24, r25
     924:	a9 f0       	breq	.+42     	; 0x950 <__stack+0x51>
     926:	83 e3       	ldi	r24, 0x33	; 51
     928:	0e 94 cc 1c 	call	0x3998	; 0x3998 <send_word_lcd>
     92c:	4e e2       	ldi	r20, 0x2E	; 46
     92e:	52 e0       	ldi	r21, 0x02	; 2
     930:	60 e0       	ldi	r22, 0x00	; 0
     932:	80 91 d6 01 	lds	r24, 0x01D6	; 0x8001d6 <count_senha>
     936:	90 91 d7 01 	lds	r25, 0x01D7	; 0x8001d7 <count_senha+0x1>
     93a:	0e 94 59 1e 	call	0x3cb2	; 0x3cb2 <insert_senha>
     93e:	80 91 d6 01 	lds	r24, 0x01D6	; 0x8001d6 <count_senha>
     942:	90 91 d7 01 	lds	r25, 0x01D7	; 0x8001d7 <count_senha+0x1>
     946:	01 96       	adiw	r24, 0x01	; 1
     948:	90 93 d7 01 	sts	0x01D7, r25	; 0x8001d7 <count_senha+0x1>
     94c:	80 93 d6 01 	sts	0x01D6, r24	; 0x8001d6 <count_senha>
     950:	91 e0       	ldi	r25, 0x01	; 1
     952:	80 91 da 01 	lds	r24, 0x01DA	; 0x8001da <state>
     956:	8b 30       	cpi	r24, 0x0B	; 11
     958:	09 f0       	breq	.+2      	; 0x95c <__stack+0x5d>
     95a:	90 e0       	ldi	r25, 0x00	; 0
     95c:	81 e0       	ldi	r24, 0x01	; 1
     95e:	20 91 d6 01 	lds	r18, 0x01D6	; 0x8001d6 <count_senha>
     962:	30 91 d7 01 	lds	r19, 0x01D7	; 0x8001d7 <count_senha+0x1>
     966:	24 30       	cpi	r18, 0x04	; 4
     968:	31 05       	cpc	r19, r1
     96a:	0c f0       	brlt	.+2      	; 0x96e <__stack+0x6f>
     96c:	80 e0       	ldi	r24, 0x00	; 0
     96e:	89 23       	and	r24, r25
     970:	a9 f0       	breq	.+42     	; 0x99c <__stack+0x9d>
     972:	83 e3       	ldi	r24, 0x33	; 51
     974:	0e 94 cc 1c 	call	0x3998	; 0x3998 <send_word_lcd>
     978:	4e e2       	ldi	r20, 0x2E	; 46
     97a:	52 e0       	ldi	r21, 0x02	; 2
     97c:	60 e0       	ldi	r22, 0x00	; 0
     97e:	80 91 d6 01 	lds	r24, 0x01D6	; 0x8001d6 <count_senha>
     982:	90 91 d7 01 	lds	r25, 0x01D7	; 0x8001d7 <count_senha+0x1>
     986:	0e 94 59 1e 	call	0x3cb2	; 0x3cb2 <insert_senha>
     98a:	80 91 d6 01 	lds	r24, 0x01D6	; 0x8001d6 <count_senha>
     98e:	90 91 d7 01 	lds	r25, 0x01D7	; 0x8001d7 <count_senha+0x1>
     992:	01 96       	adiw	r24, 0x01	; 1
     994:	90 93 d7 01 	sts	0x01D7, r25	; 0x8001d7 <count_senha+0x1>
     998:	80 93 d6 01 	sts	0x01D6, r24	; 0x8001d6 <count_senha>
     99c:	91 e0       	ldi	r25, 0x01	; 1
     99e:	80 91 da 01 	lds	r24, 0x01DA	; 0x8001da <state>
     9a2:	8f 30       	cpi	r24, 0x0F	; 15
     9a4:	09 f0       	breq	.+2      	; 0x9a8 <__stack+0xa9>
     9a6:	90 e0       	ldi	r25, 0x00	; 0
     9a8:	81 e0       	ldi	r24, 0x01	; 1
     9aa:	20 91 d0 01 	lds	r18, 0x01D0	; 0x8001d0 <flag_sensor>
     9ae:	30 91 d1 01 	lds	r19, 0x01D1	; 0x8001d1 <flag_sensor+0x1>
     9b2:	23 2b       	or	r18, r19
     9b4:	09 f0       	breq	.+2      	; 0x9b8 <__stack+0xb9>
     9b6:	80 e0       	ldi	r24, 0x00	; 0
     9b8:	89 23       	and	r24, r25
     9ba:	21 f0       	breq	.+8      	; 0x9c4 <__stack+0xc5>
     9bc:	83 e0       	ldi	r24, 0x03	; 3
     9be:	90 e0       	ldi	r25, 0x00	; 0
     9c0:	0e 94 d6 16 	call	0x2dac	; 0x2dac <hab_sensor>
     9c4:	91 e0       	ldi	r25, 0x01	; 1
     9c6:	80 91 da 01 	lds	r24, 0x01DA	; 0x8001da <state>
     9ca:	87 30       	cpi	r24, 0x07	; 7
     9cc:	09 f0       	breq	.+2      	; 0x9d0 <__stack+0xd1>
     9ce:	90 e0       	ldi	r25, 0x00	; 0
     9d0:	21 e0       	ldi	r18, 0x01	; 1
     9d2:	40 91 d8 01 	lds	r20, 0x01D8	; 0x8001d8 <flag_a_senha>
     9d6:	50 91 d9 01 	lds	r21, 0x01D9	; 0x8001d9 <flag_a_senha+0x1>
     9da:	45 2b       	or	r20, r21
     9dc:	09 f0       	breq	.+2      	; 0x9e0 <__stack+0xe1>
     9de:	20 e0       	ldi	r18, 0x00	; 0
     9e0:	81 e0       	ldi	r24, 0x01	; 1
     9e2:	40 91 c2 01 	lds	r20, 0x01C2	; 0x8001c2 <flag_timeout>
     9e6:	50 91 c3 01 	lds	r21, 0x01C3	; 0x8001c3 <flag_timeout+0x1>
     9ea:	45 2b       	or	r20, r21
     9ec:	09 f0       	breq	.+2      	; 0x9f0 <__stack+0xf1>
     9ee:	80 e0       	ldi	r24, 0x00	; 0
     9f0:	82 23       	and	r24, r18
     9f2:	99 23       	and	r25, r25
     9f4:	a9 f0       	breq	.+42     	; 0xa20 <__stack+0x121>
     9f6:	88 23       	and	r24, r24
     9f8:	99 f0       	breq	.+38     	; 0xa20 <__stack+0x121>
     9fa:	8f e0       	ldi	r24, 0x0F	; 15
     9fc:	80 93 da 01 	sts	0x01DA, r24	; 0x8001da <state>
     a00:	80 91 ce 01 	lds	r24, 0x01CE	; 0x8001ce <flag_D_sensor>
     a04:	90 91 cf 01 	lds	r25, 0x01CF	; 0x8001cf <flag_D_sensor+0x1>
     a08:	89 2b       	or	r24, r25
     a0a:	11 f4       	brne	.+4      	; 0xa10 <__stack+0x111>
     a0c:	0e 94 7e 19 	call	0x32fc	; 0x32fc <msg_h_sensores>
     a10:	80 91 ce 01 	lds	r24, 0x01CE	; 0x8001ce <flag_D_sensor>
     a14:	90 91 cf 01 	lds	r25, 0x01CF	; 0x8001cf <flag_D_sensor+0x1>
     a18:	01 97       	sbiw	r24, 0x01	; 1
     a1a:	11 f4       	brne	.+4      	; 0xa20 <__stack+0x121>
     a1c:	0e 94 b1 19 	call	0x3362	; 0x3362 <msg_d_sensores>
     a20:	91 e0       	ldi	r25, 0x01	; 1
     a22:	80 91 da 01 	lds	r24, 0x01DA	; 0x8001da <state>
     a26:	87 30       	cpi	r24, 0x07	; 7
     a28:	09 f0       	breq	.+2      	; 0xa2c <__stack+0x12d>
     a2a:	90 e0       	ldi	r25, 0x00	; 0
     a2c:	81 e0       	ldi	r24, 0x01	; 1
     a2e:	20 91 d8 01 	lds	r18, 0x01D8	; 0x8001d8 <flag_a_senha>
     a32:	30 91 d9 01 	lds	r19, 0x01D9	; 0x8001d9 <flag_a_senha+0x1>
     a36:	21 30       	cpi	r18, 0x01	; 1
     a38:	31 05       	cpc	r19, r1
     a3a:	09 f0       	breq	.+2      	; 0xa3e <__stack+0x13f>
     a3c:	80 e0       	ldi	r24, 0x00	; 0
     a3e:	89 23       	and	r24, r25
     a40:	79 f0       	breq	.+30     	; 0xa60 <__stack+0x161>
     a42:	89 e0       	ldi	r24, 0x09	; 9
     a44:	80 93 da 01 	sts	0x01DA, r24	; 0x8001da <state>
     a48:	0e 94 a5 1c 	call	0x394a	; 0x394a <msg_altera_senha>
     a4c:	83 e0       	ldi	r24, 0x03	; 3
     a4e:	90 e0       	ldi	r25, 0x00	; 0
     a50:	90 93 28 01 	sts	0x0128, r25	; 0x800128 <addr_senha+0x1>
     a54:	80 93 27 01 	sts	0x0127, r24	; 0x800127 <addr_senha>
     a58:	10 92 d9 01 	sts	0x01D9, r1	; 0x8001d9 <flag_a_senha+0x1>
     a5c:	10 92 d8 01 	sts	0x01D8, r1	; 0x8001d8 <flag_a_senha>
     a60:	91 e0       	ldi	r25, 0x01	; 1
     a62:	80 91 da 01 	lds	r24, 0x01DA	; 0x8001da <state>
     a66:	80 31       	cpi	r24, 0x10	; 16
     a68:	09 f0       	breq	.+2      	; 0xa6c <__stack+0x16d>
     a6a:	90 e0       	ldi	r25, 0x00	; 0
     a6c:	81 e0       	ldi	r24, 0x01	; 1
     a6e:	20 91 d0 01 	lds	r18, 0x01D0	; 0x8001d0 <flag_sensor>
     a72:	30 91 d1 01 	lds	r19, 0x01D1	; 0x8001d1 <flag_sensor+0x1>
     a76:	23 2b       	or	r18, r19
     a78:	09 f0       	breq	.+2      	; 0xa7c <__stack+0x17d>
     a7a:	80 e0       	ldi	r24, 0x00	; 0
     a7c:	89 23       	and	r24, r25
     a7e:	21 f0       	breq	.+8      	; 0xa88 <__stack+0x189>
     a80:	83 e0       	ldi	r24, 0x03	; 3
     a82:	90 e0       	ldi	r25, 0x00	; 0
     a84:	0e 94 fa 17 	call	0x2ff4	; 0x2ff4 <hab_zonas>
     a88:	90 91 da 01 	lds	r25, 0x01DA	; 0x8001da <state>
     a8c:	21 e0       	ldi	r18, 0x01	; 1
     a8e:	40 91 c8 01 	lds	r20, 0x01C8	; 0x8001c8 <flag_z1>
     a92:	50 91 c9 01 	lds	r21, 0x01C9	; 0x8001c9 <flag_z1+0x1>
     a96:	45 2b       	or	r20, r21
     a98:	09 f0       	breq	.+2      	; 0xa9c <__stack+0x19d>
     a9a:	20 e0       	ldi	r18, 0x00	; 0
     a9c:	81 e0       	ldi	r24, 0x01	; 1
     a9e:	91 31       	cpi	r25, 0x11	; 17
     aa0:	09 f0       	breq	.+2      	; 0xaa4 <__stack+0x1a5>
     aa2:	80 e0       	ldi	r24, 0x00	; 0
     aa4:	82 23       	and	r24, r18
     aa6:	19 f1       	breq	.+70     	; 0xaee <__stack+0x1ef>
     aa8:	20 91 ca 01 	lds	r18, 0x01CA	; 0x8001ca <flag_z>
     aac:	30 91 cb 01 	lds	r19, 0x01CB	; 0x8001cb <flag_z+0x1>
     ab0:	21 15       	cp	r18, r1
     ab2:	31 05       	cpc	r19, r1
     ab4:	69 f4       	brne	.+26     	; 0xad0 <__stack+0x1d1>
     ab6:	23 e0       	ldi	r18, 0x03	; 3
     ab8:	30 e0       	ldi	r19, 0x00	; 0
     aba:	30 93 01 01 	sts	0x0101, r19	; 0x800101 <__DATA_REGION_ORIGIN__+0x1>
     abe:	20 93 00 01 	sts	0x0100, r18	; 0x800100 <__DATA_REGION_ORIGIN__>
     ac2:	21 e0       	ldi	r18, 0x01	; 1
     ac4:	30 e0       	ldi	r19, 0x00	; 0
     ac6:	30 93 cb 01 	sts	0x01CB, r19	; 0x8001cb <flag_z+0x1>
     aca:	20 93 ca 01 	sts	0x01CA, r18	; 0x8001ca <flag_z>
     ace:	0f c0       	rjmp	.+30     	; 0xaee <__stack+0x1ef>
     ad0:	21 30       	cpi	r18, 0x01	; 1
     ad2:	31 05       	cpc	r19, r1
     ad4:	61 f4       	brne	.+24     	; 0xaee <__stack+0x1ef>
     ad6:	23 e0       	ldi	r18, 0x03	; 3
     ad8:	30 e0       	ldi	r19, 0x00	; 0
     ada:	30 93 05 01 	sts	0x0105, r19	; 0x800105 <idzona+0x1>
     ade:	20 93 04 01 	sts	0x0104, r18	; 0x800104 <idzona>
     ae2:	21 e0       	ldi	r18, 0x01	; 1
     ae4:	30 e0       	ldi	r19, 0x00	; 0
     ae6:	30 93 c9 01 	sts	0x01C9, r19	; 0x8001c9 <flag_z1+0x1>
     aea:	20 93 c8 01 	sts	0x01C8, r18	; 0x8001c8 <flag_z1>
     aee:	20 91 bc 01 	lds	r18, 0x01BC	; 0x8001bc <cont_t>
     af2:	30 91 bd 01 	lds	r19, 0x01BD	; 0x8001bd <cont_t+0x1>
     af6:	41 e0       	ldi	r20, 0x01	; 1
     af8:	93 31       	cpi	r25, 0x13	; 19
     afa:	09 f0       	breq	.+2      	; 0xafe <__stack+0x1ff>
     afc:	40 e0       	ldi	r20, 0x00	; 0
     afe:	81 e0       	ldi	r24, 0x01	; 1
     b00:	22 30       	cpi	r18, 0x02	; 2
     b02:	31 05       	cpc	r19, r1
     b04:	0c f0       	brlt	.+2      	; 0xb08 <__stack+0x209>
     b06:	80 e0       	ldi	r24, 0x00	; 0
     b08:	84 23       	and	r24, r20
     b0a:	79 f0       	breq	.+30     	; 0xb2a <__stack+0x22b>
     b0c:	f9 01       	movw	r30, r18
     b0e:	ee 0f       	add	r30, r30
     b10:	ff 1f       	adc	r31, r31
     b12:	e5 5f       	subi	r30, 0xF5	; 245
     b14:	fe 4f       	sbci	r31, 0xFE	; 254
     b16:	43 e0       	ldi	r20, 0x03	; 3
     b18:	50 e0       	ldi	r21, 0x00	; 0
     b1a:	51 83       	std	Z+1, r21	; 0x01
     b1c:	40 83       	st	Z, r20
     b1e:	2f 5f       	subi	r18, 0xFF	; 255
     b20:	3f 4f       	sbci	r19, 0xFF	; 255
     b22:	30 93 bd 01 	sts	0x01BD, r19	; 0x8001bd <cont_t+0x1>
     b26:	20 93 bc 01 	sts	0x01BC, r18	; 0x8001bc <cont_t>
     b2a:	81 e0       	ldi	r24, 0x01	; 1
     b2c:	20 91 bc 01 	lds	r18, 0x01BC	; 0x8001bc <cont_t>
     b30:	30 91 bd 01 	lds	r19, 0x01BD	; 0x8001bd <cont_t+0x1>
     b34:	23 30       	cpi	r18, 0x03	; 3
     b36:	31 05       	cpc	r19, r1
     b38:	0c f0       	brlt	.+2      	; 0xb3c <__stack+0x23d>
     b3a:	80 e0       	ldi	r24, 0x00	; 0
     b3c:	21 e0       	ldi	r18, 0x01	; 1
     b3e:	94 31       	cpi	r25, 0x14	; 20
     b40:	09 f0       	breq	.+2      	; 0xb44 <__stack+0x245>
     b42:	20 e0       	ldi	r18, 0x00	; 0
     b44:	28 23       	and	r18, r24
     b46:	99 f0       	breq	.+38     	; 0xb6e <__stack+0x26f>
     b48:	20 91 b8 01 	lds	r18, 0x01B8	; 0x8001b8 <cont_s>
     b4c:	30 91 b9 01 	lds	r19, 0x01B9	; 0x8001b9 <cont_s+0x1>
     b50:	f9 01       	movw	r30, r18
     b52:	ee 0f       	add	r30, r30
     b54:	ff 1f       	adc	r31, r31
     b56:	e7 5d       	subi	r30, 0xD7	; 215
     b58:	fe 4f       	sbci	r31, 0xFE	; 254
     b5a:	43 e0       	ldi	r20, 0x03	; 3
     b5c:	50 e0       	ldi	r21, 0x00	; 0
     b5e:	51 83       	std	Z+1, r21	; 0x01
     b60:	40 83       	st	Z, r20
     b62:	2f 5f       	subi	r18, 0xFF	; 255
     b64:	3f 4f       	sbci	r19, 0xFF	; 255
     b66:	30 93 b9 01 	sts	0x01B9, r19	; 0x8001b9 <cont_s+0x1>
     b6a:	20 93 b8 01 	sts	0x01B8, r18	; 0x8001b8 <cont_s>
     b6e:	21 e0       	ldi	r18, 0x01	; 1
     b70:	92 31       	cpi	r25, 0x12	; 18
     b72:	09 f0       	breq	.+2      	; 0xb76 <__stack+0x277>
     b74:	20 e0       	ldi	r18, 0x00	; 0
     b76:	82 23       	and	r24, r18
     b78:	11 f4       	brne	.+4      	; 0xb7e <__stack+0x27f>
     b7a:	0c 94 7c 10 	jmp	0x20f8	; 0x20f8 <__stack+0x17f9>
     b7e:	80 91 ba 01 	lds	r24, 0x01BA	; 0x8001ba <cont_aa>
     b82:	90 91 bb 01 	lds	r25, 0x01BB	; 0x8001bb <cont_aa+0x1>
     b86:	fc 01       	movw	r30, r24
     b88:	ee 0f       	add	r30, r30
     b8a:	ff 1f       	adc	r31, r31
     b8c:	ef 5d       	subi	r30, 0xDF	; 223
     b8e:	fe 4f       	sbci	r31, 0xFE	; 254
     b90:	23 e0       	ldi	r18, 0x03	; 3
     b92:	30 e0       	ldi	r19, 0x00	; 0
     b94:	31 83       	std	Z+1, r19	; 0x01
     b96:	20 83       	st	Z, r18
     b98:	01 96       	adiw	r24, 0x01	; 1
     b9a:	90 93 bb 01 	sts	0x01BB, r25	; 0x8001bb <cont_aa+0x1>
     b9e:	80 93 ba 01 	sts	0x01BA, r24	; 0x8001ba <cont_aa>
     ba2:	0c 94 7c 10 	jmp	0x20f8	; 0x20f8 <__stack+0x17f9>
     ba6:	80 3c       	cpi	r24, 0xC0	; 192
     ba8:	91 05       	cpc	r25, r1
     baa:	79 f4       	brne	.+30     	; 0xbca <__stack+0x2cb>
     bac:	80 91 da 01 	lds	r24, 0x01DA	; 0x8001da <state>
     bb0:	81 30       	cpi	r24, 0x01	; 1
     bb2:	11 f0       	breq	.+4      	; 0xbb8 <__stack+0x2b9>
     bb4:	0c 94 7c 10 	jmp	0x20f8	; 0x20f8 <__stack+0x17f9>
     bb8:	88 e0       	ldi	r24, 0x08	; 8
     bba:	80 93 da 01 	sts	0x01DA, r24	; 0x8001da <state>
     bbe:	0e 94 7e 1c 	call	0x38fc	; 0x38fc <msg_inserir_senha>
     bc2:	0e 94 85 1e 	call	0x3d0a	; 0x3d0a <StartTimer1>
     bc6:	0c 94 7c 10 	jmp	0x20f8	; 0x20f8 <__stack+0x17f9>
     bca:	80 3b       	cpi	r24, 0xB0	; 176
     bcc:	91 05       	cpc	r25, r1
     bce:	09 f0       	breq	.+2      	; 0xbd2 <__stack+0x2d3>
     bd0:	5d c1       	rjmp	.+698    	; 0xe8c <__stack+0x58d>
     bd2:	91 e0       	ldi	r25, 0x01	; 1
     bd4:	80 91 da 01 	lds	r24, 0x01DA	; 0x8001da <state>
     bd8:	88 30       	cpi	r24, 0x08	; 8
     bda:	09 f0       	breq	.+2      	; 0xbde <__stack+0x2df>
     bdc:	90 e0       	ldi	r25, 0x00	; 0
     bde:	81 e0       	ldi	r24, 0x01	; 1
     be0:	20 91 d6 01 	lds	r18, 0x01D6	; 0x8001d6 <count_senha>
     be4:	30 91 d7 01 	lds	r19, 0x01D7	; 0x8001d7 <count_senha+0x1>
     be8:	24 30       	cpi	r18, 0x04	; 4
     bea:	31 05       	cpc	r19, r1
     bec:	0c f0       	brlt	.+2      	; 0xbf0 <__stack+0x2f1>
     bee:	80 e0       	ldi	r24, 0x00	; 0
     bf0:	89 23       	and	r24, r25
     bf2:	a9 f0       	breq	.+42     	; 0xc1e <__stack+0x31f>
     bf4:	84 e3       	ldi	r24, 0x34	; 52
     bf6:	0e 94 cc 1c 	call	0x3998	; 0x3998 <send_word_lcd>
     bfa:	40 e3       	ldi	r20, 0x30	; 48
     bfc:	52 e0       	ldi	r21, 0x02	; 2
     bfe:	60 e0       	ldi	r22, 0x00	; 0
     c00:	80 91 d6 01 	lds	r24, 0x01D6	; 0x8001d6 <count_senha>
     c04:	90 91 d7 01 	lds	r25, 0x01D7	; 0x8001d7 <count_senha+0x1>
     c08:	0e 94 59 1e 	call	0x3cb2	; 0x3cb2 <insert_senha>
     c0c:	80 91 d6 01 	lds	r24, 0x01D6	; 0x8001d6 <count_senha>
     c10:	90 91 d7 01 	lds	r25, 0x01D7	; 0x8001d7 <count_senha+0x1>
     c14:	01 96       	adiw	r24, 0x01	; 1
     c16:	90 93 d7 01 	sts	0x01D7, r25	; 0x8001d7 <count_senha+0x1>
     c1a:	80 93 d6 01 	sts	0x01D6, r24	; 0x8001d6 <count_senha>
     c1e:	91 e0       	ldi	r25, 0x01	; 1
     c20:	80 91 da 01 	lds	r24, 0x01DA	; 0x8001da <state>
     c24:	89 30       	cpi	r24, 0x09	; 9
     c26:	09 f0       	breq	.+2      	; 0xc2a <__stack+0x32b>
     c28:	90 e0       	ldi	r25, 0x00	; 0
     c2a:	81 e0       	ldi	r24, 0x01	; 1
     c2c:	20 91 d6 01 	lds	r18, 0x01D6	; 0x8001d6 <count_senha>
     c30:	30 91 d7 01 	lds	r19, 0x01D7	; 0x8001d7 <count_senha+0x1>
     c34:	24 30       	cpi	r18, 0x04	; 4
     c36:	31 05       	cpc	r19, r1
     c38:	0c f0       	brlt	.+2      	; 0xc3c <__stack+0x33d>
     c3a:	80 e0       	ldi	r24, 0x00	; 0
     c3c:	89 23       	and	r24, r25
     c3e:	a9 f0       	breq	.+42     	; 0xc6a <__stack+0x36b>
     c40:	84 e3       	ldi	r24, 0x34	; 52
     c42:	0e 94 cc 1c 	call	0x3998	; 0x3998 <send_word_lcd>
     c46:	40 e3       	ldi	r20, 0x30	; 48
     c48:	52 e0       	ldi	r21, 0x02	; 2
     c4a:	60 e0       	ldi	r22, 0x00	; 0
     c4c:	80 91 d6 01 	lds	r24, 0x01D6	; 0x8001d6 <count_senha>
     c50:	90 91 d7 01 	lds	r25, 0x01D7	; 0x8001d7 <count_senha+0x1>
     c54:	0e 94 2e 1c 	call	0x385c	; 0x385c <senha_arm>
     c58:	80 91 d6 01 	lds	r24, 0x01D6	; 0x8001d6 <count_senha>
     c5c:	90 91 d7 01 	lds	r25, 0x01D7	; 0x8001d7 <count_senha+0x1>
     c60:	01 96       	adiw	r24, 0x01	; 1
     c62:	90 93 d7 01 	sts	0x01D7, r25	; 0x8001d7 <count_senha+0x1>
     c66:	80 93 d6 01 	sts	0x01D6, r24	; 0x8001d6 <count_senha>
     c6a:	91 e0       	ldi	r25, 0x01	; 1
     c6c:	80 91 da 01 	lds	r24, 0x01DA	; 0x8001da <state>
     c70:	8a 30       	cpi	r24, 0x0A	; 10
     c72:	09 f0       	breq	.+2      	; 0xc76 <__stack+0x377>
     c74:	90 e0       	ldi	r25, 0x00	; 0
     c76:	81 e0       	ldi	r24, 0x01	; 1
     c78:	20 91 d6 01 	lds	r18, 0x01D6	; 0x8001d6 <count_senha>
     c7c:	30 91 d7 01 	lds	r19, 0x01D7	; 0x8001d7 <count_senha+0x1>
     c80:	24 30       	cpi	r18, 0x04	; 4
     c82:	31 05       	cpc	r19, r1
     c84:	0c f0       	brlt	.+2      	; 0xc88 <__stack+0x389>
     c86:	80 e0       	ldi	r24, 0x00	; 0
     c88:	89 23       	and	r24, r25
     c8a:	a9 f0       	breq	.+42     	; 0xcb6 <__stack+0x3b7>
     c8c:	84 e3       	ldi	r24, 0x34	; 52
     c8e:	0e 94 cc 1c 	call	0x3998	; 0x3998 <send_word_lcd>
     c92:	40 e3       	ldi	r20, 0x30	; 48
     c94:	52 e0       	ldi	r21, 0x02	; 2
     c96:	60 e0       	ldi	r22, 0x00	; 0
     c98:	80 91 d6 01 	lds	r24, 0x01D6	; 0x8001d6 <count_senha>
     c9c:	90 91 d7 01 	lds	r25, 0x01D7	; 0x8001d7 <count_senha+0x1>
     ca0:	0e 94 59 1e 	call	0x3cb2	; 0x3cb2 <insert_senha>
     ca4:	80 91 d6 01 	lds	r24, 0x01D6	; 0x8001d6 <count_senha>
     ca8:	90 91 d7 01 	lds	r25, 0x01D7	; 0x8001d7 <count_senha+0x1>
     cac:	01 96       	adiw	r24, 0x01	; 1
     cae:	90 93 d7 01 	sts	0x01D7, r25	; 0x8001d7 <count_senha+0x1>
     cb2:	80 93 d6 01 	sts	0x01D6, r24	; 0x8001d6 <count_senha>
     cb6:	91 e0       	ldi	r25, 0x01	; 1
     cb8:	80 91 da 01 	lds	r24, 0x01DA	; 0x8001da <state>
     cbc:	8b 30       	cpi	r24, 0x0B	; 11
     cbe:	09 f0       	breq	.+2      	; 0xcc2 <__stack+0x3c3>
     cc0:	90 e0       	ldi	r25, 0x00	; 0
     cc2:	81 e0       	ldi	r24, 0x01	; 1
     cc4:	20 91 d6 01 	lds	r18, 0x01D6	; 0x8001d6 <count_senha>
     cc8:	30 91 d7 01 	lds	r19, 0x01D7	; 0x8001d7 <count_senha+0x1>
     ccc:	24 30       	cpi	r18, 0x04	; 4
     cce:	31 05       	cpc	r19, r1
     cd0:	0c f0       	brlt	.+2      	; 0xcd4 <__stack+0x3d5>
     cd2:	80 e0       	ldi	r24, 0x00	; 0
     cd4:	89 23       	and	r24, r25
     cd6:	a9 f0       	breq	.+42     	; 0xd02 <__stack+0x403>
     cd8:	84 e3       	ldi	r24, 0x34	; 52
     cda:	0e 94 cc 1c 	call	0x3998	; 0x3998 <send_word_lcd>
     cde:	40 e3       	ldi	r20, 0x30	; 48
     ce0:	52 e0       	ldi	r21, 0x02	; 2
     ce2:	60 e0       	ldi	r22, 0x00	; 0
     ce4:	80 91 d6 01 	lds	r24, 0x01D6	; 0x8001d6 <count_senha>
     ce8:	90 91 d7 01 	lds	r25, 0x01D7	; 0x8001d7 <count_senha+0x1>
     cec:	0e 94 59 1e 	call	0x3cb2	; 0x3cb2 <insert_senha>
     cf0:	80 91 d6 01 	lds	r24, 0x01D6	; 0x8001d6 <count_senha>
     cf4:	90 91 d7 01 	lds	r25, 0x01D7	; 0x8001d7 <count_senha+0x1>
     cf8:	01 96       	adiw	r24, 0x01	; 1
     cfa:	90 93 d7 01 	sts	0x01D7, r25	; 0x8001d7 <count_senha+0x1>
     cfe:	80 93 d6 01 	sts	0x01D6, r24	; 0x8001d6 <count_senha>
     d02:	91 e0       	ldi	r25, 0x01	; 1
     d04:	80 91 da 01 	lds	r24, 0x01DA	; 0x8001da <state>
     d08:	8f 30       	cpi	r24, 0x0F	; 15
     d0a:	09 f0       	breq	.+2      	; 0xd0e <__stack+0x40f>
     d0c:	90 e0       	ldi	r25, 0x00	; 0
     d0e:	81 e0       	ldi	r24, 0x01	; 1
     d10:	20 91 d0 01 	lds	r18, 0x01D0	; 0x8001d0 <flag_sensor>
     d14:	30 91 d1 01 	lds	r19, 0x01D1	; 0x8001d1 <flag_sensor+0x1>
     d18:	23 2b       	or	r18, r19
     d1a:	09 f0       	breq	.+2      	; 0xd1e <__stack+0x41f>
     d1c:	80 e0       	ldi	r24, 0x00	; 0
     d1e:	89 23       	and	r24, r25
     d20:	21 f0       	breq	.+8      	; 0xd2a <__stack+0x42b>
     d22:	84 e0       	ldi	r24, 0x04	; 4
     d24:	90 e0       	ldi	r25, 0x00	; 0
     d26:	0e 94 d6 16 	call	0x2dac	; 0x2dac <hab_sensor>
     d2a:	90 91 da 01 	lds	r25, 0x01DA	; 0x8001da <state>
     d2e:	21 e0       	ldi	r18, 0x01	; 1
     d30:	91 31       	cpi	r25, 0x11	; 17
     d32:	09 f0       	breq	.+2      	; 0xd36 <__stack+0x437>
     d34:	20 e0       	ldi	r18, 0x00	; 0
     d36:	31 e0       	ldi	r19, 0x01	; 1
     d38:	40 91 c8 01 	lds	r20, 0x01C8	; 0x8001c8 <flag_z1>
     d3c:	50 91 c9 01 	lds	r21, 0x01C9	; 0x8001c9 <flag_z1+0x1>
     d40:	45 2b       	or	r20, r21
     d42:	09 f0       	breq	.+2      	; 0xd46 <__stack+0x447>
     d44:	30 e0       	ldi	r19, 0x00	; 0
     d46:	81 e0       	ldi	r24, 0x01	; 1
     d48:	40 91 ca 01 	lds	r20, 0x01CA	; 0x8001ca <flag_z>
     d4c:	50 91 cb 01 	lds	r21, 0x01CB	; 0x8001cb <flag_z+0x1>
     d50:	45 2b       	or	r20, r21
     d52:	09 f0       	breq	.+2      	; 0xd56 <__stack+0x457>
     d54:	80 e0       	ldi	r24, 0x00	; 0
     d56:	83 23       	and	r24, r19
     d58:	22 23       	and	r18, r18
     d5a:	71 f0       	breq	.+28     	; 0xd78 <__stack+0x479>
     d5c:	88 23       	and	r24, r24
     d5e:	61 f0       	breq	.+24     	; 0xd78 <__stack+0x479>
     d60:	24 e0       	ldi	r18, 0x04	; 4
     d62:	30 e0       	ldi	r19, 0x00	; 0
     d64:	30 93 01 01 	sts	0x0101, r19	; 0x800101 <__DATA_REGION_ORIGIN__+0x1>
     d68:	20 93 00 01 	sts	0x0100, r18	; 0x800100 <__DATA_REGION_ORIGIN__>
     d6c:	21 e0       	ldi	r18, 0x01	; 1
     d6e:	30 e0       	ldi	r19, 0x00	; 0
     d70:	30 93 c9 01 	sts	0x01C9, r19	; 0x8001c9 <flag_z1+0x1>
     d74:	20 93 c8 01 	sts	0x01C8, r18	; 0x8001c8 <flag_z1>
     d78:	21 e0       	ldi	r18, 0x01	; 1
     d7a:	97 30       	cpi	r25, 0x07	; 7
     d7c:	09 f0       	breq	.+2      	; 0xd80 <__stack+0x481>
     d7e:	20 e0       	ldi	r18, 0x00	; 0
     d80:	91 e0       	ldi	r25, 0x01	; 1
     d82:	40 91 d8 01 	lds	r20, 0x01D8	; 0x8001d8 <flag_a_senha>
     d86:	50 91 d9 01 	lds	r21, 0x01D9	; 0x8001d9 <flag_a_senha+0x1>
     d8a:	45 2b       	or	r20, r21
     d8c:	09 f0       	breq	.+2      	; 0xd90 <__stack+0x491>
     d8e:	90 e0       	ldi	r25, 0x00	; 0
     d90:	81 e0       	ldi	r24, 0x01	; 1
     d92:	40 91 c2 01 	lds	r20, 0x01C2	; 0x8001c2 <flag_timeout>
     d96:	50 91 c3 01 	lds	r21, 0x01C3	; 0x8001c3 <flag_timeout+0x1>
     d9a:	45 2b       	or	r20, r21
     d9c:	09 f0       	breq	.+2      	; 0xda0 <__stack+0x4a1>
     d9e:	80 e0       	ldi	r24, 0x00	; 0
     da0:	89 23       	and	r24, r25
     da2:	22 23       	and	r18, r18
     da4:	a9 f0       	breq	.+42     	; 0xdd0 <__stack+0x4d1>
     da6:	88 23       	and	r24, r24
     da8:	99 f0       	breq	.+38     	; 0xdd0 <__stack+0x4d1>
     daa:	81 e1       	ldi	r24, 0x11	; 17
     dac:	80 93 da 01 	sts	0x01DA, r24	; 0x8001da <state>
     db0:	80 91 ce 01 	lds	r24, 0x01CE	; 0x8001ce <flag_D_sensor>
     db4:	90 91 cf 01 	lds	r25, 0x01CF	; 0x8001cf <flag_D_sensor+0x1>
     db8:	89 2b       	or	r24, r25
     dba:	11 f4       	brne	.+4      	; 0xdc0 <__stack+0x4c1>
     dbc:	0e 94 4a 1a 	call	0x3494	; 0x3494 <msg_h_ass>
     dc0:	80 91 ce 01 	lds	r24, 0x01CE	; 0x8001ce <flag_D_sensor>
     dc4:	90 91 cf 01 	lds	r25, 0x01CF	; 0x8001cf <flag_D_sensor+0x1>
     dc8:	01 97       	sbiw	r24, 0x01	; 1
     dca:	11 f4       	brne	.+4      	; 0xdd0 <__stack+0x4d1>
     dcc:	0e 94 7d 1a 	call	0x34fa	; 0x34fa <msg_d_ass>
     dd0:	20 91 da 01 	lds	r18, 0x01DA	; 0x8001da <state>
     dd4:	40 91 bc 01 	lds	r20, 0x01BC	; 0x8001bc <cont_t>
     dd8:	50 91 bd 01 	lds	r21, 0x01BD	; 0x8001bd <cont_t+0x1>
     ddc:	91 e0       	ldi	r25, 0x01	; 1
     dde:	23 31       	cpi	r18, 0x13	; 19
     de0:	09 f0       	breq	.+2      	; 0xde4 <__stack+0x4e5>
     de2:	90 e0       	ldi	r25, 0x00	; 0
     de4:	81 e0       	ldi	r24, 0x01	; 1
     de6:	42 30       	cpi	r20, 0x02	; 2
     de8:	51 05       	cpc	r21, r1
     dea:	0c f0       	brlt	.+2      	; 0xdee <__stack+0x4ef>
     dec:	80 e0       	ldi	r24, 0x00	; 0
     dee:	89 23       	and	r24, r25
     df0:	79 f0       	breq	.+30     	; 0xe10 <__stack+0x511>
     df2:	fa 01       	movw	r30, r20
     df4:	ee 0f       	add	r30, r30
     df6:	ff 1f       	adc	r31, r31
     df8:	e5 5f       	subi	r30, 0xF5	; 245
     dfa:	fe 4f       	sbci	r31, 0xFE	; 254
     dfc:	84 e0       	ldi	r24, 0x04	; 4
     dfe:	90 e0       	ldi	r25, 0x00	; 0
     e00:	91 83       	std	Z+1, r25	; 0x01
     e02:	80 83       	st	Z, r24
     e04:	4f 5f       	subi	r20, 0xFF	; 255
     e06:	5f 4f       	sbci	r21, 0xFF	; 255
     e08:	50 93 bd 01 	sts	0x01BD, r21	; 0x8001bd <cont_t+0x1>
     e0c:	40 93 bc 01 	sts	0x01BC, r20	; 0x8001bc <cont_t>
     e10:	81 e0       	ldi	r24, 0x01	; 1
     e12:	40 91 bc 01 	lds	r20, 0x01BC	; 0x8001bc <cont_t>
     e16:	50 91 bd 01 	lds	r21, 0x01BD	; 0x8001bd <cont_t+0x1>
     e1a:	43 30       	cpi	r20, 0x03	; 3
     e1c:	51 05       	cpc	r21, r1
     e1e:	0c f0       	brlt	.+2      	; 0xe22 <__stack+0x523>
     e20:	80 e0       	ldi	r24, 0x00	; 0
     e22:	91 e0       	ldi	r25, 0x01	; 1
     e24:	24 31       	cpi	r18, 0x14	; 20
     e26:	09 f0       	breq	.+2      	; 0xe2a <__stack+0x52b>
     e28:	90 e0       	ldi	r25, 0x00	; 0
     e2a:	98 23       	and	r25, r24
     e2c:	99 f0       	breq	.+38     	; 0xe54 <__stack+0x555>
     e2e:	40 91 b8 01 	lds	r20, 0x01B8	; 0x8001b8 <cont_s>
     e32:	50 91 b9 01 	lds	r21, 0x01B9	; 0x8001b9 <cont_s+0x1>
     e36:	fa 01       	movw	r30, r20
     e38:	ee 0f       	add	r30, r30
     e3a:	ff 1f       	adc	r31, r31
     e3c:	e7 5d       	subi	r30, 0xD7	; 215
     e3e:	fe 4f       	sbci	r31, 0xFE	; 254
     e40:	64 e0       	ldi	r22, 0x04	; 4
     e42:	70 e0       	ldi	r23, 0x00	; 0
     e44:	71 83       	std	Z+1, r23	; 0x01
     e46:	60 83       	st	Z, r22
     e48:	4f 5f       	subi	r20, 0xFF	; 255
     e4a:	5f 4f       	sbci	r21, 0xFF	; 255
     e4c:	50 93 b9 01 	sts	0x01B9, r21	; 0x8001b9 <cont_s+0x1>
     e50:	40 93 b8 01 	sts	0x01B8, r20	; 0x8001b8 <cont_s>
     e54:	91 e0       	ldi	r25, 0x01	; 1
     e56:	22 31       	cpi	r18, 0x12	; 18
     e58:	09 f0       	breq	.+2      	; 0xe5c <__stack+0x55d>
     e5a:	90 e0       	ldi	r25, 0x00	; 0
     e5c:	89 23       	and	r24, r25
     e5e:	11 f4       	brne	.+4      	; 0xe64 <__stack+0x565>
     e60:	0c 94 7c 10 	jmp	0x20f8	; 0x20f8 <__stack+0x17f9>
     e64:	80 91 ba 01 	lds	r24, 0x01BA	; 0x8001ba <cont_aa>
     e68:	90 91 bb 01 	lds	r25, 0x01BB	; 0x8001bb <cont_aa+0x1>
     e6c:	fc 01       	movw	r30, r24
     e6e:	ee 0f       	add	r30, r30
     e70:	ff 1f       	adc	r31, r31
     e72:	ef 5d       	subi	r30, 0xDF	; 223
     e74:	fe 4f       	sbci	r31, 0xFE	; 254
     e76:	24 e0       	ldi	r18, 0x04	; 4
     e78:	30 e0       	ldi	r19, 0x00	; 0
     e7a:	31 83       	std	Z+1, r19	; 0x01
     e7c:	20 83       	st	Z, r18
     e7e:	01 96       	adiw	r24, 0x01	; 1
     e80:	90 93 bb 01 	sts	0x01BB, r25	; 0x8001bb <cont_aa+0x1>
     e84:	80 93 ba 01 	sts	0x01BA, r24	; 0x8001ba <cont_aa>
     e88:	0c 94 7c 10 	jmp	0x20f8	; 0x20f8 <__stack+0x17f9>
     e8c:	80 3a       	cpi	r24, 0xA0	; 160
     e8e:	91 05       	cpc	r25, r1
     e90:	09 f0       	breq	.+2      	; 0xe94 <__stack+0x595>
     e92:	5d c1       	rjmp	.+698    	; 0x114e <__stack+0x84f>
     e94:	91 e0       	ldi	r25, 0x01	; 1
     e96:	80 91 da 01 	lds	r24, 0x01DA	; 0x8001da <state>
     e9a:	88 30       	cpi	r24, 0x08	; 8
     e9c:	09 f0       	breq	.+2      	; 0xea0 <__stack+0x5a1>
     e9e:	90 e0       	ldi	r25, 0x00	; 0
     ea0:	81 e0       	ldi	r24, 0x01	; 1
     ea2:	20 91 d6 01 	lds	r18, 0x01D6	; 0x8001d6 <count_senha>
     ea6:	30 91 d7 01 	lds	r19, 0x01D7	; 0x8001d7 <count_senha+0x1>
     eaa:	24 30       	cpi	r18, 0x04	; 4
     eac:	31 05       	cpc	r19, r1
     eae:	0c f0       	brlt	.+2      	; 0xeb2 <__stack+0x5b3>
     eb0:	80 e0       	ldi	r24, 0x00	; 0
     eb2:	89 23       	and	r24, r25
     eb4:	a9 f0       	breq	.+42     	; 0xee0 <__stack+0x5e1>
     eb6:	85 e3       	ldi	r24, 0x35	; 53
     eb8:	0e 94 cc 1c 	call	0x3998	; 0x3998 <send_word_lcd>
     ebc:	42 e3       	ldi	r20, 0x32	; 50
     ebe:	52 e0       	ldi	r21, 0x02	; 2
     ec0:	60 e0       	ldi	r22, 0x00	; 0
     ec2:	80 91 d6 01 	lds	r24, 0x01D6	; 0x8001d6 <count_senha>
     ec6:	90 91 d7 01 	lds	r25, 0x01D7	; 0x8001d7 <count_senha+0x1>
     eca:	0e 94 59 1e 	call	0x3cb2	; 0x3cb2 <insert_senha>
     ece:	80 91 d6 01 	lds	r24, 0x01D6	; 0x8001d6 <count_senha>
     ed2:	90 91 d7 01 	lds	r25, 0x01D7	; 0x8001d7 <count_senha+0x1>
     ed6:	01 96       	adiw	r24, 0x01	; 1
     ed8:	90 93 d7 01 	sts	0x01D7, r25	; 0x8001d7 <count_senha+0x1>
     edc:	80 93 d6 01 	sts	0x01D6, r24	; 0x8001d6 <count_senha>
     ee0:	91 e0       	ldi	r25, 0x01	; 1
     ee2:	80 91 da 01 	lds	r24, 0x01DA	; 0x8001da <state>
     ee6:	89 30       	cpi	r24, 0x09	; 9
     ee8:	09 f0       	breq	.+2      	; 0xeec <__stack+0x5ed>
     eea:	90 e0       	ldi	r25, 0x00	; 0
     eec:	81 e0       	ldi	r24, 0x01	; 1
     eee:	20 91 d6 01 	lds	r18, 0x01D6	; 0x8001d6 <count_senha>
     ef2:	30 91 d7 01 	lds	r19, 0x01D7	; 0x8001d7 <count_senha+0x1>
     ef6:	24 30       	cpi	r18, 0x04	; 4
     ef8:	31 05       	cpc	r19, r1
     efa:	0c f0       	brlt	.+2      	; 0xefe <__stack+0x5ff>
     efc:	80 e0       	ldi	r24, 0x00	; 0
     efe:	89 23       	and	r24, r25
     f00:	a9 f0       	breq	.+42     	; 0xf2c <__stack+0x62d>
     f02:	85 e3       	ldi	r24, 0x35	; 53
     f04:	0e 94 cc 1c 	call	0x3998	; 0x3998 <send_word_lcd>
     f08:	42 e3       	ldi	r20, 0x32	; 50
     f0a:	52 e0       	ldi	r21, 0x02	; 2
     f0c:	60 e0       	ldi	r22, 0x00	; 0
     f0e:	80 91 d6 01 	lds	r24, 0x01D6	; 0x8001d6 <count_senha>
     f12:	90 91 d7 01 	lds	r25, 0x01D7	; 0x8001d7 <count_senha+0x1>
     f16:	0e 94 2e 1c 	call	0x385c	; 0x385c <senha_arm>
     f1a:	80 91 d6 01 	lds	r24, 0x01D6	; 0x8001d6 <count_senha>
     f1e:	90 91 d7 01 	lds	r25, 0x01D7	; 0x8001d7 <count_senha+0x1>
     f22:	01 96       	adiw	r24, 0x01	; 1
     f24:	90 93 d7 01 	sts	0x01D7, r25	; 0x8001d7 <count_senha+0x1>
     f28:	80 93 d6 01 	sts	0x01D6, r24	; 0x8001d6 <count_senha>
     f2c:	91 e0       	ldi	r25, 0x01	; 1
     f2e:	80 91 da 01 	lds	r24, 0x01DA	; 0x8001da <state>
     f32:	8a 30       	cpi	r24, 0x0A	; 10
     f34:	09 f0       	breq	.+2      	; 0xf38 <__stack+0x639>
     f36:	90 e0       	ldi	r25, 0x00	; 0
     f38:	81 e0       	ldi	r24, 0x01	; 1
     f3a:	20 91 d6 01 	lds	r18, 0x01D6	; 0x8001d6 <count_senha>
     f3e:	30 91 d7 01 	lds	r19, 0x01D7	; 0x8001d7 <count_senha+0x1>
     f42:	24 30       	cpi	r18, 0x04	; 4
     f44:	31 05       	cpc	r19, r1
     f46:	0c f0       	brlt	.+2      	; 0xf4a <__stack+0x64b>
     f48:	80 e0       	ldi	r24, 0x00	; 0
     f4a:	89 23       	and	r24, r25
     f4c:	a9 f0       	breq	.+42     	; 0xf78 <__stack+0x679>
     f4e:	85 e3       	ldi	r24, 0x35	; 53
     f50:	0e 94 cc 1c 	call	0x3998	; 0x3998 <send_word_lcd>
     f54:	42 e3       	ldi	r20, 0x32	; 50
     f56:	52 e0       	ldi	r21, 0x02	; 2
     f58:	60 e0       	ldi	r22, 0x00	; 0
     f5a:	80 91 d6 01 	lds	r24, 0x01D6	; 0x8001d6 <count_senha>
     f5e:	90 91 d7 01 	lds	r25, 0x01D7	; 0x8001d7 <count_senha+0x1>
     f62:	0e 94 59 1e 	call	0x3cb2	; 0x3cb2 <insert_senha>
     f66:	80 91 d6 01 	lds	r24, 0x01D6	; 0x8001d6 <count_senha>
     f6a:	90 91 d7 01 	lds	r25, 0x01D7	; 0x8001d7 <count_senha+0x1>
     f6e:	01 96       	adiw	r24, 0x01	; 1
     f70:	90 93 d7 01 	sts	0x01D7, r25	; 0x8001d7 <count_senha+0x1>
     f74:	80 93 d6 01 	sts	0x01D6, r24	; 0x8001d6 <count_senha>
     f78:	91 e0       	ldi	r25, 0x01	; 1
     f7a:	80 91 da 01 	lds	r24, 0x01DA	; 0x8001da <state>
     f7e:	8b 30       	cpi	r24, 0x0B	; 11
     f80:	09 f0       	breq	.+2      	; 0xf84 <__stack+0x685>
     f82:	90 e0       	ldi	r25, 0x00	; 0
     f84:	81 e0       	ldi	r24, 0x01	; 1
     f86:	20 91 d6 01 	lds	r18, 0x01D6	; 0x8001d6 <count_senha>
     f8a:	30 91 d7 01 	lds	r19, 0x01D7	; 0x8001d7 <count_senha+0x1>
     f8e:	24 30       	cpi	r18, 0x04	; 4
     f90:	31 05       	cpc	r19, r1
     f92:	0c f0       	brlt	.+2      	; 0xf96 <__stack+0x697>
     f94:	80 e0       	ldi	r24, 0x00	; 0
     f96:	89 23       	and	r24, r25
     f98:	a9 f0       	breq	.+42     	; 0xfc4 <__stack+0x6c5>
     f9a:	85 e3       	ldi	r24, 0x35	; 53
     f9c:	0e 94 cc 1c 	call	0x3998	; 0x3998 <send_word_lcd>
     fa0:	42 e3       	ldi	r20, 0x32	; 50
     fa2:	52 e0       	ldi	r21, 0x02	; 2
     fa4:	60 e0       	ldi	r22, 0x00	; 0
     fa6:	80 91 d6 01 	lds	r24, 0x01D6	; 0x8001d6 <count_senha>
     faa:	90 91 d7 01 	lds	r25, 0x01D7	; 0x8001d7 <count_senha+0x1>
     fae:	0e 94 59 1e 	call	0x3cb2	; 0x3cb2 <insert_senha>
     fb2:	80 91 d6 01 	lds	r24, 0x01D6	; 0x8001d6 <count_senha>
     fb6:	90 91 d7 01 	lds	r25, 0x01D7	; 0x8001d7 <count_senha+0x1>
     fba:	01 96       	adiw	r24, 0x01	; 1
     fbc:	90 93 d7 01 	sts	0x01D7, r25	; 0x8001d7 <count_senha+0x1>
     fc0:	80 93 d6 01 	sts	0x01D6, r24	; 0x8001d6 <count_senha>
     fc4:	91 e0       	ldi	r25, 0x01	; 1
     fc6:	80 91 da 01 	lds	r24, 0x01DA	; 0x8001da <state>
     fca:	8f 30       	cpi	r24, 0x0F	; 15
     fcc:	09 f0       	breq	.+2      	; 0xfd0 <__stack+0x6d1>
     fce:	90 e0       	ldi	r25, 0x00	; 0
     fd0:	81 e0       	ldi	r24, 0x01	; 1
     fd2:	20 91 d0 01 	lds	r18, 0x01D0	; 0x8001d0 <flag_sensor>
     fd6:	30 91 d1 01 	lds	r19, 0x01D1	; 0x8001d1 <flag_sensor+0x1>
     fda:	23 2b       	or	r18, r19
     fdc:	09 f0       	breq	.+2      	; 0xfe0 <__stack+0x6e1>
     fde:	80 e0       	ldi	r24, 0x00	; 0
     fe0:	89 23       	and	r24, r25
     fe2:	21 f0       	breq	.+8      	; 0xfec <__stack+0x6ed>
     fe4:	85 e0       	ldi	r24, 0x05	; 5
     fe6:	90 e0       	ldi	r25, 0x00	; 0
     fe8:	0e 94 d6 16 	call	0x2dac	; 0x2dac <hab_sensor>
     fec:	91 e0       	ldi	r25, 0x01	; 1
     fee:	80 91 da 01 	lds	r24, 0x01DA	; 0x8001da <state>
     ff2:	87 30       	cpi	r24, 0x07	; 7
     ff4:	09 f0       	breq	.+2      	; 0xff8 <__stack+0x6f9>
     ff6:	90 e0       	ldi	r25, 0x00	; 0
     ff8:	21 e0       	ldi	r18, 0x01	; 1
     ffa:	40 91 d8 01 	lds	r20, 0x01D8	; 0x8001d8 <flag_a_senha>
     ffe:	50 91 d9 01 	lds	r21, 0x01D9	; 0x8001d9 <flag_a_senha+0x1>
    1002:	45 2b       	or	r20, r21
    1004:	09 f0       	breq	.+2      	; 0x1008 <__stack+0x709>
    1006:	20 e0       	ldi	r18, 0x00	; 0
    1008:	81 e0       	ldi	r24, 0x01	; 1
    100a:	40 91 c2 01 	lds	r20, 0x01C2	; 0x8001c2 <flag_timeout>
    100e:	50 91 c3 01 	lds	r21, 0x01C3	; 0x8001c3 <flag_timeout+0x1>
    1012:	45 2b       	or	r20, r21
    1014:	09 f0       	breq	.+2      	; 0x1018 <__stack+0x719>
    1016:	80 e0       	ldi	r24, 0x00	; 0
    1018:	82 23       	and	r24, r18
    101a:	99 23       	and	r25, r25
    101c:	a9 f0       	breq	.+42     	; 0x1048 <__stack+0x749>
    101e:	88 23       	and	r24, r24
    1020:	99 f0       	breq	.+38     	; 0x1048 <__stack+0x749>
    1022:	80 e1       	ldi	r24, 0x10	; 16
    1024:	80 93 da 01 	sts	0x01DA, r24	; 0x8001da <state>
    1028:	80 91 ce 01 	lds	r24, 0x01CE	; 0x8001ce <flag_D_sensor>
    102c:	90 91 cf 01 	lds	r25, 0x01CF	; 0x8001cf <flag_D_sensor+0x1>
    1030:	89 2b       	or	r24, r25
    1032:	11 f4       	brne	.+4      	; 0x1038 <__stack+0x739>
    1034:	0e 94 e4 19 	call	0x33c8	; 0x33c8 <msg_h_zona>
    1038:	80 91 ce 01 	lds	r24, 0x01CE	; 0x8001ce <flag_D_sensor>
    103c:	90 91 cf 01 	lds	r25, 0x01CF	; 0x8001cf <flag_D_sensor+0x1>
    1040:	01 97       	sbiw	r24, 0x01	; 1
    1042:	11 f4       	brne	.+4      	; 0x1048 <__stack+0x749>
    1044:	0e 94 17 1a 	call	0x342e	; 0x342e <msg_d_zona>
    1048:	90 91 da 01 	lds	r25, 0x01DA	; 0x8001da <state>
    104c:	21 e0       	ldi	r18, 0x01	; 1
    104e:	91 31       	cpi	r25, 0x11	; 17
    1050:	09 f0       	breq	.+2      	; 0x1054 <__stack+0x755>
    1052:	20 e0       	ldi	r18, 0x00	; 0
    1054:	31 e0       	ldi	r19, 0x01	; 1
    1056:	40 91 c8 01 	lds	r20, 0x01C8	; 0x8001c8 <flag_z1>
    105a:	50 91 c9 01 	lds	r21, 0x01C9	; 0x8001c9 <flag_z1+0x1>
    105e:	45 2b       	or	r20, r21
    1060:	09 f0       	breq	.+2      	; 0x1064 <__stack+0x765>
    1062:	30 e0       	ldi	r19, 0x00	; 0
    1064:	81 e0       	ldi	r24, 0x01	; 1
    1066:	40 91 ca 01 	lds	r20, 0x01CA	; 0x8001ca <flag_z>
    106a:	50 91 cb 01 	lds	r21, 0x01CB	; 0x8001cb <flag_z+0x1>
    106e:	45 2b       	or	r20, r21
    1070:	09 f0       	breq	.+2      	; 0x1074 <__stack+0x775>
    1072:	80 e0       	ldi	r24, 0x00	; 0
    1074:	83 23       	and	r24, r19
    1076:	22 23       	and	r18, r18
    1078:	71 f0       	breq	.+28     	; 0x1096 <__stack+0x797>
    107a:	88 23       	and	r24, r24
    107c:	61 f0       	breq	.+24     	; 0x1096 <__stack+0x797>
    107e:	25 e0       	ldi	r18, 0x05	; 5
    1080:	30 e0       	ldi	r19, 0x00	; 0
    1082:	30 93 01 01 	sts	0x0101, r19	; 0x800101 <__DATA_REGION_ORIGIN__+0x1>
    1086:	20 93 00 01 	sts	0x0100, r18	; 0x800100 <__DATA_REGION_ORIGIN__>
    108a:	21 e0       	ldi	r18, 0x01	; 1
    108c:	30 e0       	ldi	r19, 0x00	; 0
    108e:	30 93 c9 01 	sts	0x01C9, r19	; 0x8001c9 <flag_z1+0x1>
    1092:	20 93 c8 01 	sts	0x01C8, r18	; 0x8001c8 <flag_z1>
    1096:	20 91 bc 01 	lds	r18, 0x01BC	; 0x8001bc <cont_t>
    109a:	30 91 bd 01 	lds	r19, 0x01BD	; 0x8001bd <cont_t+0x1>
    109e:	41 e0       	ldi	r20, 0x01	; 1
    10a0:	93 31       	cpi	r25, 0x13	; 19
    10a2:	09 f0       	breq	.+2      	; 0x10a6 <__stack+0x7a7>
    10a4:	40 e0       	ldi	r20, 0x00	; 0
    10a6:	81 e0       	ldi	r24, 0x01	; 1
    10a8:	22 30       	cpi	r18, 0x02	; 2
    10aa:	31 05       	cpc	r19, r1
    10ac:	0c f0       	brlt	.+2      	; 0x10b0 <__stack+0x7b1>
    10ae:	80 e0       	ldi	r24, 0x00	; 0
    10b0:	84 23       	and	r24, r20
    10b2:	79 f0       	breq	.+30     	; 0x10d2 <__stack+0x7d3>
    10b4:	f9 01       	movw	r30, r18
    10b6:	ee 0f       	add	r30, r30
    10b8:	ff 1f       	adc	r31, r31
    10ba:	e5 5f       	subi	r30, 0xF5	; 245
    10bc:	fe 4f       	sbci	r31, 0xFE	; 254
    10be:	45 e0       	ldi	r20, 0x05	; 5
    10c0:	50 e0       	ldi	r21, 0x00	; 0
    10c2:	51 83       	std	Z+1, r21	; 0x01
    10c4:	40 83       	st	Z, r20
    10c6:	2f 5f       	subi	r18, 0xFF	; 255
    10c8:	3f 4f       	sbci	r19, 0xFF	; 255
    10ca:	30 93 bd 01 	sts	0x01BD, r19	; 0x8001bd <cont_t+0x1>
    10ce:	20 93 bc 01 	sts	0x01BC, r18	; 0x8001bc <cont_t>
    10d2:	81 e0       	ldi	r24, 0x01	; 1
    10d4:	20 91 bc 01 	lds	r18, 0x01BC	; 0x8001bc <cont_t>
    10d8:	30 91 bd 01 	lds	r19, 0x01BD	; 0x8001bd <cont_t+0x1>
    10dc:	23 30       	cpi	r18, 0x03	; 3
    10de:	31 05       	cpc	r19, r1
    10e0:	0c f0       	brlt	.+2      	; 0x10e4 <__stack+0x7e5>
    10e2:	80 e0       	ldi	r24, 0x00	; 0
    10e4:	21 e0       	ldi	r18, 0x01	; 1
    10e6:	94 31       	cpi	r25, 0x14	; 20
    10e8:	09 f0       	breq	.+2      	; 0x10ec <__stack+0x7ed>
    10ea:	20 e0       	ldi	r18, 0x00	; 0
    10ec:	28 23       	and	r18, r24
    10ee:	99 f0       	breq	.+38     	; 0x1116 <__stack+0x817>
    10f0:	20 91 b8 01 	lds	r18, 0x01B8	; 0x8001b8 <cont_s>
    10f4:	30 91 b9 01 	lds	r19, 0x01B9	; 0x8001b9 <cont_s+0x1>
    10f8:	f9 01       	movw	r30, r18
    10fa:	ee 0f       	add	r30, r30
    10fc:	ff 1f       	adc	r31, r31
    10fe:	e7 5d       	subi	r30, 0xD7	; 215
    1100:	fe 4f       	sbci	r31, 0xFE	; 254
    1102:	45 e0       	ldi	r20, 0x05	; 5
    1104:	50 e0       	ldi	r21, 0x00	; 0
    1106:	51 83       	std	Z+1, r21	; 0x01
    1108:	40 83       	st	Z, r20
    110a:	2f 5f       	subi	r18, 0xFF	; 255
    110c:	3f 4f       	sbci	r19, 0xFF	; 255
    110e:	30 93 b9 01 	sts	0x01B9, r19	; 0x8001b9 <cont_s+0x1>
    1112:	20 93 b8 01 	sts	0x01B8, r18	; 0x8001b8 <cont_s>
    1116:	21 e0       	ldi	r18, 0x01	; 1
    1118:	92 31       	cpi	r25, 0x12	; 18
    111a:	09 f0       	breq	.+2      	; 0x111e <__stack+0x81f>
    111c:	20 e0       	ldi	r18, 0x00	; 0
    111e:	82 23       	and	r24, r18
    1120:	11 f4       	brne	.+4      	; 0x1126 <__stack+0x827>
    1122:	0c 94 7c 10 	jmp	0x20f8	; 0x20f8 <__stack+0x17f9>
    1126:	80 91 ba 01 	lds	r24, 0x01BA	; 0x8001ba <cont_aa>
    112a:	90 91 bb 01 	lds	r25, 0x01BB	; 0x8001bb <cont_aa+0x1>
    112e:	fc 01       	movw	r30, r24
    1130:	ee 0f       	add	r30, r30
    1132:	ff 1f       	adc	r31, r31
    1134:	ef 5d       	subi	r30, 0xDF	; 223
    1136:	fe 4f       	sbci	r31, 0xFE	; 254
    1138:	25 e0       	ldi	r18, 0x05	; 5
    113a:	30 e0       	ldi	r19, 0x00	; 0
    113c:	31 83       	std	Z+1, r19	; 0x01
    113e:	20 83       	st	Z, r18
    1140:	01 96       	adiw	r24, 0x01	; 1
    1142:	90 93 bb 01 	sts	0x01BB, r25	; 0x8001bb <cont_aa+0x1>
    1146:	80 93 ba 01 	sts	0x01BA, r24	; 0x8001ba <cont_aa>
    114a:	0c 94 7c 10 	jmp	0x20f8	; 0x20f8 <__stack+0x17f9>
    114e:	80 39       	cpi	r24, 0x90	; 144
    1150:	91 05       	cpc	r25, r1
    1152:	09 f0       	breq	.+2      	; 0x1156 <__stack+0x857>
    1154:	5c c1       	rjmp	.+696    	; 0x140e <__stack+0xb0f>
    1156:	91 e0       	ldi	r25, 0x01	; 1
    1158:	80 91 da 01 	lds	r24, 0x01DA	; 0x8001da <state>
    115c:	88 30       	cpi	r24, 0x08	; 8
    115e:	09 f0       	breq	.+2      	; 0x1162 <__stack+0x863>
    1160:	90 e0       	ldi	r25, 0x00	; 0
    1162:	81 e0       	ldi	r24, 0x01	; 1
    1164:	20 91 d6 01 	lds	r18, 0x01D6	; 0x8001d6 <count_senha>
    1168:	30 91 d7 01 	lds	r19, 0x01D7	; 0x8001d7 <count_senha+0x1>
    116c:	24 30       	cpi	r18, 0x04	; 4
    116e:	31 05       	cpc	r19, r1
    1170:	0c f0       	brlt	.+2      	; 0x1174 <__stack+0x875>
    1172:	80 e0       	ldi	r24, 0x00	; 0
    1174:	89 23       	and	r24, r25
    1176:	a9 f0       	breq	.+42     	; 0x11a2 <__stack+0x8a3>
    1178:	86 e3       	ldi	r24, 0x36	; 54
    117a:	0e 94 cc 1c 	call	0x3998	; 0x3998 <send_word_lcd>
    117e:	44 e3       	ldi	r20, 0x34	; 52
    1180:	52 e0       	ldi	r21, 0x02	; 2
    1182:	60 e0       	ldi	r22, 0x00	; 0
    1184:	80 91 d6 01 	lds	r24, 0x01D6	; 0x8001d6 <count_senha>
    1188:	90 91 d7 01 	lds	r25, 0x01D7	; 0x8001d7 <count_senha+0x1>
    118c:	0e 94 59 1e 	call	0x3cb2	; 0x3cb2 <insert_senha>
    1190:	80 91 d6 01 	lds	r24, 0x01D6	; 0x8001d6 <count_senha>
    1194:	90 91 d7 01 	lds	r25, 0x01D7	; 0x8001d7 <count_senha+0x1>
    1198:	01 96       	adiw	r24, 0x01	; 1
    119a:	90 93 d7 01 	sts	0x01D7, r25	; 0x8001d7 <count_senha+0x1>
    119e:	80 93 d6 01 	sts	0x01D6, r24	; 0x8001d6 <count_senha>
    11a2:	91 e0       	ldi	r25, 0x01	; 1
    11a4:	80 91 da 01 	lds	r24, 0x01DA	; 0x8001da <state>
    11a8:	89 30       	cpi	r24, 0x09	; 9
    11aa:	09 f0       	breq	.+2      	; 0x11ae <__stack+0x8af>
    11ac:	90 e0       	ldi	r25, 0x00	; 0
    11ae:	81 e0       	ldi	r24, 0x01	; 1
    11b0:	20 91 d6 01 	lds	r18, 0x01D6	; 0x8001d6 <count_senha>
    11b4:	30 91 d7 01 	lds	r19, 0x01D7	; 0x8001d7 <count_senha+0x1>
    11b8:	24 30       	cpi	r18, 0x04	; 4
    11ba:	31 05       	cpc	r19, r1
    11bc:	0c f0       	brlt	.+2      	; 0x11c0 <__stack+0x8c1>
    11be:	80 e0       	ldi	r24, 0x00	; 0
    11c0:	89 23       	and	r24, r25
    11c2:	a9 f0       	breq	.+42     	; 0x11ee <__stack+0x8ef>
    11c4:	86 e3       	ldi	r24, 0x36	; 54
    11c6:	0e 94 cc 1c 	call	0x3998	; 0x3998 <send_word_lcd>
    11ca:	44 e3       	ldi	r20, 0x34	; 52
    11cc:	52 e0       	ldi	r21, 0x02	; 2
    11ce:	60 e0       	ldi	r22, 0x00	; 0
    11d0:	80 91 d6 01 	lds	r24, 0x01D6	; 0x8001d6 <count_senha>
    11d4:	90 91 d7 01 	lds	r25, 0x01D7	; 0x8001d7 <count_senha+0x1>
    11d8:	0e 94 2e 1c 	call	0x385c	; 0x385c <senha_arm>
    11dc:	80 91 d6 01 	lds	r24, 0x01D6	; 0x8001d6 <count_senha>
    11e0:	90 91 d7 01 	lds	r25, 0x01D7	; 0x8001d7 <count_senha+0x1>
    11e4:	01 96       	adiw	r24, 0x01	; 1
    11e6:	90 93 d7 01 	sts	0x01D7, r25	; 0x8001d7 <count_senha+0x1>
    11ea:	80 93 d6 01 	sts	0x01D6, r24	; 0x8001d6 <count_senha>
    11ee:	91 e0       	ldi	r25, 0x01	; 1
    11f0:	80 91 da 01 	lds	r24, 0x01DA	; 0x8001da <state>
    11f4:	8a 30       	cpi	r24, 0x0A	; 10
    11f6:	09 f0       	breq	.+2      	; 0x11fa <__stack+0x8fb>
    11f8:	90 e0       	ldi	r25, 0x00	; 0
    11fa:	81 e0       	ldi	r24, 0x01	; 1
    11fc:	20 91 d6 01 	lds	r18, 0x01D6	; 0x8001d6 <count_senha>
    1200:	30 91 d7 01 	lds	r19, 0x01D7	; 0x8001d7 <count_senha+0x1>
    1204:	24 30       	cpi	r18, 0x04	; 4
    1206:	31 05       	cpc	r19, r1
    1208:	0c f0       	brlt	.+2      	; 0x120c <__stack+0x90d>
    120a:	80 e0       	ldi	r24, 0x00	; 0
    120c:	89 23       	and	r24, r25
    120e:	a9 f0       	breq	.+42     	; 0x123a <__stack+0x93b>
    1210:	86 e3       	ldi	r24, 0x36	; 54
    1212:	0e 94 cc 1c 	call	0x3998	; 0x3998 <send_word_lcd>
    1216:	44 e3       	ldi	r20, 0x34	; 52
    1218:	52 e0       	ldi	r21, 0x02	; 2
    121a:	60 e0       	ldi	r22, 0x00	; 0
    121c:	80 91 d6 01 	lds	r24, 0x01D6	; 0x8001d6 <count_senha>
    1220:	90 91 d7 01 	lds	r25, 0x01D7	; 0x8001d7 <count_senha+0x1>
    1224:	0e 94 59 1e 	call	0x3cb2	; 0x3cb2 <insert_senha>
    1228:	80 91 d6 01 	lds	r24, 0x01D6	; 0x8001d6 <count_senha>
    122c:	90 91 d7 01 	lds	r25, 0x01D7	; 0x8001d7 <count_senha+0x1>
    1230:	01 96       	adiw	r24, 0x01	; 1
    1232:	90 93 d7 01 	sts	0x01D7, r25	; 0x8001d7 <count_senha+0x1>
    1236:	80 93 d6 01 	sts	0x01D6, r24	; 0x8001d6 <count_senha>
    123a:	91 e0       	ldi	r25, 0x01	; 1
    123c:	80 91 da 01 	lds	r24, 0x01DA	; 0x8001da <state>
    1240:	8b 30       	cpi	r24, 0x0B	; 11
    1242:	09 f0       	breq	.+2      	; 0x1246 <__stack+0x947>
    1244:	90 e0       	ldi	r25, 0x00	; 0
    1246:	81 e0       	ldi	r24, 0x01	; 1
    1248:	20 91 d6 01 	lds	r18, 0x01D6	; 0x8001d6 <count_senha>
    124c:	30 91 d7 01 	lds	r19, 0x01D7	; 0x8001d7 <count_senha+0x1>
    1250:	24 30       	cpi	r18, 0x04	; 4
    1252:	31 05       	cpc	r19, r1
    1254:	0c f0       	brlt	.+2      	; 0x1258 <__stack+0x959>
    1256:	80 e0       	ldi	r24, 0x00	; 0
    1258:	89 23       	and	r24, r25
    125a:	a9 f0       	breq	.+42     	; 0x1286 <__stack+0x987>
    125c:	86 e3       	ldi	r24, 0x36	; 54
    125e:	0e 94 cc 1c 	call	0x3998	; 0x3998 <send_word_lcd>
    1262:	44 e3       	ldi	r20, 0x34	; 52
    1264:	52 e0       	ldi	r21, 0x02	; 2
    1266:	60 e0       	ldi	r22, 0x00	; 0
    1268:	80 91 d6 01 	lds	r24, 0x01D6	; 0x8001d6 <count_senha>
    126c:	90 91 d7 01 	lds	r25, 0x01D7	; 0x8001d7 <count_senha+0x1>
    1270:	0e 94 59 1e 	call	0x3cb2	; 0x3cb2 <insert_senha>
    1274:	80 91 d6 01 	lds	r24, 0x01D6	; 0x8001d6 <count_senha>
    1278:	90 91 d7 01 	lds	r25, 0x01D7	; 0x8001d7 <count_senha+0x1>
    127c:	01 96       	adiw	r24, 0x01	; 1
    127e:	90 93 d7 01 	sts	0x01D7, r25	; 0x8001d7 <count_senha+0x1>
    1282:	80 93 d6 01 	sts	0x01D6, r24	; 0x8001d6 <count_senha>
    1286:	91 e0       	ldi	r25, 0x01	; 1
    1288:	80 91 da 01 	lds	r24, 0x01DA	; 0x8001da <state>
    128c:	8f 30       	cpi	r24, 0x0F	; 15
    128e:	09 f0       	breq	.+2      	; 0x1292 <__stack+0x993>
    1290:	90 e0       	ldi	r25, 0x00	; 0
    1292:	81 e0       	ldi	r24, 0x01	; 1
    1294:	20 91 d0 01 	lds	r18, 0x01D0	; 0x8001d0 <flag_sensor>
    1298:	30 91 d1 01 	lds	r19, 0x01D1	; 0x8001d1 <flag_sensor+0x1>
    129c:	23 2b       	or	r18, r19
    129e:	09 f0       	breq	.+2      	; 0x12a2 <__stack+0x9a3>
    12a0:	80 e0       	ldi	r24, 0x00	; 0
    12a2:	89 23       	and	r24, r25
    12a4:	21 f0       	breq	.+8      	; 0x12ae <__stack+0x9af>
    12a6:	86 e0       	ldi	r24, 0x06	; 6
    12a8:	90 e0       	ldi	r25, 0x00	; 0
    12aa:	0e 94 d6 16 	call	0x2dac	; 0x2dac <hab_sensor>
    12ae:	80 91 da 01 	lds	r24, 0x01DA	; 0x8001da <state>
    12b2:	21 e0       	ldi	r18, 0x01	; 1
    12b4:	81 31       	cpi	r24, 0x11	; 17
    12b6:	09 f0       	breq	.+2      	; 0x12ba <__stack+0x9bb>
    12b8:	20 e0       	ldi	r18, 0x00	; 0
    12ba:	31 e0       	ldi	r19, 0x01	; 1
    12bc:	40 91 c8 01 	lds	r20, 0x01C8	; 0x8001c8 <flag_z1>
    12c0:	50 91 c9 01 	lds	r21, 0x01C9	; 0x8001c9 <flag_z1+0x1>
    12c4:	45 2b       	or	r20, r21
    12c6:	09 f0       	breq	.+2      	; 0x12ca <__stack+0x9cb>
    12c8:	30 e0       	ldi	r19, 0x00	; 0
    12ca:	91 e0       	ldi	r25, 0x01	; 1
    12cc:	40 91 ca 01 	lds	r20, 0x01CA	; 0x8001ca <flag_z>
    12d0:	50 91 cb 01 	lds	r21, 0x01CB	; 0x8001cb <flag_z+0x1>
    12d4:	45 2b       	or	r20, r21
    12d6:	09 f0       	breq	.+2      	; 0x12da <__stack+0x9db>
    12d8:	90 e0       	ldi	r25, 0x00	; 0
    12da:	93 23       	and	r25, r19
    12dc:	22 23       	and	r18, r18
    12de:	71 f0       	breq	.+28     	; 0x12fc <__stack+0x9fd>
    12e0:	99 23       	and	r25, r25
    12e2:	61 f0       	breq	.+24     	; 0x12fc <__stack+0x9fd>
    12e4:	26 e0       	ldi	r18, 0x06	; 6
    12e6:	30 e0       	ldi	r19, 0x00	; 0
    12e8:	30 93 01 01 	sts	0x0101, r19	; 0x800101 <__DATA_REGION_ORIGIN__+0x1>
    12ec:	20 93 00 01 	sts	0x0100, r18	; 0x800100 <__DATA_REGION_ORIGIN__>
    12f0:	21 e0       	ldi	r18, 0x01	; 1
    12f2:	30 e0       	ldi	r19, 0x00	; 0
    12f4:	30 93 c9 01 	sts	0x01C9, r19	; 0x8001c9 <flag_z1+0x1>
    12f8:	20 93 c8 01 	sts	0x01C8, r18	; 0x8001c8 <flag_z1>
    12fc:	20 91 bc 01 	lds	r18, 0x01BC	; 0x8001bc <cont_t>
    1300:	30 91 bd 01 	lds	r19, 0x01BD	; 0x8001bd <cont_t+0x1>
    1304:	41 e0       	ldi	r20, 0x01	; 1
    1306:	83 31       	cpi	r24, 0x13	; 19
    1308:	09 f0       	breq	.+2      	; 0x130c <__stack+0xa0d>
    130a:	40 e0       	ldi	r20, 0x00	; 0
    130c:	91 e0       	ldi	r25, 0x01	; 1
    130e:	22 30       	cpi	r18, 0x02	; 2
    1310:	31 05       	cpc	r19, r1
    1312:	0c f0       	brlt	.+2      	; 0x1316 <__stack+0xa17>
    1314:	90 e0       	ldi	r25, 0x00	; 0
    1316:	94 23       	and	r25, r20
    1318:	79 f0       	breq	.+30     	; 0x1338 <__stack+0xa39>
    131a:	f9 01       	movw	r30, r18
    131c:	ee 0f       	add	r30, r30
    131e:	ff 1f       	adc	r31, r31
    1320:	e5 5f       	subi	r30, 0xF5	; 245
    1322:	fe 4f       	sbci	r31, 0xFE	; 254
    1324:	46 e0       	ldi	r20, 0x06	; 6
    1326:	50 e0       	ldi	r21, 0x00	; 0
    1328:	51 83       	std	Z+1, r21	; 0x01
    132a:	40 83       	st	Z, r20
    132c:	2f 5f       	subi	r18, 0xFF	; 255
    132e:	3f 4f       	sbci	r19, 0xFF	; 255
    1330:	30 93 bd 01 	sts	0x01BD, r19	; 0x8001bd <cont_t+0x1>
    1334:	20 93 bc 01 	sts	0x01BC, r18	; 0x8001bc <cont_t>
    1338:	21 e0       	ldi	r18, 0x01	; 1
    133a:	40 91 bc 01 	lds	r20, 0x01BC	; 0x8001bc <cont_t>
    133e:	50 91 bd 01 	lds	r21, 0x01BD	; 0x8001bd <cont_t+0x1>
    1342:	43 30       	cpi	r20, 0x03	; 3
    1344:	51 05       	cpc	r21, r1
    1346:	0c f0       	brlt	.+2      	; 0x134a <__stack+0xa4b>
    1348:	20 e0       	ldi	r18, 0x00	; 0
    134a:	91 e0       	ldi	r25, 0x01	; 1
    134c:	84 31       	cpi	r24, 0x14	; 20
    134e:	09 f0       	breq	.+2      	; 0x1352 <__stack+0xa53>
    1350:	90 e0       	ldi	r25, 0x00	; 0
    1352:	92 23       	and	r25, r18
    1354:	99 f0       	breq	.+38     	; 0x137c <__stack+0xa7d>
    1356:	20 91 b8 01 	lds	r18, 0x01B8	; 0x8001b8 <cont_s>
    135a:	30 91 b9 01 	lds	r19, 0x01B9	; 0x8001b9 <cont_s+0x1>
    135e:	f9 01       	movw	r30, r18
    1360:	ee 0f       	add	r30, r30
    1362:	ff 1f       	adc	r31, r31
    1364:	e7 5d       	subi	r30, 0xD7	; 215
    1366:	fe 4f       	sbci	r31, 0xFE	; 254
    1368:	46 e0       	ldi	r20, 0x06	; 6
    136a:	50 e0       	ldi	r21, 0x00	; 0
    136c:	51 83       	std	Z+1, r21	; 0x01
    136e:	40 83       	st	Z, r20
    1370:	2f 5f       	subi	r18, 0xFF	; 255
    1372:	3f 4f       	sbci	r19, 0xFF	; 255
    1374:	30 93 b9 01 	sts	0x01B9, r19	; 0x8001b9 <cont_s+0x1>
    1378:	20 93 b8 01 	sts	0x01B8, r18	; 0x8001b8 <cont_s>
    137c:	91 e0       	ldi	r25, 0x01	; 1
    137e:	87 30       	cpi	r24, 0x07	; 7
    1380:	09 f0       	breq	.+2      	; 0x1384 <__stack+0xa85>
    1382:	90 e0       	ldi	r25, 0x00	; 0
    1384:	21 e0       	ldi	r18, 0x01	; 1
    1386:	40 91 d8 01 	lds	r20, 0x01D8	; 0x8001d8 <flag_a_senha>
    138a:	50 91 d9 01 	lds	r21, 0x01D9	; 0x8001d9 <flag_a_senha+0x1>
    138e:	45 2b       	or	r20, r21
    1390:	09 f0       	breq	.+2      	; 0x1394 <__stack+0xa95>
    1392:	20 e0       	ldi	r18, 0x00	; 0
    1394:	81 e0       	ldi	r24, 0x01	; 1
    1396:	40 91 c2 01 	lds	r20, 0x01C2	; 0x8001c2 <flag_timeout>
    139a:	50 91 c3 01 	lds	r21, 0x01C3	; 0x8001c3 <flag_timeout+0x1>
    139e:	45 2b       	or	r20, r21
    13a0:	09 f0       	breq	.+2      	; 0x13a4 <__stack+0xaa5>
    13a2:	80 e0       	ldi	r24, 0x00	; 0
    13a4:	82 23       	and	r24, r18
    13a6:	99 23       	and	r25, r25
    13a8:	69 f0       	breq	.+26     	; 0x13c4 <__stack+0xac5>
    13aa:	88 23       	and	r24, r24
    13ac:	59 f0       	breq	.+22     	; 0x13c4 <__stack+0xac5>
    13ae:	82 e1       	ldi	r24, 0x12	; 18
    13b0:	80 93 da 01 	sts	0x01DA, r24	; 0x8001da <state>
    13b4:	81 e0       	ldi	r24, 0x01	; 1
    13b6:	90 e0       	ldi	r25, 0x00	; 0
    13b8:	90 93 bf 01 	sts	0x01BF, r25	; 0x8001bf <flag_tat+0x1>
    13bc:	80 93 be 01 	sts	0x01BE, r24	; 0x8001be <flag_tat>
    13c0:	0e 94 16 1b 	call	0x362c	; 0x362c <msg_temp_ativ>
    13c4:	91 e0       	ldi	r25, 0x01	; 1
    13c6:	80 91 da 01 	lds	r24, 0x01DA	; 0x8001da <state>
    13ca:	82 31       	cpi	r24, 0x12	; 18
    13cc:	09 f0       	breq	.+2      	; 0x13d0 <__stack+0xad1>
    13ce:	90 e0       	ldi	r25, 0x00	; 0
    13d0:	81 e0       	ldi	r24, 0x01	; 1
    13d2:	20 91 bc 01 	lds	r18, 0x01BC	; 0x8001bc <cont_t>
    13d6:	30 91 bd 01 	lds	r19, 0x01BD	; 0x8001bd <cont_t+0x1>
    13da:	23 30       	cpi	r18, 0x03	; 3
    13dc:	31 05       	cpc	r19, r1
    13de:	0c f0       	brlt	.+2      	; 0x13e2 <__stack+0xae3>
    13e0:	80 e0       	ldi	r24, 0x00	; 0
    13e2:	89 23       	and	r24, r25
    13e4:	09 f4       	brne	.+2      	; 0x13e8 <__stack+0xae9>
    13e6:	88 c6       	rjmp	.+3344   	; 0x20f8 <__stack+0x17f9>
    13e8:	80 91 ba 01 	lds	r24, 0x01BA	; 0x8001ba <cont_aa>
    13ec:	90 91 bb 01 	lds	r25, 0x01BB	; 0x8001bb <cont_aa+0x1>
    13f0:	fc 01       	movw	r30, r24
    13f2:	ee 0f       	add	r30, r30
    13f4:	ff 1f       	adc	r31, r31
    13f6:	ef 5d       	subi	r30, 0xDF	; 223
    13f8:	fe 4f       	sbci	r31, 0xFE	; 254
    13fa:	26 e0       	ldi	r18, 0x06	; 6
    13fc:	30 e0       	ldi	r19, 0x00	; 0
    13fe:	31 83       	std	Z+1, r19	; 0x01
    1400:	20 83       	st	Z, r18
    1402:	01 96       	adiw	r24, 0x01	; 1
    1404:	90 93 bb 01 	sts	0x01BB, r25	; 0x8001bb <cont_aa+0x1>
    1408:	80 93 ba 01 	sts	0x01BA, r24	; 0x8001ba <cont_aa>
    140c:	75 c6       	rjmp	.+3306   	; 0x20f8 <__stack+0x17f9>
    140e:	80 38       	cpi	r24, 0x80	; 128
    1410:	91 05       	cpc	r25, r1
    1412:	19 f5       	brne	.+70     	; 0x145a <__stack+0xb5b>
    1414:	91 e0       	ldi	r25, 0x01	; 1
    1416:	80 91 da 01 	lds	r24, 0x01DA	; 0x8001da <state>
    141a:	88 30       	cpi	r24, 0x08	; 8
    141c:	09 f0       	breq	.+2      	; 0x1420 <__stack+0xb21>
    141e:	90 e0       	ldi	r25, 0x00	; 0
    1420:	81 e0       	ldi	r24, 0x01	; 1
    1422:	20 91 d6 01 	lds	r18, 0x01D6	; 0x8001d6 <count_senha>
    1426:	30 91 d7 01 	lds	r19, 0x01D7	; 0x8001d7 <count_senha+0x1>
    142a:	24 30       	cpi	r18, 0x04	; 4
    142c:	31 05       	cpc	r19, r1
    142e:	09 f0       	breq	.+2      	; 0x1432 <__stack+0xb33>
    1430:	80 e0       	ldi	r24, 0x00	; 0
    1432:	89 23       	and	r24, r25
    1434:	39 f0       	breq	.+14     	; 0x1444 <__stack+0xb45>
    1436:	8c e0       	ldi	r24, 0x0C	; 12
    1438:	80 93 da 01 	sts	0x01DA, r24	; 0x8001da <state>
    143c:	10 92 d7 01 	sts	0x01D7, r1	; 0x8001d7 <count_senha+0x1>
    1440:	10 92 d6 01 	sts	0x01D6, r1	; 0x8001d6 <count_senha>
    1444:	80 91 da 01 	lds	r24, 0x01DA	; 0x8001da <state>
    1448:	81 30       	cpi	r24, 0x01	; 1
    144a:	09 f0       	breq	.+2      	; 0x144e <__stack+0xb4f>
    144c:	55 c6       	rjmp	.+3242   	; 0x20f8 <__stack+0x17f9>
    144e:	8a e0       	ldi	r24, 0x0A	; 10
    1450:	80 93 da 01 	sts	0x01DA, r24	; 0x8001da <state>
    1454:	0e 94 7e 1c 	call	0x38fc	; 0x38fc <msg_inserir_senha>
    1458:	4f c6       	rjmp	.+3230   	; 0x20f8 <__stack+0x17f9>
    145a:	80 37       	cpi	r24, 0x70	; 112
    145c:	91 05       	cpc	r25, r1
    145e:	09 f0       	breq	.+2      	; 0x1462 <__stack+0xb63>
    1460:	53 c1       	rjmp	.+678    	; 0x1708 <__stack+0xe09>
    1462:	91 e0       	ldi	r25, 0x01	; 1
    1464:	80 91 da 01 	lds	r24, 0x01DA	; 0x8001da <state>
    1468:	88 30       	cpi	r24, 0x08	; 8
    146a:	09 f0       	breq	.+2      	; 0x146e <__stack+0xb6f>
    146c:	90 e0       	ldi	r25, 0x00	; 0
    146e:	81 e0       	ldi	r24, 0x01	; 1
    1470:	20 91 d6 01 	lds	r18, 0x01D6	; 0x8001d6 <count_senha>
    1474:	30 91 d7 01 	lds	r19, 0x01D7	; 0x8001d7 <count_senha+0x1>
    1478:	24 30       	cpi	r18, 0x04	; 4
    147a:	31 05       	cpc	r19, r1
    147c:	0c f0       	brlt	.+2      	; 0x1480 <__stack+0xb81>
    147e:	80 e0       	ldi	r24, 0x00	; 0
    1480:	89 23       	and	r24, r25
    1482:	a9 f0       	breq	.+42     	; 0x14ae <__stack+0xbaf>
    1484:	87 e3       	ldi	r24, 0x37	; 55
    1486:	0e 94 cc 1c 	call	0x3998	; 0x3998 <send_word_lcd>
    148a:	46 e3       	ldi	r20, 0x36	; 54
    148c:	52 e0       	ldi	r21, 0x02	; 2
    148e:	60 e0       	ldi	r22, 0x00	; 0
    1490:	80 91 d6 01 	lds	r24, 0x01D6	; 0x8001d6 <count_senha>
    1494:	90 91 d7 01 	lds	r25, 0x01D7	; 0x8001d7 <count_senha+0x1>
    1498:	0e 94 59 1e 	call	0x3cb2	; 0x3cb2 <insert_senha>
    149c:	80 91 d6 01 	lds	r24, 0x01D6	; 0x8001d6 <count_senha>
    14a0:	90 91 d7 01 	lds	r25, 0x01D7	; 0x8001d7 <count_senha+0x1>
    14a4:	01 96       	adiw	r24, 0x01	; 1
    14a6:	90 93 d7 01 	sts	0x01D7, r25	; 0x8001d7 <count_senha+0x1>
    14aa:	80 93 d6 01 	sts	0x01D6, r24	; 0x8001d6 <count_senha>
    14ae:	91 e0       	ldi	r25, 0x01	; 1
    14b0:	80 91 da 01 	lds	r24, 0x01DA	; 0x8001da <state>
    14b4:	89 30       	cpi	r24, 0x09	; 9
    14b6:	09 f0       	breq	.+2      	; 0x14ba <__stack+0xbbb>
    14b8:	90 e0       	ldi	r25, 0x00	; 0
    14ba:	81 e0       	ldi	r24, 0x01	; 1
    14bc:	20 91 d6 01 	lds	r18, 0x01D6	; 0x8001d6 <count_senha>
    14c0:	30 91 d7 01 	lds	r19, 0x01D7	; 0x8001d7 <count_senha+0x1>
    14c4:	24 30       	cpi	r18, 0x04	; 4
    14c6:	31 05       	cpc	r19, r1
    14c8:	0c f0       	brlt	.+2      	; 0x14cc <__stack+0xbcd>
    14ca:	80 e0       	ldi	r24, 0x00	; 0
    14cc:	89 23       	and	r24, r25
    14ce:	a9 f0       	breq	.+42     	; 0x14fa <__stack+0xbfb>
    14d0:	87 e3       	ldi	r24, 0x37	; 55
    14d2:	0e 94 cc 1c 	call	0x3998	; 0x3998 <send_word_lcd>
    14d6:	46 e3       	ldi	r20, 0x36	; 54
    14d8:	52 e0       	ldi	r21, 0x02	; 2
    14da:	60 e0       	ldi	r22, 0x00	; 0
    14dc:	80 91 d6 01 	lds	r24, 0x01D6	; 0x8001d6 <count_senha>
    14e0:	90 91 d7 01 	lds	r25, 0x01D7	; 0x8001d7 <count_senha+0x1>
    14e4:	0e 94 2e 1c 	call	0x385c	; 0x385c <senha_arm>
    14e8:	80 91 d6 01 	lds	r24, 0x01D6	; 0x8001d6 <count_senha>
    14ec:	90 91 d7 01 	lds	r25, 0x01D7	; 0x8001d7 <count_senha+0x1>
    14f0:	01 96       	adiw	r24, 0x01	; 1
    14f2:	90 93 d7 01 	sts	0x01D7, r25	; 0x8001d7 <count_senha+0x1>
    14f6:	80 93 d6 01 	sts	0x01D6, r24	; 0x8001d6 <count_senha>
    14fa:	91 e0       	ldi	r25, 0x01	; 1
    14fc:	80 91 da 01 	lds	r24, 0x01DA	; 0x8001da <state>
    1500:	8a 30       	cpi	r24, 0x0A	; 10
    1502:	09 f0       	breq	.+2      	; 0x1506 <__stack+0xc07>
    1504:	90 e0       	ldi	r25, 0x00	; 0
    1506:	81 e0       	ldi	r24, 0x01	; 1
    1508:	20 91 d6 01 	lds	r18, 0x01D6	; 0x8001d6 <count_senha>
    150c:	30 91 d7 01 	lds	r19, 0x01D7	; 0x8001d7 <count_senha+0x1>
    1510:	24 30       	cpi	r18, 0x04	; 4
    1512:	31 05       	cpc	r19, r1
    1514:	0c f0       	brlt	.+2      	; 0x1518 <__stack+0xc19>
    1516:	80 e0       	ldi	r24, 0x00	; 0
    1518:	89 23       	and	r24, r25
    151a:	a9 f0       	breq	.+42     	; 0x1546 <__stack+0xc47>
    151c:	87 e3       	ldi	r24, 0x37	; 55
    151e:	0e 94 cc 1c 	call	0x3998	; 0x3998 <send_word_lcd>
    1522:	46 e3       	ldi	r20, 0x36	; 54
    1524:	52 e0       	ldi	r21, 0x02	; 2
    1526:	60 e0       	ldi	r22, 0x00	; 0
    1528:	80 91 d6 01 	lds	r24, 0x01D6	; 0x8001d6 <count_senha>
    152c:	90 91 d7 01 	lds	r25, 0x01D7	; 0x8001d7 <count_senha+0x1>
    1530:	0e 94 59 1e 	call	0x3cb2	; 0x3cb2 <insert_senha>
    1534:	80 91 d6 01 	lds	r24, 0x01D6	; 0x8001d6 <count_senha>
    1538:	90 91 d7 01 	lds	r25, 0x01D7	; 0x8001d7 <count_senha+0x1>
    153c:	01 96       	adiw	r24, 0x01	; 1
    153e:	90 93 d7 01 	sts	0x01D7, r25	; 0x8001d7 <count_senha+0x1>
    1542:	80 93 d6 01 	sts	0x01D6, r24	; 0x8001d6 <count_senha>
    1546:	91 e0       	ldi	r25, 0x01	; 1
    1548:	80 91 da 01 	lds	r24, 0x01DA	; 0x8001da <state>
    154c:	8b 30       	cpi	r24, 0x0B	; 11
    154e:	09 f0       	breq	.+2      	; 0x1552 <__stack+0xc53>
    1550:	90 e0       	ldi	r25, 0x00	; 0
    1552:	81 e0       	ldi	r24, 0x01	; 1
    1554:	20 91 d6 01 	lds	r18, 0x01D6	; 0x8001d6 <count_senha>
    1558:	30 91 d7 01 	lds	r19, 0x01D7	; 0x8001d7 <count_senha+0x1>
    155c:	24 30       	cpi	r18, 0x04	; 4
    155e:	31 05       	cpc	r19, r1
    1560:	0c f0       	brlt	.+2      	; 0x1564 <__stack+0xc65>
    1562:	80 e0       	ldi	r24, 0x00	; 0
    1564:	89 23       	and	r24, r25
    1566:	a9 f0       	breq	.+42     	; 0x1592 <__stack+0xc93>
    1568:	87 e3       	ldi	r24, 0x37	; 55
    156a:	0e 94 cc 1c 	call	0x3998	; 0x3998 <send_word_lcd>
    156e:	44 e3       	ldi	r20, 0x34	; 52
    1570:	52 e0       	ldi	r21, 0x02	; 2
    1572:	60 e0       	ldi	r22, 0x00	; 0
    1574:	80 91 d6 01 	lds	r24, 0x01D6	; 0x8001d6 <count_senha>
    1578:	90 91 d7 01 	lds	r25, 0x01D7	; 0x8001d7 <count_senha+0x1>
    157c:	0e 94 59 1e 	call	0x3cb2	; 0x3cb2 <insert_senha>
    1580:	80 91 d6 01 	lds	r24, 0x01D6	; 0x8001d6 <count_senha>
    1584:	90 91 d7 01 	lds	r25, 0x01D7	; 0x8001d7 <count_senha+0x1>
    1588:	01 96       	adiw	r24, 0x01	; 1
    158a:	90 93 d7 01 	sts	0x01D7, r25	; 0x8001d7 <count_senha+0x1>
    158e:	80 93 d6 01 	sts	0x01D6, r24	; 0x8001d6 <count_senha>
    1592:	91 e0       	ldi	r25, 0x01	; 1
    1594:	80 91 da 01 	lds	r24, 0x01DA	; 0x8001da <state>
    1598:	8f 30       	cpi	r24, 0x0F	; 15
    159a:	09 f0       	breq	.+2      	; 0x159e <__stack+0xc9f>
    159c:	90 e0       	ldi	r25, 0x00	; 0
    159e:	81 e0       	ldi	r24, 0x01	; 1
    15a0:	20 91 d0 01 	lds	r18, 0x01D0	; 0x8001d0 <flag_sensor>
    15a4:	30 91 d1 01 	lds	r19, 0x01D1	; 0x8001d1 <flag_sensor+0x1>
    15a8:	23 2b       	or	r18, r19
    15aa:	09 f0       	breq	.+2      	; 0x15ae <__stack+0xcaf>
    15ac:	80 e0       	ldi	r24, 0x00	; 0
    15ae:	89 23       	and	r24, r25
    15b0:	21 f0       	breq	.+8      	; 0x15ba <__stack+0xcbb>
    15b2:	87 e0       	ldi	r24, 0x07	; 7
    15b4:	90 e0       	ldi	r25, 0x00	; 0
    15b6:	0e 94 d6 16 	call	0x2dac	; 0x2dac <hab_sensor>
    15ba:	90 91 da 01 	lds	r25, 0x01DA	; 0x8001da <state>
    15be:	21 e0       	ldi	r18, 0x01	; 1
    15c0:	91 31       	cpi	r25, 0x11	; 17
    15c2:	09 f0       	breq	.+2      	; 0x15c6 <__stack+0xcc7>
    15c4:	20 e0       	ldi	r18, 0x00	; 0
    15c6:	31 e0       	ldi	r19, 0x01	; 1
    15c8:	40 91 c8 01 	lds	r20, 0x01C8	; 0x8001c8 <flag_z1>
    15cc:	50 91 c9 01 	lds	r21, 0x01C9	; 0x8001c9 <flag_z1+0x1>
    15d0:	45 2b       	or	r20, r21
    15d2:	09 f0       	breq	.+2      	; 0x15d6 <__stack+0xcd7>
    15d4:	30 e0       	ldi	r19, 0x00	; 0
    15d6:	81 e0       	ldi	r24, 0x01	; 1
    15d8:	40 91 ca 01 	lds	r20, 0x01CA	; 0x8001ca <flag_z>
    15dc:	50 91 cb 01 	lds	r21, 0x01CB	; 0x8001cb <flag_z+0x1>
    15e0:	45 2b       	or	r20, r21
    15e2:	09 f0       	breq	.+2      	; 0x15e6 <__stack+0xce7>
    15e4:	80 e0       	ldi	r24, 0x00	; 0
    15e6:	83 23       	and	r24, r19
    15e8:	22 23       	and	r18, r18
    15ea:	71 f0       	breq	.+28     	; 0x1608 <__stack+0xd09>
    15ec:	88 23       	and	r24, r24
    15ee:	61 f0       	breq	.+24     	; 0x1608 <__stack+0xd09>
    15f0:	27 e0       	ldi	r18, 0x07	; 7
    15f2:	30 e0       	ldi	r19, 0x00	; 0
    15f4:	30 93 01 01 	sts	0x0101, r19	; 0x800101 <__DATA_REGION_ORIGIN__+0x1>
    15f8:	20 93 00 01 	sts	0x0100, r18	; 0x800100 <__DATA_REGION_ORIGIN__>
    15fc:	21 e0       	ldi	r18, 0x01	; 1
    15fe:	30 e0       	ldi	r19, 0x00	; 0
    1600:	30 93 c9 01 	sts	0x01C9, r19	; 0x8001c9 <flag_z1+0x1>
    1604:	20 93 c8 01 	sts	0x01C8, r18	; 0x8001c8 <flag_z1>
    1608:	20 91 bc 01 	lds	r18, 0x01BC	; 0x8001bc <cont_t>
    160c:	30 91 bd 01 	lds	r19, 0x01BD	; 0x8001bd <cont_t+0x1>
    1610:	41 e0       	ldi	r20, 0x01	; 1
    1612:	93 31       	cpi	r25, 0x13	; 19
    1614:	09 f0       	breq	.+2      	; 0x1618 <__stack+0xd19>
    1616:	40 e0       	ldi	r20, 0x00	; 0
    1618:	81 e0       	ldi	r24, 0x01	; 1
    161a:	22 30       	cpi	r18, 0x02	; 2
    161c:	31 05       	cpc	r19, r1
    161e:	0c f0       	brlt	.+2      	; 0x1622 <__stack+0xd23>
    1620:	80 e0       	ldi	r24, 0x00	; 0
    1622:	84 23       	and	r24, r20
    1624:	79 f0       	breq	.+30     	; 0x1644 <__stack+0xd45>
    1626:	f9 01       	movw	r30, r18
    1628:	ee 0f       	add	r30, r30
    162a:	ff 1f       	adc	r31, r31
    162c:	e5 5f       	subi	r30, 0xF5	; 245
    162e:	fe 4f       	sbci	r31, 0xFE	; 254
    1630:	47 e0       	ldi	r20, 0x07	; 7
    1632:	50 e0       	ldi	r21, 0x00	; 0
    1634:	51 83       	std	Z+1, r21	; 0x01
    1636:	40 83       	st	Z, r20
    1638:	2f 5f       	subi	r18, 0xFF	; 255
    163a:	3f 4f       	sbci	r19, 0xFF	; 255
    163c:	30 93 bd 01 	sts	0x01BD, r19	; 0x8001bd <cont_t+0x1>
    1640:	20 93 bc 01 	sts	0x01BC, r18	; 0x8001bc <cont_t>
    1644:	21 e0       	ldi	r18, 0x01	; 1
    1646:	97 30       	cpi	r25, 0x07	; 7
    1648:	09 f0       	breq	.+2      	; 0x164c <__stack+0xd4d>
    164a:	20 e0       	ldi	r18, 0x00	; 0
    164c:	91 e0       	ldi	r25, 0x01	; 1
    164e:	40 91 d8 01 	lds	r20, 0x01D8	; 0x8001d8 <flag_a_senha>
    1652:	50 91 d9 01 	lds	r21, 0x01D9	; 0x8001d9 <flag_a_senha+0x1>
    1656:	45 2b       	or	r20, r21
    1658:	09 f0       	breq	.+2      	; 0x165c <__stack+0xd5d>
    165a:	90 e0       	ldi	r25, 0x00	; 0
    165c:	81 e0       	ldi	r24, 0x01	; 1
    165e:	40 91 c2 01 	lds	r20, 0x01C2	; 0x8001c2 <flag_timeout>
    1662:	50 91 c3 01 	lds	r21, 0x01C3	; 0x8001c3 <flag_timeout+0x1>
    1666:	45 2b       	or	r20, r21
    1668:	09 f0       	breq	.+2      	; 0x166c <__stack+0xd6d>
    166a:	80 e0       	ldi	r24, 0x00	; 0
    166c:	89 23       	and	r24, r25
    166e:	22 23       	and	r18, r18
    1670:	69 f0       	breq	.+26     	; 0x168c <__stack+0xd8d>
    1672:	88 23       	and	r24, r24
    1674:	59 f0       	breq	.+22     	; 0x168c <__stack+0xd8d>
    1676:	83 e1       	ldi	r24, 0x13	; 19
    1678:	80 93 da 01 	sts	0x01DA, r24	; 0x8001da <state>
    167c:	81 e0       	ldi	r24, 0x01	; 1
    167e:	90 e0       	ldi	r25, 0x00	; 0
    1680:	90 93 c3 01 	sts	0x01C3, r25	; 0x8001c3 <flag_timeout+0x1>
    1684:	80 93 c2 01 	sts	0x01C2, r24	; 0x8001c2 <flag_timeout>
    1688:	0e 94 b0 1a 	call	0x3560	; 0x3560 <msg_ajusteTout>
    168c:	20 91 da 01 	lds	r18, 0x01DA	; 0x8001da <state>
    1690:	81 e0       	ldi	r24, 0x01	; 1
    1692:	40 91 bc 01 	lds	r20, 0x01BC	; 0x8001bc <cont_t>
    1696:	50 91 bd 01 	lds	r21, 0x01BD	; 0x8001bd <cont_t+0x1>
    169a:	43 30       	cpi	r20, 0x03	; 3
    169c:	51 05       	cpc	r21, r1
    169e:	0c f0       	brlt	.+2      	; 0x16a2 <__stack+0xda3>
    16a0:	80 e0       	ldi	r24, 0x00	; 0
    16a2:	91 e0       	ldi	r25, 0x01	; 1
    16a4:	24 31       	cpi	r18, 0x14	; 20
    16a6:	09 f0       	breq	.+2      	; 0x16aa <__stack+0xdab>
    16a8:	90 e0       	ldi	r25, 0x00	; 0
    16aa:	98 23       	and	r25, r24
    16ac:	99 f0       	breq	.+38     	; 0x16d4 <__stack+0xdd5>
    16ae:	40 91 b8 01 	lds	r20, 0x01B8	; 0x8001b8 <cont_s>
    16b2:	50 91 b9 01 	lds	r21, 0x01B9	; 0x8001b9 <cont_s+0x1>
    16b6:	fa 01       	movw	r30, r20
    16b8:	ee 0f       	add	r30, r30
    16ba:	ff 1f       	adc	r31, r31
    16bc:	e7 5d       	subi	r30, 0xD7	; 215
    16be:	fe 4f       	sbci	r31, 0xFE	; 254
    16c0:	67 e0       	ldi	r22, 0x07	; 7
    16c2:	70 e0       	ldi	r23, 0x00	; 0
    16c4:	71 83       	std	Z+1, r23	; 0x01
    16c6:	60 83       	st	Z, r22
    16c8:	4f 5f       	subi	r20, 0xFF	; 255
    16ca:	5f 4f       	sbci	r21, 0xFF	; 255
    16cc:	50 93 b9 01 	sts	0x01B9, r21	; 0x8001b9 <cont_s+0x1>
    16d0:	40 93 b8 01 	sts	0x01B8, r20	; 0x8001b8 <cont_s>
    16d4:	91 e0       	ldi	r25, 0x01	; 1
    16d6:	22 31       	cpi	r18, 0x12	; 18
    16d8:	09 f0       	breq	.+2      	; 0x16dc <__stack+0xddd>
    16da:	90 e0       	ldi	r25, 0x00	; 0
    16dc:	89 23       	and	r24, r25
    16de:	09 f4       	brne	.+2      	; 0x16e2 <__stack+0xde3>
    16e0:	0b c5       	rjmp	.+2582   	; 0x20f8 <__stack+0x17f9>
    16e2:	80 91 ba 01 	lds	r24, 0x01BA	; 0x8001ba <cont_aa>
    16e6:	90 91 bb 01 	lds	r25, 0x01BB	; 0x8001bb <cont_aa+0x1>
    16ea:	fc 01       	movw	r30, r24
    16ec:	ee 0f       	add	r30, r30
    16ee:	ff 1f       	adc	r31, r31
    16f0:	ef 5d       	subi	r30, 0xDF	; 223
    16f2:	fe 4f       	sbci	r31, 0xFE	; 254
    16f4:	27 e0       	ldi	r18, 0x07	; 7
    16f6:	30 e0       	ldi	r19, 0x00	; 0
    16f8:	31 83       	std	Z+1, r19	; 0x01
    16fa:	20 83       	st	Z, r18
    16fc:	01 96       	adiw	r24, 0x01	; 1
    16fe:	90 93 bb 01 	sts	0x01BB, r25	; 0x8001bb <cont_aa+0x1>
    1702:	80 93 ba 01 	sts	0x01BA, r24	; 0x8001ba <cont_aa>
    1706:	f8 c4       	rjmp	.+2544   	; 0x20f8 <__stack+0x17f9>
    1708:	80 36       	cpi	r24, 0x60	; 96
    170a:	91 05       	cpc	r25, r1
    170c:	09 f0       	breq	.+2      	; 0x1710 <__stack+0xe11>
    170e:	23 c1       	rjmp	.+582    	; 0x1956 <__stack+0x1057>
    1710:	91 e0       	ldi	r25, 0x01	; 1
    1712:	80 91 da 01 	lds	r24, 0x01DA	; 0x8001da <state>
    1716:	88 30       	cpi	r24, 0x08	; 8
    1718:	09 f0       	breq	.+2      	; 0x171c <__stack+0xe1d>
    171a:	90 e0       	ldi	r25, 0x00	; 0
    171c:	81 e0       	ldi	r24, 0x01	; 1
    171e:	20 91 d6 01 	lds	r18, 0x01D6	; 0x8001d6 <count_senha>
    1722:	30 91 d7 01 	lds	r19, 0x01D7	; 0x8001d7 <count_senha+0x1>
    1726:	24 30       	cpi	r18, 0x04	; 4
    1728:	31 05       	cpc	r19, r1
    172a:	0c f0       	brlt	.+2      	; 0x172e <__stack+0xe2f>
    172c:	80 e0       	ldi	r24, 0x00	; 0
    172e:	89 23       	and	r24, r25
    1730:	a9 f0       	breq	.+42     	; 0x175c <__stack+0xe5d>
    1732:	88 e3       	ldi	r24, 0x38	; 56
    1734:	0e 94 cc 1c 	call	0x3998	; 0x3998 <send_word_lcd>
    1738:	48 e3       	ldi	r20, 0x38	; 56
    173a:	52 e0       	ldi	r21, 0x02	; 2
    173c:	60 e0       	ldi	r22, 0x00	; 0
    173e:	80 91 d6 01 	lds	r24, 0x01D6	; 0x8001d6 <count_senha>
    1742:	90 91 d7 01 	lds	r25, 0x01D7	; 0x8001d7 <count_senha+0x1>
    1746:	0e 94 59 1e 	call	0x3cb2	; 0x3cb2 <insert_senha>
    174a:	80 91 d6 01 	lds	r24, 0x01D6	; 0x8001d6 <count_senha>
    174e:	90 91 d7 01 	lds	r25, 0x01D7	; 0x8001d7 <count_senha+0x1>
    1752:	01 96       	adiw	r24, 0x01	; 1
    1754:	90 93 d7 01 	sts	0x01D7, r25	; 0x8001d7 <count_senha+0x1>
    1758:	80 93 d6 01 	sts	0x01D6, r24	; 0x8001d6 <count_senha>
    175c:	91 e0       	ldi	r25, 0x01	; 1
    175e:	80 91 da 01 	lds	r24, 0x01DA	; 0x8001da <state>
    1762:	89 30       	cpi	r24, 0x09	; 9
    1764:	09 f0       	breq	.+2      	; 0x1768 <__stack+0xe69>
    1766:	90 e0       	ldi	r25, 0x00	; 0
    1768:	81 e0       	ldi	r24, 0x01	; 1
    176a:	20 91 d6 01 	lds	r18, 0x01D6	; 0x8001d6 <count_senha>
    176e:	30 91 d7 01 	lds	r19, 0x01D7	; 0x8001d7 <count_senha+0x1>
    1772:	24 30       	cpi	r18, 0x04	; 4
    1774:	31 05       	cpc	r19, r1
    1776:	0c f0       	brlt	.+2      	; 0x177a <__stack+0xe7b>
    1778:	80 e0       	ldi	r24, 0x00	; 0
    177a:	89 23       	and	r24, r25
    177c:	a9 f0       	breq	.+42     	; 0x17a8 <__stack+0xea9>
    177e:	88 e3       	ldi	r24, 0x38	; 56
    1780:	0e 94 cc 1c 	call	0x3998	; 0x3998 <send_word_lcd>
    1784:	48 e3       	ldi	r20, 0x38	; 56
    1786:	52 e0       	ldi	r21, 0x02	; 2
    1788:	60 e0       	ldi	r22, 0x00	; 0
    178a:	80 91 d6 01 	lds	r24, 0x01D6	; 0x8001d6 <count_senha>
    178e:	90 91 d7 01 	lds	r25, 0x01D7	; 0x8001d7 <count_senha+0x1>
    1792:	0e 94 2e 1c 	call	0x385c	; 0x385c <senha_arm>
    1796:	80 91 d6 01 	lds	r24, 0x01D6	; 0x8001d6 <count_senha>
    179a:	90 91 d7 01 	lds	r25, 0x01D7	; 0x8001d7 <count_senha+0x1>
    179e:	01 96       	adiw	r24, 0x01	; 1
    17a0:	90 93 d7 01 	sts	0x01D7, r25	; 0x8001d7 <count_senha+0x1>
    17a4:	80 93 d6 01 	sts	0x01D6, r24	; 0x8001d6 <count_senha>
    17a8:	91 e0       	ldi	r25, 0x01	; 1
    17aa:	80 91 da 01 	lds	r24, 0x01DA	; 0x8001da <state>
    17ae:	8a 30       	cpi	r24, 0x0A	; 10
    17b0:	09 f0       	breq	.+2      	; 0x17b4 <__stack+0xeb5>
    17b2:	90 e0       	ldi	r25, 0x00	; 0
    17b4:	81 e0       	ldi	r24, 0x01	; 1
    17b6:	20 91 d6 01 	lds	r18, 0x01D6	; 0x8001d6 <count_senha>
    17ba:	30 91 d7 01 	lds	r19, 0x01D7	; 0x8001d7 <count_senha+0x1>
    17be:	24 30       	cpi	r18, 0x04	; 4
    17c0:	31 05       	cpc	r19, r1
    17c2:	0c f0       	brlt	.+2      	; 0x17c6 <__stack+0xec7>
    17c4:	80 e0       	ldi	r24, 0x00	; 0
    17c6:	89 23       	and	r24, r25
    17c8:	a9 f0       	breq	.+42     	; 0x17f4 <__stack+0xef5>
    17ca:	88 e3       	ldi	r24, 0x38	; 56
    17cc:	0e 94 cc 1c 	call	0x3998	; 0x3998 <send_word_lcd>
    17d0:	48 e3       	ldi	r20, 0x38	; 56
    17d2:	52 e0       	ldi	r21, 0x02	; 2
    17d4:	60 e0       	ldi	r22, 0x00	; 0
    17d6:	80 91 d6 01 	lds	r24, 0x01D6	; 0x8001d6 <count_senha>
    17da:	90 91 d7 01 	lds	r25, 0x01D7	; 0x8001d7 <count_senha+0x1>
    17de:	0e 94 59 1e 	call	0x3cb2	; 0x3cb2 <insert_senha>
    17e2:	80 91 d6 01 	lds	r24, 0x01D6	; 0x8001d6 <count_senha>
    17e6:	90 91 d7 01 	lds	r25, 0x01D7	; 0x8001d7 <count_senha+0x1>
    17ea:	01 96       	adiw	r24, 0x01	; 1
    17ec:	90 93 d7 01 	sts	0x01D7, r25	; 0x8001d7 <count_senha+0x1>
    17f0:	80 93 d6 01 	sts	0x01D6, r24	; 0x8001d6 <count_senha>
    17f4:	91 e0       	ldi	r25, 0x01	; 1
    17f6:	80 91 da 01 	lds	r24, 0x01DA	; 0x8001da <state>
    17fa:	8b 30       	cpi	r24, 0x0B	; 11
    17fc:	09 f0       	breq	.+2      	; 0x1800 <__stack+0xf01>
    17fe:	90 e0       	ldi	r25, 0x00	; 0
    1800:	81 e0       	ldi	r24, 0x01	; 1
    1802:	20 91 d6 01 	lds	r18, 0x01D6	; 0x8001d6 <count_senha>
    1806:	30 91 d7 01 	lds	r19, 0x01D7	; 0x8001d7 <count_senha+0x1>
    180a:	24 30       	cpi	r18, 0x04	; 4
    180c:	31 05       	cpc	r19, r1
    180e:	0c f0       	brlt	.+2      	; 0x1812 <__stack+0xf13>
    1810:	80 e0       	ldi	r24, 0x00	; 0
    1812:	89 23       	and	r24, r25
    1814:	a9 f0       	breq	.+42     	; 0x1840 <__stack+0xf41>
    1816:	88 e3       	ldi	r24, 0x38	; 56
    1818:	0e 94 cc 1c 	call	0x3998	; 0x3998 <send_word_lcd>
    181c:	44 e3       	ldi	r20, 0x34	; 52
    181e:	52 e0       	ldi	r21, 0x02	; 2
    1820:	60 e0       	ldi	r22, 0x00	; 0
    1822:	80 91 d6 01 	lds	r24, 0x01D6	; 0x8001d6 <count_senha>
    1826:	90 91 d7 01 	lds	r25, 0x01D7	; 0x8001d7 <count_senha+0x1>
    182a:	0e 94 59 1e 	call	0x3cb2	; 0x3cb2 <insert_senha>
    182e:	80 91 d6 01 	lds	r24, 0x01D6	; 0x8001d6 <count_senha>
    1832:	90 91 d7 01 	lds	r25, 0x01D7	; 0x8001d7 <count_senha+0x1>
    1836:	01 96       	adiw	r24, 0x01	; 1
    1838:	90 93 d7 01 	sts	0x01D7, r25	; 0x8001d7 <count_senha+0x1>
    183c:	80 93 d6 01 	sts	0x01D6, r24	; 0x8001d6 <count_senha>
    1840:	90 91 da 01 	lds	r25, 0x01DA	; 0x8001da <state>
    1844:	20 91 bc 01 	lds	r18, 0x01BC	; 0x8001bc <cont_t>
    1848:	30 91 bd 01 	lds	r19, 0x01BD	; 0x8001bd <cont_t+0x1>
    184c:	41 e0       	ldi	r20, 0x01	; 1
    184e:	93 31       	cpi	r25, 0x13	; 19
    1850:	09 f0       	breq	.+2      	; 0x1854 <__stack+0xf55>
    1852:	40 e0       	ldi	r20, 0x00	; 0
    1854:	81 e0       	ldi	r24, 0x01	; 1
    1856:	22 30       	cpi	r18, 0x02	; 2
    1858:	31 05       	cpc	r19, r1
    185a:	0c f0       	brlt	.+2      	; 0x185e <__stack+0xf5f>
    185c:	80 e0       	ldi	r24, 0x00	; 0
    185e:	84 23       	and	r24, r20
    1860:	79 f0       	breq	.+30     	; 0x1880 <__stack+0xf81>
    1862:	f9 01       	movw	r30, r18
    1864:	ee 0f       	add	r30, r30
    1866:	ff 1f       	adc	r31, r31
    1868:	e5 5f       	subi	r30, 0xF5	; 245
    186a:	fe 4f       	sbci	r31, 0xFE	; 254
    186c:	48 e0       	ldi	r20, 0x08	; 8
    186e:	50 e0       	ldi	r21, 0x00	; 0
    1870:	51 83       	std	Z+1, r21	; 0x01
    1872:	40 83       	st	Z, r20
    1874:	2f 5f       	subi	r18, 0xFF	; 255
    1876:	3f 4f       	sbci	r19, 0xFF	; 255
    1878:	30 93 bd 01 	sts	0x01BD, r19	; 0x8001bd <cont_t+0x1>
    187c:	20 93 bc 01 	sts	0x01BC, r18	; 0x8001bc <cont_t>
    1880:	21 e0       	ldi	r18, 0x01	; 1
    1882:	40 91 bc 01 	lds	r20, 0x01BC	; 0x8001bc <cont_t>
    1886:	50 91 bd 01 	lds	r21, 0x01BD	; 0x8001bd <cont_t+0x1>
    188a:	43 30       	cpi	r20, 0x03	; 3
    188c:	51 05       	cpc	r21, r1
    188e:	0c f0       	brlt	.+2      	; 0x1892 <__stack+0xf93>
    1890:	20 e0       	ldi	r18, 0x00	; 0
    1892:	81 e0       	ldi	r24, 0x01	; 1
    1894:	94 31       	cpi	r25, 0x14	; 20
    1896:	09 f0       	breq	.+2      	; 0x189a <__stack+0xf9b>
    1898:	80 e0       	ldi	r24, 0x00	; 0
    189a:	82 23       	and	r24, r18
    189c:	99 f0       	breq	.+38     	; 0x18c4 <__stack+0xfc5>
    189e:	20 91 b8 01 	lds	r18, 0x01B8	; 0x8001b8 <cont_s>
    18a2:	30 91 b9 01 	lds	r19, 0x01B9	; 0x8001b9 <cont_s+0x1>
    18a6:	f9 01       	movw	r30, r18
    18a8:	ee 0f       	add	r30, r30
    18aa:	ff 1f       	adc	r31, r31
    18ac:	e7 5d       	subi	r30, 0xD7	; 215
    18ae:	fe 4f       	sbci	r31, 0xFE	; 254
    18b0:	48 e0       	ldi	r20, 0x08	; 8
    18b2:	50 e0       	ldi	r21, 0x00	; 0
    18b4:	51 83       	std	Z+1, r21	; 0x01
    18b6:	40 83       	st	Z, r20
    18b8:	2f 5f       	subi	r18, 0xFF	; 255
    18ba:	3f 4f       	sbci	r19, 0xFF	; 255
    18bc:	30 93 b9 01 	sts	0x01B9, r19	; 0x8001b9 <cont_s+0x1>
    18c0:	20 93 b8 01 	sts	0x01B8, r18	; 0x8001b8 <cont_s>
    18c4:	21 e0       	ldi	r18, 0x01	; 1
    18c6:	97 30       	cpi	r25, 0x07	; 7
    18c8:	09 f0       	breq	.+2      	; 0x18cc <__stack+0xfcd>
    18ca:	20 e0       	ldi	r18, 0x00	; 0
    18cc:	91 e0       	ldi	r25, 0x01	; 1
    18ce:	40 91 d8 01 	lds	r20, 0x01D8	; 0x8001d8 <flag_a_senha>
    18d2:	50 91 d9 01 	lds	r21, 0x01D9	; 0x8001d9 <flag_a_senha+0x1>
    18d6:	45 2b       	or	r20, r21
    18d8:	09 f0       	breq	.+2      	; 0x18dc <__stack+0xfdd>
    18da:	90 e0       	ldi	r25, 0x00	; 0
    18dc:	81 e0       	ldi	r24, 0x01	; 1
    18de:	40 91 c2 01 	lds	r20, 0x01C2	; 0x8001c2 <flag_timeout>
    18e2:	50 91 c3 01 	lds	r21, 0x01C3	; 0x8001c3 <flag_timeout+0x1>
    18e6:	45 2b       	or	r20, r21
    18e8:	09 f0       	breq	.+2      	; 0x18ec <__stack+0xfed>
    18ea:	80 e0       	ldi	r24, 0x00	; 0
    18ec:	89 23       	and	r24, r25
    18ee:	22 23       	and	r18, r18
    18f0:	69 f0       	breq	.+26     	; 0x190c <__stack+0x100d>
    18f2:	88 23       	and	r24, r24
    18f4:	59 f0       	breq	.+22     	; 0x190c <__stack+0x100d>
    18f6:	84 e1       	ldi	r24, 0x14	; 20
    18f8:	80 93 da 01 	sts	0x01DA, r24	; 0x8001da <state>
    18fc:	81 e0       	ldi	r24, 0x01	; 1
    18fe:	90 e0       	ldi	r25, 0x00	; 0
    1900:	90 93 c1 01 	sts	0x01C1, r25	; 0x8001c1 <flag_tsirene+0x1>
    1904:	80 93 c0 01 	sts	0x01C0, r24	; 0x8001c0 <flag_tsirene>
    1908:	0e 94 e3 1a 	call	0x35c6	; 0x35c6 <msg_time_sirene>
    190c:	91 e0       	ldi	r25, 0x01	; 1
    190e:	80 91 da 01 	lds	r24, 0x01DA	; 0x8001da <state>
    1912:	82 31       	cpi	r24, 0x12	; 18
    1914:	09 f0       	breq	.+2      	; 0x1918 <__stack+0x1019>
    1916:	90 e0       	ldi	r25, 0x00	; 0
    1918:	81 e0       	ldi	r24, 0x01	; 1
    191a:	20 91 bc 01 	lds	r18, 0x01BC	; 0x8001bc <cont_t>
    191e:	30 91 bd 01 	lds	r19, 0x01BD	; 0x8001bd <cont_t+0x1>
    1922:	23 30       	cpi	r18, 0x03	; 3
    1924:	31 05       	cpc	r19, r1
    1926:	0c f0       	brlt	.+2      	; 0x192a <__stack+0x102b>
    1928:	80 e0       	ldi	r24, 0x00	; 0
    192a:	89 23       	and	r24, r25
    192c:	09 f4       	brne	.+2      	; 0x1930 <__stack+0x1031>
    192e:	e4 c3       	rjmp	.+1992   	; 0x20f8 <__stack+0x17f9>
    1930:	80 91 ba 01 	lds	r24, 0x01BA	; 0x8001ba <cont_aa>
    1934:	90 91 bb 01 	lds	r25, 0x01BB	; 0x8001bb <cont_aa+0x1>
    1938:	fc 01       	movw	r30, r24
    193a:	ee 0f       	add	r30, r30
    193c:	ff 1f       	adc	r31, r31
    193e:	ef 5d       	subi	r30, 0xDF	; 223
    1940:	fe 4f       	sbci	r31, 0xFE	; 254
    1942:	28 e0       	ldi	r18, 0x08	; 8
    1944:	30 e0       	ldi	r19, 0x00	; 0
    1946:	31 83       	std	Z+1, r19	; 0x01
    1948:	20 83       	st	Z, r18
    194a:	01 96       	adiw	r24, 0x01	; 1
    194c:	90 93 bb 01 	sts	0x01BB, r25	; 0x8001bb <cont_aa+0x1>
    1950:	80 93 ba 01 	sts	0x01BA, r24	; 0x8001ba <cont_aa>
    1954:	d1 c3       	rjmp	.+1954   	; 0x20f8 <__stack+0x17f9>
    1956:	80 35       	cpi	r24, 0x50	; 80
    1958:	91 05       	cpc	r25, r1
    195a:	09 f0       	breq	.+2      	; 0x195e <__stack+0x105f>
    195c:	f4 c0       	rjmp	.+488    	; 0x1b46 <__stack+0x1247>
    195e:	91 e0       	ldi	r25, 0x01	; 1
    1960:	80 91 da 01 	lds	r24, 0x01DA	; 0x8001da <state>
    1964:	88 30       	cpi	r24, 0x08	; 8
    1966:	09 f0       	breq	.+2      	; 0x196a <__stack+0x106b>
    1968:	90 e0       	ldi	r25, 0x00	; 0
    196a:	81 e0       	ldi	r24, 0x01	; 1
    196c:	20 91 d6 01 	lds	r18, 0x01D6	; 0x8001d6 <count_senha>
    1970:	30 91 d7 01 	lds	r19, 0x01D7	; 0x8001d7 <count_senha+0x1>
    1974:	24 30       	cpi	r18, 0x04	; 4
    1976:	31 05       	cpc	r19, r1
    1978:	0c f0       	brlt	.+2      	; 0x197c <__stack+0x107d>
    197a:	80 e0       	ldi	r24, 0x00	; 0
    197c:	89 23       	and	r24, r25
    197e:	a9 f0       	breq	.+42     	; 0x19aa <__stack+0x10ab>
    1980:	89 e3       	ldi	r24, 0x39	; 57
    1982:	0e 94 cc 1c 	call	0x3998	; 0x3998 <send_word_lcd>
    1986:	4a e3       	ldi	r20, 0x3A	; 58
    1988:	52 e0       	ldi	r21, 0x02	; 2
    198a:	60 e0       	ldi	r22, 0x00	; 0
    198c:	80 91 d6 01 	lds	r24, 0x01D6	; 0x8001d6 <count_senha>
    1990:	90 91 d7 01 	lds	r25, 0x01D7	; 0x8001d7 <count_senha+0x1>
    1994:	0e 94 59 1e 	call	0x3cb2	; 0x3cb2 <insert_senha>
    1998:	80 91 d6 01 	lds	r24, 0x01D6	; 0x8001d6 <count_senha>
    199c:	90 91 d7 01 	lds	r25, 0x01D7	; 0x8001d7 <count_senha+0x1>
    19a0:	01 96       	adiw	r24, 0x01	; 1
    19a2:	90 93 d7 01 	sts	0x01D7, r25	; 0x8001d7 <count_senha+0x1>
    19a6:	80 93 d6 01 	sts	0x01D6, r24	; 0x8001d6 <count_senha>
    19aa:	91 e0       	ldi	r25, 0x01	; 1
    19ac:	80 91 da 01 	lds	r24, 0x01DA	; 0x8001da <state>
    19b0:	89 30       	cpi	r24, 0x09	; 9
    19b2:	09 f0       	breq	.+2      	; 0x19b6 <__stack+0x10b7>
    19b4:	90 e0       	ldi	r25, 0x00	; 0
    19b6:	81 e0       	ldi	r24, 0x01	; 1
    19b8:	20 91 d6 01 	lds	r18, 0x01D6	; 0x8001d6 <count_senha>
    19bc:	30 91 d7 01 	lds	r19, 0x01D7	; 0x8001d7 <count_senha+0x1>
    19c0:	24 30       	cpi	r18, 0x04	; 4
    19c2:	31 05       	cpc	r19, r1
    19c4:	0c f0       	brlt	.+2      	; 0x19c8 <__stack+0x10c9>
    19c6:	80 e0       	ldi	r24, 0x00	; 0
    19c8:	89 23       	and	r24, r25
    19ca:	a9 f0       	breq	.+42     	; 0x19f6 <__stack+0x10f7>
    19cc:	89 e3       	ldi	r24, 0x39	; 57
    19ce:	0e 94 cc 1c 	call	0x3998	; 0x3998 <send_word_lcd>
    19d2:	4a e3       	ldi	r20, 0x3A	; 58
    19d4:	52 e0       	ldi	r21, 0x02	; 2
    19d6:	60 e0       	ldi	r22, 0x00	; 0
    19d8:	80 91 d6 01 	lds	r24, 0x01D6	; 0x8001d6 <count_senha>
    19dc:	90 91 d7 01 	lds	r25, 0x01D7	; 0x8001d7 <count_senha+0x1>
    19e0:	0e 94 2e 1c 	call	0x385c	; 0x385c <senha_arm>
    19e4:	80 91 d6 01 	lds	r24, 0x01D6	; 0x8001d6 <count_senha>
    19e8:	90 91 d7 01 	lds	r25, 0x01D7	; 0x8001d7 <count_senha+0x1>
    19ec:	01 96       	adiw	r24, 0x01	; 1
    19ee:	90 93 d7 01 	sts	0x01D7, r25	; 0x8001d7 <count_senha+0x1>
    19f2:	80 93 d6 01 	sts	0x01D6, r24	; 0x8001d6 <count_senha>
    19f6:	91 e0       	ldi	r25, 0x01	; 1
    19f8:	80 91 da 01 	lds	r24, 0x01DA	; 0x8001da <state>
    19fc:	8a 30       	cpi	r24, 0x0A	; 10
    19fe:	09 f0       	breq	.+2      	; 0x1a02 <__stack+0x1103>
    1a00:	90 e0       	ldi	r25, 0x00	; 0
    1a02:	81 e0       	ldi	r24, 0x01	; 1
    1a04:	20 91 d6 01 	lds	r18, 0x01D6	; 0x8001d6 <count_senha>
    1a08:	30 91 d7 01 	lds	r19, 0x01D7	; 0x8001d7 <count_senha+0x1>
    1a0c:	24 30       	cpi	r18, 0x04	; 4
    1a0e:	31 05       	cpc	r19, r1
    1a10:	0c f0       	brlt	.+2      	; 0x1a14 <__stack+0x1115>
    1a12:	80 e0       	ldi	r24, 0x00	; 0
    1a14:	89 23       	and	r24, r25
    1a16:	a9 f0       	breq	.+42     	; 0x1a42 <__stack+0x1143>
    1a18:	89 e3       	ldi	r24, 0x39	; 57
    1a1a:	0e 94 cc 1c 	call	0x3998	; 0x3998 <send_word_lcd>
    1a1e:	4a e3       	ldi	r20, 0x3A	; 58
    1a20:	52 e0       	ldi	r21, 0x02	; 2
    1a22:	60 e0       	ldi	r22, 0x00	; 0
    1a24:	80 91 d6 01 	lds	r24, 0x01D6	; 0x8001d6 <count_senha>
    1a28:	90 91 d7 01 	lds	r25, 0x01D7	; 0x8001d7 <count_senha+0x1>
    1a2c:	0e 94 59 1e 	call	0x3cb2	; 0x3cb2 <insert_senha>
    1a30:	80 91 d6 01 	lds	r24, 0x01D6	; 0x8001d6 <count_senha>
    1a34:	90 91 d7 01 	lds	r25, 0x01D7	; 0x8001d7 <count_senha+0x1>
    1a38:	01 96       	adiw	r24, 0x01	; 1
    1a3a:	90 93 d7 01 	sts	0x01D7, r25	; 0x8001d7 <count_senha+0x1>
    1a3e:	80 93 d6 01 	sts	0x01D6, r24	; 0x8001d6 <count_senha>
    1a42:	91 e0       	ldi	r25, 0x01	; 1
    1a44:	80 91 da 01 	lds	r24, 0x01DA	; 0x8001da <state>
    1a48:	8b 30       	cpi	r24, 0x0B	; 11
    1a4a:	09 f0       	breq	.+2      	; 0x1a4e <__stack+0x114f>
    1a4c:	90 e0       	ldi	r25, 0x00	; 0
    1a4e:	81 e0       	ldi	r24, 0x01	; 1
    1a50:	20 91 d6 01 	lds	r18, 0x01D6	; 0x8001d6 <count_senha>
    1a54:	30 91 d7 01 	lds	r19, 0x01D7	; 0x8001d7 <count_senha+0x1>
    1a58:	24 30       	cpi	r18, 0x04	; 4
    1a5a:	31 05       	cpc	r19, r1
    1a5c:	0c f0       	brlt	.+2      	; 0x1a60 <__stack+0x1161>
    1a5e:	80 e0       	ldi	r24, 0x00	; 0
    1a60:	89 23       	and	r24, r25
    1a62:	a9 f0       	breq	.+42     	; 0x1a8e <__stack+0x118f>
    1a64:	89 e3       	ldi	r24, 0x39	; 57
    1a66:	0e 94 cc 1c 	call	0x3998	; 0x3998 <send_word_lcd>
    1a6a:	4a e3       	ldi	r20, 0x3A	; 58
    1a6c:	52 e0       	ldi	r21, 0x02	; 2
    1a6e:	60 e0       	ldi	r22, 0x00	; 0
    1a70:	80 91 d6 01 	lds	r24, 0x01D6	; 0x8001d6 <count_senha>
    1a74:	90 91 d7 01 	lds	r25, 0x01D7	; 0x8001d7 <count_senha+0x1>
    1a78:	0e 94 59 1e 	call	0x3cb2	; 0x3cb2 <insert_senha>
    1a7c:	80 91 d6 01 	lds	r24, 0x01D6	; 0x8001d6 <count_senha>
    1a80:	90 91 d7 01 	lds	r25, 0x01D7	; 0x8001d7 <count_senha+0x1>
    1a84:	01 96       	adiw	r24, 0x01	; 1
    1a86:	90 93 d7 01 	sts	0x01D7, r25	; 0x8001d7 <count_senha+0x1>
    1a8a:	80 93 d6 01 	sts	0x01D6, r24	; 0x8001d6 <count_senha>
    1a8e:	20 91 da 01 	lds	r18, 0x01DA	; 0x8001da <state>
    1a92:	40 91 bc 01 	lds	r20, 0x01BC	; 0x8001bc <cont_t>
    1a96:	50 91 bd 01 	lds	r21, 0x01BD	; 0x8001bd <cont_t+0x1>
    1a9a:	91 e0       	ldi	r25, 0x01	; 1
    1a9c:	23 31       	cpi	r18, 0x13	; 19
    1a9e:	09 f0       	breq	.+2      	; 0x1aa2 <__stack+0x11a3>
    1aa0:	90 e0       	ldi	r25, 0x00	; 0
    1aa2:	81 e0       	ldi	r24, 0x01	; 1
    1aa4:	42 30       	cpi	r20, 0x02	; 2
    1aa6:	51 05       	cpc	r21, r1
    1aa8:	0c f0       	brlt	.+2      	; 0x1aac <__stack+0x11ad>
    1aaa:	80 e0       	ldi	r24, 0x00	; 0
    1aac:	89 23       	and	r24, r25
    1aae:	79 f0       	breq	.+30     	; 0x1ace <__stack+0x11cf>
    1ab0:	fa 01       	movw	r30, r20
    1ab2:	ee 0f       	add	r30, r30
    1ab4:	ff 1f       	adc	r31, r31
    1ab6:	e5 5f       	subi	r30, 0xF5	; 245
    1ab8:	fe 4f       	sbci	r31, 0xFE	; 254
    1aba:	89 e0       	ldi	r24, 0x09	; 9
    1abc:	90 e0       	ldi	r25, 0x00	; 0
    1abe:	91 83       	std	Z+1, r25	; 0x01
    1ac0:	80 83       	st	Z, r24
    1ac2:	4f 5f       	subi	r20, 0xFF	; 255
    1ac4:	5f 4f       	sbci	r21, 0xFF	; 255
    1ac6:	50 93 bd 01 	sts	0x01BD, r21	; 0x8001bd <cont_t+0x1>
    1aca:	40 93 bc 01 	sts	0x01BC, r20	; 0x8001bc <cont_t>
    1ace:	81 e0       	ldi	r24, 0x01	; 1
    1ad0:	40 91 bc 01 	lds	r20, 0x01BC	; 0x8001bc <cont_t>
    1ad4:	50 91 bd 01 	lds	r21, 0x01BD	; 0x8001bd <cont_t+0x1>
    1ad8:	43 30       	cpi	r20, 0x03	; 3
    1ada:	51 05       	cpc	r21, r1
    1adc:	0c f0       	brlt	.+2      	; 0x1ae0 <__stack+0x11e1>
    1ade:	80 e0       	ldi	r24, 0x00	; 0
    1ae0:	91 e0       	ldi	r25, 0x01	; 1
    1ae2:	24 31       	cpi	r18, 0x14	; 20
    1ae4:	09 f0       	breq	.+2      	; 0x1ae8 <__stack+0x11e9>
    1ae6:	90 e0       	ldi	r25, 0x00	; 0
    1ae8:	98 23       	and	r25, r24
    1aea:	99 f0       	breq	.+38     	; 0x1b12 <__stack+0x1213>
    1aec:	40 91 b8 01 	lds	r20, 0x01B8	; 0x8001b8 <cont_s>
    1af0:	50 91 b9 01 	lds	r21, 0x01B9	; 0x8001b9 <cont_s+0x1>
    1af4:	fa 01       	movw	r30, r20
    1af6:	ee 0f       	add	r30, r30
    1af8:	ff 1f       	adc	r31, r31
    1afa:	e7 5d       	subi	r30, 0xD7	; 215
    1afc:	fe 4f       	sbci	r31, 0xFE	; 254
    1afe:	69 e0       	ldi	r22, 0x09	; 9
    1b00:	70 e0       	ldi	r23, 0x00	; 0
    1b02:	71 83       	std	Z+1, r23	; 0x01
    1b04:	60 83       	st	Z, r22
    1b06:	4f 5f       	subi	r20, 0xFF	; 255
    1b08:	5f 4f       	sbci	r21, 0xFF	; 255
    1b0a:	50 93 b9 01 	sts	0x01B9, r21	; 0x8001b9 <cont_s+0x1>
    1b0e:	40 93 b8 01 	sts	0x01B8, r20	; 0x8001b8 <cont_s>
    1b12:	91 e0       	ldi	r25, 0x01	; 1
    1b14:	22 31       	cpi	r18, 0x12	; 18
    1b16:	09 f0       	breq	.+2      	; 0x1b1a <__stack+0x121b>
    1b18:	90 e0       	ldi	r25, 0x00	; 0
    1b1a:	89 23       	and	r24, r25
    1b1c:	09 f4       	brne	.+2      	; 0x1b20 <__stack+0x1221>
    1b1e:	ec c2       	rjmp	.+1496   	; 0x20f8 <__stack+0x17f9>
    1b20:	80 91 ba 01 	lds	r24, 0x01BA	; 0x8001ba <cont_aa>
    1b24:	90 91 bb 01 	lds	r25, 0x01BB	; 0x8001bb <cont_aa+0x1>
    1b28:	fc 01       	movw	r30, r24
    1b2a:	ee 0f       	add	r30, r30
    1b2c:	ff 1f       	adc	r31, r31
    1b2e:	ef 5d       	subi	r30, 0xDF	; 223
    1b30:	fe 4f       	sbci	r31, 0xFE	; 254
    1b32:	29 e0       	ldi	r18, 0x09	; 9
    1b34:	30 e0       	ldi	r19, 0x00	; 0
    1b36:	31 83       	std	Z+1, r19	; 0x01
    1b38:	20 83       	st	Z, r18
    1b3a:	01 96       	adiw	r24, 0x01	; 1
    1b3c:	90 93 bb 01 	sts	0x01BB, r25	; 0x8001bb <cont_aa+0x1>
    1b40:	80 93 ba 01 	sts	0x01BA, r24	; 0x8001ba <cont_aa>
    1b44:	d9 c2       	rjmp	.+1458   	; 0x20f8 <__stack+0x17f9>
    1b46:	80 34       	cpi	r24, 0x40	; 64
    1b48:	91 05       	cpc	r25, r1
    1b4a:	49 f5       	brne	.+82     	; 0x1b9e <__stack+0x129f>
    1b4c:	80 91 da 01 	lds	r24, 0x01DA	; 0x8001da <state>
    1b50:	85 30       	cpi	r24, 0x05	; 5
    1b52:	29 f4       	brne	.+10     	; 0x1b5e <__stack+0x125f>
    1b54:	8b e0       	ldi	r24, 0x0B	; 11
    1b56:	80 93 da 01 	sts	0x01DA, r24	; 0x8001da <state>
    1b5a:	0e 94 7e 1c 	call	0x38fc	; 0x38fc <msg_inserir_senha>
    1b5e:	91 e0       	ldi	r25, 0x01	; 1
    1b60:	80 91 da 01 	lds	r24, 0x01DA	; 0x8001da <state>
    1b64:	88 30       	cpi	r24, 0x08	; 8
    1b66:	09 f0       	breq	.+2      	; 0x1b6a <__stack+0x126b>
    1b68:	90 e0       	ldi	r25, 0x00	; 0
    1b6a:	81 e0       	ldi	r24, 0x01	; 1
    1b6c:	20 91 d6 01 	lds	r18, 0x01D6	; 0x8001d6 <count_senha>
    1b70:	30 91 d7 01 	lds	r19, 0x01D7	; 0x8001d7 <count_senha+0x1>
    1b74:	24 30       	cpi	r18, 0x04	; 4
    1b76:	31 05       	cpc	r19, r1
    1b78:	09 f0       	breq	.+2      	; 0x1b7c <__stack+0x127d>
    1b7a:	80 e0       	ldi	r24, 0x00	; 0
    1b7c:	89 23       	and	r24, r25
    1b7e:	09 f4       	brne	.+2      	; 0x1b82 <__stack+0x1283>
    1b80:	bb c2       	rjmp	.+1398   	; 0x20f8 <__stack+0x17f9>
    1b82:	8c e0       	ldi	r24, 0x0C	; 12
    1b84:	80 93 da 01 	sts	0x01DA, r24	; 0x8001da <state>
    1b88:	81 e0       	ldi	r24, 0x01	; 1
    1b8a:	90 e0       	ldi	r25, 0x00	; 0
    1b8c:	90 93 cf 01 	sts	0x01CF, r25	; 0x8001cf <flag_D_sensor+0x1>
    1b90:	80 93 ce 01 	sts	0x01CE, r24	; 0x8001ce <flag_D_sensor>
    1b94:	10 92 d7 01 	sts	0x01D7, r1	; 0x8001d7 <count_senha+0x1>
    1b98:	10 92 d6 01 	sts	0x01D6, r1	; 0x8001d6 <count_senha>
    1b9c:	ad c2       	rjmp	.+1370   	; 0x20f8 <__stack+0x17f9>
    1b9e:	80 33       	cpi	r24, 0x30	; 48
    1ba0:	91 05       	cpc	r25, r1
    1ba2:	11 f5       	brne	.+68     	; 0x1be8 <__stack+0x12e9>
    1ba4:	10 92 da 01 	sts	0x01DA, r1	; 0x8001da <state>
    1ba8:	0e 94 4f 1e 	call	0x3c9e	; 0x3c9e <clear_Display>
    1bac:	0e 94 82 1d 	call	0x3b04	; 0x3b04 <msg_restauracao>
    1bb0:	10 92 cd 01 	sts	0x01CD, r1	; 0x8001cd <flag_p+0x1>
    1bb4:	10 92 cc 01 	sts	0x01CC, r1	; 0x8001cc <flag_p>
    1bb8:	10 92 d1 01 	sts	0x01D1, r1	; 0x8001d1 <flag_sensor+0x1>
    1bbc:	10 92 d0 01 	sts	0x01D0, r1	; 0x8001d0 <flag_sensor>
    1bc0:	10 92 cf 01 	sts	0x01CF, r1	; 0x8001cf <flag_D_sensor+0x1>
    1bc4:	10 92 ce 01 	sts	0x01CE, r1	; 0x8001ce <flag_D_sensor>
    1bc8:	10 92 d9 01 	sts	0x01D9, r1	; 0x8001d9 <flag_a_senha+0x1>
    1bcc:	10 92 d8 01 	sts	0x01D8, r1	; 0x8001d8 <flag_a_senha>
    1bd0:	10 92 69 00 	sts	0x0069, r1	; 0x800069 <__TEXT_REGION_LENGTH__+0x7f8069>
    1bd4:	1d ba       	out	0x1d, r1	; 29
    1bd6:	62 e3       	ldi	r22, 0x32	; 50
    1bd8:	70 e0       	ldi	r23, 0x00	; 0
    1bda:	80 e0       	ldi	r24, 0x00	; 0
    1bdc:	90 e0       	ldi	r25, 0x00	; 0
    1bde:	0e 94 04 1c 	call	0x3808	; 0x3808 <delay_ms>
    1be2:	0e 94 7f 1e 	call	0x3cfe	; 0x3cfe <init_int1>
    1be6:	88 c2       	rjmp	.+1296   	; 0x20f8 <__stack+0x17f9>
    1be8:	80 32       	cpi	r24, 0x20	; 32
    1bea:	91 05       	cpc	r25, r1
    1bec:	09 f0       	breq	.+2      	; 0x1bf0 <__stack+0x12f1>
    1bee:	25 c1       	rjmp	.+586    	; 0x1e3a <__stack+0x153b>
    1bf0:	91 e0       	ldi	r25, 0x01	; 1
    1bf2:	80 91 da 01 	lds	r24, 0x01DA	; 0x8001da <state>
    1bf6:	88 30       	cpi	r24, 0x08	; 8
    1bf8:	09 f0       	breq	.+2      	; 0x1bfc <__stack+0x12fd>
    1bfa:	90 e0       	ldi	r25, 0x00	; 0
    1bfc:	81 e0       	ldi	r24, 0x01	; 1
    1bfe:	20 91 d6 01 	lds	r18, 0x01D6	; 0x8001d6 <count_senha>
    1c02:	30 91 d7 01 	lds	r19, 0x01D7	; 0x8001d7 <count_senha+0x1>
    1c06:	24 30       	cpi	r18, 0x04	; 4
    1c08:	31 05       	cpc	r19, r1
    1c0a:	0c f0       	brlt	.+2      	; 0x1c0e <__stack+0x130f>
    1c0c:	80 e0       	ldi	r24, 0x00	; 0
    1c0e:	89 23       	and	r24, r25
    1c10:	a9 f0       	breq	.+42     	; 0x1c3c <__stack+0x133d>
    1c12:	80 e3       	ldi	r24, 0x30	; 48
    1c14:	0e 94 cc 1c 	call	0x3998	; 0x3998 <send_word_lcd>
    1c18:	4c e3       	ldi	r20, 0x3C	; 60
    1c1a:	52 e0       	ldi	r21, 0x02	; 2
    1c1c:	60 e0       	ldi	r22, 0x00	; 0
    1c1e:	80 91 d6 01 	lds	r24, 0x01D6	; 0x8001d6 <count_senha>
    1c22:	90 91 d7 01 	lds	r25, 0x01D7	; 0x8001d7 <count_senha+0x1>
    1c26:	0e 94 59 1e 	call	0x3cb2	; 0x3cb2 <insert_senha>
    1c2a:	80 91 d6 01 	lds	r24, 0x01D6	; 0x8001d6 <count_senha>
    1c2e:	90 91 d7 01 	lds	r25, 0x01D7	; 0x8001d7 <count_senha+0x1>
    1c32:	01 96       	adiw	r24, 0x01	; 1
    1c34:	90 93 d7 01 	sts	0x01D7, r25	; 0x8001d7 <count_senha+0x1>
    1c38:	80 93 d6 01 	sts	0x01D6, r24	; 0x8001d6 <count_senha>
    1c3c:	91 e0       	ldi	r25, 0x01	; 1
    1c3e:	80 91 da 01 	lds	r24, 0x01DA	; 0x8001da <state>
    1c42:	89 30       	cpi	r24, 0x09	; 9
    1c44:	09 f0       	breq	.+2      	; 0x1c48 <__stack+0x1349>
    1c46:	90 e0       	ldi	r25, 0x00	; 0
    1c48:	81 e0       	ldi	r24, 0x01	; 1
    1c4a:	20 91 d6 01 	lds	r18, 0x01D6	; 0x8001d6 <count_senha>
    1c4e:	30 91 d7 01 	lds	r19, 0x01D7	; 0x8001d7 <count_senha+0x1>
    1c52:	24 30       	cpi	r18, 0x04	; 4
    1c54:	31 05       	cpc	r19, r1
    1c56:	0c f0       	brlt	.+2      	; 0x1c5a <__stack+0x135b>
    1c58:	80 e0       	ldi	r24, 0x00	; 0
    1c5a:	89 23       	and	r24, r25
    1c5c:	a9 f0       	breq	.+42     	; 0x1c88 <__stack+0x1389>
    1c5e:	80 e3       	ldi	r24, 0x30	; 48
    1c60:	0e 94 cc 1c 	call	0x3998	; 0x3998 <send_word_lcd>
    1c64:	4c e3       	ldi	r20, 0x3C	; 60
    1c66:	52 e0       	ldi	r21, 0x02	; 2
    1c68:	60 e0       	ldi	r22, 0x00	; 0
    1c6a:	80 91 d6 01 	lds	r24, 0x01D6	; 0x8001d6 <count_senha>
    1c6e:	90 91 d7 01 	lds	r25, 0x01D7	; 0x8001d7 <count_senha+0x1>
    1c72:	0e 94 2e 1c 	call	0x385c	; 0x385c <senha_arm>
    1c76:	80 91 d6 01 	lds	r24, 0x01D6	; 0x8001d6 <count_senha>
    1c7a:	90 91 d7 01 	lds	r25, 0x01D7	; 0x8001d7 <count_senha+0x1>
    1c7e:	01 96       	adiw	r24, 0x01	; 1
    1c80:	90 93 d7 01 	sts	0x01D7, r25	; 0x8001d7 <count_senha+0x1>
    1c84:	80 93 d6 01 	sts	0x01D6, r24	; 0x8001d6 <count_senha>
    1c88:	91 e0       	ldi	r25, 0x01	; 1
    1c8a:	80 91 da 01 	lds	r24, 0x01DA	; 0x8001da <state>
    1c8e:	8a 30       	cpi	r24, 0x0A	; 10
    1c90:	09 f0       	breq	.+2      	; 0x1c94 <__stack+0x1395>
    1c92:	90 e0       	ldi	r25, 0x00	; 0
    1c94:	81 e0       	ldi	r24, 0x01	; 1
    1c96:	20 91 d6 01 	lds	r18, 0x01D6	; 0x8001d6 <count_senha>
    1c9a:	30 91 d7 01 	lds	r19, 0x01D7	; 0x8001d7 <count_senha+0x1>
    1c9e:	24 30       	cpi	r18, 0x04	; 4
    1ca0:	31 05       	cpc	r19, r1
    1ca2:	0c f0       	brlt	.+2      	; 0x1ca6 <__stack+0x13a7>
    1ca4:	80 e0       	ldi	r24, 0x00	; 0
    1ca6:	89 23       	and	r24, r25
    1ca8:	a9 f0       	breq	.+42     	; 0x1cd4 <__stack+0x13d5>
    1caa:	80 e3       	ldi	r24, 0x30	; 48
    1cac:	0e 94 cc 1c 	call	0x3998	; 0x3998 <send_word_lcd>
    1cb0:	4c e3       	ldi	r20, 0x3C	; 60
    1cb2:	52 e0       	ldi	r21, 0x02	; 2
    1cb4:	60 e0       	ldi	r22, 0x00	; 0
    1cb6:	80 91 d6 01 	lds	r24, 0x01D6	; 0x8001d6 <count_senha>
    1cba:	90 91 d7 01 	lds	r25, 0x01D7	; 0x8001d7 <count_senha+0x1>
    1cbe:	0e 94 59 1e 	call	0x3cb2	; 0x3cb2 <insert_senha>
    1cc2:	80 91 d6 01 	lds	r24, 0x01D6	; 0x8001d6 <count_senha>
    1cc6:	90 91 d7 01 	lds	r25, 0x01D7	; 0x8001d7 <count_senha+0x1>
    1cca:	01 96       	adiw	r24, 0x01	; 1
    1ccc:	90 93 d7 01 	sts	0x01D7, r25	; 0x8001d7 <count_senha+0x1>
    1cd0:	80 93 d6 01 	sts	0x01D6, r24	; 0x8001d6 <count_senha>
    1cd4:	91 e0       	ldi	r25, 0x01	; 1
    1cd6:	80 91 da 01 	lds	r24, 0x01DA	; 0x8001da <state>
    1cda:	8b 30       	cpi	r24, 0x0B	; 11
    1cdc:	09 f0       	breq	.+2      	; 0x1ce0 <__stack+0x13e1>
    1cde:	90 e0       	ldi	r25, 0x00	; 0
    1ce0:	81 e0       	ldi	r24, 0x01	; 1
    1ce2:	20 91 d6 01 	lds	r18, 0x01D6	; 0x8001d6 <count_senha>
    1ce6:	30 91 d7 01 	lds	r19, 0x01D7	; 0x8001d7 <count_senha+0x1>
    1cea:	24 30       	cpi	r18, 0x04	; 4
    1cec:	31 05       	cpc	r19, r1
    1cee:	0c f0       	brlt	.+2      	; 0x1cf2 <__stack+0x13f3>
    1cf0:	80 e0       	ldi	r24, 0x00	; 0
    1cf2:	89 23       	and	r24, r25
    1cf4:	a9 f0       	breq	.+42     	; 0x1d20 <__stack+0x1421>
    1cf6:	80 e3       	ldi	r24, 0x30	; 48
    1cf8:	0e 94 cc 1c 	call	0x3998	; 0x3998 <send_word_lcd>
    1cfc:	4c e3       	ldi	r20, 0x3C	; 60
    1cfe:	52 e0       	ldi	r21, 0x02	; 2
    1d00:	60 e0       	ldi	r22, 0x00	; 0
    1d02:	80 91 d6 01 	lds	r24, 0x01D6	; 0x8001d6 <count_senha>
    1d06:	90 91 d7 01 	lds	r25, 0x01D7	; 0x8001d7 <count_senha+0x1>
    1d0a:	0e 94 59 1e 	call	0x3cb2	; 0x3cb2 <insert_senha>
    1d0e:	80 91 d6 01 	lds	r24, 0x01D6	; 0x8001d6 <count_senha>
    1d12:	90 91 d7 01 	lds	r25, 0x01D7	; 0x8001d7 <count_senha+0x1>
    1d16:	01 96       	adiw	r24, 0x01	; 1
    1d18:	90 93 d7 01 	sts	0x01D7, r25	; 0x8001d7 <count_senha+0x1>
    1d1c:	80 93 d6 01 	sts	0x01D6, r24	; 0x8001d6 <count_senha>
    1d20:	91 e0       	ldi	r25, 0x01	; 1
    1d22:	80 91 da 01 	lds	r24, 0x01DA	; 0x8001da <state>
    1d26:	8f 30       	cpi	r24, 0x0F	; 15
    1d28:	09 f0       	breq	.+2      	; 0x1d2c <__stack+0x142d>
    1d2a:	90 e0       	ldi	r25, 0x00	; 0
    1d2c:	81 e0       	ldi	r24, 0x01	; 1
    1d2e:	20 91 d0 01 	lds	r18, 0x01D0	; 0x8001d0 <flag_sensor>
    1d32:	30 91 d1 01 	lds	r19, 0x01D1	; 0x8001d1 <flag_sensor+0x1>
    1d36:	23 2b       	or	r18, r19
    1d38:	09 f0       	breq	.+2      	; 0x1d3c <__stack+0x143d>
    1d3a:	80 e0       	ldi	r24, 0x00	; 0
    1d3c:	89 23       	and	r24, r25
    1d3e:	21 f0       	breq	.+8      	; 0x1d48 <__stack+0x1449>
    1d40:	80 e0       	ldi	r24, 0x00	; 0
    1d42:	90 e0       	ldi	r25, 0x00	; 0
    1d44:	0e 94 d6 16 	call	0x2dac	; 0x2dac <hab_sensor>
    1d48:	20 91 da 01 	lds	r18, 0x01DA	; 0x8001da <state>
    1d4c:	91 e0       	ldi	r25, 0x01	; 1
    1d4e:	21 31       	cpi	r18, 0x11	; 17
    1d50:	09 f0       	breq	.+2      	; 0x1d54 <__stack+0x1455>
    1d52:	90 e0       	ldi	r25, 0x00	; 0
    1d54:	31 e0       	ldi	r19, 0x01	; 1
    1d56:	40 91 c8 01 	lds	r20, 0x01C8	; 0x8001c8 <flag_z1>
    1d5a:	50 91 c9 01 	lds	r21, 0x01C9	; 0x8001c9 <flag_z1+0x1>
    1d5e:	45 2b       	or	r20, r21
    1d60:	09 f0       	breq	.+2      	; 0x1d64 <__stack+0x1465>
    1d62:	30 e0       	ldi	r19, 0x00	; 0
    1d64:	81 e0       	ldi	r24, 0x01	; 1
    1d66:	40 91 ca 01 	lds	r20, 0x01CA	; 0x8001ca <flag_z>
    1d6a:	50 91 cb 01 	lds	r21, 0x01CB	; 0x8001cb <flag_z+0x1>
    1d6e:	45 2b       	or	r20, r21
    1d70:	09 f0       	breq	.+2      	; 0x1d74 <__stack+0x1475>
    1d72:	80 e0       	ldi	r24, 0x00	; 0
    1d74:	83 23       	and	r24, r19
    1d76:	99 23       	and	r25, r25
    1d78:	61 f0       	breq	.+24     	; 0x1d92 <__stack+0x1493>
    1d7a:	88 23       	and	r24, r24
    1d7c:	51 f0       	breq	.+20     	; 0x1d92 <__stack+0x1493>
    1d7e:	10 92 01 01 	sts	0x0101, r1	; 0x800101 <__DATA_REGION_ORIGIN__+0x1>
    1d82:	10 92 00 01 	sts	0x0100, r1	; 0x800100 <__DATA_REGION_ORIGIN__>
    1d86:	81 e0       	ldi	r24, 0x01	; 1
    1d88:	90 e0       	ldi	r25, 0x00	; 0
    1d8a:	90 93 c9 01 	sts	0x01C9, r25	; 0x8001c9 <flag_z1+0x1>
    1d8e:	80 93 c8 01 	sts	0x01C8, r24	; 0x8001c8 <flag_z1>
    1d92:	40 91 bc 01 	lds	r20, 0x01BC	; 0x8001bc <cont_t>
    1d96:	50 91 bd 01 	lds	r21, 0x01BD	; 0x8001bd <cont_t+0x1>
    1d9a:	91 e0       	ldi	r25, 0x01	; 1
    1d9c:	23 31       	cpi	r18, 0x13	; 19
    1d9e:	09 f0       	breq	.+2      	; 0x1da2 <__stack+0x14a3>
    1da0:	90 e0       	ldi	r25, 0x00	; 0
    1da2:	81 e0       	ldi	r24, 0x01	; 1
    1da4:	42 30       	cpi	r20, 0x02	; 2
    1da6:	51 05       	cpc	r21, r1
    1da8:	0c f0       	brlt	.+2      	; 0x1dac <__stack+0x14ad>
    1daa:	80 e0       	ldi	r24, 0x00	; 0
    1dac:	89 23       	and	r24, r25
    1dae:	69 f0       	breq	.+26     	; 0x1dca <__stack+0x14cb>
    1db0:	fa 01       	movw	r30, r20
    1db2:	ee 0f       	add	r30, r30
    1db4:	ff 1f       	adc	r31, r31
    1db6:	e5 5f       	subi	r30, 0xF5	; 245
    1db8:	fe 4f       	sbci	r31, 0xFE	; 254
    1dba:	11 82       	std	Z+1, r1	; 0x01
    1dbc:	10 82       	st	Z, r1
    1dbe:	4f 5f       	subi	r20, 0xFF	; 255
    1dc0:	5f 4f       	sbci	r21, 0xFF	; 255
    1dc2:	50 93 bd 01 	sts	0x01BD, r21	; 0x8001bd <cont_t+0x1>
    1dc6:	40 93 bc 01 	sts	0x01BC, r20	; 0x8001bc <cont_t>
    1dca:	81 e0       	ldi	r24, 0x01	; 1
    1dcc:	40 91 bc 01 	lds	r20, 0x01BC	; 0x8001bc <cont_t>
    1dd0:	50 91 bd 01 	lds	r21, 0x01BD	; 0x8001bd <cont_t+0x1>
    1dd4:	43 30       	cpi	r20, 0x03	; 3
    1dd6:	51 05       	cpc	r21, r1
    1dd8:	0c f0       	brlt	.+2      	; 0x1ddc <__stack+0x14dd>
    1dda:	80 e0       	ldi	r24, 0x00	; 0
    1ddc:	91 e0       	ldi	r25, 0x01	; 1
    1dde:	24 31       	cpi	r18, 0x14	; 20
    1de0:	09 f0       	breq	.+2      	; 0x1de4 <__stack+0x14e5>
    1de2:	90 e0       	ldi	r25, 0x00	; 0
    1de4:	98 23       	and	r25, r24
    1de6:	89 f0       	breq	.+34     	; 0x1e0a <__stack+0x150b>
    1de8:	40 91 b8 01 	lds	r20, 0x01B8	; 0x8001b8 <cont_s>
    1dec:	50 91 b9 01 	lds	r21, 0x01B9	; 0x8001b9 <cont_s+0x1>
    1df0:	fa 01       	movw	r30, r20
    1df2:	ee 0f       	add	r30, r30
    1df4:	ff 1f       	adc	r31, r31
    1df6:	e7 5d       	subi	r30, 0xD7	; 215
    1df8:	fe 4f       	sbci	r31, 0xFE	; 254
    1dfa:	11 82       	std	Z+1, r1	; 0x01
    1dfc:	10 82       	st	Z, r1
    1dfe:	4f 5f       	subi	r20, 0xFF	; 255
    1e00:	5f 4f       	sbci	r21, 0xFF	; 255
    1e02:	50 93 b9 01 	sts	0x01B9, r21	; 0x8001b9 <cont_s+0x1>
    1e06:	40 93 b8 01 	sts	0x01B8, r20	; 0x8001b8 <cont_s>
    1e0a:	91 e0       	ldi	r25, 0x01	; 1
    1e0c:	22 31       	cpi	r18, 0x12	; 18
    1e0e:	09 f0       	breq	.+2      	; 0x1e12 <__stack+0x1513>
    1e10:	90 e0       	ldi	r25, 0x00	; 0
    1e12:	89 23       	and	r24, r25
    1e14:	09 f4       	brne	.+2      	; 0x1e18 <__stack+0x1519>
    1e16:	70 c1       	rjmp	.+736    	; 0x20f8 <__stack+0x17f9>
    1e18:	80 91 ba 01 	lds	r24, 0x01BA	; 0x8001ba <cont_aa>
    1e1c:	90 91 bb 01 	lds	r25, 0x01BB	; 0x8001bb <cont_aa+0x1>
    1e20:	fc 01       	movw	r30, r24
    1e22:	ee 0f       	add	r30, r30
    1e24:	ff 1f       	adc	r31, r31
    1e26:	ef 5d       	subi	r30, 0xDF	; 223
    1e28:	fe 4f       	sbci	r31, 0xFE	; 254
    1e2a:	11 82       	std	Z+1, r1	; 0x01
    1e2c:	10 82       	st	Z, r1
    1e2e:	01 96       	adiw	r24, 0x01	; 1
    1e30:	90 93 bb 01 	sts	0x01BB, r25	; 0x8001bb <cont_aa+0x1>
    1e34:	80 93 ba 01 	sts	0x01BA, r24	; 0x8001ba <cont_aa>
    1e38:	5f c1       	rjmp	.+702    	; 0x20f8 <__stack+0x17f9>
    1e3a:	80 31       	cpi	r24, 0x10	; 16
    1e3c:	91 05       	cpc	r25, r1
    1e3e:	39 f5       	brne	.+78     	; 0x1e8e <__stack+0x158f>
    1e40:	80 91 cc 01 	lds	r24, 0x01CC	; 0x8001cc <flag_p>
    1e44:	90 91 cd 01 	lds	r25, 0x01CD	; 0x8001cd <flag_p+0x1>
    1e48:	00 97       	sbiw	r24, 0x00	; 0
    1e4a:	b1 f4       	brne	.+44     	; 0x1e78 <__stack+0x1579>
    1e4c:	80 91 da 01 	lds	r24, 0x01DA	; 0x8001da <state>
    1e50:	87 30       	cpi	r24, 0x07	; 7
    1e52:	11 f0       	breq	.+4      	; 0x1e58 <__stack+0x1559>
    1e54:	85 30       	cpi	r24, 0x05	; 5
    1e56:	21 f4       	brne	.+8      	; 0x1e60 <__stack+0x1561>
    1e58:	0e 94 63 1e 	call	0x3cc6	; 0x3cc6 <StopTimer1>
    1e5c:	0e 94 2f 1e 	call	0x3c5e	; 0x3c5e <ZerarTemps>
    1e60:	0e 94 91 1e 	call	0x3d22	; 0x3d22 <StartSirene>
    1e64:	86 e0       	ldi	r24, 0x06	; 6
    1e66:	80 93 da 01 	sts	0x01DA, r24	; 0x8001da <state>
    1e6a:	81 e0       	ldi	r24, 0x01	; 1
    1e6c:	90 e0       	ldi	r25, 0x00	; 0
    1e6e:	90 93 cd 01 	sts	0x01CD, r25	; 0x8001cd <flag_p+0x1>
    1e72:	80 93 cc 01 	sts	0x01CC, r24	; 0x8001cc <flag_p>
    1e76:	40 c1       	rjmp	.+640    	; 0x20f8 <__stack+0x17f9>
    1e78:	01 97       	sbiw	r24, 0x01	; 1
    1e7a:	09 f0       	breq	.+2      	; 0x1e7e <__stack+0x157f>
    1e7c:	3d c1       	rjmp	.+634    	; 0x20f8 <__stack+0x17f9>
    1e7e:	0e 94 95 1e 	call	0x3d2a	; 0x3d2a <StopSirene>
    1e82:	81 e0       	ldi	r24, 0x01	; 1
    1e84:	80 93 da 01 	sts	0x01DA, r24	; 0x8001da <state>
    1e88:	0e 94 7a 1b 	call	0x36f4	; 0x36f4 <msg_desativado>
    1e8c:	35 c1       	rjmp	.+618    	; 0x20f8 <__stack+0x17f9>
    1e8e:	89 2b       	or	r24, r25
    1e90:	09 f0       	breq	.+2      	; 0x1e94 <__stack+0x1595>
    1e92:	32 c1       	rjmp	.+612    	; 0x20f8 <__stack+0x17f9>
    1e94:	91 e0       	ldi	r25, 0x01	; 1
    1e96:	80 91 da 01 	lds	r24, 0x01DA	; 0x8001da <state>
    1e9a:	88 30       	cpi	r24, 0x08	; 8
    1e9c:	09 f0       	breq	.+2      	; 0x1ea0 <__stack+0x15a1>
    1e9e:	90 e0       	ldi	r25, 0x00	; 0
    1ea0:	81 e0       	ldi	r24, 0x01	; 1
    1ea2:	20 91 d6 01 	lds	r18, 0x01D6	; 0x8001d6 <count_senha>
    1ea6:	30 91 d7 01 	lds	r19, 0x01D7	; 0x8001d7 <count_senha+0x1>
    1eaa:	24 30       	cpi	r18, 0x04	; 4
    1eac:	31 05       	cpc	r19, r1
    1eae:	09 f0       	breq	.+2      	; 0x1eb2 <__stack+0x15b3>
    1eb0:	80 e0       	ldi	r24, 0x00	; 0
    1eb2:	89 23       	and	r24, r25
    1eb4:	49 f0       	breq	.+18     	; 0x1ec8 <__stack+0x15c9>
    1eb6:	8c e0       	ldi	r24, 0x0C	; 12
    1eb8:	80 93 da 01 	sts	0x01DA, r24	; 0x8001da <state>
    1ebc:	0e 94 4f 1e 	call	0x3c9e	; 0x3c9e <clear_Display>
    1ec0:	10 92 d7 01 	sts	0x01D7, r1	; 0x8001d7 <count_senha+0x1>
    1ec4:	10 92 d6 01 	sts	0x01D6, r1	; 0x8001d6 <count_senha>
    1ec8:	91 e0       	ldi	r25, 0x01	; 1
    1eca:	80 91 da 01 	lds	r24, 0x01DA	; 0x8001da <state>
    1ece:	89 30       	cpi	r24, 0x09	; 9
    1ed0:	09 f0       	breq	.+2      	; 0x1ed4 <__stack+0x15d5>
    1ed2:	90 e0       	ldi	r25, 0x00	; 0
    1ed4:	81 e0       	ldi	r24, 0x01	; 1
    1ed6:	20 91 d6 01 	lds	r18, 0x01D6	; 0x8001d6 <count_senha>
    1eda:	30 91 d7 01 	lds	r19, 0x01D7	; 0x8001d7 <count_senha+0x1>
    1ede:	24 30       	cpi	r18, 0x04	; 4
    1ee0:	31 05       	cpc	r19, r1
    1ee2:	09 f0       	breq	.+2      	; 0x1ee6 <__stack+0x15e7>
    1ee4:	80 e0       	ldi	r24, 0x00	; 0
    1ee6:	89 23       	and	r24, r25
    1ee8:	59 f0       	breq	.+22     	; 0x1f00 <__stack+0x1601>
    1eea:	81 e0       	ldi	r24, 0x01	; 1
    1eec:	80 93 da 01 	sts	0x01DA, r24	; 0x8001da <state>
    1ef0:	0e 94 4f 1e 	call	0x3c9e	; 0x3c9e <clear_Display>
    1ef4:	0e 94 7a 1b 	call	0x36f4	; 0x36f4 <msg_desativado>
    1ef8:	10 92 d7 01 	sts	0x01D7, r1	; 0x8001d7 <count_senha+0x1>
    1efc:	10 92 d6 01 	sts	0x01D6, r1	; 0x8001d6 <count_senha>
    1f00:	91 e0       	ldi	r25, 0x01	; 1
    1f02:	80 91 da 01 	lds	r24, 0x01DA	; 0x8001da <state>
    1f06:	8a 30       	cpi	r24, 0x0A	; 10
    1f08:	09 f0       	breq	.+2      	; 0x1f0c <__stack+0x160d>
    1f0a:	90 e0       	ldi	r25, 0x00	; 0
    1f0c:	81 e0       	ldi	r24, 0x01	; 1
    1f0e:	20 91 d6 01 	lds	r18, 0x01D6	; 0x8001d6 <count_senha>
    1f12:	30 91 d7 01 	lds	r19, 0x01D7	; 0x8001d7 <count_senha+0x1>
    1f16:	24 30       	cpi	r18, 0x04	; 4
    1f18:	31 05       	cpc	r19, r1
    1f1a:	09 f0       	breq	.+2      	; 0x1f1e <__stack+0x161f>
    1f1c:	80 e0       	ldi	r24, 0x00	; 0
    1f1e:	89 23       	and	r24, r25
    1f20:	49 f0       	breq	.+18     	; 0x1f34 <__stack+0x1635>
    1f22:	8d e0       	ldi	r24, 0x0D	; 13
    1f24:	80 93 da 01 	sts	0x01DA, r24	; 0x8001da <state>
    1f28:	0e 94 4f 1e 	call	0x3c9e	; 0x3c9e <clear_Display>
    1f2c:	10 92 d7 01 	sts	0x01D7, r1	; 0x8001d7 <count_senha+0x1>
    1f30:	10 92 d6 01 	sts	0x01D6, r1	; 0x8001d6 <count_senha>
    1f34:	91 e0       	ldi	r25, 0x01	; 1
    1f36:	80 91 da 01 	lds	r24, 0x01DA	; 0x8001da <state>
    1f3a:	8b 30       	cpi	r24, 0x0B	; 11
    1f3c:	09 f0       	breq	.+2      	; 0x1f40 <__stack+0x1641>
    1f3e:	90 e0       	ldi	r25, 0x00	; 0
    1f40:	81 e0       	ldi	r24, 0x01	; 1
    1f42:	20 91 d6 01 	lds	r18, 0x01D6	; 0x8001d6 <count_senha>
    1f46:	30 91 d7 01 	lds	r19, 0x01D7	; 0x8001d7 <count_senha+0x1>
    1f4a:	24 30       	cpi	r18, 0x04	; 4
    1f4c:	31 05       	cpc	r19, r1
    1f4e:	09 f0       	breq	.+2      	; 0x1f52 <__stack+0x1653>
    1f50:	80 e0       	ldi	r24, 0x00	; 0
    1f52:	89 23       	and	r24, r25
    1f54:	49 f0       	breq	.+18     	; 0x1f68 <__stack+0x1669>
    1f56:	8e e0       	ldi	r24, 0x0E	; 14
    1f58:	80 93 da 01 	sts	0x01DA, r24	; 0x8001da <state>
    1f5c:	0e 94 4f 1e 	call	0x3c9e	; 0x3c9e <clear_Display>
    1f60:	10 92 d7 01 	sts	0x01D7, r1	; 0x8001d7 <count_senha+0x1>
    1f64:	10 92 d6 01 	sts	0x01D6, r1	; 0x8001d6 <count_senha>
    1f68:	91 e0       	ldi	r25, 0x01	; 1
    1f6a:	80 91 da 01 	lds	r24, 0x01DA	; 0x8001da <state>
    1f6e:	8f 30       	cpi	r24, 0x0F	; 15
    1f70:	09 f0       	breq	.+2      	; 0x1f74 <__stack+0x1675>
    1f72:	90 e0       	ldi	r25, 0x00	; 0
    1f74:	81 e0       	ldi	r24, 0x01	; 1
    1f76:	20 91 d0 01 	lds	r18, 0x01D0	; 0x8001d0 <flag_sensor>
    1f7a:	30 91 d1 01 	lds	r19, 0x01D1	; 0x8001d1 <flag_sensor+0x1>
    1f7e:	21 30       	cpi	r18, 0x01	; 1
    1f80:	31 05       	cpc	r19, r1
    1f82:	09 f0       	breq	.+2      	; 0x1f86 <__stack+0x1687>
    1f84:	80 e0       	ldi	r24, 0x00	; 0
    1f86:	89 23       	and	r24, r25
    1f88:	49 f0       	breq	.+18     	; 0x1f9c <__stack+0x169d>
    1f8a:	81 e0       	ldi	r24, 0x01	; 1
    1f8c:	80 93 da 01 	sts	0x01DA, r24	; 0x8001da <state>
    1f90:	0e 94 7a 1b 	call	0x36f4	; 0x36f4 <msg_desativado>
    1f94:	10 92 d1 01 	sts	0x01D1, r1	; 0x8001d1 <flag_sensor+0x1>
    1f98:	10 92 d0 01 	sts	0x01D0, r1	; 0x8001d0 <flag_sensor>
    1f9c:	91 e0       	ldi	r25, 0x01	; 1
    1f9e:	80 91 da 01 	lds	r24, 0x01DA	; 0x8001da <state>
    1fa2:	80 31       	cpi	r24, 0x10	; 16
    1fa4:	09 f0       	breq	.+2      	; 0x1fa8 <__stack+0x16a9>
    1fa6:	90 e0       	ldi	r25, 0x00	; 0
    1fa8:	81 e0       	ldi	r24, 0x01	; 1
    1faa:	20 91 d0 01 	lds	r18, 0x01D0	; 0x8001d0 <flag_sensor>
    1fae:	30 91 d1 01 	lds	r19, 0x01D1	; 0x8001d1 <flag_sensor+0x1>
    1fb2:	21 30       	cpi	r18, 0x01	; 1
    1fb4:	31 05       	cpc	r19, r1
    1fb6:	09 f0       	breq	.+2      	; 0x1fba <__stack+0x16bb>
    1fb8:	80 e0       	ldi	r24, 0x00	; 0
    1fba:	89 23       	and	r24, r25
    1fbc:	49 f0       	breq	.+18     	; 0x1fd0 <__stack+0x16d1>
    1fbe:	81 e0       	ldi	r24, 0x01	; 1
    1fc0:	80 93 da 01 	sts	0x01DA, r24	; 0x8001da <state>
    1fc4:	0e 94 7a 1b 	call	0x36f4	; 0x36f4 <msg_desativado>
    1fc8:	10 92 d1 01 	sts	0x01D1, r1	; 0x8001d1 <flag_sensor+0x1>
    1fcc:	10 92 d0 01 	sts	0x01D0, r1	; 0x8001d0 <flag_sensor>
    1fd0:	91 e0       	ldi	r25, 0x01	; 1
    1fd2:	80 91 da 01 	lds	r24, 0x01DA	; 0x8001da <state>
    1fd6:	81 31       	cpi	r24, 0x11	; 17
    1fd8:	09 f0       	breq	.+2      	; 0x1fdc <__stack+0x16dd>
    1fda:	90 e0       	ldi	r25, 0x00	; 0
    1fdc:	21 e0       	ldi	r18, 0x01	; 1
    1fde:	40 91 c8 01 	lds	r20, 0x01C8	; 0x8001c8 <flag_z1>
    1fe2:	50 91 c9 01 	lds	r21, 0x01C9	; 0x8001c9 <flag_z1+0x1>
    1fe6:	41 30       	cpi	r20, 0x01	; 1
    1fe8:	51 05       	cpc	r21, r1
    1fea:	09 f0       	breq	.+2      	; 0x1fee <__stack+0x16ef>
    1fec:	20 e0       	ldi	r18, 0x00	; 0
    1fee:	81 e0       	ldi	r24, 0x01	; 1
    1ff0:	40 91 ca 01 	lds	r20, 0x01CA	; 0x8001ca <flag_z>
    1ff4:	50 91 cb 01 	lds	r21, 0x01CB	; 0x8001cb <flag_z+0x1>
    1ff8:	41 30       	cpi	r20, 0x01	; 1
    1ffa:	51 05       	cpc	r21, r1
    1ffc:	09 f0       	breq	.+2      	; 0x2000 <__stack+0x1701>
    1ffe:	80 e0       	ldi	r24, 0x00	; 0
    2000:	82 23       	and	r24, r18
    2002:	99 23       	and	r25, r25
    2004:	c9 f0       	breq	.+50     	; 0x2038 <__stack+0x1739>
    2006:	88 23       	and	r24, r24
    2008:	b9 f0       	breq	.+46     	; 0x2038 <__stack+0x1739>
    200a:	81 e0       	ldi	r24, 0x01	; 1
    200c:	80 93 da 01 	sts	0x01DA, r24	; 0x8001da <state>
    2010:	60 91 04 01 	lds	r22, 0x0104	; 0x800104 <idzona>
    2014:	70 91 05 01 	lds	r23, 0x0105	; 0x800105 <idzona+0x1>
    2018:	80 91 00 01 	lds	r24, 0x0100	; 0x800100 <__DATA_REGION_ORIGIN__>
    201c:	90 91 01 01 	lds	r25, 0x0101	; 0x800101 <__DATA_REGION_ORIGIN__+0x1>
    2020:	0e 94 05 13 	call	0x260a	; 0x260a <assSensorZona>
    2024:	10 92 cb 01 	sts	0x01CB, r1	; 0x8001cb <flag_z+0x1>
    2028:	10 92 ca 01 	sts	0x01CA, r1	; 0x8001ca <flag_z>
    202c:	10 92 c9 01 	sts	0x01C9, r1	; 0x8001c9 <flag_z1+0x1>
    2030:	10 92 c8 01 	sts	0x01C8, r1	; 0x8001c8 <flag_z1>
    2034:	0e 94 7a 1b 	call	0x36f4	; 0x36f4 <msg_desativado>
    2038:	91 e0       	ldi	r25, 0x01	; 1
    203a:	80 91 da 01 	lds	r24, 0x01DA	; 0x8001da <state>
    203e:	83 31       	cpi	r24, 0x13	; 19
    2040:	09 f0       	breq	.+2      	; 0x2044 <__stack+0x1745>
    2042:	90 e0       	ldi	r25, 0x00	; 0
    2044:	21 e0       	ldi	r18, 0x01	; 1
    2046:	40 91 bc 01 	lds	r20, 0x01BC	; 0x8001bc <cont_t>
    204a:	50 91 bd 01 	lds	r21, 0x01BD	; 0x8001bd <cont_t+0x1>
    204e:	42 30       	cpi	r20, 0x02	; 2
    2050:	51 05       	cpc	r21, r1
    2052:	0c f4       	brge	.+2      	; 0x2056 <__stack+0x1757>
    2054:	20 e0       	ldi	r18, 0x00	; 0
    2056:	81 e0       	ldi	r24, 0x01	; 1
    2058:	40 91 c2 01 	lds	r20, 0x01C2	; 0x8001c2 <flag_timeout>
    205c:	50 91 c3 01 	lds	r21, 0x01C3	; 0x8001c3 <flag_timeout+0x1>
    2060:	41 30       	cpi	r20, 0x01	; 1
    2062:	51 05       	cpc	r21, r1
    2064:	09 f0       	breq	.+2      	; 0x2068 <__stack+0x1769>
    2066:	80 e0       	ldi	r24, 0x00	; 0
    2068:	82 23       	and	r24, r18
    206a:	99 23       	and	r25, r25
    206c:	69 f0       	breq	.+26     	; 0x2088 <__stack+0x1789>
    206e:	88 23       	and	r24, r24
    2070:	59 f0       	breq	.+22     	; 0x2088 <__stack+0x1789>
    2072:	81 e0       	ldi	r24, 0x01	; 1
    2074:	80 93 da 01 	sts	0x01DA, r24	; 0x8001da <state>
    2078:	0e 94 c4 1d 	call	0x3b88	; 0x3b88 <set_timeout>
    207c:	10 92 bd 01 	sts	0x01BD, r1	; 0x8001bd <cont_t+0x1>
    2080:	10 92 bc 01 	sts	0x01BC, r1	; 0x8001bc <cont_t>
    2084:	0e 94 7a 1b 	call	0x36f4	; 0x36f4 <msg_desativado>
    2088:	91 e0       	ldi	r25, 0x01	; 1
    208a:	80 91 da 01 	lds	r24, 0x01DA	; 0x8001da <state>
    208e:	84 31       	cpi	r24, 0x14	; 20
    2090:	09 f0       	breq	.+2      	; 0x2094 <__stack+0x1795>
    2092:	90 e0       	ldi	r25, 0x00	; 0
    2094:	81 e0       	ldi	r24, 0x01	; 1
    2096:	20 91 b8 01 	lds	r18, 0x01B8	; 0x8001b8 <cont_s>
    209a:	30 91 b9 01 	lds	r19, 0x01B9	; 0x8001b9 <cont_s+0x1>
    209e:	23 30       	cpi	r18, 0x03	; 3
    20a0:	31 05       	cpc	r19, r1
    20a2:	0c f4       	brge	.+2      	; 0x20a6 <__stack+0x17a7>
    20a4:	80 e0       	ldi	r24, 0x00	; 0
    20a6:	89 23       	and	r24, r25
    20a8:	59 f0       	breq	.+22     	; 0x20c0 <__stack+0x17c1>
    20aa:	81 e0       	ldi	r24, 0x01	; 1
    20ac:	80 93 da 01 	sts	0x01DA, r24	; 0x8001da <state>
    20b0:	0e 94 5e 1d 	call	0x3abc	; 0x3abc <set_timeS>
    20b4:	10 92 b9 01 	sts	0x01B9, r1	; 0x8001b9 <cont_s+0x1>
    20b8:	10 92 b8 01 	sts	0x01B8, r1	; 0x8001b8 <cont_s>
    20bc:	0e 94 7a 1b 	call	0x36f4	; 0x36f4 <msg_desativado>
    20c0:	91 e0       	ldi	r25, 0x01	; 1
    20c2:	80 91 da 01 	lds	r24, 0x01DA	; 0x8001da <state>
    20c6:	82 31       	cpi	r24, 0x12	; 18
    20c8:	09 f0       	breq	.+2      	; 0x20cc <__stack+0x17cd>
    20ca:	90 e0       	ldi	r25, 0x00	; 0
    20cc:	81 e0       	ldi	r24, 0x01	; 1
    20ce:	20 91 ba 01 	lds	r18, 0x01BA	; 0x8001ba <cont_aa>
    20d2:	30 91 bb 01 	lds	r19, 0x01BB	; 0x8001bb <cont_aa+0x1>
    20d6:	23 30       	cpi	r18, 0x03	; 3
    20d8:	31 05       	cpc	r19, r1
    20da:	0c f4       	brge	.+2      	; 0x20de <__stack+0x17df>
    20dc:	80 e0       	ldi	r24, 0x00	; 0
    20de:	89 23       	and	r24, r25
    20e0:	59 f0       	breq	.+22     	; 0x20f8 <__stack+0x17f9>
    20e2:	81 e0       	ldi	r24, 0x01	; 1
    20e4:	80 93 da 01 	sts	0x01DA, r24	; 0x8001da <state>
    20e8:	0e 94 3a 1d 	call	0x3a74	; 0x3a74 <set_timeA>
    20ec:	10 92 bb 01 	sts	0x01BB, r1	; 0x8001bb <cont_aa+0x1>
    20f0:	10 92 ba 01 	sts	0x01BA, r1	; 0x8001ba <cont_aa>
    20f4:	0e 94 7a 1b 	call	0x36f4	; 0x36f4 <msg_desativado>
    20f8:	ff 91       	pop	r31
    20fa:	ef 91       	pop	r30
    20fc:	bf 91       	pop	r27
    20fe:	af 91       	pop	r26
    2100:	9f 91       	pop	r25
    2102:	8f 91       	pop	r24
    2104:	7f 91       	pop	r23
    2106:	6f 91       	pop	r22
    2108:	5f 91       	pop	r21
    210a:	4f 91       	pop	r20
    210c:	3f 91       	pop	r19
    210e:	2f 91       	pop	r18
    2110:	0f 90       	pop	r0
    2112:	0f be       	out	0x3f, r0	; 63
    2114:	0f 90       	pop	r0
    2116:	1f 90       	pop	r1
    2118:	18 95       	reti

Disassembly of section .text.__vector_11:

00002ef2 <__vector_11>:
    2ef2:	1f 92       	push	r1
    2ef4:	0f 92       	push	r0
    2ef6:	0f b6       	in	r0, 0x3f	; 63
    2ef8:	0f 92       	push	r0
    2efa:	11 24       	eor	r1, r1
    2efc:	2f 93       	push	r18
    2efe:	3f 93       	push	r19
    2f00:	4f 93       	push	r20
    2f02:	5f 93       	push	r21
    2f04:	6f 93       	push	r22
    2f06:	7f 93       	push	r23
    2f08:	8f 93       	push	r24
    2f0a:	9f 93       	push	r25
    2f0c:	af 93       	push	r26
    2f0e:	bf 93       	push	r27
    2f10:	ef 93       	push	r30
    2f12:	ff 93       	push	r31
    2f14:	80 91 da 01 	lds	r24, 0x01DA	; 0x8001da <state>
    2f18:	87 30       	cpi	r24, 0x07	; 7
    2f1a:	c9 f4       	brne	.+50     	; 0x2f4e <__vector_11+0x5c>
    2f1c:	80 91 db 01 	lds	r24, 0x01DB	; 0x8001db <cont_timeout>
    2f20:	48 2f       	mov	r20, r24
    2f22:	50 e0       	ldi	r21, 0x00	; 0
    2f24:	20 91 0f 01 	lds	r18, 0x010F	; 0x80010f <timeout>
    2f28:	30 91 10 01 	lds	r19, 0x0110	; 0x800110 <timeout+0x1>
    2f2c:	42 17       	cp	r20, r18
    2f2e:	53 07       	cpc	r21, r19
    2f30:	51 f4       	brne	.+20     	; 0x2f46 <__vector_11+0x54>
    2f32:	81 e0       	ldi	r24, 0x01	; 1
    2f34:	80 93 da 01 	sts	0x01DA, r24	; 0x8001da <state>
    2f38:	10 92 db 01 	sts	0x01DB, r1	; 0x8001db <cont_timeout>
    2f3c:	0e 94 7a 1b 	call	0x36f4	; 0x36f4 <msg_desativado>
    2f40:	0e 94 63 1e 	call	0x3cc6	; 0x3cc6 <StopTimer1>
    2f44:	46 c0       	rjmp	.+140    	; 0x2fd2 <__vector_11+0xe0>
    2f46:	8f 5f       	subi	r24, 0xFF	; 255
    2f48:	80 93 db 01 	sts	0x01DB, r24	; 0x8001db <cont_timeout>
    2f4c:	42 c0       	rjmp	.+132    	; 0x2fd2 <__vector_11+0xe0>
    2f4e:	85 30       	cpi	r24, 0x05	; 5
    2f50:	d1 f4       	brne	.+52     	; 0x2f86 <__vector_11+0x94>
    2f52:	80 91 c6 01 	lds	r24, 0x01C6	; 0x8001c6 <cont_sirene>
    2f56:	90 91 c7 01 	lds	r25, 0x01C7	; 0x8001c7 <cont_sirene+0x1>
    2f5a:	20 91 08 01 	lds	r18, 0x0108	; 0x800108 <t_sirene>
    2f5e:	30 91 09 01 	lds	r19, 0x0109	; 0x800109 <t_sirene+0x1>
    2f62:	82 17       	cp	r24, r18
    2f64:	93 07       	cpc	r25, r19
    2f66:	49 f4       	brne	.+18     	; 0x2f7a <__vector_11+0x88>
    2f68:	0e 94 95 1e 	call	0x3d2a	; 0x3d2a <StopSirene>
    2f6c:	10 92 c7 01 	sts	0x01C7, r1	; 0x8001c7 <cont_sirene+0x1>
    2f70:	10 92 c6 01 	sts	0x01C6, r1	; 0x8001c6 <cont_sirene>
    2f74:	0e 94 63 1e 	call	0x3cc6	; 0x3cc6 <StopTimer1>
    2f78:	2c c0       	rjmp	.+88     	; 0x2fd2 <__vector_11+0xe0>
    2f7a:	01 96       	adiw	r24, 0x01	; 1
    2f7c:	90 93 c7 01 	sts	0x01C7, r25	; 0x8001c7 <cont_sirene+0x1>
    2f80:	80 93 c6 01 	sts	0x01C6, r24	; 0x8001c6 <cont_sirene>
    2f84:	26 c0       	rjmp	.+76     	; 0x2fd2 <__vector_11+0xe0>
    2f86:	8d 30       	cpi	r24, 0x0D	; 13
    2f88:	21 f5       	brne	.+72     	; 0x2fd2 <__vector_11+0xe0>
    2f8a:	80 91 c4 01 	lds	r24, 0x01C4	; 0x8001c4 <cont_ativacao>
    2f8e:	90 91 c5 01 	lds	r25, 0x01C5	; 0x8001c5 <cont_ativacao+0x1>
    2f92:	20 91 02 01 	lds	r18, 0x0102	; 0x800102 <t_ativacao>
    2f96:	30 91 03 01 	lds	r19, 0x0103	; 0x800103 <t_ativacao+0x1>
    2f9a:	82 17       	cp	r24, r18
    2f9c:	93 07       	cpc	r25, r19
    2f9e:	a1 f4       	brne	.+40     	; 0x2fc8 <__vector_11+0xd6>
    2fa0:	85 e0       	ldi	r24, 0x05	; 5
    2fa2:	80 93 da 01 	sts	0x01DA, r24	; 0x8001da <state>
    2fa6:	0e 94 a8 1b 	call	0x3750	; 0x3750 <msg_ativado>
    2faa:	10 92 c5 01 	sts	0x01C5, r1	; 0x8001c5 <cont_ativacao+0x1>
    2fae:	10 92 c4 01 	sts	0x01C4, r1	; 0x8001c4 <cont_ativacao>
    2fb2:	80 91 dc 01 	lds	r24, 0x01DC	; 0x8001dc <varEscritaSerial>
    2fb6:	80 68       	ori	r24, 0x80	; 128
    2fb8:	90 91 11 01 	lds	r25, 0x0111	; 0x800111 <var_aux_1>
    2fbc:	89 2b       	or	r24, r25
    2fbe:	80 93 dc 01 	sts	0x01DC, r24	; 0x8001dc <varEscritaSerial>
    2fc2:	0e 94 63 1e 	call	0x3cc6	; 0x3cc6 <StopTimer1>
    2fc6:	05 c0       	rjmp	.+10     	; 0x2fd2 <__vector_11+0xe0>
    2fc8:	01 96       	adiw	r24, 0x01	; 1
    2fca:	90 93 c5 01 	sts	0x01C5, r25	; 0x8001c5 <cont_ativacao+0x1>
    2fce:	80 93 c4 01 	sts	0x01C4, r24	; 0x8001c4 <cont_ativacao>
    2fd2:	ff 91       	pop	r31
    2fd4:	ef 91       	pop	r30
    2fd6:	bf 91       	pop	r27
    2fd8:	af 91       	pop	r26
    2fda:	9f 91       	pop	r25
    2fdc:	8f 91       	pop	r24
    2fde:	7f 91       	pop	r23
    2fe0:	6f 91       	pop	r22
    2fe2:	5f 91       	pop	r21
    2fe4:	4f 91       	pop	r20
    2fe6:	3f 91       	pop	r19
    2fe8:	2f 91       	pop	r18
    2fea:	0f 90       	pop	r0
    2fec:	0f be       	out	0x3f, r0	; 63
    2fee:	0f 90       	pop	r0
    2ff0:	1f 90       	pop	r1
    2ff2:	18 95       	reti

Disassembly of section .text.libgcc:

00003d16 <__tablejump2__>:
    3d16:	ee 0f       	add	r30, r30
    3d18:	ff 1f       	adc	r31, r31
    3d1a:	05 90       	lpm	r0, Z+
    3d1c:	f4 91       	lpm	r31, Z
    3d1e:	e0 2d       	mov	r30, r0
    3d20:	09 94       	ijmp

Disassembly of section .text.libgcc.mul:

00003c74 <__muluhisi3>:
    3c74:	0e 94 13 1e 	call	0x3c26	; 0x3c26 <__umulhisi3>
    3c78:	a5 9f       	mul	r26, r21
    3c7a:	90 0d       	add	r25, r0
    3c7c:	b4 9f       	mul	r27, r20
    3c7e:	90 0d       	add	r25, r0
    3c80:	a4 9f       	mul	r26, r20
    3c82:	80 0d       	add	r24, r0
    3c84:	91 1d       	adc	r25, r1
    3c86:	11 24       	eor	r1, r1
    3c88:	08 95       	ret

Disassembly of section .text.libgcc:

00003c44 <__movmemx_qi>:
    3c44:	99 27       	eor	r25, r25

00003c46 <__movmemx_hi>:
    3c46:	77 fd       	sbrc	r23, 7
    3c48:	05 c0       	rjmp	.+10     	; 0x3c54 <__movmemx_hi+0xe>
    3c4a:	05 90       	lpm	r0, Z+
    3c4c:	0d 92       	st	X+, r0
    3c4e:	01 97       	sbiw	r24, 0x01	; 1
    3c50:	e1 f7       	brne	.-8      	; 0x3c4a <__movmemx_hi+0x4>
    3c52:	08 95       	ret
    3c54:	01 90       	ld	r0, Z+
    3c56:	0d 92       	st	X+, r0
    3c58:	01 97       	sbiw	r24, 0x01	; 1
    3c5a:	e1 f7       	brne	.-8      	; 0x3c54 <__movmemx_hi+0xe>
    3c5c:	08 95       	ret

Disassembly of section .text.libgcc.mul:

00003c26 <__umulhisi3>:
    3c26:	a2 9f       	mul	r26, r18
    3c28:	b0 01       	movw	r22, r0
    3c2a:	b3 9f       	mul	r27, r19
    3c2c:	c0 01       	movw	r24, r0
    3c2e:	a3 9f       	mul	r26, r19
    3c30:	70 0d       	add	r23, r0
    3c32:	81 1d       	adc	r24, r1
    3c34:	11 24       	eor	r1, r1
    3c36:	91 1d       	adc	r25, r1
    3c38:	b2 9f       	mul	r27, r18
    3c3a:	70 0d       	add	r23, r0
    3c3c:	81 1d       	adc	r24, r1
    3c3e:	11 24       	eor	r1, r1
    3c40:	91 1d       	adc	r25, r1
    3c42:	08 95       	ret
