
LCD_matrix.elf:     file format elf32-avr

Sections:
Idx Name          Size      VMA       LMA       File off  Algn
  0 .data         00000000  00800100  00800100  00003cbc  2**0
                  ALLOC, LOAD, DATA
  1 .text         00000104  00000000  00000000  00000154  2**1
                  CONTENTS, ALLOC, LOAD, READONLY, CODE
  2 .bss          00000034  00800100  00800100  00003cbc  2**0
                  ALLOC
  3 .comment      0000002f  00000000  00000000  00003cbc  2**0
                  CONTENTS, READONLY
  4 .debug_aranges 00000240  00000000  00000000  00003ceb  2**0
                  CONTENTS, READONLY, DEBUGGING
  5 .debug_info   0000363c  00000000  00000000  00003f2b  2**0
                  CONTENTS, READONLY, DEBUGGING
  6 .debug_abbrev 00000852  00000000  00000000  00007567  2**0
                  CONTENTS, READONLY, DEBUGGING
  7 .debug_line   00002181  00000000  00000000  00007db9  2**0
                  CONTENTS, READONLY, DEBUGGING
  8 .debug_frame  00000680  00000000  00000000  00009f3c  2**2
                  CONTENTS, READONLY, DEBUGGING
  9 .debug_str    00000218  00000000  00000000  0000a5bc  2**0
                  CONTENTS, READONLY, DEBUGGING
 10 .debug_loc    00000ec9  00000000  00000000  0000a7d4  2**0
                  CONTENTS, READONLY, DEBUGGING
 11 .debug_ranges 00000230  00000000  00000000  0000b69d  2**0
                  CONTENTS, READONLY, DEBUGGING
 12 .text         00000004  00003ae6  00003ae6  00003c3a  2**1
                  CONTENTS, ALLOC, LOAD, READONLY, CODE
 13 .note.gnu.avr.deviceinfo 00000040  00000000  00000000  0000b8d0  2**2
                  CONTENTS, READONLY, DEBUGGING
 14 .text.SetBit  00000012  00003a72  00003a72  00003bc6  2**1
                  CONTENTS, ALLOC, LOAD, READONLY, CODE
 15 .text.ClearBit 00000014  00003a0e  00003a0e  00003b62  2**1
                  CONTENTS, ALLOC, LOAD, READONLY, CODE
 16 .text.shiftIn 00000084  00002cdc  00002cdc  00002e30  2**1
                  CONTENTS, ALLOC, LOAD, READONLY, CODE
 17 .text.shiftOut 00000048  000036bc  000036bc  00003810  2**1
                  CONTENTS, ALLOC, LOAD, READONLY, CODE
 18 .text.init_int1 0000000c  00003a96  00003a96  00003bea  2**1
                  CONTENTS, ALLOC, LOAD, READONLY, CODE
 19 .text.delay_ms 00000054  00003492  00003492  000035e6  2**1
                  CONTENTS, ALLOC, LOAD, READONLY, CODE
 20 .text.delay_ns 00000048  00003704  00003704  00003858  2**1
                  CONTENTS, ALLOC, LOAD, READONLY, CODE
 21 .text.send_instruction_lcd 00000040  00003864  00003864  000039b8  2**1
                  CONTENTS, ALLOC, LOAD, READONLY, CODE
 22 .text.clear_Display 00000014  00003a22  00003a22  00003b76  2**1
                  CONTENTS, ALLOC, LOAD, READONLY, CODE
 23 .text.send_instruction_lcd_nibble 00000020  0000398a  0000398a  00003ade  2**1
                  CONTENTS, ALLOC, LOAD, READONLY, CODE
 24 .text.inicializa_display 0000009e  00002bae  00002bae  00002d02  2**1
                  CONTENTS, ALLOC, LOAD, READONLY, CODE
 25 .text.send_word_lcd 0000004c  00003670  00003670  000037c4  2**1
                  CONTENTS, ALLOC, LOAD, READONLY, CODE
 26 .text.set_DDRAM_ADDR 0000004e  00003538  00003538  0000368c  2**1
                  CONTENTS, ALLOC, LOAD, READONLY, CODE
 27 .text.envia_frase 0000002c  00003910  00003910  00003a64  2**1
                  CONTENTS, ALLOC, LOAD, READONLY, CODE
 28 .progmemx.data 000001d5  00000104  00000104  00000258  2**0
                  CONTENTS, ALLOC, LOAD, READONLY, PROGMEMX
 29 .text.msg_inserir_senha 0000004e  00003586  00003586  000036da  2**1
                  CONTENTS, ALLOC, LOAD, READONLY, CODE
 30 .text.msg_desativado 0000005c  0000337e  0000337e  000034d2  2**1
                  CONTENTS, ALLOC, LOAD, READONLY, CODE
 31 .text.msg_ativado 0000005c  000033da  000033da  0000352e  2**1
                  CONTENTS, ALLOC, LOAD, READONLY, CODE
 32 .text.msg_programacao 0000005c  00003436  00003436  0000358a  2**1
                  CONTENTS, ALLOC, LOAD, READONLY, CODE
 33 .text.msg_altera_senha 0000004e  000035d4  000035d4  00003728  2**1
                  CONTENTS, ALLOC, LOAD, READONLY, CODE
 34 .text.msg_h_sensores 00000066  00002e60  00002e60  00002fb4  2**1
                  CONTENTS, ALLOC, LOAD, READONLY, CODE
 35 .text.msg_d_sensores 00000066  00002ec6  00002ec6  0000301a  2**1
                  CONTENTS, ALLOC, LOAD, READONLY, CODE
 36 .text.msg_panico 00000062  000031f6  000031f6  0000334a  2**1
                  CONTENTS, ALLOC, LOAD, READONLY, CODE
 37 .text.msg_restauracao 00000044  000037dc  000037dc  00003930  2**1
                  CONTENTS, ALLOC, LOAD, READONLY, CODE
 38 .text.msg_h_zona 00000066  00002f2c  00002f2c  00003080  2**1
                  CONTENTS, ALLOC, LOAD, READONLY, CODE
 39 .text.msg_d_zona 00000066  00002f92  00002f92  000030e6  2**1
                  CONTENTS, ALLOC, LOAD, READONLY, CODE
 40 .text.msg_h_ass 00000066  00002ff8  00002ff8  0000314c  2**1
                  CONTENTS, ALLOC, LOAD, READONLY, CODE
 41 .text.msg_d_ass 00000066  0000305e  0000305e  000031b2  2**1
                  CONTENTS, ALLOC, LOAD, READONLY, CODE
 42 .text.msg_ajusteTout 00000066  000030c4  000030c4  00003218  2**1
                  CONTENTS, ALLOC, LOAD, READONLY, CODE
 43 .text.msg_time_sirene 00000066  0000312a  0000312a  0000327e  2**1
                  CONTENTS, ALLOC, LOAD, READONLY, CODE
 44 .text.msg_temp_ativ 00000066  00003190  00003190  000032e4  2**1
                  CONTENTS, ALLOC, LOAD, READONLY, CODE
 45 .text.insert_senha 00000014  00003a36  00003a36  00003b8a  2**1
                  CONTENTS, ALLOC, LOAD, READONLY, CODE
 46 .text.senha_arm 00000052  000034e6  000034e6  0000363a  2**1
                  CONTENTS, ALLOC, LOAD, READONLY, CODE
 47 .text.verify_senhaM 0000007c  00002de4  00002de4  00002f38  2**1
                  CONTENTS, ALLOC, LOAD, READONLY, CODE
 48 .text.verify_senhaD 000001ac  00002704  00002704  00002858  2**1
                  CONTENTS, ALLOC, LOAD, READONLY, CODE
 49 .text.hab_sensor 00000146  000028b0  000028b0  00002a04  2**1
                  CONTENTS, ALLOC, LOAD, READONLY, CODE
 50 .text.hab_zonas 00000090  00002c4c  00002c4c  00002da0  2**1
                  CONTENTS, ALLOC, LOAD, READONLY, CODE
 51 .text.assSensorZona 0000033e  000021f6  000021f6  0000234a  2**1
                  CONTENTS, ALLOC, LOAD, READONLY, CODE
 52 .text.set_timeout 00000030  000038e0  000038e0  00003a34  2**1
                  CONTENTS, ALLOC, LOAD, READONLY, CODE
 53 .text.set_timeA 00000048  0000374c  0000374c  000038a0  2**1
                  CONTENTS, ALLOC, LOAD, READONLY, CODE
 54 .text.set_timeS 00000048  00003794  00003794  000038e8  2**1
                  CONTENTS, ALLOC, LOAD, READONLY, CODE
 55 .text.SetupTimer1 00000022  00003968  00003968  00003abc  2**1
                  CONTENTS, ALLOC, LOAD, READONLY, CODE
 56 .text.StartTimer1 0000000c  00003aa2  00003aa2  00003bf6  2**1
                  CONTENTS, ALLOC, LOAD, READONLY, CODE
 57 .text.verify_senhaA 000001d0  00002534  00002534  00002688  2**1
                  CONTENTS, ALLOC, LOAD, READONLY, CODE
 58 .text.StopTimer1 00000014  00003a4a  00003a4a  00003b9e  2**1
                  CONTENTS, ALLOC, LOAD, READONLY, CODE
 59 .text.SetupTimer0 00000012  00003a84  00003a84  00003bd8  2**1
                  CONTENTS, ALLOC, LOAD, READONLY, CODE
 60 .text.ZerarTemps 00000016  000039e2  000039e2  00003b36  2**1
                  CONTENTS, ALLOC, LOAD, READONLY, CODE
 61 .text.StartSirene 00000008  00003aba  00003aba  00003c0e  2**1
                  CONTENTS, ALLOC, LOAD, READONLY, CODE
 62 .text.StopSirene 00000006  00003ada  00003ada  00003c2e  2**1
                  CONTENTS, ALLOC, LOAD, READONLY, CODE
 63 .text.__vector_11 000000ea  000029f6  000029f6  00002b4a  2**1
                  CONTENTS, ALLOC, LOAD, READONLY, CODE
 64 .text.SPI_Master_Setup 00000014  00003a5e  00003a5e  00003bb2  2**1
                  CONTENTS, ALLOC, LOAD, READONLY, CODE
 65 .text.SPI_Master_Transmit 00000004  00003aea  00003aea  00003c3e  2**1
                  CONTENTS, ALLOC, LOAD, READONLY, CODE
 66 .text.SPI_Read 0000002c  0000393c  0000393c  00003a90  2**1
                  CONTENTS, ALLOC, LOAD, READONLY, CODE
 67 .text.RTC_Read_Hours 00000008  00003ac2  00003ac2  00003c16  2**1
                  CONTENTS, ALLOC, LOAD, READONLY, CODE
 68 .text.RTC_Read_Day 00000008  00003aca  00003aca  00003c1e  2**1
                  CONTENTS, ALLOC, LOAD, READONLY, CODE
 69 .text.IniciarUART 0000004e  00003622  00003622  00003776  2**1
                  CONTENTS, ALLOC, LOAD, READONLY, CODE
 70 .text.main    000000ce  00002ae0  00002ae0  00002c34  2**1
                  CONTENTS, ALLOC, LOAD, READONLY, CODE
 71 .text.ProntoTXUART 00000008  00003ad2  00003ad2  00003c26  2**1
                  CONTENTS, ALLOC, LOAD, READONLY, CODE
 72 .text.EnviarTXUART 00000006  00003ae0  00003ae0  00003c34  2**1
                  CONTENTS, ALLOC, LOAD, READONLY, CODE
 73 .text.EnviarStringUART 0000003c  000038a4  000038a4  000039f8  2**1
                  CONTENTS, ALLOC, LOAD, READONLY, CODE
 74 .text.EnviarDec1Byte 00000084  00002d60  00002d60  00002eb4  2**1
                  CONTENTS, ALLOC, LOAD, READONLY, CODE
 75 .text.UARTA   00000062  00003258  00003258  000033ac  2**1
                  CONTENTS, ALLOC, LOAD, READONLY, CODE
 76 .text.UARTP   00000062  000032ba  000032ba  0000340e  2**1
                  CONTENTS, ALLOC, LOAD, READONLY, CODE
 77 .text.UARTD   00000062  0000331c  0000331c  00003470  2**1
                  CONTENTS, ALLOC, LOAD, READONLY, CODE
 78 .text.__vector_2 00001f1c  000002da  000002da  0000042e  2**1
                  CONTENTS, ALLOC, LOAD, READONLY, CODE
 79 .bss.state    00000001  008001da  008001da  00003cbc  2**0
                  ALLOC
 80 .data.sensor7 00000006  00800170  00003b2a  00003c7e  2**0
                  CONTENTS, ALLOC, LOAD, DATA
 81 .data.sensor6 00000006  00800176  00003b30  00003c84  2**0
                  CONTENTS, ALLOC, LOAD, DATA
 82 .data.sensor5 00000006  0080017c  00003b36  00003c8a  2**0
                  CONTENTS, ALLOC, LOAD, DATA
 83 .data.sensor4 00000006  00800182  00003b3c  00003c90  2**0
                  CONTENTS, ALLOC, LOAD, DATA
 84 .data.sensor3 00000006  00800188  00003b42  00003c96  2**0
                  CONTENTS, ALLOC, LOAD, DATA
 85 .data.sensor2 00000006  0080018e  00003b48  00003c9c  2**0
                  CONTENTS, ALLOC, LOAD, DATA
 86 .data.sensor1 00000006  00800194  00003b4e  00003ca2  2**0
                  CONTENTS, ALLOC, LOAD, DATA
 87 .bss.sensor0  00000006  0080019a  0080019a  00003cbc  2**0
                  ALLOC
 88 .data.zona3   00000014  00800134  00003aee  00003c42  2**0
                  CONTENTS, ALLOC, LOAD, DATA
 89 .data.zona2   00000014  00800148  00003b02  00003c56  2**0
                  CONTENTS, ALLOC, LOAD, DATA
 90 .data.zona1   00000014  0080015c  00003b16  00003c6a  2**0
                  CONTENTS, ALLOC, LOAD, DATA
 91 .bss.cont_s   00000002  008001b8  008001b8  00003cbc  2**0
                  ALLOC
 92 .bss.cont_aa  00000002  008001ba  008001ba  00003cbc  2**0
                  ALLOC
 93 .bss.cont_t   00000002  008001bc  008001bc  00003cbc  2**0
                  ALLOC
 94 .bss.flag_tat 00000002  008001be  008001be  00003cbc  2**0
                  ALLOC
 95 .bss.flag_tsirene 00000002  008001c0  008001c0  00003cbc  2**0
                  ALLOC
 96 .bss.flag_timeout 00000002  008001c2  008001c2  00003cbc  2**0
                  ALLOC
 97 .bss.cont_ativacao 00000002  008001c4  008001c4  00003cbc  2**0
                  ALLOC
 98 .bss.cont_sirene 00000002  008001c6  008001c6  00003cbc  2**0
                  ALLOC
 99 .bss.cont_timeout 00000001  008001db  008001db  00003cbc  2**0
                  ALLOC
100 .bss.flag_z1  00000002  008001c8  008001c8  00003cbc  2**0
                  ALLOC
101 .bss.flag_z   00000002  008001ca  008001ca  00003cbc  2**0
                  ALLOC
102 .bss.flag_p   00000002  008001cc  008001cc  00003cbc  2**0
                  ALLOC
103 .bss.flag_D_sensor 00000002  008001ce  008001ce  00003cbc  2**0
                  ALLOC
104 .bss.flag_sensor 00000002  008001d0  008001d0  00003cbc  2**0
                  ALLOC
105 .bss.cont_b   00000002  008001d2  008001d2  00003cbc  2**0
                  ALLOC
106 .bss.cont_a   00000002  008001d4  008001d4  00003cbc  2**0
                  ALLOC
107 .bss.count_senha 00000002  008001d6  008001d6  00003cbc  2**0
                  ALLOC
108 .bss.flag_a_senha 00000002  008001d8  008001d8  00003cbc  2**0
                  ALLOC
109 .data.senha3  00000005  008001a0  00003b54  00003ca8  2**0
                  CONTENTS, ALLOC, LOAD, DATA
110 .data.senha2  00000005  008001a5  00003b59  00003cad  2**0
                  CONTENTS, ALLOC, LOAD, DATA
111 .data.senha1  00000005  008001aa  00003b5e  00003cb2  2**0
                  CONTENTS, ALLOC, LOAD, DATA
112 .data.mestre  00000005  008001af  00003b63  00003cb7  2**0
                  CONTENTS, ALLOC, LOAD, DATA
113 .bss.x        00000004  008001b4  008001b4  00003cbc  2**0
                  ALLOC
114 .data.varEscritaSerial 00000001  008001dc  000002d9  0000042d  2**0
                  CONTENTS, ALLOC, LOAD, DATA
115 .bss.varLeituraSerial 00000001  008001dd  008001dd  00003cbc  2**0
                  ALLOC
116 .text.libgcc.div 00000044  00003820  00003820  00003974  2**1
                  CONTENTS, ALLOC, LOAD, READONLY, CODE
117 .text.libgcc  0000000c  00003aae  00003aae  00003c02  2**1
                  CONTENTS, ALLOC, LOAD, READONLY, CODE
118 .text.libgcc.mul 00000016  000039f8  000039f8  00003b4c  2**1
                  CONTENTS, ALLOC, LOAD, READONLY, CODE
119 .text.libgcc  0000001a  000039c8  000039c8  00003b1c  2**1
                  CONTENTS, ALLOC, LOAD, READONLY, CODE
120 .text.libgcc.mul 0000001e  000039aa  000039aa  00003afe  2**1
                  CONTENTS, ALLOC, LOAD, READONLY, CODE

Disassembly of section .text:

00000000 <__vectors>:
   0:	0c 94 58 00 	jmp	0xb0	; 0xb0 <__ctors_end>
   4:	0c 94 73 1d 	jmp	0x3ae6	; 0x3ae6 <__bad_interrupt>
   8:	0c 94 6d 01 	jmp	0x2da	; 0x2da <__vector_2>
   c:	0c 94 73 1d 	jmp	0x3ae6	; 0x3ae6 <__bad_interrupt>
  10:	0c 94 73 1d 	jmp	0x3ae6	; 0x3ae6 <__bad_interrupt>
  14:	0c 94 73 1d 	jmp	0x3ae6	; 0x3ae6 <__bad_interrupt>
  18:	0c 94 73 1d 	jmp	0x3ae6	; 0x3ae6 <__bad_interrupt>
  1c:	0c 94 73 1d 	jmp	0x3ae6	; 0x3ae6 <__bad_interrupt>
  20:	0c 94 73 1d 	jmp	0x3ae6	; 0x3ae6 <__bad_interrupt>
  24:	0c 94 73 1d 	jmp	0x3ae6	; 0x3ae6 <__bad_interrupt>
  28:	0c 94 73 1d 	jmp	0x3ae6	; 0x3ae6 <__bad_interrupt>
  2c:	0c 94 fb 14 	jmp	0x29f6	; 0x29f6 <__vector_11>
  30:	0c 94 73 1d 	jmp	0x3ae6	; 0x3ae6 <__bad_interrupt>
  34:	0c 94 73 1d 	jmp	0x3ae6	; 0x3ae6 <__bad_interrupt>
  38:	0c 94 73 1d 	jmp	0x3ae6	; 0x3ae6 <__bad_interrupt>
  3c:	0c 94 73 1d 	jmp	0x3ae6	; 0x3ae6 <__bad_interrupt>
  40:	0c 94 73 1d 	jmp	0x3ae6	; 0x3ae6 <__bad_interrupt>
  44:	0c 94 73 1d 	jmp	0x3ae6	; 0x3ae6 <__bad_interrupt>
  48:	0c 94 73 1d 	jmp	0x3ae6	; 0x3ae6 <__bad_interrupt>
  4c:	0c 94 73 1d 	jmp	0x3ae6	; 0x3ae6 <__bad_interrupt>
  50:	0c 94 73 1d 	jmp	0x3ae6	; 0x3ae6 <__bad_interrupt>
  54:	0c 94 73 1d 	jmp	0x3ae6	; 0x3ae6 <__bad_interrupt>
  58:	0c 94 73 1d 	jmp	0x3ae6	; 0x3ae6 <__bad_interrupt>
  5c:	0c 94 73 1d 	jmp	0x3ae6	; 0x3ae6 <__bad_interrupt>
  60:	0c 94 73 1d 	jmp	0x3ae6	; 0x3ae6 <__bad_interrupt>
  64:	0c 94 73 1d 	jmp	0x3ae6	; 0x3ae6 <__bad_interrupt>
  68:	ac 15       	cp	r26, r12
  6a:	c2 15       	cp	r28, r2
  6c:	98 15       	cp	r25, r8
  6e:	98 15       	cp	r25, r8
  70:	98 15       	cp	r25, r8
  72:	c5 15       	cp	r28, r5
  74:	cb 15       	cp	r28, r11
  76:	c8 15       	cp	r28, r8
  78:	98 15       	cp	r25, r8
  7a:	98 15       	cp	r25, r8
  7c:	98 15       	cp	r25, r8
  7e:	98 15       	cp	r25, r8
  80:	ce 15       	cp	r28, r14
  82:	d1 15       	cp	r29, r1
  84:	d4 15       	cp	r29, r4

00000086 <.dinit>:
  86:	01 00       	.word	0x0001	; ????
  88:	01 34       	cpi	r16, 0x41	; 65
  8a:	80 01       	movw	r16, r0
  8c:	34 01       	movw	r6, r8
  8e:	9a 00       	.word	0x009a	; ????
  90:	3a ee       	ldi	r19, 0xEA	; 234
  92:	01 9a       	sbi	0x00, 1	; 0
  94:	01 a0       	ldd	r0, Z+33	; 0x21
  96:	80 01       	movw	r16, r0
  98:	a0 01       	movw	r20, r0
  9a:	b4 00       	.word	0x00b4	; ????
  9c:	3b 54       	subi	r19, 0x4B	; 75
  9e:	01 b4       	in	r0, 0x21	; 33
  a0:	01 dc       	rcall	.-2046   	; 0xfffff8a4 <__eeprom_end+0xff7ef8a4>
  a2:	80 01       	movw	r16, r0
  a4:	dc 01       	movw	r26, r24
  a6:	dd 00       	.word	0x00dd	; ????
  a8:	02 d9       	rcall	.-3580   	; 0xfffff2ae <__eeprom_end+0xff7ef2ae>
  aa:	01 dd       	rcall	.-1534   	; 0xfffffaae <__eeprom_end+0xff7efaae>
  ac:	01 de       	rcall	.-1022   	; 0xfffffcb0 <__eeprom_end+0xff7efcb0>
  ae:	80 00       	.word	0x0080	; ????

000000b0 <__ctors_end>:
  b0:	11 24       	eor	r1, r1
  b2:	1f be       	out	0x3f, r1	; 63
  b4:	cf ef       	ldi	r28, 0xFF	; 255
  b6:	d8 e0       	ldi	r29, 0x08	; 8
  b8:	de bf       	out	0x3e, r29	; 62
  ba:	cd bf       	out	0x3d, r28	; 61

000000bc <__do_copy_data>:
  bc:	e6 e8       	ldi	r30, 0x86	; 134
  be:	f0 e0       	ldi	r31, 0x00	; 0
  c0:	40 e0       	ldi	r20, 0x00	; 0
  c2:	17 c0       	rjmp	.+46     	; 0xf2 <__do_clear_bss+0x8>
  c4:	b5 91       	lpm	r27, Z+
  c6:	a5 91       	lpm	r26, Z+
  c8:	35 91       	lpm	r19, Z+
  ca:	25 91       	lpm	r18, Z+
  cc:	05 91       	lpm	r16, Z+
  ce:	07 fd       	sbrc	r16, 7
  d0:	0c c0       	rjmp	.+24     	; 0xea <__do_clear_bss>
  d2:	95 91       	lpm	r25, Z+
  d4:	85 91       	lpm	r24, Z+
  d6:	ef 01       	movw	r28, r30
  d8:	f9 2f       	mov	r31, r25
  da:	e8 2f       	mov	r30, r24
  dc:	05 90       	lpm	r0, Z+
  de:	0d 92       	st	X+, r0
  e0:	a2 17       	cp	r26, r18
  e2:	b3 07       	cpc	r27, r19
  e4:	d9 f7       	brne	.-10     	; 0xdc <__do_copy_data+0x20>
  e6:	fe 01       	movw	r30, r28
  e8:	04 c0       	rjmp	.+8      	; 0xf2 <__do_clear_bss+0x8>

000000ea <__do_clear_bss>:
  ea:	1d 92       	st	X+, r1
  ec:	a2 17       	cp	r26, r18
  ee:	b3 07       	cpc	r27, r19
  f0:	e1 f7       	brne	.-8      	; 0xea <__do_clear_bss>
  f2:	ef 3a       	cpi	r30, 0xAF	; 175
  f4:	f4 07       	cpc	r31, r20
  f6:	31 f7       	brne	.-52     	; 0xc4 <__do_copy_data+0x8>
  f8:	0e 94 70 15 	call	0x2ae0	; 0x2ae0 <main>
  fc:	0c 94 80 00 	jmp	0x100	; 0x100 <_exit>

00000100 <_exit>:
 100:	f8 94       	cli

00000102 <__stop_program>:
 102:	ff cf       	rjmp	.-2      	; 0x102 <__stop_program>

Disassembly of section .text:

00003ae6 <__bad_interrupt>:
    3ae6:	0c 94 00 00 	jmp	0	; 0x0 <__TEXT_REGION_ORIGIN__>

Disassembly of section .text.SetBit:

00003a72 <SetBit>:
uint8_t RTC_Read_Hours(){
	return SPI_Read(0x02);
}
uint8_t RTC_Read_Minu(){
	return SPI_Read(0x01);
}
    3a72:	21 e0       	ldi	r18, 0x01	; 1
    3a74:	30 e0       	ldi	r19, 0x00	; 0
    3a76:	02 c0       	rjmp	.+4      	; 0x3a7c <SetBit+0xa>
    3a78:	22 0f       	add	r18, r18
    3a7a:	33 1f       	adc	r19, r19
    3a7c:	6a 95       	dec	r22
    3a7e:	e2 f7       	brpl	.-8      	; 0x3a78 <SetBit+0x6>
    3a80:	82 2b       	or	r24, r18
    3a82:	08 95       	ret

Disassembly of section .text.ClearBit:

00003a0e <ClearBit>:
    3a0e:	21 e0       	ldi	r18, 0x01	; 1
    3a10:	30 e0       	ldi	r19, 0x00	; 0
    3a12:	02 c0       	rjmp	.+4      	; 0x3a18 <ClearBit+0xa>
    3a14:	22 0f       	add	r18, r18
    3a16:	33 1f       	adc	r19, r19
    3a18:	6a 95       	dec	r22
    3a1a:	e2 f7       	brpl	.-8      	; 0x3a14 <ClearBit+0x6>
    3a1c:	20 95       	com	r18
    3a1e:	82 23       	and	r24, r18
    3a20:	08 95       	ret

Disassembly of section .text.shiftIn:

00002cdc <shiftIn>:
    2cdc:	cf 93       	push	r28
    2cde:	85 b1       	in	r24, 0x05	; 5
    2ce0:	82 60       	ori	r24, 0x02	; 2
    2ce2:	85 b9       	out	0x05, r24	; 5
    2ce4:	85 b1       	in	r24, 0x05	; 5
    2ce6:	84 60       	ori	r24, 0x04	; 4
    2ce8:	85 b9       	out	0x05, r24	; 5
    2cea:	85 b1       	in	r24, 0x05	; 5
    2cec:	8b 7f       	andi	r24, 0xFB	; 251
    2cee:	85 b9       	out	0x05, r24	; 5
    2cf0:	85 b1       	in	r24, 0x05	; 5
    2cf2:	8d 7f       	andi	r24, 0xFD	; 253
    2cf4:	85 b9       	out	0x05, r24	; 5
    2cf6:	c0 e0       	ldi	r28, 0x00	; 0
    2cf8:	2f c0       	rjmp	.+94     	; 0x2d58 <shiftIn+0x7c>
    2cfa:	18 9b       	sbis	0x03, 0	; 3
    2cfc:	15 c0       	rjmp	.+42     	; 0x2d28 <shiftIn+0x4c>
    2cfe:	80 91 dd 01 	lds	r24, 0x01DD	; 0x8001dd <varLeituraSerial>
    2d02:	21 e0       	ldi	r18, 0x01	; 1
    2d04:	30 e0       	ldi	r19, 0x00	; 0
    2d06:	0c 2e       	mov	r0, r28
    2d08:	02 c0       	rjmp	.+4      	; 0x2d0e <shiftIn+0x32>
    2d0a:	22 0f       	add	r18, r18
    2d0c:	33 1f       	adc	r19, r19
    2d0e:	0a 94       	dec	r0
    2d10:	e2 f7       	brpl	.-8      	; 0x2d0a <shiftIn+0x2e>
    2d12:	20 95       	com	r18
    2d14:	30 95       	com	r19
    2d16:	28 2b       	or	r18, r24
    2d18:	23 2b       	or	r18, r19
    2d1a:	b9 f0       	breq	.+46     	; 0x2d4a <shiftIn+0x6e>
    2d1c:	6c 2f       	mov	r22, r28
    2d1e:	0e 94 39 1d 	call	0x3a72	; 0x3a72 <SetBit>
    2d22:	80 93 dd 01 	sts	0x01DD, r24	; 0x8001dd <varLeituraSerial>
    2d26:	11 c0       	rjmp	.+34     	; 0x2d4a <shiftIn+0x6e>
    2d28:	80 91 dd 01 	lds	r24, 0x01DD	; 0x8001dd <varLeituraSerial>
    2d2c:	28 2f       	mov	r18, r24
    2d2e:	30 e0       	ldi	r19, 0x00	; 0
    2d30:	0c 2e       	mov	r0, r28
    2d32:	02 c0       	rjmp	.+4      	; 0x2d38 <shiftIn+0x5c>
    2d34:	35 95       	asr	r19
    2d36:	27 95       	ror	r18
    2d38:	0a 94       	dec	r0
    2d3a:	e2 f7       	brpl	.-8      	; 0x2d34 <shiftIn+0x58>
    2d3c:	20 ff       	sbrs	r18, 0
    2d3e:	05 c0       	rjmp	.+10     	; 0x2d4a <shiftIn+0x6e>
    2d40:	6c 2f       	mov	r22, r28
    2d42:	0e 94 07 1d 	call	0x3a0e	; 0x3a0e <ClearBit>
    2d46:	80 93 dd 01 	sts	0x01DD, r24	; 0x8001dd <varLeituraSerial>
    2d4a:	85 b1       	in	r24, 0x05	; 5
    2d4c:	84 60       	ori	r24, 0x04	; 4
    2d4e:	85 b9       	out	0x05, r24	; 5
    2d50:	85 b1       	in	r24, 0x05	; 5
    2d52:	8b 7f       	andi	r24, 0xFB	; 251
    2d54:	85 b9       	out	0x05, r24	; 5
    2d56:	cf 5f       	subi	r28, 0xFF	; 255
    2d58:	c8 30       	cpi	r28, 0x08	; 8
    2d5a:	78 f2       	brcs	.-98     	; 0x2cfa <shiftIn+0x1e>
    2d5c:	cf 91       	pop	r28
    2d5e:	08 95       	ret

Disassembly of section .text.shiftOut:

000036bc <shiftOut>:
    36bc:	20 e0       	ldi	r18, 0x00	; 0
    36be:	19 c0       	rjmp	.+50     	; 0x36f2 <shiftOut+0x36>
    36c0:	80 91 dc 01 	lds	r24, 0x01DC	; 0x8001dc <varEscritaSerial>
    36c4:	90 e0       	ldi	r25, 0x00	; 0
    36c6:	02 2e       	mov	r0, r18
    36c8:	02 c0       	rjmp	.+4      	; 0x36ce <shiftOut+0x12>
    36ca:	95 95       	asr	r25
    36cc:	87 95       	ror	r24
    36ce:	0a 94       	dec	r0
    36d0:	e2 f7       	brpl	.-8      	; 0x36ca <shiftOut+0xe>
    36d2:	80 ff       	sbrs	r24, 0
    36d4:	04 c0       	rjmp	.+8      	; 0x36de <shiftOut+0x22>
    36d6:	88 b1       	in	r24, 0x08	; 8
    36d8:	81 60       	ori	r24, 0x01	; 1
    36da:	88 b9       	out	0x08, r24	; 8
    36dc:	03 c0       	rjmp	.+6      	; 0x36e4 <shiftOut+0x28>
    36de:	88 b1       	in	r24, 0x08	; 8
    36e0:	8e 7f       	andi	r24, 0xFE	; 254
    36e2:	88 b9       	out	0x08, r24	; 8
    36e4:	85 b1       	in	r24, 0x05	; 5
    36e6:	84 60       	ori	r24, 0x04	; 4
    36e8:	85 b9       	out	0x05, r24	; 5
    36ea:	85 b1       	in	r24, 0x05	; 5
    36ec:	8b 7f       	andi	r24, 0xFB	; 251
    36ee:	85 b9       	out	0x05, r24	; 5
    36f0:	2f 5f       	subi	r18, 0xFF	; 255
    36f2:	28 30       	cpi	r18, 0x08	; 8
    36f4:	28 f3       	brcs	.-54     	; 0x36c0 <shiftOut+0x4>
    36f6:	83 b1       	in	r24, 0x03	; 3
    36f8:	8f 77       	andi	r24, 0x7F	; 127
    36fa:	83 b9       	out	0x03, r24	; 3
    36fc:	83 b1       	in	r24, 0x03	; 3
    36fe:	80 68       	ori	r24, 0x80	; 128
    3700:	83 b9       	out	0x03, r24	; 3
    3702:	08 95       	ret

Disassembly of section .text.init_int1:

00003a96 <init_int1>:
    3a96:	8c e0       	ldi	r24, 0x0C	; 12
    3a98:	80 93 69 00 	sts	0x0069, r24	; 0x800069 <__TEXT_REGION_LENGTH__+0x7f8069>
    3a9c:	82 e0       	ldi	r24, 0x02	; 2
    3a9e:	8d bb       	out	0x1d, r24	; 29
    3aa0:	08 95       	ret

Disassembly of section .text.delay_ms:

00003492 <delay_ms>:
    3492:	9b 01       	movw	r18, r22
    3494:	ac 01       	movw	r20, r24
    3496:	10 92 b4 01 	sts	0x01B4, r1	; 0x8001b4 <x>
    349a:	10 92 b5 01 	sts	0x01B5, r1	; 0x8001b5 <x+0x1>
    349e:	10 92 b6 01 	sts	0x01B6, r1	; 0x8001b6 <x+0x2>
    34a2:	10 92 b7 01 	sts	0x01B7, r1	; 0x8001b7 <x+0x3>
    34a6:	a8 ee       	ldi	r26, 0xE8	; 232
    34a8:	b3 e0       	ldi	r27, 0x03	; 3
    34aa:	0e 94 fc 1c 	call	0x39f8	; 0x39f8 <__muluhisi3>
    34ae:	ab 01       	movw	r20, r22
    34b0:	bc 01       	movw	r22, r24
    34b2:	0b c0       	rjmp	.+22     	; 0x34ca <delay_ms+0x38>
    34b4:	01 96       	adiw	r24, 0x01	; 1
    34b6:	a1 1d       	adc	r26, r1
    34b8:	b1 1d       	adc	r27, r1
    34ba:	80 93 b4 01 	sts	0x01B4, r24	; 0x8001b4 <x>
    34be:	90 93 b5 01 	sts	0x01B5, r25	; 0x8001b5 <x+0x1>
    34c2:	a0 93 b6 01 	sts	0x01B6, r26	; 0x8001b6 <x+0x2>
    34c6:	b0 93 b7 01 	sts	0x01B7, r27	; 0x8001b7 <x+0x3>
    34ca:	80 91 b4 01 	lds	r24, 0x01B4	; 0x8001b4 <x>
    34ce:	90 91 b5 01 	lds	r25, 0x01B5	; 0x8001b5 <x+0x1>
    34d2:	a0 91 b6 01 	lds	r26, 0x01B6	; 0x8001b6 <x+0x2>
    34d6:	b0 91 b7 01 	lds	r27, 0x01B7	; 0x8001b7 <x+0x3>
    34da:	48 17       	cp	r20, r24
    34dc:	59 07       	cpc	r21, r25
    34de:	6a 07       	cpc	r22, r26
    34e0:	7b 07       	cpc	r23, r27
    34e2:	44 f7       	brge	.-48     	; 0x34b4 <delay_ms+0x22>
    34e4:	08 95       	ret

Disassembly of section .text.delay_ns:

00003704 <delay_ns>:
    3704:	ab 01       	movw	r20, r22
    3706:	bc 01       	movw	r22, r24
    3708:	10 92 b4 01 	sts	0x01B4, r1	; 0x8001b4 <x>
    370c:	10 92 b5 01 	sts	0x01B5, r1	; 0x8001b5 <x+0x1>
    3710:	10 92 b6 01 	sts	0x01B6, r1	; 0x8001b6 <x+0x2>
    3714:	10 92 b7 01 	sts	0x01B7, r1	; 0x8001b7 <x+0x3>
    3718:	0b c0       	rjmp	.+22     	; 0x3730 <delay_ns+0x2c>
    371a:	01 96       	adiw	r24, 0x01	; 1
    371c:	a1 1d       	adc	r26, r1
    371e:	b1 1d       	adc	r27, r1
    3720:	80 93 b4 01 	sts	0x01B4, r24	; 0x8001b4 <x>
    3724:	90 93 b5 01 	sts	0x01B5, r25	; 0x8001b5 <x+0x1>
    3728:	a0 93 b6 01 	sts	0x01B6, r26	; 0x8001b6 <x+0x2>
    372c:	b0 93 b7 01 	sts	0x01B7, r27	; 0x8001b7 <x+0x3>
    3730:	80 91 b4 01 	lds	r24, 0x01B4	; 0x8001b4 <x>
    3734:	90 91 b5 01 	lds	r25, 0x01B5	; 0x8001b5 <x+0x1>
    3738:	a0 91 b6 01 	lds	r26, 0x01B6	; 0x8001b6 <x+0x2>
    373c:	b0 91 b7 01 	lds	r27, 0x01B7	; 0x8001b7 <x+0x3>
    3740:	48 17       	cp	r20, r24
    3742:	59 07       	cpc	r21, r25
    3744:	6a 07       	cpc	r22, r26
    3746:	7b 07       	cpc	r23, r27
    3748:	44 f7       	brge	.-48     	; 0x371a <delay_ns+0x16>
    374a:	08 95       	ret

Disassembly of section .text.send_instruction_lcd:

00003864 <send_instruction_lcd>:
    3864:	98 b1       	in	r25, 0x08	; 8
    3866:	90 7c       	andi	r25, 0xC0	; 192
    3868:	98 b9       	out	0x08, r25	; 8
    386a:	98 b1       	in	r25, 0x08	; 8
    386c:	9f 7e       	andi	r25, 0xEF	; 239
    386e:	98 b9       	out	0x08, r25	; 8
    3870:	98 b1       	in	r25, 0x08	; 8
    3872:	90 62       	ori	r25, 0x20	; 32
    3874:	98 b9       	out	0x08, r25	; 8
    3876:	98 b1       	in	r25, 0x08	; 8
    3878:	28 2f       	mov	r18, r24
    387a:	22 95       	swap	r18
    387c:	2f 70       	andi	r18, 0x0F	; 15
    387e:	92 2b       	or	r25, r18
    3880:	98 b9       	out	0x08, r25	; 8
    3882:	98 b1       	in	r25, 0x08	; 8
    3884:	9f 7d       	andi	r25, 0xDF	; 223
    3886:	98 b9       	out	0x08, r25	; 8
    3888:	98 b1       	in	r25, 0x08	; 8
    388a:	90 7c       	andi	r25, 0xC0	; 192
    388c:	98 b9       	out	0x08, r25	; 8
    388e:	98 b1       	in	r25, 0x08	; 8
    3890:	90 62       	ori	r25, 0x20	; 32
    3892:	98 b9       	out	0x08, r25	; 8
    3894:	98 b1       	in	r25, 0x08	; 8
    3896:	8f 70       	andi	r24, 0x0F	; 15
    3898:	89 2b       	or	r24, r25
    389a:	88 b9       	out	0x08, r24	; 8
    389c:	88 b1       	in	r24, 0x08	; 8
    389e:	8f 7d       	andi	r24, 0xDF	; 223
    38a0:	88 b9       	out	0x08, r24	; 8
    38a2:	08 95       	ret

Disassembly of section .text.clear_Display:

00003a22 <clear_Display>:
    3a22:	81 e0       	ldi	r24, 0x01	; 1
    3a24:	0e 94 32 1c 	call	0x3864	; 0x3864 <send_instruction_lcd>
    3a28:	6f e0       	ldi	r22, 0x0F	; 15
    3a2a:	70 e0       	ldi	r23, 0x00	; 0
    3a2c:	80 e0       	ldi	r24, 0x00	; 0
    3a2e:	90 e0       	ldi	r25, 0x00	; 0
    3a30:	0e 94 49 1a 	call	0x3492	; 0x3492 <delay_ms>
    3a34:	08 95       	ret

Disassembly of section .text.send_instruction_lcd_nibble:

0000398a <send_instruction_lcd_nibble>:
    398a:	98 b1       	in	r25, 0x08	; 8
    398c:	90 7c       	andi	r25, 0xC0	; 192
    398e:	98 b9       	out	0x08, r25	; 8
    3990:	98 b1       	in	r25, 0x08	; 8
    3992:	9f 7e       	andi	r25, 0xEF	; 239
    3994:	98 b9       	out	0x08, r25	; 8
    3996:	98 b1       	in	r25, 0x08	; 8
    3998:	90 62       	ori	r25, 0x20	; 32
    399a:	98 b9       	out	0x08, r25	; 8
    399c:	98 b1       	in	r25, 0x08	; 8
    399e:	89 2b       	or	r24, r25
    39a0:	88 b9       	out	0x08, r24	; 8
    39a2:	88 b1       	in	r24, 0x08	; 8
    39a4:	8f 7d       	andi	r24, 0xDF	; 223
    39a6:	88 b9       	out	0x08, r24	; 8
    39a8:	08 95       	ret

Disassembly of section .text.inicializa_display:

00002bae <inicializa_display>:
    2bae:	6f e0       	ldi	r22, 0x0F	; 15
    2bb0:	70 e0       	ldi	r23, 0x00	; 0
    2bb2:	80 e0       	ldi	r24, 0x00	; 0
    2bb4:	90 e0       	ldi	r25, 0x00	; 0
    2bb6:	0e 94 49 1a 	call	0x3492	; 0x3492 <delay_ms>
    2bba:	83 e0       	ldi	r24, 0x03	; 3
    2bbc:	0e 94 c5 1c 	call	0x398a	; 0x398a <send_instruction_lcd_nibble>
    2bc0:	65 e0       	ldi	r22, 0x05	; 5
    2bc2:	70 e0       	ldi	r23, 0x00	; 0
    2bc4:	80 e0       	ldi	r24, 0x00	; 0
    2bc6:	90 e0       	ldi	r25, 0x00	; 0
    2bc8:	0e 94 49 1a 	call	0x3492	; 0x3492 <delay_ms>
    2bcc:	83 e0       	ldi	r24, 0x03	; 3
    2bce:	0e 94 c5 1c 	call	0x398a	; 0x398a <send_instruction_lcd_nibble>
    2bd2:	64 e6       	ldi	r22, 0x64	; 100
    2bd4:	70 e0       	ldi	r23, 0x00	; 0
    2bd6:	80 e0       	ldi	r24, 0x00	; 0
    2bd8:	90 e0       	ldi	r25, 0x00	; 0
    2bda:	0e 94 82 1b 	call	0x3704	; 0x3704 <delay_ns>
    2bde:	83 e0       	ldi	r24, 0x03	; 3
    2be0:	0e 94 c5 1c 	call	0x398a	; 0x398a <send_instruction_lcd_nibble>
    2be4:	68 e2       	ldi	r22, 0x28	; 40
    2be6:	70 e0       	ldi	r23, 0x00	; 0
    2be8:	80 e0       	ldi	r24, 0x00	; 0
    2bea:	90 e0       	ldi	r25, 0x00	; 0
    2bec:	0e 94 82 1b 	call	0x3704	; 0x3704 <delay_ns>
    2bf0:	82 e0       	ldi	r24, 0x02	; 2
    2bf2:	0e 94 c5 1c 	call	0x398a	; 0x398a <send_instruction_lcd_nibble>
    2bf6:	68 e2       	ldi	r22, 0x28	; 40
    2bf8:	70 e0       	ldi	r23, 0x00	; 0
    2bfa:	80 e0       	ldi	r24, 0x00	; 0
    2bfc:	90 e0       	ldi	r25, 0x00	; 0
    2bfe:	0e 94 82 1b 	call	0x3704	; 0x3704 <delay_ns>
    2c02:	88 e2       	ldi	r24, 0x28	; 40
    2c04:	0e 94 32 1c 	call	0x3864	; 0x3864 <send_instruction_lcd>
    2c08:	68 e2       	ldi	r22, 0x28	; 40
    2c0a:	70 e0       	ldi	r23, 0x00	; 0
    2c0c:	80 e0       	ldi	r24, 0x00	; 0
    2c0e:	90 e0       	ldi	r25, 0x00	; 0
    2c10:	0e 94 82 1b 	call	0x3704	; 0x3704 <delay_ns>
    2c14:	81 e0       	ldi	r24, 0x01	; 1
    2c16:	0e 94 32 1c 	call	0x3864	; 0x3864 <send_instruction_lcd>
    2c1a:	62 e0       	ldi	r22, 0x02	; 2
    2c1c:	70 e0       	ldi	r23, 0x00	; 0
    2c1e:	80 e0       	ldi	r24, 0x00	; 0
    2c20:	90 e0       	ldi	r25, 0x00	; 0
    2c22:	0e 94 49 1a 	call	0x3492	; 0x3492 <delay_ms>
    2c26:	86 e0       	ldi	r24, 0x06	; 6
    2c28:	0e 94 32 1c 	call	0x3864	; 0x3864 <send_instruction_lcd>
    2c2c:	68 e2       	ldi	r22, 0x28	; 40
    2c2e:	70 e0       	ldi	r23, 0x00	; 0
    2c30:	80 e0       	ldi	r24, 0x00	; 0
    2c32:	90 e0       	ldi	r25, 0x00	; 0
    2c34:	0e 94 82 1b 	call	0x3704	; 0x3704 <delay_ns>
    2c38:	8c e0       	ldi	r24, 0x0C	; 12
    2c3a:	0e 94 32 1c 	call	0x3864	; 0x3864 <send_instruction_lcd>
    2c3e:	68 e2       	ldi	r22, 0x28	; 40
    2c40:	70 e0       	ldi	r23, 0x00	; 0
    2c42:	80 e0       	ldi	r24, 0x00	; 0
    2c44:	90 e0       	ldi	r25, 0x00	; 0
    2c46:	0e 94 82 1b 	call	0x3704	; 0x3704 <delay_ns>
    2c4a:	08 95       	ret

Disassembly of section .text.send_word_lcd:

00003670 <send_word_lcd>:
    3670:	98 b1       	in	r25, 0x08	; 8
    3672:	90 7f       	andi	r25, 0xF0	; 240
    3674:	98 b9       	out	0x08, r25	; 8
    3676:	98 b1       	in	r25, 0x08	; 8
    3678:	90 61       	ori	r25, 0x10	; 16
    367a:	98 b9       	out	0x08, r25	; 8
    367c:	98 b1       	in	r25, 0x08	; 8
    367e:	90 62       	ori	r25, 0x20	; 32
    3680:	98 b9       	out	0x08, r25	; 8
    3682:	98 b1       	in	r25, 0x08	; 8
    3684:	28 2f       	mov	r18, r24
    3686:	22 95       	swap	r18
    3688:	2f 70       	andi	r18, 0x0F	; 15
    368a:	92 2b       	or	r25, r18
    368c:	98 b9       	out	0x08, r25	; 8
    368e:	98 b1       	in	r25, 0x08	; 8
    3690:	9f 7d       	andi	r25, 0xDF	; 223
    3692:	98 b9       	out	0x08, r25	; 8
    3694:	98 b1       	in	r25, 0x08	; 8
    3696:	90 7f       	andi	r25, 0xF0	; 240
    3698:	98 b9       	out	0x08, r25	; 8
    369a:	98 b1       	in	r25, 0x08	; 8
    369c:	90 62       	ori	r25, 0x20	; 32
    369e:	98 b9       	out	0x08, r25	; 8
    36a0:	98 b1       	in	r25, 0x08	; 8
    36a2:	8f 70       	andi	r24, 0x0F	; 15
    36a4:	89 2b       	or	r24, r25
    36a6:	88 b9       	out	0x08, r24	; 8
    36a8:	88 b1       	in	r24, 0x08	; 8
    36aa:	8f 7d       	andi	r24, 0xDF	; 223
    36ac:	88 b9       	out	0x08, r24	; 8
    36ae:	6b e2       	ldi	r22, 0x2B	; 43
    36b0:	70 e0       	ldi	r23, 0x00	; 0
    36b2:	80 e0       	ldi	r24, 0x00	; 0
    36b4:	90 e0       	ldi	r25, 0x00	; 0
    36b6:	0e 94 82 1b 	call	0x3704	; 0x3704 <delay_ns>
    36ba:	08 95       	ret

Disassembly of section .text.set_DDRAM_ADDR:

00003538 <set_DDRAM_ADDR>:
    3538:	80 68       	ori	r24, 0x80	; 128
    353a:	98 b1       	in	r25, 0x08	; 8
    353c:	90 7c       	andi	r25, 0xC0	; 192
    353e:	98 b9       	out	0x08, r25	; 8
    3540:	98 b1       	in	r25, 0x08	; 8
    3542:	9f 7e       	andi	r25, 0xEF	; 239
    3544:	98 b9       	out	0x08, r25	; 8
    3546:	98 b1       	in	r25, 0x08	; 8
    3548:	90 62       	ori	r25, 0x20	; 32
    354a:	98 b9       	out	0x08, r25	; 8
    354c:	98 b1       	in	r25, 0x08	; 8
    354e:	28 2f       	mov	r18, r24
    3550:	22 95       	swap	r18
    3552:	2f 70       	andi	r18, 0x0F	; 15
    3554:	92 2b       	or	r25, r18
    3556:	98 b9       	out	0x08, r25	; 8
    3558:	98 b1       	in	r25, 0x08	; 8
    355a:	9f 7d       	andi	r25, 0xDF	; 223
    355c:	98 b9       	out	0x08, r25	; 8
    355e:	98 b1       	in	r25, 0x08	; 8
    3560:	90 7c       	andi	r25, 0xC0	; 192
    3562:	98 b9       	out	0x08, r25	; 8
    3564:	98 b1       	in	r25, 0x08	; 8
    3566:	90 62       	ori	r25, 0x20	; 32
    3568:	98 b9       	out	0x08, r25	; 8
    356a:	98 b1       	in	r25, 0x08	; 8
    356c:	8f 70       	andi	r24, 0x0F	; 15
    356e:	89 2b       	or	r24, r25
    3570:	88 b9       	out	0x08, r24	; 8
    3572:	88 b1       	in	r24, 0x08	; 8
    3574:	8f 7d       	andi	r24, 0xDF	; 223
    3576:	88 b9       	out	0x08, r24	; 8
    3578:	6b e2       	ldi	r22, 0x2B	; 43
    357a:	70 e0       	ldi	r23, 0x00	; 0
    357c:	80 e0       	ldi	r24, 0x00	; 0
    357e:	90 e0       	ldi	r25, 0x00	; 0
    3580:	0e 94 82 1b 	call	0x3704	; 0x3704 <delay_ns>
    3584:	08 95       	ret

Disassembly of section .text.envia_frase:

00003910 <envia_frase>:
    3910:	0f 93       	push	r16
    3912:	1f 93       	push	r17
    3914:	cf 93       	push	r28
    3916:	8c 01       	movw	r16, r24
    3918:	86 2f       	mov	r24, r22
    391a:	0e 94 9c 1a 	call	0x3538	; 0x3538 <set_DDRAM_ADDR>
    391e:	c0 e0       	ldi	r28, 0x00	; 0
    3920:	03 c0       	rjmp	.+6      	; 0x3928 <envia_frase+0x18>
    3922:	0e 94 38 1b 	call	0x3670	; 0x3670 <send_word_lcd>
    3926:	cf 5f       	subi	r28, 0xFF	; 255
    3928:	f8 01       	movw	r30, r16
    392a:	ec 0f       	add	r30, r28
    392c:	f1 1d       	adc	r31, r1
    392e:	80 81       	ld	r24, Z
    3930:	81 11       	cpse	r24, r1
    3932:	f7 cf       	rjmp	.-18     	; 0x3922 <envia_frase+0x12>
    3934:	cf 91       	pop	r28
    3936:	1f 91       	pop	r17
    3938:	0f 91       	pop	r16
    393a:	08 95       	ret

Disassembly of section .text.msg_inserir_senha:

00003586 <msg_inserir_senha>:
    3586:	cf 93       	push	r28
    3588:	df 93       	push	r29
    358a:	cd b7       	in	r28, 0x3d	; 61
    358c:	de b7       	in	r29, 0x3e	; 62
    358e:	61 97       	sbiw	r28, 0x11	; 17
    3590:	0f b6       	in	r0, 0x3f	; 63
    3592:	f8 94       	cli
    3594:	de bf       	out	0x3e, r29	; 62
    3596:	0f be       	out	0x3f, r0	; 63
    3598:	cd bf       	out	0x3d, r28	; 61
    359a:	0e 94 11 1d 	call	0x3a22	; 0x3a22 <clear_Display>
    359e:	24 e0       	ldi	r18, 0x04	; 4
    35a0:	31 e0       	ldi	r19, 0x01	; 1
    35a2:	40 e0       	ldi	r20, 0x00	; 0
    35a4:	81 e1       	ldi	r24, 0x11	; 17
    35a6:	f9 01       	movw	r30, r18
    35a8:	de 01       	movw	r26, r28
    35aa:	11 96       	adiw	r26, 0x01	; 1
    35ac:	74 2f       	mov	r23, r20
    35ae:	0e 94 e4 1c 	call	0x39c8	; 0x39c8 <__movmemx_qi>
    35b2:	60 e0       	ldi	r22, 0x00	; 0
    35b4:	ce 01       	movw	r24, r28
    35b6:	01 96       	adiw	r24, 0x01	; 1
    35b8:	0e 94 88 1c 	call	0x3910	; 0x3910 <envia_frase>
    35bc:	80 ec       	ldi	r24, 0xC0	; 192
    35be:	0e 94 32 1c 	call	0x3864	; 0x3864 <send_instruction_lcd>
    35c2:	61 96       	adiw	r28, 0x11	; 17
    35c4:	0f b6       	in	r0, 0x3f	; 63
    35c6:	f8 94       	cli
    35c8:	de bf       	out	0x3e, r29	; 62
    35ca:	0f be       	out	0x3f, r0	; 63
    35cc:	cd bf       	out	0x3d, r28	; 61
    35ce:	df 91       	pop	r29
    35d0:	cf 91       	pop	r28
    35d2:	08 95       	ret

Disassembly of section .text.msg_desativado:

0000337e <msg_desativado>:
    337e:	cf 93       	push	r28
    3380:	df 93       	push	r29
    3382:	cd b7       	in	r28, 0x3d	; 61
    3384:	de b7       	in	r29, 0x3e	; 62
    3386:	62 97       	sbiw	r28, 0x12	; 18
    3388:	0f b6       	in	r0, 0x3f	; 63
    338a:	f8 94       	cli
    338c:	de bf       	out	0x3e, r29	; 62
    338e:	0f be       	out	0x3f, r0	; 63
    3390:	cd bf       	out	0x3d, r28	; 61
    3392:	25 e1       	ldi	r18, 0x15	; 21
    3394:	31 e0       	ldi	r19, 0x01	; 1
    3396:	40 e0       	ldi	r20, 0x00	; 0
    3398:	81 e1       	ldi	r24, 0x11	; 17
    339a:	f9 01       	movw	r30, r18
    339c:	de 01       	movw	r26, r28
    339e:	11 96       	adiw	r26, 0x01	; 1
    33a0:	74 2f       	mov	r23, r20
    33a2:	0e 94 e4 1c 	call	0x39c8	; 0x39c8 <__movmemx_qi>
    33a6:	60 e0       	ldi	r22, 0x00	; 0
    33a8:	ce 01       	movw	r24, r28
    33aa:	01 96       	adiw	r24, 0x01	; 1
    33ac:	0e 94 88 1c 	call	0x3910	; 0x3910 <envia_frase>
    33b0:	1a 8a       	std	Y+18, r1	; 0x12
    33b2:	60 e4       	ldi	r22, 0x40	; 64
    33b4:	ce 01       	movw	r24, r28
    33b6:	42 96       	adiw	r24, 0x12	; 18
    33b8:	0e 94 88 1c 	call	0x3910	; 0x3910 <envia_frase>
    33bc:	63 e0       	ldi	r22, 0x03	; 3
    33be:	70 e0       	ldi	r23, 0x00	; 0
    33c0:	80 e0       	ldi	r24, 0x00	; 0
    33c2:	90 e0       	ldi	r25, 0x00	; 0
    33c4:	0e 94 49 1a 	call	0x3492	; 0x3492 <delay_ms>
    33c8:	62 96       	adiw	r28, 0x12	; 18
    33ca:	0f b6       	in	r0, 0x3f	; 63
    33cc:	f8 94       	cli
    33ce:	de bf       	out	0x3e, r29	; 62
    33d0:	0f be       	out	0x3f, r0	; 63
    33d2:	cd bf       	out	0x3d, r28	; 61
    33d4:	df 91       	pop	r29
    33d6:	cf 91       	pop	r28
    33d8:	08 95       	ret

Disassembly of section .text.msg_ativado:

000033da <msg_ativado>:
    33da:	cf 93       	push	r28
    33dc:	df 93       	push	r29
    33de:	cd b7       	in	r28, 0x3d	; 61
    33e0:	de b7       	in	r29, 0x3e	; 62
    33e2:	2f 97       	sbiw	r28, 0x0f	; 15
    33e4:	0f b6       	in	r0, 0x3f	; 63
    33e6:	f8 94       	cli
    33e8:	de bf       	out	0x3e, r29	; 62
    33ea:	0f be       	out	0x3f, r0	; 63
    33ec:	cd bf       	out	0x3d, r28	; 61
    33ee:	26 e2       	ldi	r18, 0x26	; 38
    33f0:	31 e0       	ldi	r19, 0x01	; 1
    33f2:	40 e0       	ldi	r20, 0x00	; 0
    33f4:	8e e0       	ldi	r24, 0x0E	; 14
    33f6:	f9 01       	movw	r30, r18
    33f8:	de 01       	movw	r26, r28
    33fa:	11 96       	adiw	r26, 0x01	; 1
    33fc:	74 2f       	mov	r23, r20
    33fe:	0e 94 e4 1c 	call	0x39c8	; 0x39c8 <__movmemx_qi>
    3402:	60 e0       	ldi	r22, 0x00	; 0
    3404:	ce 01       	movw	r24, r28
    3406:	01 96       	adiw	r24, 0x01	; 1
    3408:	0e 94 88 1c 	call	0x3910	; 0x3910 <envia_frase>
    340c:	1f 86       	std	Y+15, r1	; 0x0f
    340e:	60 e4       	ldi	r22, 0x40	; 64
    3410:	ce 01       	movw	r24, r28
    3412:	0f 96       	adiw	r24, 0x0f	; 15
    3414:	0e 94 88 1c 	call	0x3910	; 0x3910 <envia_frase>
    3418:	63 e0       	ldi	r22, 0x03	; 3
    341a:	70 e0       	ldi	r23, 0x00	; 0
    341c:	80 e0       	ldi	r24, 0x00	; 0
    341e:	90 e0       	ldi	r25, 0x00	; 0
    3420:	0e 94 49 1a 	call	0x3492	; 0x3492 <delay_ms>
    3424:	2f 96       	adiw	r28, 0x0f	; 15
    3426:	0f b6       	in	r0, 0x3f	; 63
    3428:	f8 94       	cli
    342a:	de bf       	out	0x3e, r29	; 62
    342c:	0f be       	out	0x3f, r0	; 63
    342e:	cd bf       	out	0x3d, r28	; 61
    3430:	df 91       	pop	r29
    3432:	cf 91       	pop	r28
    3434:	08 95       	ret

Disassembly of section .text.msg_programacao:

00003436 <msg_programacao>:
    3436:	cf 93       	push	r28
    3438:	df 93       	push	r29
    343a:	cd b7       	in	r28, 0x3d	; 61
    343c:	de b7       	in	r29, 0x3e	; 62
    343e:	62 97       	sbiw	r28, 0x12	; 18
    3440:	0f b6       	in	r0, 0x3f	; 63
    3442:	f8 94       	cli
    3444:	de bf       	out	0x3e, r29	; 62
    3446:	0f be       	out	0x3f, r0	; 63
    3448:	cd bf       	out	0x3d, r28	; 61
    344a:	24 e3       	ldi	r18, 0x34	; 52
    344c:	31 e0       	ldi	r19, 0x01	; 1
    344e:	40 e0       	ldi	r20, 0x00	; 0
    3450:	81 e1       	ldi	r24, 0x11	; 17
    3452:	f9 01       	movw	r30, r18
    3454:	de 01       	movw	r26, r28
    3456:	11 96       	adiw	r26, 0x01	; 1
    3458:	74 2f       	mov	r23, r20
    345a:	0e 94 e4 1c 	call	0x39c8	; 0x39c8 <__movmemx_qi>
    345e:	60 e0       	ldi	r22, 0x00	; 0
    3460:	ce 01       	movw	r24, r28
    3462:	01 96       	adiw	r24, 0x01	; 1
    3464:	0e 94 88 1c 	call	0x3910	; 0x3910 <envia_frase>
    3468:	1a 8a       	std	Y+18, r1	; 0x12
    346a:	60 e4       	ldi	r22, 0x40	; 64
    346c:	ce 01       	movw	r24, r28
    346e:	42 96       	adiw	r24, 0x12	; 18
    3470:	0e 94 88 1c 	call	0x3910	; 0x3910 <envia_frase>
    3474:	63 e0       	ldi	r22, 0x03	; 3
    3476:	70 e0       	ldi	r23, 0x00	; 0
    3478:	80 e0       	ldi	r24, 0x00	; 0
    347a:	90 e0       	ldi	r25, 0x00	; 0
    347c:	0e 94 49 1a 	call	0x3492	; 0x3492 <delay_ms>
    3480:	62 96       	adiw	r28, 0x12	; 18
    3482:	0f b6       	in	r0, 0x3f	; 63
    3484:	f8 94       	cli
    3486:	de bf       	out	0x3e, r29	; 62
    3488:	0f be       	out	0x3f, r0	; 63
    348a:	cd bf       	out	0x3d, r28	; 61
    348c:	df 91       	pop	r29
    348e:	cf 91       	pop	r28
    3490:	08 95       	ret

Disassembly of section .text.msg_altera_senha:

000035d4 <msg_altera_senha>:
    35d4:	cf 93       	push	r28
    35d6:	df 93       	push	r29
    35d8:	cd b7       	in	r28, 0x3d	; 61
    35da:	de b7       	in	r29, 0x3e	; 62
    35dc:	60 97       	sbiw	r28, 0x10	; 16
    35de:	0f b6       	in	r0, 0x3f	; 63
    35e0:	f8 94       	cli
    35e2:	de bf       	out	0x3e, r29	; 62
    35e4:	0f be       	out	0x3f, r0	; 63
    35e6:	cd bf       	out	0x3d, r28	; 61
    35e8:	0e 94 11 1d 	call	0x3a22	; 0x3a22 <clear_Display>
    35ec:	25 e4       	ldi	r18, 0x45	; 69
    35ee:	31 e0       	ldi	r19, 0x01	; 1
    35f0:	40 e0       	ldi	r20, 0x00	; 0
    35f2:	80 e1       	ldi	r24, 0x10	; 16
    35f4:	f9 01       	movw	r30, r18
    35f6:	de 01       	movw	r26, r28
    35f8:	11 96       	adiw	r26, 0x01	; 1
    35fa:	74 2f       	mov	r23, r20
    35fc:	0e 94 e4 1c 	call	0x39c8	; 0x39c8 <__movmemx_qi>
    3600:	60 e0       	ldi	r22, 0x00	; 0
    3602:	ce 01       	movw	r24, r28
    3604:	01 96       	adiw	r24, 0x01	; 1
    3606:	0e 94 88 1c 	call	0x3910	; 0x3910 <envia_frase>
    360a:	80 ec       	ldi	r24, 0xC0	; 192
    360c:	0e 94 32 1c 	call	0x3864	; 0x3864 <send_instruction_lcd>
    3610:	60 96       	adiw	r28, 0x10	; 16
    3612:	0f b6       	in	r0, 0x3f	; 63
    3614:	f8 94       	cli
    3616:	de bf       	out	0x3e, r29	; 62
    3618:	0f be       	out	0x3f, r0	; 63
    361a:	cd bf       	out	0x3d, r28	; 61
    361c:	df 91       	pop	r29
    361e:	cf 91       	pop	r28
    3620:	08 95       	ret

Disassembly of section .text.msg_h_sensores:

00002e60 <msg_h_sensores>:
    2e60:	cf 93       	push	r28
    2e62:	df 93       	push	r29
    2e64:	cd b7       	in	r28, 0x3d	; 61
    2e66:	de b7       	in	r29, 0x3e	; 62
    2e68:	6d 97       	sbiw	r28, 0x1d	; 29
    2e6a:	0f b6       	in	r0, 0x3f	; 63
    2e6c:	f8 94       	cli
    2e6e:	de bf       	out	0x3e, r29	; 62
    2e70:	0f be       	out	0x3f, r0	; 63
    2e72:	cd bf       	out	0x3d, r28	; 61
    2e74:	0e 94 11 1d 	call	0x3a22	; 0x3a22 <clear_Display>
    2e78:	25 e5       	ldi	r18, 0x55	; 85
    2e7a:	31 e0       	ldi	r19, 0x01	; 1
    2e7c:	40 e0       	ldi	r20, 0x00	; 0
    2e7e:	8f e0       	ldi	r24, 0x0F	; 15
    2e80:	f9 01       	movw	r30, r18
    2e82:	de 01       	movw	r26, r28
    2e84:	11 96       	adiw	r26, 0x01	; 1
    2e86:	74 2f       	mov	r23, r20
    2e88:	0e 94 e4 1c 	call	0x39c8	; 0x39c8 <__movmemx_qi>
    2e8c:	60 e0       	ldi	r22, 0x00	; 0
    2e8e:	ce 01       	movw	r24, r28
    2e90:	01 96       	adiw	r24, 0x01	; 1
    2e92:	0e 94 88 1c 	call	0x3910	; 0x3910 <envia_frase>
    2e96:	24 e6       	ldi	r18, 0x64	; 100
    2e98:	31 e0       	ldi	r19, 0x01	; 1
    2e9a:	40 e0       	ldi	r20, 0x00	; 0
    2e9c:	8e e0       	ldi	r24, 0x0E	; 14
    2e9e:	f9 01       	movw	r30, r18
    2ea0:	de 01       	movw	r26, r28
    2ea2:	50 96       	adiw	r26, 0x10	; 16
    2ea4:	74 2f       	mov	r23, r20
    2ea6:	0e 94 e4 1c 	call	0x39c8	; 0x39c8 <__movmemx_qi>
    2eaa:	60 e4       	ldi	r22, 0x40	; 64
    2eac:	ce 01       	movw	r24, r28
    2eae:	40 96       	adiw	r24, 0x10	; 16
    2eb0:	0e 94 88 1c 	call	0x3910	; 0x3910 <envia_frase>
    2eb4:	6d 96       	adiw	r28, 0x1d	; 29
    2eb6:	0f b6       	in	r0, 0x3f	; 63
    2eb8:	f8 94       	cli
    2eba:	de bf       	out	0x3e, r29	; 62
    2ebc:	0f be       	out	0x3f, r0	; 63
    2ebe:	cd bf       	out	0x3d, r28	; 61
    2ec0:	df 91       	pop	r29
    2ec2:	cf 91       	pop	r28
    2ec4:	08 95       	ret

Disassembly of section .text.msg_d_sensores:

00002ec6 <msg_d_sensores>:
    2ec6:	cf 93       	push	r28
    2ec8:	df 93       	push	r29
    2eca:	cd b7       	in	r28, 0x3d	; 61
    2ecc:	de b7       	in	r29, 0x3e	; 62
    2ece:	6e 97       	sbiw	r28, 0x1e	; 30
    2ed0:	0f b6       	in	r0, 0x3f	; 63
    2ed2:	f8 94       	cli
    2ed4:	de bf       	out	0x3e, r29	; 62
    2ed6:	0f be       	out	0x3f, r0	; 63
    2ed8:	cd bf       	out	0x3d, r28	; 61
    2eda:	0e 94 11 1d 	call	0x3a22	; 0x3a22 <clear_Display>
    2ede:	25 e5       	ldi	r18, 0x55	; 85
    2ee0:	31 e0       	ldi	r19, 0x01	; 1
    2ee2:	40 e0       	ldi	r20, 0x00	; 0
    2ee4:	8f e0       	ldi	r24, 0x0F	; 15
    2ee6:	f9 01       	movw	r30, r18
    2ee8:	de 01       	movw	r26, r28
    2eea:	11 96       	adiw	r26, 0x01	; 1
    2eec:	74 2f       	mov	r23, r20
    2eee:	0e 94 e4 1c 	call	0x39c8	; 0x39c8 <__movmemx_qi>
    2ef2:	60 e0       	ldi	r22, 0x00	; 0
    2ef4:	ce 01       	movw	r24, r28
    2ef6:	01 96       	adiw	r24, 0x01	; 1
    2ef8:	0e 94 88 1c 	call	0x3910	; 0x3910 <envia_frase>
    2efc:	22 e7       	ldi	r18, 0x72	; 114
    2efe:	31 e0       	ldi	r19, 0x01	; 1
    2f00:	40 e0       	ldi	r20, 0x00	; 0
    2f02:	8f e0       	ldi	r24, 0x0F	; 15
    2f04:	f9 01       	movw	r30, r18
    2f06:	de 01       	movw	r26, r28
    2f08:	50 96       	adiw	r26, 0x10	; 16
    2f0a:	74 2f       	mov	r23, r20
    2f0c:	0e 94 e4 1c 	call	0x39c8	; 0x39c8 <__movmemx_qi>
    2f10:	60 e4       	ldi	r22, 0x40	; 64
    2f12:	ce 01       	movw	r24, r28
    2f14:	40 96       	adiw	r24, 0x10	; 16
    2f16:	0e 94 88 1c 	call	0x3910	; 0x3910 <envia_frase>
    2f1a:	6e 96       	adiw	r28, 0x1e	; 30
    2f1c:	0f b6       	in	r0, 0x3f	; 63
    2f1e:	f8 94       	cli
    2f20:	de bf       	out	0x3e, r29	; 62
    2f22:	0f be       	out	0x3f, r0	; 63
    2f24:	cd bf       	out	0x3d, r28	; 61
    2f26:	df 91       	pop	r29
    2f28:	cf 91       	pop	r28
    2f2a:	08 95       	ret

Disassembly of section .text.msg_panico:

000031f6 <msg_panico>:
    31f6:	cf 93       	push	r28
    31f8:	df 93       	push	r29
    31fa:	cd b7       	in	r28, 0x3d	; 61
    31fc:	de b7       	in	r29, 0x3e	; 62
    31fe:	6e 97       	sbiw	r28, 0x1e	; 30
    3200:	0f b6       	in	r0, 0x3f	; 63
    3202:	f8 94       	cli
    3204:	de bf       	out	0x3e, r29	; 62
    3206:	0f be       	out	0x3f, r0	; 63
    3208:	cd bf       	out	0x3d, r28	; 61
    320a:	21 e8       	ldi	r18, 0x81	; 129
    320c:	31 e0       	ldi	r19, 0x01	; 1
    320e:	40 e0       	ldi	r20, 0x00	; 0
    3210:	8e e0       	ldi	r24, 0x0E	; 14
    3212:	f9 01       	movw	r30, r18
    3214:	de 01       	movw	r26, r28
    3216:	11 96       	adiw	r26, 0x01	; 1
    3218:	74 2f       	mov	r23, r20
    321a:	0e 94 e4 1c 	call	0x39c8	; 0x39c8 <__movmemx_qi>
    321e:	60 e0       	ldi	r22, 0x00	; 0
    3220:	ce 01       	movw	r24, r28
    3222:	01 96       	adiw	r24, 0x01	; 1
    3224:	0e 94 88 1c 	call	0x3910	; 0x3910 <envia_frase>
    3228:	2f e8       	ldi	r18, 0x8F	; 143
    322a:	31 e0       	ldi	r19, 0x01	; 1
    322c:	40 e0       	ldi	r20, 0x00	; 0
    322e:	80 e1       	ldi	r24, 0x10	; 16
    3230:	f9 01       	movw	r30, r18
    3232:	de 01       	movw	r26, r28
    3234:	1f 96       	adiw	r26, 0x0f	; 15
    3236:	74 2f       	mov	r23, r20
    3238:	0e 94 e4 1c 	call	0x39c8	; 0x39c8 <__movmemx_qi>
    323c:	60 e4       	ldi	r22, 0x40	; 64
    323e:	ce 01       	movw	r24, r28
    3240:	0f 96       	adiw	r24, 0x0f	; 15
    3242:	0e 94 88 1c 	call	0x3910	; 0x3910 <envia_frase>
    3246:	6e 96       	adiw	r28, 0x1e	; 30
    3248:	0f b6       	in	r0, 0x3f	; 63
    324a:	f8 94       	cli
    324c:	de bf       	out	0x3e, r29	; 62
    324e:	0f be       	out	0x3f, r0	; 63
    3250:	cd bf       	out	0x3d, r28	; 61
    3252:	df 91       	pop	r29
    3254:	cf 91       	pop	r28
    3256:	08 95       	ret

Disassembly of section .text.msg_restauracao:

000037dc <msg_restauracao>:
    37dc:	cf 93       	push	r28
    37de:	df 93       	push	r29
    37e0:	cd b7       	in	r28, 0x3d	; 61
    37e2:	de b7       	in	r29, 0x3e	; 62
    37e4:	2d 97       	sbiw	r28, 0x0d	; 13
    37e6:	0f b6       	in	r0, 0x3f	; 63
    37e8:	f8 94       	cli
    37ea:	de bf       	out	0x3e, r29	; 62
    37ec:	0f be       	out	0x3f, r0	; 63
    37ee:	cd bf       	out	0x3d, r28	; 61
    37f0:	2f e9       	ldi	r18, 0x9F	; 159
    37f2:	31 e0       	ldi	r19, 0x01	; 1
    37f4:	40 e0       	ldi	r20, 0x00	; 0
    37f6:	8d e0       	ldi	r24, 0x0D	; 13
    37f8:	f9 01       	movw	r30, r18
    37fa:	de 01       	movw	r26, r28
    37fc:	11 96       	adiw	r26, 0x01	; 1
    37fe:	74 2f       	mov	r23, r20
    3800:	0e 94 e4 1c 	call	0x39c8	; 0x39c8 <__movmemx_qi>
    3804:	60 e0       	ldi	r22, 0x00	; 0
    3806:	ce 01       	movw	r24, r28
    3808:	01 96       	adiw	r24, 0x01	; 1
    380a:	0e 94 88 1c 	call	0x3910	; 0x3910 <envia_frase>
    380e:	2d 96       	adiw	r28, 0x0d	; 13
    3810:	0f b6       	in	r0, 0x3f	; 63
    3812:	f8 94       	cli
    3814:	de bf       	out	0x3e, r29	; 62
    3816:	0f be       	out	0x3f, r0	; 63
    3818:	cd bf       	out	0x3d, r28	; 61
    381a:	df 91       	pop	r29
    381c:	cf 91       	pop	r28
    381e:	08 95       	ret

Disassembly of section .text.msg_h_zona:

00002f2c <msg_h_zona>:
    2f2c:	cf 93       	push	r28
    2f2e:	df 93       	push	r29
    2f30:	cd b7       	in	r28, 0x3d	; 61
    2f32:	de b7       	in	r29, 0x3e	; 62
    2f34:	6a 97       	sbiw	r28, 0x1a	; 26
    2f36:	0f b6       	in	r0, 0x3f	; 63
    2f38:	f8 94       	cli
    2f3a:	de bf       	out	0x3e, r29	; 62
    2f3c:	0f be       	out	0x3f, r0	; 63
    2f3e:	cd bf       	out	0x3d, r28	; 61
    2f40:	0e 94 11 1d 	call	0x3a22	; 0x3a22 <clear_Display>
    2f44:	2c ea       	ldi	r18, 0xAC	; 172
    2f46:	31 e0       	ldi	r19, 0x01	; 1
    2f48:	40 e0       	ldi	r20, 0x00	; 0
    2f4a:	8d e0       	ldi	r24, 0x0D	; 13
    2f4c:	f9 01       	movw	r30, r18
    2f4e:	de 01       	movw	r26, r28
    2f50:	11 96       	adiw	r26, 0x01	; 1
    2f52:	74 2f       	mov	r23, r20
    2f54:	0e 94 e4 1c 	call	0x39c8	; 0x39c8 <__movmemx_qi>
    2f58:	60 e0       	ldi	r22, 0x00	; 0
    2f5a:	ce 01       	movw	r24, r28
    2f5c:	01 96       	adiw	r24, 0x01	; 1
    2f5e:	0e 94 88 1c 	call	0x3910	; 0x3910 <envia_frase>
    2f62:	29 eb       	ldi	r18, 0xB9	; 185
    2f64:	31 e0       	ldi	r19, 0x01	; 1
    2f66:	40 e0       	ldi	r20, 0x00	; 0
    2f68:	8d e0       	ldi	r24, 0x0D	; 13
    2f6a:	f9 01       	movw	r30, r18
    2f6c:	de 01       	movw	r26, r28
    2f6e:	1e 96       	adiw	r26, 0x0e	; 14
    2f70:	74 2f       	mov	r23, r20
    2f72:	0e 94 e4 1c 	call	0x39c8	; 0x39c8 <__movmemx_qi>
    2f76:	60 e4       	ldi	r22, 0x40	; 64
    2f78:	ce 01       	movw	r24, r28
    2f7a:	0e 96       	adiw	r24, 0x0e	; 14
    2f7c:	0e 94 88 1c 	call	0x3910	; 0x3910 <envia_frase>
    2f80:	6a 96       	adiw	r28, 0x1a	; 26
    2f82:	0f b6       	in	r0, 0x3f	; 63
    2f84:	f8 94       	cli
    2f86:	de bf       	out	0x3e, r29	; 62
    2f88:	0f be       	out	0x3f, r0	; 63
    2f8a:	cd bf       	out	0x3d, r28	; 61
    2f8c:	df 91       	pop	r29
    2f8e:	cf 91       	pop	r28
    2f90:	08 95       	ret

Disassembly of section .text.msg_d_zona:

00002f92 <msg_d_zona>:
    2f92:	cf 93       	push	r28
    2f94:	df 93       	push	r29
    2f96:	cd b7       	in	r28, 0x3d	; 61
    2f98:	de b7       	in	r29, 0x3e	; 62
    2f9a:	6b 97       	sbiw	r28, 0x1b	; 27
    2f9c:	0f b6       	in	r0, 0x3f	; 63
    2f9e:	f8 94       	cli
    2fa0:	de bf       	out	0x3e, r29	; 62
    2fa2:	0f be       	out	0x3f, r0	; 63
    2fa4:	cd bf       	out	0x3d, r28	; 61
    2fa6:	0e 94 11 1d 	call	0x3a22	; 0x3a22 <clear_Display>
    2faa:	2c ea       	ldi	r18, 0xAC	; 172
    2fac:	31 e0       	ldi	r19, 0x01	; 1
    2fae:	40 e0       	ldi	r20, 0x00	; 0
    2fb0:	8d e0       	ldi	r24, 0x0D	; 13
    2fb2:	f9 01       	movw	r30, r18
    2fb4:	de 01       	movw	r26, r28
    2fb6:	11 96       	adiw	r26, 0x01	; 1
    2fb8:	74 2f       	mov	r23, r20
    2fba:	0e 94 e4 1c 	call	0x39c8	; 0x39c8 <__movmemx_qi>
    2fbe:	60 e0       	ldi	r22, 0x00	; 0
    2fc0:	ce 01       	movw	r24, r28
    2fc2:	01 96       	adiw	r24, 0x01	; 1
    2fc4:	0e 94 88 1c 	call	0x3910	; 0x3910 <envia_frase>
    2fc8:	26 ec       	ldi	r18, 0xC6	; 198
    2fca:	31 e0       	ldi	r19, 0x01	; 1
    2fcc:	40 e0       	ldi	r20, 0x00	; 0
    2fce:	8e e0       	ldi	r24, 0x0E	; 14
    2fd0:	f9 01       	movw	r30, r18
    2fd2:	de 01       	movw	r26, r28
    2fd4:	1e 96       	adiw	r26, 0x0e	; 14
    2fd6:	74 2f       	mov	r23, r20
    2fd8:	0e 94 e4 1c 	call	0x39c8	; 0x39c8 <__movmemx_qi>
    2fdc:	60 e4       	ldi	r22, 0x40	; 64
    2fde:	ce 01       	movw	r24, r28
    2fe0:	0e 96       	adiw	r24, 0x0e	; 14
    2fe2:	0e 94 88 1c 	call	0x3910	; 0x3910 <envia_frase>
    2fe6:	6b 96       	adiw	r28, 0x1b	; 27
    2fe8:	0f b6       	in	r0, 0x3f	; 63
    2fea:	f8 94       	cli
    2fec:	de bf       	out	0x3e, r29	; 62
    2fee:	0f be       	out	0x3f, r0	; 63
    2ff0:	cd bf       	out	0x3d, r28	; 61
    2ff2:	df 91       	pop	r29
    2ff4:	cf 91       	pop	r28
    2ff6:	08 95       	ret

Disassembly of section .text.msg_h_ass:

00002ff8 <msg_h_ass>:
    2ff8:	cf 93       	push	r28
    2ffa:	df 93       	push	r29
    2ffc:	cd b7       	in	r28, 0x3d	; 61
    2ffe:	de b7       	in	r29, 0x3e	; 62
    3000:	6b 97       	sbiw	r28, 0x1b	; 27
    3002:	0f b6       	in	r0, 0x3f	; 63
    3004:	f8 94       	cli
    3006:	de bf       	out	0x3e, r29	; 62
    3008:	0f be       	out	0x3f, r0	; 63
    300a:	cd bf       	out	0x3d, r28	; 61
    300c:	0e 94 11 1d 	call	0x3a22	; 0x3a22 <clear_Display>
    3010:	24 ed       	ldi	r18, 0xD4	; 212
    3012:	31 e0       	ldi	r19, 0x01	; 1
    3014:	40 e0       	ldi	r20, 0x00	; 0
    3016:	8d e0       	ldi	r24, 0x0D	; 13
    3018:	f9 01       	movw	r30, r18
    301a:	de 01       	movw	r26, r28
    301c:	11 96       	adiw	r26, 0x01	; 1
    301e:	74 2f       	mov	r23, r20
    3020:	0e 94 e4 1c 	call	0x39c8	; 0x39c8 <__movmemx_qi>
    3024:	60 e0       	ldi	r22, 0x00	; 0
    3026:	ce 01       	movw	r24, r28
    3028:	01 96       	adiw	r24, 0x01	; 1
    302a:	0e 94 88 1c 	call	0x3910	; 0x3910 <envia_frase>
    302e:	21 ee       	ldi	r18, 0xE1	; 225
    3030:	31 e0       	ldi	r19, 0x01	; 1
    3032:	40 e0       	ldi	r20, 0x00	; 0
    3034:	8e e0       	ldi	r24, 0x0E	; 14
    3036:	f9 01       	movw	r30, r18
    3038:	de 01       	movw	r26, r28
    303a:	1e 96       	adiw	r26, 0x0e	; 14
    303c:	74 2f       	mov	r23, r20
    303e:	0e 94 e4 1c 	call	0x39c8	; 0x39c8 <__movmemx_qi>
    3042:	60 e4       	ldi	r22, 0x40	; 64
    3044:	ce 01       	movw	r24, r28
    3046:	0e 96       	adiw	r24, 0x0e	; 14
    3048:	0e 94 88 1c 	call	0x3910	; 0x3910 <envia_frase>
    304c:	6b 96       	adiw	r28, 0x1b	; 27
    304e:	0f b6       	in	r0, 0x3f	; 63
    3050:	f8 94       	cli
    3052:	de bf       	out	0x3e, r29	; 62
    3054:	0f be       	out	0x3f, r0	; 63
    3056:	cd bf       	out	0x3d, r28	; 61
    3058:	df 91       	pop	r29
    305a:	cf 91       	pop	r28
    305c:	08 95       	ret

Disassembly of section .text.msg_d_ass:

0000305e <msg_d_ass>:
    305e:	cf 93       	push	r28
    3060:	df 93       	push	r29
    3062:	cd b7       	in	r28, 0x3d	; 61
    3064:	de b7       	in	r29, 0x3e	; 62
    3066:	6c 97       	sbiw	r28, 0x1c	; 28
    3068:	0f b6       	in	r0, 0x3f	; 63
    306a:	f8 94       	cli
    306c:	de bf       	out	0x3e, r29	; 62
    306e:	0f be       	out	0x3f, r0	; 63
    3070:	cd bf       	out	0x3d, r28	; 61
    3072:	0e 94 11 1d 	call	0x3a22	; 0x3a22 <clear_Display>
    3076:	2f ee       	ldi	r18, 0xEF	; 239
    3078:	31 e0       	ldi	r19, 0x01	; 1
    307a:	40 e0       	ldi	r20, 0x00	; 0
    307c:	8e e0       	ldi	r24, 0x0E	; 14
    307e:	f9 01       	movw	r30, r18
    3080:	de 01       	movw	r26, r28
    3082:	11 96       	adiw	r26, 0x01	; 1
    3084:	74 2f       	mov	r23, r20
    3086:	0e 94 e4 1c 	call	0x39c8	; 0x39c8 <__movmemx_qi>
    308a:	60 e0       	ldi	r22, 0x00	; 0
    308c:	ce 01       	movw	r24, r28
    308e:	01 96       	adiw	r24, 0x01	; 1
    3090:	0e 94 88 1c 	call	0x3910	; 0x3910 <envia_frase>
    3094:	21 ee       	ldi	r18, 0xE1	; 225
    3096:	31 e0       	ldi	r19, 0x01	; 1
    3098:	40 e0       	ldi	r20, 0x00	; 0
    309a:	8e e0       	ldi	r24, 0x0E	; 14
    309c:	f9 01       	movw	r30, r18
    309e:	de 01       	movw	r26, r28
    30a0:	1f 96       	adiw	r26, 0x0f	; 15
    30a2:	74 2f       	mov	r23, r20
    30a4:	0e 94 e4 1c 	call	0x39c8	; 0x39c8 <__movmemx_qi>
    30a8:	60 e4       	ldi	r22, 0x40	; 64
    30aa:	ce 01       	movw	r24, r28
    30ac:	0f 96       	adiw	r24, 0x0f	; 15
    30ae:	0e 94 88 1c 	call	0x3910	; 0x3910 <envia_frase>
    30b2:	6c 96       	adiw	r28, 0x1c	; 28
    30b4:	0f b6       	in	r0, 0x3f	; 63
    30b6:	f8 94       	cli
    30b8:	de bf       	out	0x3e, r29	; 62
    30ba:	0f be       	out	0x3f, r0	; 63
    30bc:	cd bf       	out	0x3d, r28	; 61
    30be:	df 91       	pop	r29
    30c0:	cf 91       	pop	r28
    30c2:	08 95       	ret

Disassembly of section .text.msg_ajusteTout:

000030c4 <msg_ajusteTout>:
    30c4:	cf 93       	push	r28
    30c6:	df 93       	push	r29
    30c8:	cd b7       	in	r28, 0x3d	; 61
    30ca:	de b7       	in	r29, 0x3e	; 62
    30cc:	6b 97       	sbiw	r28, 0x1b	; 27
    30ce:	0f b6       	in	r0, 0x3f	; 63
    30d0:	f8 94       	cli
    30d2:	de bf       	out	0x3e, r29	; 62
    30d4:	0f be       	out	0x3f, r0	; 63
    30d6:	cd bf       	out	0x3d, r28	; 61
    30d8:	0e 94 11 1d 	call	0x3a22	; 0x3a22 <clear_Display>
    30dc:	2d ef       	ldi	r18, 0xFD	; 253
    30de:	31 e0       	ldi	r19, 0x01	; 1
    30e0:	40 e0       	ldi	r20, 0x00	; 0
    30e2:	8e e0       	ldi	r24, 0x0E	; 14
    30e4:	f9 01       	movw	r30, r18
    30e6:	de 01       	movw	r26, r28
    30e8:	11 96       	adiw	r26, 0x01	; 1
    30ea:	74 2f       	mov	r23, r20
    30ec:	0e 94 e4 1c 	call	0x39c8	; 0x39c8 <__movmemx_qi>
    30f0:	60 e0       	ldi	r22, 0x00	; 0
    30f2:	ce 01       	movw	r24, r28
    30f4:	01 96       	adiw	r24, 0x01	; 1
    30f6:	0e 94 88 1c 	call	0x3910	; 0x3910 <envia_frase>
    30fa:	2b e0       	ldi	r18, 0x0B	; 11
    30fc:	32 e0       	ldi	r19, 0x02	; 2
    30fe:	40 e0       	ldi	r20, 0x00	; 0
    3100:	8d e0       	ldi	r24, 0x0D	; 13
    3102:	f9 01       	movw	r30, r18
    3104:	de 01       	movw	r26, r28
    3106:	1f 96       	adiw	r26, 0x0f	; 15
    3108:	74 2f       	mov	r23, r20
    310a:	0e 94 e4 1c 	call	0x39c8	; 0x39c8 <__movmemx_qi>
    310e:	60 e4       	ldi	r22, 0x40	; 64
    3110:	ce 01       	movw	r24, r28
    3112:	0f 96       	adiw	r24, 0x0f	; 15
    3114:	0e 94 88 1c 	call	0x3910	; 0x3910 <envia_frase>
    3118:	6b 96       	adiw	r28, 0x1b	; 27
    311a:	0f b6       	in	r0, 0x3f	; 63
    311c:	f8 94       	cli
    311e:	de bf       	out	0x3e, r29	; 62
    3120:	0f be       	out	0x3f, r0	; 63
    3122:	cd bf       	out	0x3d, r28	; 61
    3124:	df 91       	pop	r29
    3126:	cf 91       	pop	r28
    3128:	08 95       	ret

Disassembly of section .text.msg_time_sirene:

0000312a <msg_time_sirene>:
    312a:	cf 93       	push	r28
    312c:	df 93       	push	r29
    312e:	cd b7       	in	r28, 0x3d	; 61
    3130:	de b7       	in	r29, 0x3e	; 62
    3132:	6e 97       	sbiw	r28, 0x1e	; 30
    3134:	0f b6       	in	r0, 0x3f	; 63
    3136:	f8 94       	cli
    3138:	de bf       	out	0x3e, r29	; 62
    313a:	0f be       	out	0x3f, r0	; 63
    313c:	cd bf       	out	0x3d, r28	; 61
    313e:	0e 94 11 1d 	call	0x3a22	; 0x3a22 <clear_Display>
    3142:	2d ef       	ldi	r18, 0xFD	; 253
    3144:	31 e0       	ldi	r19, 0x01	; 1
    3146:	40 e0       	ldi	r20, 0x00	; 0
    3148:	8e e0       	ldi	r24, 0x0E	; 14
    314a:	f9 01       	movw	r30, r18
    314c:	de 01       	movw	r26, r28
    314e:	11 96       	adiw	r26, 0x01	; 1
    3150:	74 2f       	mov	r23, r20
    3152:	0e 94 e4 1c 	call	0x39c8	; 0x39c8 <__movmemx_qi>
    3156:	60 e0       	ldi	r22, 0x00	; 0
    3158:	ce 01       	movw	r24, r28
    315a:	01 96       	adiw	r24, 0x01	; 1
    315c:	0e 94 88 1c 	call	0x3910	; 0x3910 <envia_frase>
    3160:	28 e1       	ldi	r18, 0x18	; 24
    3162:	32 e0       	ldi	r19, 0x02	; 2
    3164:	40 e0       	ldi	r20, 0x00	; 0
    3166:	80 e1       	ldi	r24, 0x10	; 16
    3168:	f9 01       	movw	r30, r18
    316a:	de 01       	movw	r26, r28
    316c:	1f 96       	adiw	r26, 0x0f	; 15
    316e:	74 2f       	mov	r23, r20
    3170:	0e 94 e4 1c 	call	0x39c8	; 0x39c8 <__movmemx_qi>
    3174:	60 e4       	ldi	r22, 0x40	; 64
    3176:	ce 01       	movw	r24, r28
    3178:	0f 96       	adiw	r24, 0x0f	; 15
    317a:	0e 94 88 1c 	call	0x3910	; 0x3910 <envia_frase>
    317e:	6e 96       	adiw	r28, 0x1e	; 30
    3180:	0f b6       	in	r0, 0x3f	; 63
    3182:	f8 94       	cli
    3184:	de bf       	out	0x3e, r29	; 62
    3186:	0f be       	out	0x3f, r0	; 63
    3188:	cd bf       	out	0x3d, r28	; 61
    318a:	df 91       	pop	r29
    318c:	cf 91       	pop	r28
    318e:	08 95       	ret

Disassembly of section .text.msg_temp_ativ:

00003190 <msg_temp_ativ>:
    3190:	cf 93       	push	r28
    3192:	df 93       	push	r29
    3194:	cd b7       	in	r28, 0x3d	; 61
    3196:	de b7       	in	r29, 0x3e	; 62
    3198:	6c 97       	sbiw	r28, 0x1c	; 28
    319a:	0f b6       	in	r0, 0x3f	; 63
    319c:	f8 94       	cli
    319e:	de bf       	out	0x3e, r29	; 62
    31a0:	0f be       	out	0x3f, r0	; 63
    31a2:	cd bf       	out	0x3d, r28	; 61
    31a4:	0e 94 11 1d 	call	0x3a22	; 0x3a22 <clear_Display>
    31a8:	2d ef       	ldi	r18, 0xFD	; 253
    31aa:	31 e0       	ldi	r19, 0x01	; 1
    31ac:	40 e0       	ldi	r20, 0x00	; 0
    31ae:	8e e0       	ldi	r24, 0x0E	; 14
    31b0:	f9 01       	movw	r30, r18
    31b2:	de 01       	movw	r26, r28
    31b4:	11 96       	adiw	r26, 0x01	; 1
    31b6:	74 2f       	mov	r23, r20
    31b8:	0e 94 e4 1c 	call	0x39c8	; 0x39c8 <__movmemx_qi>
    31bc:	60 e0       	ldi	r22, 0x00	; 0
    31be:	ce 01       	movw	r24, r28
    31c0:	01 96       	adiw	r24, 0x01	; 1
    31c2:	0e 94 88 1c 	call	0x3910	; 0x3910 <envia_frase>
    31c6:	28 e2       	ldi	r18, 0x28	; 40
    31c8:	32 e0       	ldi	r19, 0x02	; 2
    31ca:	40 e0       	ldi	r20, 0x00	; 0
    31cc:	8e e0       	ldi	r24, 0x0E	; 14
    31ce:	f9 01       	movw	r30, r18
    31d0:	de 01       	movw	r26, r28
    31d2:	1f 96       	adiw	r26, 0x0f	; 15
    31d4:	74 2f       	mov	r23, r20
    31d6:	0e 94 e4 1c 	call	0x39c8	; 0x39c8 <__movmemx_qi>
    31da:	60 e4       	ldi	r22, 0x40	; 64
    31dc:	ce 01       	movw	r24, r28
    31de:	0f 96       	adiw	r24, 0x0f	; 15
    31e0:	0e 94 88 1c 	call	0x3910	; 0x3910 <envia_frase>
    31e4:	6c 96       	adiw	r28, 0x1c	; 28
    31e6:	0f b6       	in	r0, 0x3f	; 63
    31e8:	f8 94       	cli
    31ea:	de bf       	out	0x3e, r29	; 62
    31ec:	0f be       	out	0x3f, r0	; 63
    31ee:	cd bf       	out	0x3d, r28	; 61
    31f0:	df 91       	pop	r29
    31f2:	cf 91       	pop	r28
    31f4:	08 95       	ret

Disassembly of section .text.insert_senha:

00003a36 <insert_senha>:
    3a36:	e4 2f       	mov	r30, r20
    3a38:	f5 2f       	mov	r31, r21
    3a3a:	24 91       	lpm	r18, Z
    3a3c:	67 fd       	sbrc	r22, 7
    3a3e:	20 81       	ld	r18, Z
    3a40:	81 5d       	subi	r24, 0xD1	; 209
    3a42:	9e 4f       	sbci	r25, 0xFE	; 254
    3a44:	fc 01       	movw	r30, r24
    3a46:	20 83       	st	Z, r18
    3a48:	08 95       	ret

Disassembly of section .text.senha_arm:

000034e6 <senha_arm>:
    34e6:	20 91 27 01 	lds	r18, 0x0127	; 0x800127 <addr_senha>
    34ea:	30 91 28 01 	lds	r19, 0x0128	; 0x800128 <addr_senha+0x1>
    34ee:	21 30       	cpi	r18, 0x01	; 1
    34f0:	31 05       	cpc	r19, r1
    34f2:	49 f4       	brne	.+18     	; 0x3506 <senha_arm+0x20>
    34f4:	e4 2f       	mov	r30, r20
    34f6:	f5 2f       	mov	r31, r21
    34f8:	74 91       	lpm	r23, Z
    34fa:	67 fd       	sbrc	r22, 7
    34fc:	70 81       	ld	r23, Z
    34fe:	fc 01       	movw	r30, r24
    3500:	e6 55       	subi	r30, 0x56	; 86
    3502:	fe 4f       	sbci	r31, 0xFE	; 254
    3504:	70 83       	st	Z, r23
    3506:	22 30       	cpi	r18, 0x02	; 2
    3508:	31 05       	cpc	r19, r1
    350a:	49 f4       	brne	.+18     	; 0x351e <senha_arm+0x38>
    350c:	e4 2f       	mov	r30, r20
    350e:	f5 2f       	mov	r31, r21
    3510:	74 91       	lpm	r23, Z
    3512:	67 fd       	sbrc	r22, 7
    3514:	70 81       	ld	r23, Z
    3516:	fc 01       	movw	r30, r24
    3518:	eb 55       	subi	r30, 0x5B	; 91
    351a:	fe 4f       	sbci	r31, 0xFE	; 254
    351c:	70 83       	st	Z, r23
    351e:	23 30       	cpi	r18, 0x03	; 3
    3520:	31 05       	cpc	r19, r1
    3522:	49 f4       	brne	.+18     	; 0x3536 <senha_arm+0x50>
    3524:	e4 2f       	mov	r30, r20
    3526:	f5 2f       	mov	r31, r21
    3528:	24 91       	lpm	r18, Z
    352a:	67 fd       	sbrc	r22, 7
    352c:	20 81       	ld	r18, Z
    352e:	fc 01       	movw	r30, r24
    3530:	e0 56       	subi	r30, 0x60	; 96
    3532:	fe 4f       	sbci	r31, 0xFE	; 254
    3534:	20 83       	st	Z, r18
    3536:	08 95       	ret

Disassembly of section .text.verify_senhaM:

00002de4 <verify_senhaM>:
    2de4:	10 92 d5 01 	sts	0x01D5, r1	; 0x8001d5 <cont_a+0x1>
    2de8:	10 92 d4 01 	sts	0x01D4, r1	; 0x8001d4 <cont_a>
    2dec:	10 92 d3 01 	sts	0x01D3, r1	; 0x8001d3 <cont_b+0x1>
    2df0:	10 92 d2 01 	sts	0x01D2, r1	; 0x8001d2 <cont_b>
    2df4:	15 c0       	rjmp	.+42     	; 0x2e20 <verify_senhaM+0x3c>
    2df6:	fc 01       	movw	r30, r24
    2df8:	e1 5d       	subi	r30, 0xD1	; 209
    2dfa:	fe 4f       	sbci	r31, 0xFE	; 254
    2dfc:	30 81       	ld	r19, Z
    2dfe:	23 13       	cpse	r18, r19
    2e00:	0a c0       	rjmp	.+20     	; 0x2e16 <verify_senhaM+0x32>
    2e02:	20 91 d2 01 	lds	r18, 0x01D2	; 0x8001d2 <cont_b>
    2e06:	30 91 d3 01 	lds	r19, 0x01D3	; 0x8001d3 <cont_b+0x1>
    2e0a:	2f 5f       	subi	r18, 0xFF	; 255
    2e0c:	3f 4f       	sbci	r19, 0xFF	; 255
    2e0e:	30 93 d3 01 	sts	0x01D3, r19	; 0x8001d3 <cont_b+0x1>
    2e12:	20 93 d2 01 	sts	0x01D2, r18	; 0x8001d2 <cont_b>
    2e16:	01 96       	adiw	r24, 0x01	; 1
    2e18:	90 93 d5 01 	sts	0x01D5, r25	; 0x8001d5 <cont_a+0x1>
    2e1c:	80 93 d4 01 	sts	0x01D4, r24	; 0x8001d4 <cont_a>
    2e20:	80 91 d4 01 	lds	r24, 0x01D4	; 0x8001d4 <cont_a>
    2e24:	90 91 d5 01 	lds	r25, 0x01D5	; 0x8001d5 <cont_a+0x1>
    2e28:	fc 01       	movw	r30, r24
    2e2a:	e1 55       	subi	r30, 0x51	; 81
    2e2c:	fe 4f       	sbci	r31, 0xFE	; 254
    2e2e:	20 81       	ld	r18, Z
    2e30:	21 11       	cpse	r18, r1
    2e32:	e1 cf       	rjmp	.-62     	; 0x2df6 <verify_senhaM+0x12>
    2e34:	80 91 d2 01 	lds	r24, 0x01D2	; 0x8001d2 <cont_b>
    2e38:	90 91 d3 01 	lds	r25, 0x01D3	; 0x8001d3 <cont_b+0x1>
    2e3c:	04 97       	sbiw	r24, 0x04	; 4
    2e3e:	51 f4       	brne	.+20     	; 0x2e54 <verify_senhaM+0x70>
    2e40:	87 e0       	ldi	r24, 0x07	; 7
    2e42:	80 93 da 01 	sts	0x01DA, r24	; 0x8001da <state>
    2e46:	0e 94 11 1d 	call	0x3a22	; 0x3a22 <clear_Display>
    2e4a:	10 92 07 01 	sts	0x0107, r1	; 0x800107 <User+0x1>
    2e4e:	10 92 06 01 	sts	0x0106, r1	; 0x800106 <User>
    2e52:	08 95       	ret
    2e54:	81 e0       	ldi	r24, 0x01	; 1
    2e56:	80 93 da 01 	sts	0x01DA, r24	; 0x8001da <state>
    2e5a:	0e 94 11 1d 	call	0x3a22	; 0x3a22 <clear_Display>
    2e5e:	08 95       	ret

Disassembly of section .text.verify_senhaD:

00002704 <verify_senhaD>:
    2704:	10 92 d5 01 	sts	0x01D5, r1	; 0x8001d5 <cont_a+0x1>
    2708:	10 92 d4 01 	sts	0x01D4, r1	; 0x8001d4 <cont_a>
    270c:	10 92 d3 01 	sts	0x01D3, r1	; 0x8001d3 <cont_b+0x1>
    2710:	10 92 d2 01 	sts	0x01D2, r1	; 0x8001d2 <cont_b>
    2714:	15 c0       	rjmp	.+42     	; 0x2740 <verify_senhaD+0x3c>
    2716:	fc 01       	movw	r30, r24
    2718:	e1 5d       	subi	r30, 0xD1	; 209
    271a:	fe 4f       	sbci	r31, 0xFE	; 254
    271c:	30 81       	ld	r19, Z
    271e:	23 13       	cpse	r18, r19
    2720:	0a c0       	rjmp	.+20     	; 0x2736 <verify_senhaD+0x32>
    2722:	20 91 d2 01 	lds	r18, 0x01D2	; 0x8001d2 <cont_b>
    2726:	30 91 d3 01 	lds	r19, 0x01D3	; 0x8001d3 <cont_b+0x1>
    272a:	2f 5f       	subi	r18, 0xFF	; 255
    272c:	3f 4f       	sbci	r19, 0xFF	; 255
    272e:	30 93 d3 01 	sts	0x01D3, r19	; 0x8001d3 <cont_b+0x1>
    2732:	20 93 d2 01 	sts	0x01D2, r18	; 0x8001d2 <cont_b>
    2736:	01 96       	adiw	r24, 0x01	; 1
    2738:	90 93 d5 01 	sts	0x01D5, r25	; 0x8001d5 <cont_a+0x1>
    273c:	80 93 d4 01 	sts	0x01D4, r24	; 0x8001d4 <cont_a>
    2740:	80 91 d4 01 	lds	r24, 0x01D4	; 0x8001d4 <cont_a>
    2744:	90 91 d5 01 	lds	r25, 0x01D5	; 0x8001d5 <cont_a+0x1>
    2748:	fc 01       	movw	r30, r24
    274a:	e1 55       	subi	r30, 0x51	; 81
    274c:	fe 4f       	sbci	r31, 0xFE	; 254
    274e:	20 81       	ld	r18, Z
    2750:	21 11       	cpse	r18, r1
    2752:	e1 cf       	rjmp	.-62     	; 0x2716 <verify_senhaD+0x12>
    2754:	80 91 d2 01 	lds	r24, 0x01D2	; 0x8001d2 <cont_b>
    2758:	90 91 d3 01 	lds	r25, 0x01D3	; 0x8001d3 <cont_b+0x1>
    275c:	04 97       	sbiw	r24, 0x04	; 4
    275e:	31 f4       	brne	.+12     	; 0x276c <verify_senhaD+0x68>
    2760:	81 e0       	ldi	r24, 0x01	; 1
    2762:	80 93 da 01 	sts	0x01DA, r24	; 0x8001da <state>
    2766:	0e 94 11 1d 	call	0x3a22	; 0x3a22 <clear_Display>
    276a:	08 95       	ret
    276c:	10 92 d5 01 	sts	0x01D5, r1	; 0x8001d5 <cont_a+0x1>
    2770:	10 92 d4 01 	sts	0x01D4, r1	; 0x8001d4 <cont_a>
    2774:	10 92 d3 01 	sts	0x01D3, r1	; 0x8001d3 <cont_b+0x1>
    2778:	10 92 d2 01 	sts	0x01D2, r1	; 0x8001d2 <cont_b>
    277c:	15 c0       	rjmp	.+42     	; 0x27a8 <verify_senhaD+0xa4>
    277e:	fc 01       	movw	r30, r24
    2780:	e1 5d       	subi	r30, 0xD1	; 209
    2782:	fe 4f       	sbci	r31, 0xFE	; 254
    2784:	30 81       	ld	r19, Z
    2786:	23 13       	cpse	r18, r19
    2788:	0a c0       	rjmp	.+20     	; 0x279e <verify_senhaD+0x9a>
    278a:	20 91 d2 01 	lds	r18, 0x01D2	; 0x8001d2 <cont_b>
    278e:	30 91 d3 01 	lds	r19, 0x01D3	; 0x8001d3 <cont_b+0x1>
    2792:	2f 5f       	subi	r18, 0xFF	; 255
    2794:	3f 4f       	sbci	r19, 0xFF	; 255
    2796:	30 93 d3 01 	sts	0x01D3, r19	; 0x8001d3 <cont_b+0x1>
    279a:	20 93 d2 01 	sts	0x01D2, r18	; 0x8001d2 <cont_b>
    279e:	01 96       	adiw	r24, 0x01	; 1
    27a0:	90 93 d5 01 	sts	0x01D5, r25	; 0x8001d5 <cont_a+0x1>
    27a4:	80 93 d4 01 	sts	0x01D4, r24	; 0x8001d4 <cont_a>
    27a8:	80 91 d4 01 	lds	r24, 0x01D4	; 0x8001d4 <cont_a>
    27ac:	90 91 d5 01 	lds	r25, 0x01D5	; 0x8001d5 <cont_a+0x1>
    27b0:	fc 01       	movw	r30, r24
    27b2:	e6 55       	subi	r30, 0x56	; 86
    27b4:	fe 4f       	sbci	r31, 0xFE	; 254
    27b6:	20 81       	ld	r18, Z
    27b8:	21 11       	cpse	r18, r1
    27ba:	e1 cf       	rjmp	.-62     	; 0x277e <verify_senhaD+0x7a>
    27bc:	80 91 d2 01 	lds	r24, 0x01D2	; 0x8001d2 <cont_b>
    27c0:	90 91 d3 01 	lds	r25, 0x01D3	; 0x8001d3 <cont_b+0x1>
    27c4:	04 97       	sbiw	r24, 0x04	; 4
    27c6:	31 f4       	brne	.+12     	; 0x27d4 <verify_senhaD+0xd0>
    27c8:	81 e0       	ldi	r24, 0x01	; 1
    27ca:	80 93 da 01 	sts	0x01DA, r24	; 0x8001da <state>
    27ce:	0e 94 11 1d 	call	0x3a22	; 0x3a22 <clear_Display>
    27d2:	08 95       	ret
    27d4:	10 92 d5 01 	sts	0x01D5, r1	; 0x8001d5 <cont_a+0x1>
    27d8:	10 92 d4 01 	sts	0x01D4, r1	; 0x8001d4 <cont_a>
    27dc:	10 92 d3 01 	sts	0x01D3, r1	; 0x8001d3 <cont_b+0x1>
    27e0:	10 92 d2 01 	sts	0x01D2, r1	; 0x8001d2 <cont_b>
    27e4:	15 c0       	rjmp	.+42     	; 0x2810 <verify_senhaD+0x10c>
    27e6:	fc 01       	movw	r30, r24
    27e8:	e1 5d       	subi	r30, 0xD1	; 209
    27ea:	fe 4f       	sbci	r31, 0xFE	; 254
    27ec:	30 81       	ld	r19, Z
    27ee:	23 13       	cpse	r18, r19
    27f0:	0a c0       	rjmp	.+20     	; 0x2806 <verify_senhaD+0x102>
    27f2:	20 91 d2 01 	lds	r18, 0x01D2	; 0x8001d2 <cont_b>
    27f6:	30 91 d3 01 	lds	r19, 0x01D3	; 0x8001d3 <cont_b+0x1>
    27fa:	2f 5f       	subi	r18, 0xFF	; 255
    27fc:	3f 4f       	sbci	r19, 0xFF	; 255
    27fe:	30 93 d3 01 	sts	0x01D3, r19	; 0x8001d3 <cont_b+0x1>
    2802:	20 93 d2 01 	sts	0x01D2, r18	; 0x8001d2 <cont_b>
    2806:	01 96       	adiw	r24, 0x01	; 1
    2808:	90 93 d5 01 	sts	0x01D5, r25	; 0x8001d5 <cont_a+0x1>
    280c:	80 93 d4 01 	sts	0x01D4, r24	; 0x8001d4 <cont_a>
    2810:	80 91 d4 01 	lds	r24, 0x01D4	; 0x8001d4 <cont_a>
    2814:	90 91 d5 01 	lds	r25, 0x01D5	; 0x8001d5 <cont_a+0x1>
    2818:	fc 01       	movw	r30, r24
    281a:	eb 55       	subi	r30, 0x5B	; 91
    281c:	fe 4f       	sbci	r31, 0xFE	; 254
    281e:	20 81       	ld	r18, Z
    2820:	21 11       	cpse	r18, r1
    2822:	e1 cf       	rjmp	.-62     	; 0x27e6 <verify_senhaD+0xe2>
    2824:	80 91 d2 01 	lds	r24, 0x01D2	; 0x8001d2 <cont_b>
    2828:	90 91 d3 01 	lds	r25, 0x01D3	; 0x8001d3 <cont_b+0x1>
    282c:	04 97       	sbiw	r24, 0x04	; 4
    282e:	31 f4       	brne	.+12     	; 0x283c <verify_senhaD+0x138>
    2830:	81 e0       	ldi	r24, 0x01	; 1
    2832:	80 93 da 01 	sts	0x01DA, r24	; 0x8001da <state>
    2836:	0e 94 11 1d 	call	0x3a22	; 0x3a22 <clear_Display>
    283a:	08 95       	ret
    283c:	10 92 d5 01 	sts	0x01D5, r1	; 0x8001d5 <cont_a+0x1>
    2840:	10 92 d4 01 	sts	0x01D4, r1	; 0x8001d4 <cont_a>
    2844:	10 92 d3 01 	sts	0x01D3, r1	; 0x8001d3 <cont_b+0x1>
    2848:	10 92 d2 01 	sts	0x01D2, r1	; 0x8001d2 <cont_b>
    284c:	15 c0       	rjmp	.+42     	; 0x2878 <verify_senhaD+0x174>
    284e:	fc 01       	movw	r30, r24
    2850:	e1 5d       	subi	r30, 0xD1	; 209
    2852:	fe 4f       	sbci	r31, 0xFE	; 254
    2854:	30 81       	ld	r19, Z
    2856:	23 13       	cpse	r18, r19
    2858:	0a c0       	rjmp	.+20     	; 0x286e <verify_senhaD+0x16a>
    285a:	20 91 d2 01 	lds	r18, 0x01D2	; 0x8001d2 <cont_b>
    285e:	30 91 d3 01 	lds	r19, 0x01D3	; 0x8001d3 <cont_b+0x1>
    2862:	2f 5f       	subi	r18, 0xFF	; 255
    2864:	3f 4f       	sbci	r19, 0xFF	; 255
    2866:	30 93 d3 01 	sts	0x01D3, r19	; 0x8001d3 <cont_b+0x1>
    286a:	20 93 d2 01 	sts	0x01D2, r18	; 0x8001d2 <cont_b>
    286e:	01 96       	adiw	r24, 0x01	; 1
    2870:	90 93 d5 01 	sts	0x01D5, r25	; 0x8001d5 <cont_a+0x1>
    2874:	80 93 d4 01 	sts	0x01D4, r24	; 0x8001d4 <cont_a>
    2878:	80 91 d4 01 	lds	r24, 0x01D4	; 0x8001d4 <cont_a>
    287c:	90 91 d5 01 	lds	r25, 0x01D5	; 0x8001d5 <cont_a+0x1>
    2880:	fc 01       	movw	r30, r24
    2882:	e0 56       	subi	r30, 0x60	; 96
    2884:	fe 4f       	sbci	r31, 0xFE	; 254
    2886:	20 81       	ld	r18, Z
    2888:	21 11       	cpse	r18, r1
    288a:	e1 cf       	rjmp	.-62     	; 0x284e <verify_senhaD+0x14a>
    288c:	80 91 d2 01 	lds	r24, 0x01D2	; 0x8001d2 <cont_b>
    2890:	90 91 d3 01 	lds	r25, 0x01D3	; 0x8001d3 <cont_b+0x1>
    2894:	04 97       	sbiw	r24, 0x04	; 4
    2896:	31 f4       	brne	.+12     	; 0x28a4 <verify_senhaD+0x1a0>
    2898:	81 e0       	ldi	r24, 0x01	; 1
    289a:	80 93 da 01 	sts	0x01DA, r24	; 0x8001da <state>
    289e:	0e 94 11 1d 	call	0x3a22	; 0x3a22 <clear_Display>
    28a2:	08 95       	ret
    28a4:	85 e0       	ldi	r24, 0x05	; 5
    28a6:	80 93 da 01 	sts	0x01DA, r24	; 0x8001da <state>
    28aa:	0e 94 11 1d 	call	0x3a22	; 0x3a22 <clear_Display>
    28ae:	08 95       	ret

Disassembly of section .text.hab_sensor:

000028b0 <hab_sensor>:
    28b0:	21 e0       	ldi	r18, 0x01	; 1
    28b2:	30 e0       	ldi	r19, 0x00	; 0
    28b4:	30 93 d1 01 	sts	0x01D1, r19	; 0x8001d1 <flag_sensor+0x1>
    28b8:	20 93 d0 01 	sts	0x01D0, r18	; 0x8001d0 <flag_sensor>
    28bc:	20 91 ce 01 	lds	r18, 0x01CE	; 0x8001ce <flag_D_sensor>
    28c0:	30 91 cf 01 	lds	r19, 0x01CF	; 0x8001cf <flag_D_sensor+0x1>
    28c4:	21 15       	cp	r18, r1
    28c6:	31 05       	cpc	r19, r1
    28c8:	09 f0       	breq	.+2      	; 0x28cc <hab_sensor+0x1c>
    28ca:	4f c0       	rjmp	.+158    	; 0x296a <hab_sensor+0xba>
    28cc:	00 97       	sbiw	r24, 0x00	; 0
    28ce:	39 f4       	brne	.+14     	; 0x28de <hab_sensor+0x2e>
    28d0:	81 e0       	ldi	r24, 0x01	; 1
    28d2:	90 e0       	ldi	r25, 0x00	; 0
    28d4:	90 93 9d 01 	sts	0x019D, r25	; 0x80019d <sensor0+0x3>
    28d8:	80 93 9c 01 	sts	0x019C, r24	; 0x80019c <sensor0+0x2>
    28dc:	08 95       	ret
    28de:	81 30       	cpi	r24, 0x01	; 1
    28e0:	91 05       	cpc	r25, r1
    28e2:	39 f4       	brne	.+14     	; 0x28f2 <hab_sensor+0x42>
    28e4:	81 e0       	ldi	r24, 0x01	; 1
    28e6:	90 e0       	ldi	r25, 0x00	; 0
    28e8:	90 93 97 01 	sts	0x0197, r25	; 0x800197 <sensor1+0x3>
    28ec:	80 93 96 01 	sts	0x0196, r24	; 0x800196 <sensor1+0x2>
    28f0:	08 95       	ret
    28f2:	82 30       	cpi	r24, 0x02	; 2
    28f4:	91 05       	cpc	r25, r1
    28f6:	39 f4       	brne	.+14     	; 0x2906 <hab_sensor+0x56>
    28f8:	81 e0       	ldi	r24, 0x01	; 1
    28fa:	90 e0       	ldi	r25, 0x00	; 0
    28fc:	90 93 91 01 	sts	0x0191, r25	; 0x800191 <sensor2+0x3>
    2900:	80 93 90 01 	sts	0x0190, r24	; 0x800190 <sensor2+0x2>
    2904:	08 95       	ret
    2906:	83 30       	cpi	r24, 0x03	; 3
    2908:	91 05       	cpc	r25, r1
    290a:	39 f4       	brne	.+14     	; 0x291a <hab_sensor+0x6a>
    290c:	81 e0       	ldi	r24, 0x01	; 1
    290e:	90 e0       	ldi	r25, 0x00	; 0
    2910:	90 93 8b 01 	sts	0x018B, r25	; 0x80018b <sensor3+0x3>
    2914:	80 93 8a 01 	sts	0x018A, r24	; 0x80018a <sensor3+0x2>
    2918:	08 95       	ret
    291a:	84 30       	cpi	r24, 0x04	; 4
    291c:	91 05       	cpc	r25, r1
    291e:	39 f4       	brne	.+14     	; 0x292e <hab_sensor+0x7e>
    2920:	81 e0       	ldi	r24, 0x01	; 1
    2922:	90 e0       	ldi	r25, 0x00	; 0
    2924:	90 93 85 01 	sts	0x0185, r25	; 0x800185 <sensor4+0x3>
    2928:	80 93 84 01 	sts	0x0184, r24	; 0x800184 <sensor4+0x2>
    292c:	08 95       	ret
    292e:	85 30       	cpi	r24, 0x05	; 5
    2930:	91 05       	cpc	r25, r1
    2932:	39 f4       	brne	.+14     	; 0x2942 <hab_sensor+0x92>
    2934:	81 e0       	ldi	r24, 0x01	; 1
    2936:	90 e0       	ldi	r25, 0x00	; 0
    2938:	90 93 7f 01 	sts	0x017F, r25	; 0x80017f <sensor5+0x3>
    293c:	80 93 7e 01 	sts	0x017E, r24	; 0x80017e <sensor5+0x2>
    2940:	08 95       	ret
    2942:	86 30       	cpi	r24, 0x06	; 6
    2944:	91 05       	cpc	r25, r1
    2946:	39 f4       	brne	.+14     	; 0x2956 <hab_sensor+0xa6>
    2948:	81 e0       	ldi	r24, 0x01	; 1
    294a:	90 e0       	ldi	r25, 0x00	; 0
    294c:	90 93 79 01 	sts	0x0179, r25	; 0x800179 <sensor6+0x3>
    2950:	80 93 78 01 	sts	0x0178, r24	; 0x800178 <sensor6+0x2>
    2954:	08 95       	ret
    2956:	07 97       	sbiw	r24, 0x07	; 7
    2958:	09 f0       	breq	.+2      	; 0x295c <hab_sensor+0xac>
    295a:	4c c0       	rjmp	.+152    	; 0x29f4 <hab_sensor+0x144>
    295c:	81 e0       	ldi	r24, 0x01	; 1
    295e:	90 e0       	ldi	r25, 0x00	; 0
    2960:	90 93 73 01 	sts	0x0173, r25	; 0x800173 <sensor7+0x3>
    2964:	80 93 72 01 	sts	0x0172, r24	; 0x800172 <sensor7+0x2>
    2968:	08 95       	ret
    296a:	21 30       	cpi	r18, 0x01	; 1
    296c:	31 05       	cpc	r19, r1
    296e:	09 f0       	breq	.+2      	; 0x2972 <hab_sensor+0xc2>
    2970:	41 c0       	rjmp	.+130    	; 0x29f4 <hab_sensor+0x144>
    2972:	00 97       	sbiw	r24, 0x00	; 0
    2974:	29 f4       	brne	.+10     	; 0x2980 <hab_sensor+0xd0>
    2976:	10 92 9d 01 	sts	0x019D, r1	; 0x80019d <sensor0+0x3>
    297a:	10 92 9c 01 	sts	0x019C, r1	; 0x80019c <sensor0+0x2>
    297e:	36 c0       	rjmp	.+108    	; 0x29ec <hab_sensor+0x13c>
    2980:	81 30       	cpi	r24, 0x01	; 1
    2982:	91 05       	cpc	r25, r1
    2984:	29 f4       	brne	.+10     	; 0x2990 <hab_sensor+0xe0>
    2986:	10 92 97 01 	sts	0x0197, r1	; 0x800197 <sensor1+0x3>
    298a:	10 92 96 01 	sts	0x0196, r1	; 0x800196 <sensor1+0x2>
    298e:	2e c0       	rjmp	.+92     	; 0x29ec <hab_sensor+0x13c>
    2990:	82 30       	cpi	r24, 0x02	; 2
    2992:	91 05       	cpc	r25, r1
    2994:	29 f4       	brne	.+10     	; 0x29a0 <hab_sensor+0xf0>
    2996:	10 92 91 01 	sts	0x0191, r1	; 0x800191 <sensor2+0x3>
    299a:	10 92 90 01 	sts	0x0190, r1	; 0x800190 <sensor2+0x2>
    299e:	26 c0       	rjmp	.+76     	; 0x29ec <hab_sensor+0x13c>
    29a0:	83 30       	cpi	r24, 0x03	; 3
    29a2:	91 05       	cpc	r25, r1
    29a4:	29 f4       	brne	.+10     	; 0x29b0 <hab_sensor+0x100>
    29a6:	10 92 8b 01 	sts	0x018B, r1	; 0x80018b <sensor3+0x3>
    29aa:	10 92 8a 01 	sts	0x018A, r1	; 0x80018a <sensor3+0x2>
    29ae:	1e c0       	rjmp	.+60     	; 0x29ec <hab_sensor+0x13c>
    29b0:	84 30       	cpi	r24, 0x04	; 4
    29b2:	91 05       	cpc	r25, r1
    29b4:	29 f4       	brne	.+10     	; 0x29c0 <hab_sensor+0x110>
    29b6:	10 92 85 01 	sts	0x0185, r1	; 0x800185 <sensor4+0x3>
    29ba:	10 92 84 01 	sts	0x0184, r1	; 0x800184 <sensor4+0x2>
    29be:	16 c0       	rjmp	.+44     	; 0x29ec <hab_sensor+0x13c>
    29c0:	85 30       	cpi	r24, 0x05	; 5
    29c2:	91 05       	cpc	r25, r1
    29c4:	29 f4       	brne	.+10     	; 0x29d0 <hab_sensor+0x120>
    29c6:	10 92 7f 01 	sts	0x017F, r1	; 0x80017f <sensor5+0x3>
    29ca:	10 92 7e 01 	sts	0x017E, r1	; 0x80017e <sensor5+0x2>
    29ce:	0e c0       	rjmp	.+28     	; 0x29ec <hab_sensor+0x13c>
    29d0:	86 30       	cpi	r24, 0x06	; 6
    29d2:	91 05       	cpc	r25, r1
    29d4:	29 f4       	brne	.+10     	; 0x29e0 <hab_sensor+0x130>
    29d6:	10 92 79 01 	sts	0x0179, r1	; 0x800179 <sensor6+0x3>
    29da:	10 92 78 01 	sts	0x0178, r1	; 0x800178 <sensor6+0x2>
    29de:	06 c0       	rjmp	.+12     	; 0x29ec <hab_sensor+0x13c>
    29e0:	07 97       	sbiw	r24, 0x07	; 7
    29e2:	21 f4       	brne	.+8      	; 0x29ec <hab_sensor+0x13c>
    29e4:	10 92 73 01 	sts	0x0173, r1	; 0x800173 <sensor7+0x3>
    29e8:	10 92 72 01 	sts	0x0172, r1	; 0x800172 <sensor7+0x2>
    29ec:	10 92 cf 01 	sts	0x01CF, r1	; 0x8001cf <flag_D_sensor+0x1>
    29f0:	10 92 ce 01 	sts	0x01CE, r1	; 0x8001ce <flag_D_sensor>
    29f4:	08 95       	ret

Disassembly of section .text.hab_zonas:

00002c4c <hab_zonas>:
    2c4c:	21 e0       	ldi	r18, 0x01	; 1
    2c4e:	30 e0       	ldi	r19, 0x00	; 0
    2c50:	30 93 d1 01 	sts	0x01D1, r19	; 0x8001d1 <flag_sensor+0x1>
    2c54:	20 93 d0 01 	sts	0x01D0, r18	; 0x8001d0 <flag_sensor>
    2c58:	20 91 ce 01 	lds	r18, 0x01CE	; 0x8001ce <flag_D_sensor>
    2c5c:	30 91 cf 01 	lds	r19, 0x01CF	; 0x8001cf <flag_D_sensor+0x1>
    2c60:	21 15       	cp	r18, r1
    2c62:	31 05       	cpc	r19, r1
    2c64:	e9 f4       	brne	.+58     	; 0x2ca0 <hab_zonas+0x54>
    2c66:	81 30       	cpi	r24, 0x01	; 1
    2c68:	91 05       	cpc	r25, r1
    2c6a:	39 f4       	brne	.+14     	; 0x2c7a <hab_zonas+0x2e>
    2c6c:	81 e0       	ldi	r24, 0x01	; 1
    2c6e:	90 e0       	ldi	r25, 0x00	; 0
    2c70:	90 93 5f 01 	sts	0x015F, r25	; 0x80015f <zona1+0x3>
    2c74:	80 93 5e 01 	sts	0x015E, r24	; 0x80015e <zona1+0x2>
    2c78:	08 95       	ret
    2c7a:	82 30       	cpi	r24, 0x02	; 2
    2c7c:	91 05       	cpc	r25, r1
    2c7e:	39 f4       	brne	.+14     	; 0x2c8e <hab_zonas+0x42>
    2c80:	81 e0       	ldi	r24, 0x01	; 1
    2c82:	90 e0       	ldi	r25, 0x00	; 0
    2c84:	90 93 4b 01 	sts	0x014B, r25	; 0x80014b <zona2+0x3>
    2c88:	80 93 4a 01 	sts	0x014A, r24	; 0x80014a <zona2+0x2>
    2c8c:	08 95       	ret
    2c8e:	03 97       	sbiw	r24, 0x03	; 3
    2c90:	21 f5       	brne	.+72     	; 0x2cda <hab_zonas+0x8e>
    2c92:	81 e0       	ldi	r24, 0x01	; 1
    2c94:	90 e0       	ldi	r25, 0x00	; 0
    2c96:	90 93 37 01 	sts	0x0137, r25	; 0x800137 <zona3+0x3>
    2c9a:	80 93 36 01 	sts	0x0136, r24	; 0x800136 <zona3+0x2>
    2c9e:	08 95       	ret
    2ca0:	21 30       	cpi	r18, 0x01	; 1
    2ca2:	31 05       	cpc	r19, r1
    2ca4:	d1 f4       	brne	.+52     	; 0x2cda <hab_zonas+0x8e>
    2ca6:	81 30       	cpi	r24, 0x01	; 1
    2ca8:	91 05       	cpc	r25, r1
    2caa:	29 f4       	brne	.+10     	; 0x2cb6 <hab_zonas+0x6a>
    2cac:	10 92 5f 01 	sts	0x015F, r1	; 0x80015f <zona1+0x3>
    2cb0:	10 92 5e 01 	sts	0x015E, r1	; 0x80015e <zona1+0x2>
    2cb4:	0e c0       	rjmp	.+28     	; 0x2cd2 <hab_zonas+0x86>
    2cb6:	82 30       	cpi	r24, 0x02	; 2
    2cb8:	91 05       	cpc	r25, r1
    2cba:	29 f4       	brne	.+10     	; 0x2cc6 <hab_zonas+0x7a>
    2cbc:	10 92 4b 01 	sts	0x014B, r1	; 0x80014b <zona2+0x3>
    2cc0:	10 92 4a 01 	sts	0x014A, r1	; 0x80014a <zona2+0x2>
    2cc4:	06 c0       	rjmp	.+12     	; 0x2cd2 <hab_zonas+0x86>
    2cc6:	03 97       	sbiw	r24, 0x03	; 3
    2cc8:	21 f4       	brne	.+8      	; 0x2cd2 <hab_zonas+0x86>
    2cca:	10 92 37 01 	sts	0x0137, r1	; 0x800137 <zona3+0x3>
    2cce:	10 92 36 01 	sts	0x0136, r1	; 0x800136 <zona3+0x2>
    2cd2:	10 92 cf 01 	sts	0x01CF, r1	; 0x8001cf <flag_D_sensor+0x1>
    2cd6:	10 92 ce 01 	sts	0x01CE, r1	; 0x8001ce <flag_D_sensor>
    2cda:	08 95       	ret

Disassembly of section .text.assSensorZona:

000021f6 <assSensorZona>:
    21f6:	20 91 ce 01 	lds	r18, 0x01CE	; 0x8001ce <flag_D_sensor>
    21fa:	30 91 cf 01 	lds	r19, 0x01CF	; 0x8001cf <flag_D_sensor+0x1>
    21fe:	21 15       	cp	r18, r1
    2200:	31 05       	cpc	r19, r1
    2202:	09 f0       	breq	.+2      	; 0x2206 <assSensorZona+0x10>
    2204:	e4 c0       	rjmp	.+456    	; 0x23ce <assSensorZona+0x1d8>
    2206:	61 30       	cpi	r22, 0x01	; 1
    2208:	71 05       	cpc	r23, r1
    220a:	09 f0       	breq	.+2      	; 0x220e <assSensorZona+0x18>
    220c:	48 c0       	rjmp	.+144    	; 0x229e <assSensorZona+0xa8>
    220e:	00 97       	sbiw	r24, 0x00	; 0
    2210:	31 f4       	brne	.+12     	; 0x221e <assSensorZona+0x28>
    2212:	21 e0       	ldi	r18, 0x01	; 1
    2214:	30 e0       	ldi	r19, 0x00	; 0
    2216:	30 93 61 01 	sts	0x0161, r19	; 0x800161 <zona1+0x5>
    221a:	20 93 60 01 	sts	0x0160, r18	; 0x800160 <zona1+0x4>
    221e:	81 30       	cpi	r24, 0x01	; 1
    2220:	91 05       	cpc	r25, r1
    2222:	31 f4       	brne	.+12     	; 0x2230 <assSensorZona+0x3a>
    2224:	21 e0       	ldi	r18, 0x01	; 1
    2226:	30 e0       	ldi	r19, 0x00	; 0
    2228:	30 93 63 01 	sts	0x0163, r19	; 0x800163 <zona1+0x7>
    222c:	20 93 62 01 	sts	0x0162, r18	; 0x800162 <zona1+0x6>
    2230:	82 30       	cpi	r24, 0x02	; 2
    2232:	91 05       	cpc	r25, r1
    2234:	31 f4       	brne	.+12     	; 0x2242 <assSensorZona+0x4c>
    2236:	21 e0       	ldi	r18, 0x01	; 1
    2238:	30 e0       	ldi	r19, 0x00	; 0
    223a:	30 93 65 01 	sts	0x0165, r19	; 0x800165 <zona1+0x9>
    223e:	20 93 64 01 	sts	0x0164, r18	; 0x800164 <zona1+0x8>
    2242:	83 30       	cpi	r24, 0x03	; 3
    2244:	91 05       	cpc	r25, r1
    2246:	31 f4       	brne	.+12     	; 0x2254 <assSensorZona+0x5e>
    2248:	21 e0       	ldi	r18, 0x01	; 1
    224a:	30 e0       	ldi	r19, 0x00	; 0
    224c:	30 93 67 01 	sts	0x0167, r19	; 0x800167 <zona1+0xb>
    2250:	20 93 66 01 	sts	0x0166, r18	; 0x800166 <zona1+0xa>
    2254:	84 30       	cpi	r24, 0x04	; 4
    2256:	91 05       	cpc	r25, r1
    2258:	31 f4       	brne	.+12     	; 0x2266 <assSensorZona+0x70>
    225a:	21 e0       	ldi	r18, 0x01	; 1
    225c:	30 e0       	ldi	r19, 0x00	; 0
    225e:	30 93 69 01 	sts	0x0169, r19	; 0x800169 <zona1+0xd>
    2262:	20 93 68 01 	sts	0x0168, r18	; 0x800168 <zona1+0xc>
    2266:	85 30       	cpi	r24, 0x05	; 5
    2268:	91 05       	cpc	r25, r1
    226a:	31 f4       	brne	.+12     	; 0x2278 <assSensorZona+0x82>
    226c:	21 e0       	ldi	r18, 0x01	; 1
    226e:	30 e0       	ldi	r19, 0x00	; 0
    2270:	30 93 6b 01 	sts	0x016B, r19	; 0x80016b <zona1+0xf>
    2274:	20 93 6a 01 	sts	0x016A, r18	; 0x80016a <zona1+0xe>
    2278:	86 30       	cpi	r24, 0x06	; 6
    227a:	91 05       	cpc	r25, r1
    227c:	31 f4       	brne	.+12     	; 0x228a <assSensorZona+0x94>
    227e:	21 e0       	ldi	r18, 0x01	; 1
    2280:	30 e0       	ldi	r19, 0x00	; 0
    2282:	30 93 6d 01 	sts	0x016D, r19	; 0x80016d <zona1+0x11>
    2286:	20 93 6c 01 	sts	0x016C, r18	; 0x80016c <zona1+0x10>
    228a:	07 97       	sbiw	r24, 0x07	; 7
    228c:	09 f0       	breq	.+2      	; 0x2290 <assSensorZona+0x9a>
    228e:	51 c1       	rjmp	.+674    	; 0x2532 <assSensorZona+0x33c>
    2290:	81 e0       	ldi	r24, 0x01	; 1
    2292:	90 e0       	ldi	r25, 0x00	; 0
    2294:	90 93 6f 01 	sts	0x016F, r25	; 0x80016f <zona1+0x13>
    2298:	80 93 6e 01 	sts	0x016E, r24	; 0x80016e <zona1+0x12>
    229c:	08 95       	ret
    229e:	62 30       	cpi	r22, 0x02	; 2
    22a0:	71 05       	cpc	r23, r1
    22a2:	09 f0       	breq	.+2      	; 0x22a6 <assSensorZona+0xb0>
    22a4:	48 c0       	rjmp	.+144    	; 0x2336 <assSensorZona+0x140>
    22a6:	00 97       	sbiw	r24, 0x00	; 0
    22a8:	31 f4       	brne	.+12     	; 0x22b6 <assSensorZona+0xc0>
    22aa:	21 e0       	ldi	r18, 0x01	; 1
    22ac:	30 e0       	ldi	r19, 0x00	; 0
    22ae:	30 93 61 01 	sts	0x0161, r19	; 0x800161 <zona1+0x5>
    22b2:	20 93 60 01 	sts	0x0160, r18	; 0x800160 <zona1+0x4>
    22b6:	81 30       	cpi	r24, 0x01	; 1
    22b8:	91 05       	cpc	r25, r1
    22ba:	31 f4       	brne	.+12     	; 0x22c8 <assSensorZona+0xd2>
    22bc:	21 e0       	ldi	r18, 0x01	; 1
    22be:	30 e0       	ldi	r19, 0x00	; 0
    22c0:	30 93 63 01 	sts	0x0163, r19	; 0x800163 <zona1+0x7>
    22c4:	20 93 62 01 	sts	0x0162, r18	; 0x800162 <zona1+0x6>
    22c8:	82 30       	cpi	r24, 0x02	; 2
    22ca:	91 05       	cpc	r25, r1
    22cc:	31 f4       	brne	.+12     	; 0x22da <assSensorZona+0xe4>
    22ce:	21 e0       	ldi	r18, 0x01	; 1
    22d0:	30 e0       	ldi	r19, 0x00	; 0
    22d2:	30 93 65 01 	sts	0x0165, r19	; 0x800165 <zona1+0x9>
    22d6:	20 93 64 01 	sts	0x0164, r18	; 0x800164 <zona1+0x8>
    22da:	83 30       	cpi	r24, 0x03	; 3
    22dc:	91 05       	cpc	r25, r1
    22de:	31 f4       	brne	.+12     	; 0x22ec <assSensorZona+0xf6>
    22e0:	21 e0       	ldi	r18, 0x01	; 1
    22e2:	30 e0       	ldi	r19, 0x00	; 0
    22e4:	30 93 67 01 	sts	0x0167, r19	; 0x800167 <zona1+0xb>
    22e8:	20 93 66 01 	sts	0x0166, r18	; 0x800166 <zona1+0xa>
    22ec:	84 30       	cpi	r24, 0x04	; 4
    22ee:	91 05       	cpc	r25, r1
    22f0:	31 f4       	brne	.+12     	; 0x22fe <assSensorZona+0x108>
    22f2:	21 e0       	ldi	r18, 0x01	; 1
    22f4:	30 e0       	ldi	r19, 0x00	; 0
    22f6:	30 93 69 01 	sts	0x0169, r19	; 0x800169 <zona1+0xd>
    22fa:	20 93 68 01 	sts	0x0168, r18	; 0x800168 <zona1+0xc>
    22fe:	85 30       	cpi	r24, 0x05	; 5
    2300:	91 05       	cpc	r25, r1
    2302:	31 f4       	brne	.+12     	; 0x2310 <assSensorZona+0x11a>
    2304:	21 e0       	ldi	r18, 0x01	; 1
    2306:	30 e0       	ldi	r19, 0x00	; 0
    2308:	30 93 6b 01 	sts	0x016B, r19	; 0x80016b <zona1+0xf>
    230c:	20 93 6a 01 	sts	0x016A, r18	; 0x80016a <zona1+0xe>
    2310:	86 30       	cpi	r24, 0x06	; 6
    2312:	91 05       	cpc	r25, r1
    2314:	31 f4       	brne	.+12     	; 0x2322 <assSensorZona+0x12c>
    2316:	21 e0       	ldi	r18, 0x01	; 1
    2318:	30 e0       	ldi	r19, 0x00	; 0
    231a:	30 93 6d 01 	sts	0x016D, r19	; 0x80016d <zona1+0x11>
    231e:	20 93 6c 01 	sts	0x016C, r18	; 0x80016c <zona1+0x10>
    2322:	07 97       	sbiw	r24, 0x07	; 7
    2324:	09 f0       	breq	.+2      	; 0x2328 <assSensorZona+0x132>
    2326:	05 c1       	rjmp	.+522    	; 0x2532 <assSensorZona+0x33c>
    2328:	81 e0       	ldi	r24, 0x01	; 1
    232a:	90 e0       	ldi	r25, 0x00	; 0
    232c:	90 93 6f 01 	sts	0x016F, r25	; 0x80016f <zona1+0x13>
    2330:	80 93 6e 01 	sts	0x016E, r24	; 0x80016e <zona1+0x12>
    2334:	08 95       	ret
    2336:	63 30       	cpi	r22, 0x03	; 3
    2338:	71 05       	cpc	r23, r1
    233a:	09 f0       	breq	.+2      	; 0x233e <assSensorZona+0x148>
    233c:	fa c0       	rjmp	.+500    	; 0x2532 <assSensorZona+0x33c>
    233e:	00 97       	sbiw	r24, 0x00	; 0
    2340:	31 f4       	brne	.+12     	; 0x234e <assSensorZona+0x158>
    2342:	21 e0       	ldi	r18, 0x01	; 1
    2344:	30 e0       	ldi	r19, 0x00	; 0
    2346:	30 93 61 01 	sts	0x0161, r19	; 0x800161 <zona1+0x5>
    234a:	20 93 60 01 	sts	0x0160, r18	; 0x800160 <zona1+0x4>
    234e:	81 30       	cpi	r24, 0x01	; 1
    2350:	91 05       	cpc	r25, r1
    2352:	31 f4       	brne	.+12     	; 0x2360 <assSensorZona+0x16a>
    2354:	21 e0       	ldi	r18, 0x01	; 1
    2356:	30 e0       	ldi	r19, 0x00	; 0
    2358:	30 93 63 01 	sts	0x0163, r19	; 0x800163 <zona1+0x7>
    235c:	20 93 62 01 	sts	0x0162, r18	; 0x800162 <zona1+0x6>
    2360:	82 30       	cpi	r24, 0x02	; 2
    2362:	91 05       	cpc	r25, r1
    2364:	31 f4       	brne	.+12     	; 0x2372 <assSensorZona+0x17c>
    2366:	21 e0       	ldi	r18, 0x01	; 1
    2368:	30 e0       	ldi	r19, 0x00	; 0
    236a:	30 93 65 01 	sts	0x0165, r19	; 0x800165 <zona1+0x9>
    236e:	20 93 64 01 	sts	0x0164, r18	; 0x800164 <zona1+0x8>
    2372:	83 30       	cpi	r24, 0x03	; 3
    2374:	91 05       	cpc	r25, r1
    2376:	31 f4       	brne	.+12     	; 0x2384 <assSensorZona+0x18e>
    2378:	21 e0       	ldi	r18, 0x01	; 1
    237a:	30 e0       	ldi	r19, 0x00	; 0
    237c:	30 93 67 01 	sts	0x0167, r19	; 0x800167 <zona1+0xb>
    2380:	20 93 66 01 	sts	0x0166, r18	; 0x800166 <zona1+0xa>
    2384:	84 30       	cpi	r24, 0x04	; 4
    2386:	91 05       	cpc	r25, r1
    2388:	31 f4       	brne	.+12     	; 0x2396 <assSensorZona+0x1a0>
    238a:	21 e0       	ldi	r18, 0x01	; 1
    238c:	30 e0       	ldi	r19, 0x00	; 0
    238e:	30 93 69 01 	sts	0x0169, r19	; 0x800169 <zona1+0xd>
    2392:	20 93 68 01 	sts	0x0168, r18	; 0x800168 <zona1+0xc>
    2396:	85 30       	cpi	r24, 0x05	; 5
    2398:	91 05       	cpc	r25, r1
    239a:	31 f4       	brne	.+12     	; 0x23a8 <assSensorZona+0x1b2>
    239c:	21 e0       	ldi	r18, 0x01	; 1
    239e:	30 e0       	ldi	r19, 0x00	; 0
    23a0:	30 93 6b 01 	sts	0x016B, r19	; 0x80016b <zona1+0xf>
    23a4:	20 93 6a 01 	sts	0x016A, r18	; 0x80016a <zona1+0xe>
    23a8:	86 30       	cpi	r24, 0x06	; 6
    23aa:	91 05       	cpc	r25, r1
    23ac:	31 f4       	brne	.+12     	; 0x23ba <assSensorZona+0x1c4>
    23ae:	21 e0       	ldi	r18, 0x01	; 1
    23b0:	30 e0       	ldi	r19, 0x00	; 0
    23b2:	30 93 6d 01 	sts	0x016D, r19	; 0x80016d <zona1+0x11>
    23b6:	20 93 6c 01 	sts	0x016C, r18	; 0x80016c <zona1+0x10>
    23ba:	07 97       	sbiw	r24, 0x07	; 7
    23bc:	09 f0       	breq	.+2      	; 0x23c0 <assSensorZona+0x1ca>
    23be:	b9 c0       	rjmp	.+370    	; 0x2532 <assSensorZona+0x33c>
    23c0:	81 e0       	ldi	r24, 0x01	; 1
    23c2:	90 e0       	ldi	r25, 0x00	; 0
    23c4:	90 93 6f 01 	sts	0x016F, r25	; 0x80016f <zona1+0x13>
    23c8:	80 93 6e 01 	sts	0x016E, r24	; 0x80016e <zona1+0x12>
    23cc:	08 95       	ret
    23ce:	21 30       	cpi	r18, 0x01	; 1
    23d0:	31 05       	cpc	r19, r1
    23d2:	09 f0       	breq	.+2      	; 0x23d6 <assSensorZona+0x1e0>
    23d4:	ae c0       	rjmp	.+348    	; 0x2532 <assSensorZona+0x33c>
    23d6:	61 30       	cpi	r22, 0x01	; 1
    23d8:	71 05       	cpc	r23, r1
    23da:	c1 f5       	brne	.+112    	; 0x244c <assSensorZona+0x256>
    23dc:	00 97       	sbiw	r24, 0x00	; 0
    23de:	21 f4       	brne	.+8      	; 0x23e8 <assSensorZona+0x1f2>
    23e0:	10 92 61 01 	sts	0x0161, r1	; 0x800161 <zona1+0x5>
    23e4:	10 92 60 01 	sts	0x0160, r1	; 0x800160 <zona1+0x4>
    23e8:	81 30       	cpi	r24, 0x01	; 1
    23ea:	91 05       	cpc	r25, r1
    23ec:	21 f4       	brne	.+8      	; 0x23f6 <assSensorZona+0x200>
    23ee:	10 92 63 01 	sts	0x0163, r1	; 0x800163 <zona1+0x7>
    23f2:	10 92 62 01 	sts	0x0162, r1	; 0x800162 <zona1+0x6>
    23f6:	82 30       	cpi	r24, 0x02	; 2
    23f8:	91 05       	cpc	r25, r1
    23fa:	21 f4       	brne	.+8      	; 0x2404 <assSensorZona+0x20e>
    23fc:	10 92 65 01 	sts	0x0165, r1	; 0x800165 <zona1+0x9>
    2400:	10 92 64 01 	sts	0x0164, r1	; 0x800164 <zona1+0x8>
    2404:	83 30       	cpi	r24, 0x03	; 3
    2406:	91 05       	cpc	r25, r1
    2408:	21 f4       	brne	.+8      	; 0x2412 <assSensorZona+0x21c>
    240a:	10 92 67 01 	sts	0x0167, r1	; 0x800167 <zona1+0xb>
    240e:	10 92 66 01 	sts	0x0166, r1	; 0x800166 <zona1+0xa>
    2412:	84 30       	cpi	r24, 0x04	; 4
    2414:	91 05       	cpc	r25, r1
    2416:	21 f4       	brne	.+8      	; 0x2420 <assSensorZona+0x22a>
    2418:	10 92 69 01 	sts	0x0169, r1	; 0x800169 <zona1+0xd>
    241c:	10 92 68 01 	sts	0x0168, r1	; 0x800168 <zona1+0xc>
    2420:	85 30       	cpi	r24, 0x05	; 5
    2422:	91 05       	cpc	r25, r1
    2424:	21 f4       	brne	.+8      	; 0x242e <assSensorZona+0x238>
    2426:	10 92 6b 01 	sts	0x016B, r1	; 0x80016b <zona1+0xf>
    242a:	10 92 6a 01 	sts	0x016A, r1	; 0x80016a <zona1+0xe>
    242e:	86 30       	cpi	r24, 0x06	; 6
    2430:	91 05       	cpc	r25, r1
    2432:	21 f4       	brne	.+8      	; 0x243c <assSensorZona+0x246>
    2434:	10 92 6d 01 	sts	0x016D, r1	; 0x80016d <zona1+0x11>
    2438:	10 92 6c 01 	sts	0x016C, r1	; 0x80016c <zona1+0x10>
    243c:	07 97       	sbiw	r24, 0x07	; 7
    243e:	09 f0       	breq	.+2      	; 0x2442 <assSensorZona+0x24c>
    2440:	78 c0       	rjmp	.+240    	; 0x2532 <assSensorZona+0x33c>
    2442:	10 92 6f 01 	sts	0x016F, r1	; 0x80016f <zona1+0x13>
    2446:	10 92 6e 01 	sts	0x016E, r1	; 0x80016e <zona1+0x12>
    244a:	08 95       	ret
    244c:	62 30       	cpi	r22, 0x02	; 2
    244e:	71 05       	cpc	r23, r1
    2450:	b9 f5       	brne	.+110    	; 0x24c0 <assSensorZona+0x2ca>
    2452:	00 97       	sbiw	r24, 0x00	; 0
    2454:	21 f4       	brne	.+8      	; 0x245e <assSensorZona+0x268>
    2456:	10 92 61 01 	sts	0x0161, r1	; 0x800161 <zona1+0x5>
    245a:	10 92 60 01 	sts	0x0160, r1	; 0x800160 <zona1+0x4>
    245e:	81 30       	cpi	r24, 0x01	; 1
    2460:	91 05       	cpc	r25, r1
    2462:	21 f4       	brne	.+8      	; 0x246c <assSensorZona+0x276>
    2464:	10 92 63 01 	sts	0x0163, r1	; 0x800163 <zona1+0x7>
    2468:	10 92 62 01 	sts	0x0162, r1	; 0x800162 <zona1+0x6>
    246c:	82 30       	cpi	r24, 0x02	; 2
    246e:	91 05       	cpc	r25, r1
    2470:	21 f4       	brne	.+8      	; 0x247a <assSensorZona+0x284>
    2472:	10 92 65 01 	sts	0x0165, r1	; 0x800165 <zona1+0x9>
    2476:	10 92 64 01 	sts	0x0164, r1	; 0x800164 <zona1+0x8>
    247a:	83 30       	cpi	r24, 0x03	; 3
    247c:	91 05       	cpc	r25, r1
    247e:	21 f4       	brne	.+8      	; 0x2488 <assSensorZona+0x292>
    2480:	10 92 67 01 	sts	0x0167, r1	; 0x800167 <zona1+0xb>
    2484:	10 92 66 01 	sts	0x0166, r1	; 0x800166 <zona1+0xa>
    2488:	84 30       	cpi	r24, 0x04	; 4
    248a:	91 05       	cpc	r25, r1
    248c:	21 f4       	brne	.+8      	; 0x2496 <assSensorZona+0x2a0>
    248e:	10 92 69 01 	sts	0x0169, r1	; 0x800169 <zona1+0xd>
    2492:	10 92 68 01 	sts	0x0168, r1	; 0x800168 <zona1+0xc>
    2496:	85 30       	cpi	r24, 0x05	; 5
    2498:	91 05       	cpc	r25, r1
    249a:	21 f4       	brne	.+8      	; 0x24a4 <assSensorZona+0x2ae>
    249c:	10 92 6b 01 	sts	0x016B, r1	; 0x80016b <zona1+0xf>
    24a0:	10 92 6a 01 	sts	0x016A, r1	; 0x80016a <zona1+0xe>
    24a4:	86 30       	cpi	r24, 0x06	; 6
    24a6:	91 05       	cpc	r25, r1
    24a8:	21 f4       	brne	.+8      	; 0x24b2 <assSensorZona+0x2bc>
    24aa:	10 92 6d 01 	sts	0x016D, r1	; 0x80016d <zona1+0x11>
    24ae:	10 92 6c 01 	sts	0x016C, r1	; 0x80016c <zona1+0x10>
    24b2:	07 97       	sbiw	r24, 0x07	; 7
    24b4:	f1 f5       	brne	.+124    	; 0x2532 <assSensorZona+0x33c>
    24b6:	10 92 6f 01 	sts	0x016F, r1	; 0x80016f <zona1+0x13>
    24ba:	10 92 6e 01 	sts	0x016E, r1	; 0x80016e <zona1+0x12>
    24be:	08 95       	ret
    24c0:	63 30       	cpi	r22, 0x03	; 3
    24c2:	71 05       	cpc	r23, r1
    24c4:	b1 f5       	brne	.+108    	; 0x2532 <assSensorZona+0x33c>
    24c6:	00 97       	sbiw	r24, 0x00	; 0
    24c8:	21 f4       	brne	.+8      	; 0x24d2 <assSensorZona+0x2dc>
    24ca:	10 92 61 01 	sts	0x0161, r1	; 0x800161 <zona1+0x5>
    24ce:	10 92 60 01 	sts	0x0160, r1	; 0x800160 <zona1+0x4>
    24d2:	81 30       	cpi	r24, 0x01	; 1
    24d4:	91 05       	cpc	r25, r1
    24d6:	21 f4       	brne	.+8      	; 0x24e0 <assSensorZona+0x2ea>
    24d8:	10 92 63 01 	sts	0x0163, r1	; 0x800163 <zona1+0x7>
    24dc:	10 92 62 01 	sts	0x0162, r1	; 0x800162 <zona1+0x6>
    24e0:	82 30       	cpi	r24, 0x02	; 2
    24e2:	91 05       	cpc	r25, r1
    24e4:	21 f4       	brne	.+8      	; 0x24ee <assSensorZona+0x2f8>
    24e6:	10 92 65 01 	sts	0x0165, r1	; 0x800165 <zona1+0x9>
    24ea:	10 92 64 01 	sts	0x0164, r1	; 0x800164 <zona1+0x8>
    24ee:	83 30       	cpi	r24, 0x03	; 3
    24f0:	91 05       	cpc	r25, r1
    24f2:	21 f4       	brne	.+8      	; 0x24fc <assSensorZona+0x306>
    24f4:	10 92 67 01 	sts	0x0167, r1	; 0x800167 <zona1+0xb>
    24f8:	10 92 66 01 	sts	0x0166, r1	; 0x800166 <zona1+0xa>
    24fc:	84 30       	cpi	r24, 0x04	; 4
    24fe:	91 05       	cpc	r25, r1
    2500:	21 f4       	brne	.+8      	; 0x250a <assSensorZona+0x314>
    2502:	10 92 69 01 	sts	0x0169, r1	; 0x800169 <zona1+0xd>
    2506:	10 92 68 01 	sts	0x0168, r1	; 0x800168 <zona1+0xc>
    250a:	85 30       	cpi	r24, 0x05	; 5
    250c:	91 05       	cpc	r25, r1
    250e:	21 f4       	brne	.+8      	; 0x2518 <assSensorZona+0x322>
    2510:	10 92 6b 01 	sts	0x016B, r1	; 0x80016b <zona1+0xf>
    2514:	10 92 6a 01 	sts	0x016A, r1	; 0x80016a <zona1+0xe>
    2518:	86 30       	cpi	r24, 0x06	; 6
    251a:	91 05       	cpc	r25, r1
    251c:	21 f4       	brne	.+8      	; 0x2526 <assSensorZona+0x330>
    251e:	10 92 6d 01 	sts	0x016D, r1	; 0x80016d <zona1+0x11>
    2522:	10 92 6c 01 	sts	0x016C, r1	; 0x80016c <zona1+0x10>
    2526:	07 97       	sbiw	r24, 0x07	; 7
    2528:	21 f4       	brne	.+8      	; 0x2532 <assSensorZona+0x33c>
    252a:	10 92 6f 01 	sts	0x016F, r1	; 0x80016f <zona1+0x13>
    252e:	10 92 6e 01 	sts	0x016E, r1	; 0x80016e <zona1+0x12>
    2532:	08 95       	ret

Disassembly of section .text.set_timeout:

000038e0 <set_timeout>:
    38e0:	ec e0       	ldi	r30, 0x0C	; 12
    38e2:	f1 e0       	ldi	r31, 0x01	; 1
    38e4:	80 81       	ld	r24, Z
    38e6:	91 81       	ldd	r25, Z+1	; 0x01
    38e8:	9c 01       	movw	r18, r24
    38ea:	22 0f       	add	r18, r18
    38ec:	33 1f       	adc	r19, r19
    38ee:	88 0f       	add	r24, r24
    38f0:	99 1f       	adc	r25, r25
    38f2:	88 0f       	add	r24, r24
    38f4:	99 1f       	adc	r25, r25
    38f6:	88 0f       	add	r24, r24
    38f8:	99 1f       	adc	r25, r25
    38fa:	82 0f       	add	r24, r18
    38fc:	93 1f       	adc	r25, r19
    38fe:	22 81       	ldd	r18, Z+2	; 0x02
    3900:	33 81       	ldd	r19, Z+3	; 0x03
    3902:	82 0f       	add	r24, r18
    3904:	93 1f       	adc	r25, r19
    3906:	90 93 11 01 	sts	0x0111, r25	; 0x800111 <timeout+0x1>
    390a:	80 93 10 01 	sts	0x0110, r24	; 0x800110 <timeout>
    390e:	08 95       	ret

Disassembly of section .text.set_timeA:

0000374c <set_timeA>:
    374c:	e1 e2       	ldi	r30, 0x21	; 33
    374e:	f1 e0       	ldi	r31, 0x01	; 1
    3750:	80 81       	ld	r24, Z
    3752:	91 81       	ldd	r25, Z+1	; 0x01
    3754:	24 e6       	ldi	r18, 0x64	; 100
    3756:	28 9f       	mul	r18, r24
    3758:	a0 01       	movw	r20, r0
    375a:	29 9f       	mul	r18, r25
    375c:	50 0d       	add	r21, r0
    375e:	11 24       	eor	r1, r1
    3760:	82 81       	ldd	r24, Z+2	; 0x02
    3762:	93 81       	ldd	r25, Z+3	; 0x03
    3764:	bc 01       	movw	r22, r24
    3766:	66 0f       	add	r22, r22
    3768:	77 1f       	adc	r23, r23
    376a:	9c 01       	movw	r18, r24
    376c:	22 0f       	add	r18, r18
    376e:	33 1f       	adc	r19, r19
    3770:	22 0f       	add	r18, r18
    3772:	33 1f       	adc	r19, r19
    3774:	22 0f       	add	r18, r18
    3776:	33 1f       	adc	r19, r19
    3778:	cb 01       	movw	r24, r22
    377a:	82 0f       	add	r24, r18
    377c:	93 1f       	adc	r25, r19
    377e:	84 0f       	add	r24, r20
    3780:	95 1f       	adc	r25, r21
    3782:	24 81       	ldd	r18, Z+4	; 0x04
    3784:	35 81       	ldd	r19, Z+5	; 0x05
    3786:	82 0f       	add	r24, r18
    3788:	93 1f       	adc	r25, r19
    378a:	90 93 03 01 	sts	0x0103, r25	; 0x800103 <t_ativacao+0x1>
    378e:	80 93 02 01 	sts	0x0102, r24	; 0x800102 <t_ativacao>
    3792:	08 95       	ret

Disassembly of section .text.set_timeS:

00003794 <set_timeS>:
    3794:	e9 e2       	ldi	r30, 0x29	; 41
    3796:	f1 e0       	ldi	r31, 0x01	; 1
    3798:	80 81       	ld	r24, Z
    379a:	91 81       	ldd	r25, Z+1	; 0x01
    379c:	24 e6       	ldi	r18, 0x64	; 100
    379e:	28 9f       	mul	r18, r24
    37a0:	a0 01       	movw	r20, r0
    37a2:	29 9f       	mul	r18, r25
    37a4:	50 0d       	add	r21, r0
    37a6:	11 24       	eor	r1, r1
    37a8:	82 81       	ldd	r24, Z+2	; 0x02
    37aa:	93 81       	ldd	r25, Z+3	; 0x03
    37ac:	bc 01       	movw	r22, r24
    37ae:	66 0f       	add	r22, r22
    37b0:	77 1f       	adc	r23, r23
    37b2:	9c 01       	movw	r18, r24
    37b4:	22 0f       	add	r18, r18
    37b6:	33 1f       	adc	r19, r19
    37b8:	22 0f       	add	r18, r18
    37ba:	33 1f       	adc	r19, r19
    37bc:	22 0f       	add	r18, r18
    37be:	33 1f       	adc	r19, r19
    37c0:	cb 01       	movw	r24, r22
    37c2:	82 0f       	add	r24, r18
    37c4:	93 1f       	adc	r25, r19
    37c6:	84 0f       	add	r24, r20
    37c8:	95 1f       	adc	r25, r21
    37ca:	24 81       	ldd	r18, Z+4	; 0x04
    37cc:	35 81       	ldd	r19, Z+5	; 0x05
    37ce:	82 0f       	add	r24, r18
    37d0:	93 1f       	adc	r25, r19
    37d2:	90 93 0b 01 	sts	0x010B, r25	; 0x80010b <t_sirene+0x1>
    37d6:	80 93 0a 01 	sts	0x010A, r24	; 0x80010a <t_sirene>
    37da:	08 95       	ret

Disassembly of section .text.SetupTimer1:

00003968 <SetupTimer1>:
    3968:	e1 e8       	ldi	r30, 0x81	; 129
    396a:	f0 e0       	ldi	r31, 0x00	; 0
    396c:	80 81       	ld	r24, Z
    396e:	88 60       	ori	r24, 0x08	; 8
    3970:	80 83       	st	Z, r24
    3972:	ef e6       	ldi	r30, 0x6F	; 111
    3974:	f0 e0       	ldi	r31, 0x00	; 0
    3976:	80 81       	ld	r24, Z
    3978:	82 60       	ori	r24, 0x02	; 2
    397a:	80 83       	st	Z, r24
    397c:	82 e1       	ldi	r24, 0x12	; 18
    397e:	9a e7       	ldi	r25, 0x7A	; 122
    3980:	90 93 89 00 	sts	0x0089, r25	; 0x800089 <__TEXT_REGION_LENGTH__+0x7f8089>
    3984:	80 93 88 00 	sts	0x0088, r24	; 0x800088 <__TEXT_REGION_LENGTH__+0x7f8088>
    3988:	08 95       	ret

Disassembly of section .text.StartTimer1:

00003aa2 <StartTimer1>:
    3aa2:	e1 e8       	ldi	r30, 0x81	; 129
    3aa4:	f0 e0       	ldi	r31, 0x00	; 0
    3aa6:	80 81       	ld	r24, Z
    3aa8:	84 60       	ori	r24, 0x04	; 4
    3aaa:	80 83       	st	Z, r24
    3aac:	08 95       	ret

Disassembly of section .text.verify_senhaA:

00002534 <verify_senhaA>:
    2534:	10 92 d5 01 	sts	0x01D5, r1	; 0x8001d5 <cont_a+0x1>
    2538:	10 92 d4 01 	sts	0x01D4, r1	; 0x8001d4 <cont_a>
    253c:	10 92 d3 01 	sts	0x01D3, r1	; 0x8001d3 <cont_b+0x1>
    2540:	10 92 d2 01 	sts	0x01D2, r1	; 0x8001d2 <cont_b>
    2544:	15 c0       	rjmp	.+42     	; 0x2570 <verify_senhaA+0x3c>
    2546:	fc 01       	movw	r30, r24
    2548:	e1 5d       	subi	r30, 0xD1	; 209
    254a:	fe 4f       	sbci	r31, 0xFE	; 254
    254c:	30 81       	ld	r19, Z
    254e:	23 13       	cpse	r18, r19
    2550:	0a c0       	rjmp	.+20     	; 0x2566 <verify_senhaA+0x32>
    2552:	20 91 d2 01 	lds	r18, 0x01D2	; 0x8001d2 <cont_b>
    2556:	30 91 d3 01 	lds	r19, 0x01D3	; 0x8001d3 <cont_b+0x1>
    255a:	2f 5f       	subi	r18, 0xFF	; 255
    255c:	3f 4f       	sbci	r19, 0xFF	; 255
    255e:	30 93 d3 01 	sts	0x01D3, r19	; 0x8001d3 <cont_b+0x1>
    2562:	20 93 d2 01 	sts	0x01D2, r18	; 0x8001d2 <cont_b>
    2566:	01 96       	adiw	r24, 0x01	; 1
    2568:	90 93 d5 01 	sts	0x01D5, r25	; 0x8001d5 <cont_a+0x1>
    256c:	80 93 d4 01 	sts	0x01D4, r24	; 0x8001d4 <cont_a>
    2570:	80 91 d4 01 	lds	r24, 0x01D4	; 0x8001d4 <cont_a>
    2574:	90 91 d5 01 	lds	r25, 0x01D5	; 0x8001d5 <cont_a+0x1>
    2578:	fc 01       	movw	r30, r24
    257a:	e1 55       	subi	r30, 0x51	; 81
    257c:	fe 4f       	sbci	r31, 0xFE	; 254
    257e:	20 81       	ld	r18, Z
    2580:	21 11       	cpse	r18, r1
    2582:	e1 cf       	rjmp	.-62     	; 0x2546 <verify_senhaA+0x12>
    2584:	80 91 d2 01 	lds	r24, 0x01D2	; 0x8001d2 <cont_b>
    2588:	90 91 d3 01 	lds	r25, 0x01D3	; 0x8001d3 <cont_b+0x1>
    258c:	04 97       	sbiw	r24, 0x04	; 4
    258e:	49 f4       	brne	.+18     	; 0x25a2 <verify_senhaA+0x6e>
    2590:	10 92 07 01 	sts	0x0107, r1	; 0x800107 <User+0x1>
    2594:	10 92 06 01 	sts	0x0106, r1	; 0x800106 <User>
    2598:	0e 94 11 1d 	call	0x3a22	; 0x3a22 <clear_Display>
    259c:	0e 94 51 1d 	call	0x3aa2	; 0x3aa2 <StartTimer1>
    25a0:	08 95       	ret
    25a2:	10 92 d5 01 	sts	0x01D5, r1	; 0x8001d5 <cont_a+0x1>
    25a6:	10 92 d4 01 	sts	0x01D4, r1	; 0x8001d4 <cont_a>
    25aa:	10 92 d3 01 	sts	0x01D3, r1	; 0x8001d3 <cont_b+0x1>
    25ae:	10 92 d2 01 	sts	0x01D2, r1	; 0x8001d2 <cont_b>
    25b2:	15 c0       	rjmp	.+42     	; 0x25de <verify_senhaA+0xaa>
    25b4:	fc 01       	movw	r30, r24
    25b6:	e1 5d       	subi	r30, 0xD1	; 209
    25b8:	fe 4f       	sbci	r31, 0xFE	; 254
    25ba:	30 81       	ld	r19, Z
    25bc:	23 13       	cpse	r18, r19
    25be:	0a c0       	rjmp	.+20     	; 0x25d4 <verify_senhaA+0xa0>
    25c0:	20 91 d2 01 	lds	r18, 0x01D2	; 0x8001d2 <cont_b>
    25c4:	30 91 d3 01 	lds	r19, 0x01D3	; 0x8001d3 <cont_b+0x1>
    25c8:	2f 5f       	subi	r18, 0xFF	; 255
    25ca:	3f 4f       	sbci	r19, 0xFF	; 255
    25cc:	30 93 d3 01 	sts	0x01D3, r19	; 0x8001d3 <cont_b+0x1>
    25d0:	20 93 d2 01 	sts	0x01D2, r18	; 0x8001d2 <cont_b>
    25d4:	01 96       	adiw	r24, 0x01	; 1
    25d6:	90 93 d5 01 	sts	0x01D5, r25	; 0x8001d5 <cont_a+0x1>
    25da:	80 93 d4 01 	sts	0x01D4, r24	; 0x8001d4 <cont_a>
    25de:	80 91 d4 01 	lds	r24, 0x01D4	; 0x8001d4 <cont_a>
    25e2:	90 91 d5 01 	lds	r25, 0x01D5	; 0x8001d5 <cont_a+0x1>
    25e6:	fc 01       	movw	r30, r24
    25e8:	e6 55       	subi	r30, 0x56	; 86
    25ea:	fe 4f       	sbci	r31, 0xFE	; 254
    25ec:	20 81       	ld	r18, Z
    25ee:	21 11       	cpse	r18, r1
    25f0:	e1 cf       	rjmp	.-62     	; 0x25b4 <verify_senhaA+0x80>
    25f2:	80 91 d2 01 	lds	r24, 0x01D2	; 0x8001d2 <cont_b>
    25f6:	90 91 d3 01 	lds	r25, 0x01D3	; 0x8001d3 <cont_b+0x1>
    25fa:	04 97       	sbiw	r24, 0x04	; 4
    25fc:	59 f4       	brne	.+22     	; 0x2614 <verify_senhaA+0xe0>
    25fe:	81 e0       	ldi	r24, 0x01	; 1
    2600:	90 e0       	ldi	r25, 0x00	; 0
    2602:	90 93 07 01 	sts	0x0107, r25	; 0x800107 <User+0x1>
    2606:	80 93 06 01 	sts	0x0106, r24	; 0x800106 <User>
    260a:	0e 94 11 1d 	call	0x3a22	; 0x3a22 <clear_Display>
    260e:	0e 94 51 1d 	call	0x3aa2	; 0x3aa2 <StartTimer1>
    2612:	08 95       	ret
    2614:	10 92 d5 01 	sts	0x01D5, r1	; 0x8001d5 <cont_a+0x1>
    2618:	10 92 d4 01 	sts	0x01D4, r1	; 0x8001d4 <cont_a>
    261c:	10 92 d3 01 	sts	0x01D3, r1	; 0x8001d3 <cont_b+0x1>
    2620:	10 92 d2 01 	sts	0x01D2, r1	; 0x8001d2 <cont_b>
    2624:	15 c0       	rjmp	.+42     	; 0x2650 <verify_senhaA+0x11c>
    2626:	fc 01       	movw	r30, r24
    2628:	e1 5d       	subi	r30, 0xD1	; 209
    262a:	fe 4f       	sbci	r31, 0xFE	; 254
    262c:	30 81       	ld	r19, Z
    262e:	23 13       	cpse	r18, r19
    2630:	0a c0       	rjmp	.+20     	; 0x2646 <verify_senhaA+0x112>
    2632:	20 91 d2 01 	lds	r18, 0x01D2	; 0x8001d2 <cont_b>
    2636:	30 91 d3 01 	lds	r19, 0x01D3	; 0x8001d3 <cont_b+0x1>
    263a:	2f 5f       	subi	r18, 0xFF	; 255
    263c:	3f 4f       	sbci	r19, 0xFF	; 255
    263e:	30 93 d3 01 	sts	0x01D3, r19	; 0x8001d3 <cont_b+0x1>
    2642:	20 93 d2 01 	sts	0x01D2, r18	; 0x8001d2 <cont_b>
    2646:	01 96       	adiw	r24, 0x01	; 1
    2648:	90 93 d5 01 	sts	0x01D5, r25	; 0x8001d5 <cont_a+0x1>
    264c:	80 93 d4 01 	sts	0x01D4, r24	; 0x8001d4 <cont_a>
    2650:	80 91 d4 01 	lds	r24, 0x01D4	; 0x8001d4 <cont_a>
    2654:	90 91 d5 01 	lds	r25, 0x01D5	; 0x8001d5 <cont_a+0x1>
    2658:	fc 01       	movw	r30, r24
    265a:	eb 55       	subi	r30, 0x5B	; 91
    265c:	fe 4f       	sbci	r31, 0xFE	; 254
    265e:	20 81       	ld	r18, Z
    2660:	21 11       	cpse	r18, r1
    2662:	e1 cf       	rjmp	.-62     	; 0x2626 <verify_senhaA+0xf2>
    2664:	80 91 d2 01 	lds	r24, 0x01D2	; 0x8001d2 <cont_b>
    2668:	90 91 d3 01 	lds	r25, 0x01D3	; 0x8001d3 <cont_b+0x1>
    266c:	04 97       	sbiw	r24, 0x04	; 4
    266e:	59 f4       	brne	.+22     	; 0x2686 <verify_senhaA+0x152>
    2670:	82 e0       	ldi	r24, 0x02	; 2
    2672:	90 e0       	ldi	r25, 0x00	; 0
    2674:	90 93 07 01 	sts	0x0107, r25	; 0x800107 <User+0x1>
    2678:	80 93 06 01 	sts	0x0106, r24	; 0x800106 <User>
    267c:	0e 94 11 1d 	call	0x3a22	; 0x3a22 <clear_Display>
    2680:	0e 94 51 1d 	call	0x3aa2	; 0x3aa2 <StartTimer1>
    2684:	08 95       	ret
    2686:	10 92 d5 01 	sts	0x01D5, r1	; 0x8001d5 <cont_a+0x1>
    268a:	10 92 d4 01 	sts	0x01D4, r1	; 0x8001d4 <cont_a>
    268e:	10 92 d3 01 	sts	0x01D3, r1	; 0x8001d3 <cont_b+0x1>
    2692:	10 92 d2 01 	sts	0x01D2, r1	; 0x8001d2 <cont_b>
    2696:	15 c0       	rjmp	.+42     	; 0x26c2 <verify_senhaA+0x18e>
    2698:	fc 01       	movw	r30, r24
    269a:	e1 5d       	subi	r30, 0xD1	; 209
    269c:	fe 4f       	sbci	r31, 0xFE	; 254
    269e:	30 81       	ld	r19, Z
    26a0:	23 13       	cpse	r18, r19
    26a2:	0a c0       	rjmp	.+20     	; 0x26b8 <verify_senhaA+0x184>
    26a4:	20 91 d2 01 	lds	r18, 0x01D2	; 0x8001d2 <cont_b>
    26a8:	30 91 d3 01 	lds	r19, 0x01D3	; 0x8001d3 <cont_b+0x1>
    26ac:	2f 5f       	subi	r18, 0xFF	; 255
    26ae:	3f 4f       	sbci	r19, 0xFF	; 255
    26b0:	30 93 d3 01 	sts	0x01D3, r19	; 0x8001d3 <cont_b+0x1>
    26b4:	20 93 d2 01 	sts	0x01D2, r18	; 0x8001d2 <cont_b>
    26b8:	01 96       	adiw	r24, 0x01	; 1
    26ba:	90 93 d5 01 	sts	0x01D5, r25	; 0x8001d5 <cont_a+0x1>
    26be:	80 93 d4 01 	sts	0x01D4, r24	; 0x8001d4 <cont_a>
    26c2:	80 91 d4 01 	lds	r24, 0x01D4	; 0x8001d4 <cont_a>
    26c6:	90 91 d5 01 	lds	r25, 0x01D5	; 0x8001d5 <cont_a+0x1>
    26ca:	fc 01       	movw	r30, r24
    26cc:	e0 56       	subi	r30, 0x60	; 96
    26ce:	fe 4f       	sbci	r31, 0xFE	; 254
    26d0:	20 81       	ld	r18, Z
    26d2:	21 11       	cpse	r18, r1
    26d4:	e1 cf       	rjmp	.-62     	; 0x2698 <verify_senhaA+0x164>
    26d6:	80 91 d2 01 	lds	r24, 0x01D2	; 0x8001d2 <cont_b>
    26da:	90 91 d3 01 	lds	r25, 0x01D3	; 0x8001d3 <cont_b+0x1>
    26de:	04 97       	sbiw	r24, 0x04	; 4
    26e0:	59 f4       	brne	.+22     	; 0x26f8 <verify_senhaA+0x1c4>
    26e2:	83 e0       	ldi	r24, 0x03	; 3
    26e4:	90 e0       	ldi	r25, 0x00	; 0
    26e6:	90 93 07 01 	sts	0x0107, r25	; 0x800107 <User+0x1>
    26ea:	80 93 06 01 	sts	0x0106, r24	; 0x800106 <User>
    26ee:	0e 94 11 1d 	call	0x3a22	; 0x3a22 <clear_Display>
    26f2:	0e 94 51 1d 	call	0x3aa2	; 0x3aa2 <StartTimer1>
    26f6:	08 95       	ret
    26f8:	81 e0       	ldi	r24, 0x01	; 1
    26fa:	80 93 da 01 	sts	0x01DA, r24	; 0x8001da <state>
    26fe:	0e 94 11 1d 	call	0x3a22	; 0x3a22 <clear_Display>
    2702:	08 95       	ret

Disassembly of section .text.StopTimer1:

00003a4a <StopTimer1>:
    3a4a:	e1 e8       	ldi	r30, 0x81	; 129
    3a4c:	f0 e0       	ldi	r31, 0x00	; 0
    3a4e:	80 81       	ld	r24, Z
    3a50:	88 7f       	andi	r24, 0xF8	; 248
    3a52:	80 83       	st	Z, r24
    3a54:	10 92 85 00 	sts	0x0085, r1	; 0x800085 <__TEXT_REGION_LENGTH__+0x7f8085>
    3a58:	10 92 84 00 	sts	0x0084, r1	; 0x800084 <__TEXT_REGION_LENGTH__+0x7f8084>
    3a5c:	08 95       	ret

Disassembly of section .text.SetupTimer0:

00003a84 <SetupTimer0>:
    3a84:	84 b5       	in	r24, 0x24	; 36
    3a86:	82 60       	ori	r24, 0x02	; 2
    3a88:	84 bd       	out	0x24, r24	; 36
    3a8a:	ee e6       	ldi	r30, 0x6E	; 110
    3a8c:	f0 e0       	ldi	r31, 0x00	; 0
    3a8e:	80 81       	ld	r24, Z
    3a90:	82 60       	ori	r24, 0x02	; 2
    3a92:	80 83       	st	Z, r24
    3a94:	08 95       	ret

Disassembly of section .text.ZerarTemps:

000039e2 <ZerarTemps>:
    39e2:	10 92 db 01 	sts	0x01DB, r1	; 0x8001db <cont_timeout>
    39e6:	10 92 c5 01 	sts	0x01C5, r1	; 0x8001c5 <cont_ativacao+0x1>
    39ea:	10 92 c4 01 	sts	0x01C4, r1	; 0x8001c4 <cont_ativacao>
    39ee:	10 92 c7 01 	sts	0x01C7, r1	; 0x8001c7 <cont_sirene+0x1>
    39f2:	10 92 c6 01 	sts	0x01C6, r1	; 0x8001c6 <cont_sirene>
    39f6:	08 95       	ret

Disassembly of section .text.StartSirene:

00003aba <StartSirene>:
    3aba:	8b b1       	in	r24, 0x0b	; 11
    3abc:	81 60       	ori	r24, 0x01	; 1
    3abe:	8b b9       	out	0x0b, r24	; 11
    3ac0:	08 95       	ret

Disassembly of section .text.StopSirene:

00003ada <StopSirene>:
	PORTD |= (1 << BUZZER); // sirene
}

void StopSirene()
{
	PORTD &= (0 << BUZZER); // sirene
    3ada:	8b b1       	in	r24, 0x0b	; 11
    3adc:	1b b8       	out	0x0b, r1	; 11
    3ade:	08 95       	ret

Disassembly of section .text.__vector_11:

000029f6 <__vector_11>:
uint8_t RTC_Read_Hours(){
	return SPI_Read(0x02);
}
uint8_t RTC_Read_Minu(){
	return SPI_Read(0x01);
}
    29f6:	1f 92       	push	r1
    29f8:	0f 92       	push	r0
    29fa:	0f b6       	in	r0, 0x3f	; 63
    29fc:	0f 92       	push	r0
    29fe:	11 24       	eor	r1, r1
    2a00:	2f 93       	push	r18
    2a02:	3f 93       	push	r19
    2a04:	4f 93       	push	r20
    2a06:	5f 93       	push	r21
    2a08:	6f 93       	push	r22
    2a0a:	7f 93       	push	r23
    2a0c:	8f 93       	push	r24
    2a0e:	9f 93       	push	r25
    2a10:	af 93       	push	r26
    2a12:	bf 93       	push	r27
    2a14:	ef 93       	push	r30
    2a16:	ff 93       	push	r31
    2a18:	80 91 da 01 	lds	r24, 0x01DA	; 0x8001da <state>
    2a1c:	87 30       	cpi	r24, 0x07	; 7
    2a1e:	b9 f4       	brne	.+46     	; 0x2a4e <__vector_11+0x58>
    2a20:	80 91 db 01 	lds	r24, 0x01DB	; 0x8001db <cont_timeout>
    2a24:	48 2f       	mov	r20, r24
    2a26:	50 e0       	ldi	r21, 0x00	; 0
    2a28:	20 91 10 01 	lds	r18, 0x0110	; 0x800110 <timeout>
    2a2c:	30 91 11 01 	lds	r19, 0x0111	; 0x800111 <timeout+0x1>
    2a30:	42 17       	cp	r20, r18
    2a32:	53 07       	cpc	r21, r19
    2a34:	41 f4       	brne	.+16     	; 0x2a46 <__vector_11+0x50>
    2a36:	81 e0       	ldi	r24, 0x01	; 1
    2a38:	80 93 da 01 	sts	0x01DA, r24	; 0x8001da <state>
    2a3c:	10 92 db 01 	sts	0x01DB, r1	; 0x8001db <cont_timeout>
    2a40:	0e 94 25 1d 	call	0x3a4a	; 0x3a4a <StopTimer1>
    2a44:	3c c0       	rjmp	.+120    	; 0x2abe <__vector_11+0xc8>
    2a46:	8f 5f       	subi	r24, 0xFF	; 255
    2a48:	80 93 db 01 	sts	0x01DB, r24	; 0x8001db <cont_timeout>
    2a4c:	38 c0       	rjmp	.+112    	; 0x2abe <__vector_11+0xc8>
    2a4e:	85 30       	cpi	r24, 0x05	; 5
    2a50:	d1 f4       	brne	.+52     	; 0x2a86 <__vector_11+0x90>
    2a52:	80 91 c6 01 	lds	r24, 0x01C6	; 0x8001c6 <cont_sirene>
    2a56:	90 91 c7 01 	lds	r25, 0x01C7	; 0x8001c7 <cont_sirene+0x1>
    2a5a:	20 91 0a 01 	lds	r18, 0x010A	; 0x80010a <t_sirene>
    2a5e:	30 91 0b 01 	lds	r19, 0x010B	; 0x80010b <t_sirene+0x1>
    2a62:	82 17       	cp	r24, r18
    2a64:	93 07       	cpc	r25, r19
    2a66:	49 f4       	brne	.+18     	; 0x2a7a <__vector_11+0x84>
    2a68:	0e 94 6d 1d 	call	0x3ada	; 0x3ada <StopSirene>
    2a6c:	10 92 c7 01 	sts	0x01C7, r1	; 0x8001c7 <cont_sirene+0x1>
    2a70:	10 92 c6 01 	sts	0x01C6, r1	; 0x8001c6 <cont_sirene>
    2a74:	0e 94 25 1d 	call	0x3a4a	; 0x3a4a <StopTimer1>
    2a78:	22 c0       	rjmp	.+68     	; 0x2abe <__vector_11+0xc8>
    2a7a:	01 96       	adiw	r24, 0x01	; 1
    2a7c:	90 93 c7 01 	sts	0x01C7, r25	; 0x8001c7 <cont_sirene+0x1>
    2a80:	80 93 c6 01 	sts	0x01C6, r24	; 0x8001c6 <cont_sirene>
    2a84:	1c c0       	rjmp	.+56     	; 0x2abe <__vector_11+0xc8>
    2a86:	8d 30       	cpi	r24, 0x0D	; 13
    2a88:	d1 f4       	brne	.+52     	; 0x2abe <__vector_11+0xc8>
    2a8a:	80 91 c4 01 	lds	r24, 0x01C4	; 0x8001c4 <cont_ativacao>
    2a8e:	90 91 c5 01 	lds	r25, 0x01C5	; 0x8001c5 <cont_ativacao+0x1>
    2a92:	20 91 02 01 	lds	r18, 0x0102	; 0x800102 <t_ativacao>
    2a96:	30 91 03 01 	lds	r19, 0x0103	; 0x800103 <t_ativacao+0x1>
    2a9a:	82 17       	cp	r24, r18
    2a9c:	93 07       	cpc	r25, r19
    2a9e:	51 f4       	brne	.+20     	; 0x2ab4 <__vector_11+0xbe>
    2aa0:	85 e0       	ldi	r24, 0x05	; 5
    2aa2:	80 93 da 01 	sts	0x01DA, r24	; 0x8001da <state>
    2aa6:	10 92 c5 01 	sts	0x01C5, r1	; 0x8001c5 <cont_ativacao+0x1>
    2aaa:	10 92 c4 01 	sts	0x01C4, r1	; 0x8001c4 <cont_ativacao>
    2aae:	0e 94 25 1d 	call	0x3a4a	; 0x3a4a <StopTimer1>
    2ab2:	05 c0       	rjmp	.+10     	; 0x2abe <__vector_11+0xc8>
    2ab4:	01 96       	adiw	r24, 0x01	; 1
    2ab6:	90 93 c5 01 	sts	0x01C5, r25	; 0x8001c5 <cont_ativacao+0x1>
    2aba:	80 93 c4 01 	sts	0x01C4, r24	; 0x8001c4 <cont_ativacao>
    2abe:	ff 91       	pop	r31
    2ac0:	ef 91       	pop	r30
    2ac2:	bf 91       	pop	r27
    2ac4:	af 91       	pop	r26
    2ac6:	9f 91       	pop	r25
    2ac8:	8f 91       	pop	r24
    2aca:	7f 91       	pop	r23
    2acc:	6f 91       	pop	r22
    2ace:	5f 91       	pop	r21
    2ad0:	4f 91       	pop	r20
    2ad2:	3f 91       	pop	r19
    2ad4:	2f 91       	pop	r18
    2ad6:	0f 90       	pop	r0
    2ad8:	0f be       	out	0x3f, r0	; 63
    2ada:	0f 90       	pop	r0
    2adc:	1f 90       	pop	r1
    2ade:	18 95       	reti

Disassembly of section .text.SPI_Master_Setup:

00003a5e <SPI_Master_Setup>:
    3a5e:	84 b1       	in	r24, 0x04	; 4
    3a60:	8c 62       	ori	r24, 0x2C	; 44
    3a62:	84 b9       	out	0x04, r24	; 4
    3a64:	8c b5       	in	r24, 0x2c	; 44
    3a66:	81 65       	ori	r24, 0x51	; 81
    3a68:	8c bd       	out	0x2c, r24	; 44
    3a6a:	85 b1       	in	r24, 0x05	; 5
    3a6c:	84 60       	ori	r24, 0x04	; 4
    3a6e:	85 b9       	out	0x05, r24	; 5
    3a70:	08 95       	ret

Disassembly of section .text.SPI_Master_Transmit:

00003aea <SPI_Master_Transmit>:
	DDRB |= (1<<PORTB5) | (1<<PORTB3) | (1<<PORTB2); // Configura SCK, MOSI e SS como saadas, demais pinos como entradas.
	SPCR |= (1<<SPE) | (1<<MSTR) | (1<<SPR0); // Habilita SPI mestre.
	PORTB |= (1<<PORTB2); // Desativa o escravo.
}
void SPI_Master_Transmit(uint8_t dado){
	SPDR = dado;
    3aea:	8e bd       	out	0x2e, r24	; 46
    3aec:	08 95       	ret

Disassembly of section .text.SPI_Read:

0000393c <SPI_Read>:
uint8_t RTC_Read_Hours(){
	return SPI_Read(0x02);
}
uint8_t RTC_Read_Minu(){
	return SPI_Read(0x01);
}
    393c:	9c b5       	in	r25, 0x2c	; 44
    393e:	95 65       	ori	r25, 0x55	; 85
    3940:	9c bd       	out	0x2c, r25	; 44
    3942:	95 b1       	in	r25, 0x05	; 5
    3944:	9b 7f       	andi	r25, 0xFB	; 251
    3946:	95 b9       	out	0x05, r25	; 5
    3948:	0e 94 75 1d 	call	0x3aea	; 0x3aea <SPI_Master_Transmit>
    394c:	0d b4       	in	r0, 0x2d	; 45
    394e:	07 fe       	sbrs	r0, 7
    3950:	fd cf       	rjmp	.-6      	; 0x394c <SPI_Read+0x10>
    3952:	8f ef       	ldi	r24, 0xFF	; 255
    3954:	0e 94 75 1d 	call	0x3aea	; 0x3aea <SPI_Master_Transmit>
    3958:	0d b4       	in	r0, 0x2d	; 45
    395a:	07 fe       	sbrs	r0, 7
    395c:	fd cf       	rjmp	.-6      	; 0x3958 <SPI_Read+0x1c>
    395e:	85 b1       	in	r24, 0x05	; 5
    3960:	84 60       	ori	r24, 0x04	; 4
    3962:	85 b9       	out	0x05, r24	; 5
    3964:	8e b5       	in	r24, 0x2e	; 46
    3966:	08 95       	ret

Disassembly of section .text.RTC_Read_Hours:

00003ac2 <RTC_Read_Hours>:
    3ac2:	82 e0       	ldi	r24, 0x02	; 2
    3ac4:	0e 94 9e 1c 	call	0x393c	; 0x393c <SPI_Read>
    3ac8:	08 95       	ret

Disassembly of section .text.RTC_Read_Day:

00003aca <RTC_Read_Day>:
uint8_t RTC_Read_Day(){
	return SPI_Read(0x03);
    3aca:	83 e0       	ldi	r24, 0x03	; 3
    3acc:	0e 94 9e 1c 	call	0x393c	; 0x393c <SPI_Read>
}
    3ad0:	08 95       	ret

Disassembly of section .text.IniciarUART:

00003622 <IniciarUART>:
uint8_t RTC_Read_Hours(){
	return SPI_Read(0x02);
}
uint8_t RTC_Read_Minu(){
	return SPI_Read(0x01);
}
    3622:	cf 92       	push	r12
    3624:	df 92       	push	r13
    3626:	ef 92       	push	r14
    3628:	ff 92       	push	r15
    362a:	6b 01       	movw	r12, r22
    362c:	7c 01       	movw	r14, r24
    362e:	ca 01       	movw	r24, r20
    3630:	b9 01       	movw	r22, r18
    3632:	68 94       	set
    3634:	13 f8       	bld	r1, 3
    3636:	96 95       	lsr	r25
    3638:	87 95       	ror	r24
    363a:	77 95       	ror	r23
    363c:	67 95       	ror	r22
    363e:	16 94       	lsr	r1
    3640:	d1 f7       	brne	.-12     	; 0x3636 <IniciarUART+0x14>
    3642:	a7 01       	movw	r20, r14
    3644:	96 01       	movw	r18, r12
    3646:	0e 94 10 1c 	call	0x3820	; 0x3820 <__udivmodsi4>
    364a:	21 50       	subi	r18, 0x01	; 1
    364c:	31 09       	sbc	r19, r1
    364e:	30 93 c5 00 	sts	0x00C5, r19	; 0x8000c5 <__TEXT_REGION_LENGTH__+0x7f80c5>
    3652:	20 93 c4 00 	sts	0x00C4, r18	; 0x8000c4 <__TEXT_REGION_LENGTH__+0x7f80c4>
    3656:	10 92 c0 00 	sts	0x00C0, r1	; 0x8000c0 <__TEXT_REGION_LENGTH__+0x7f80c0>
    365a:	88 e0       	ldi	r24, 0x08	; 8
    365c:	80 93 c1 00 	sts	0x00C1, r24	; 0x8000c1 <__TEXT_REGION_LENGTH__+0x7f80c1>
    3660:	86 e0       	ldi	r24, 0x06	; 6
    3662:	80 93 c2 00 	sts	0x00C2, r24	; 0x8000c2 <__TEXT_REGION_LENGTH__+0x7f80c2>
    3666:	ff 90       	pop	r15
    3668:	ef 90       	pop	r14
    366a:	df 90       	pop	r13
    366c:	cf 90       	pop	r12
    366e:	08 95       	ret

Disassembly of section .text.main:

00002ae0 <main>:
    2ae0:	84 b1       	in	r24, 0x04	; 4
    2ae2:	8e 7f       	andi	r24, 0xFE	; 254
    2ae4:	84 b9       	out	0x04, r24	; 4
    2ae6:	84 b1       	in	r24, 0x04	; 4
    2ae8:	8e 68       	ori	r24, 0x8E	; 142
    2aea:	84 b9       	out	0x04, r24	; 4
    2aec:	8f ef       	ldi	r24, 0xFF	; 255
    2aee:	8a b9       	out	0x0a, r24	; 10
    2af0:	87 b1       	in	r24, 0x07	; 7
    2af2:	81 60       	ori	r24, 0x01	; 1
    2af4:	87 b9       	out	0x07, r24	; 7
    2af6:	8e e7       	ldi	r24, 0x7E	; 126
    2af8:	87 b9       	out	0x07, r24	; 7
    2afa:	8f e1       	ldi	r24, 0x1F	; 31
    2afc:	84 b9       	out	0x04, r24	; 4
    2afe:	87 e0       	ldi	r24, 0x07	; 7
    2b00:	8a b9       	out	0x0a, r24	; 10
    2b02:	80 ef       	ldi	r24, 0xF0	; 240
    2b04:	8b b9       	out	0x0b, r24	; 11
    2b06:	0e 94 b4 1c 	call	0x3968	; 0x3968 <SetupTimer1>
    2b0a:	0e 94 42 1d 	call	0x3a84	; 0x3a84 <SetupTimer0>
    2b0e:	0e 94 4b 1d 	call	0x3a96	; 0x3a96 <init_int1>
    2b12:	0e 94 d7 15 	call	0x2bae	; 0x2bae <inicializa_display>
    2b16:	0e 94 2f 1d 	call	0x3a5e	; 0x3a5e <SPI_Master_Setup>
    2b1a:	20 e0       	ldi	r18, 0x00	; 0
    2b1c:	32 e1       	ldi	r19, 0x12	; 18
    2b1e:	4a e7       	ldi	r20, 0x7A	; 122
    2b20:	50 e0       	ldi	r21, 0x00	; 0
    2b22:	60 e8       	ldi	r22, 0x80	; 128
    2b24:	75 e2       	ldi	r23, 0x25	; 37
    2b26:	80 e0       	ldi	r24, 0x00	; 0
    2b28:	90 e0       	ldi	r25, 0x00	; 0
    2b2a:	0e 94 11 1b 	call	0x3622	; 0x3622 <IniciarUART>
    2b2e:	78 94       	sei
    2b30:	0e 94 6e 16 	call	0x2cdc	; 0x2cdc <shiftIn>
    2b34:	80 91 dd 01 	lds	r24, 0x01DD	; 0x8001dd <varLeituraSerial>
    2b38:	80 93 dc 01 	sts	0x01DC, r24	; 0x8001dc <varEscritaSerial>
    2b3c:	0e 94 5e 1b 	call	0x36bc	; 0x36bc <shiftOut>
    2b40:	e0 91 da 01 	lds	r30, 0x01DA	; 0x8001da <state>
    2b44:	8e 2f       	mov	r24, r30
    2b46:	90 e0       	ldi	r25, 0x00	; 0
    2b48:	8f 30       	cpi	r24, 0x0F	; 15
    2b4a:	91 05       	cpc	r25, r1
    2b4c:	88 f7       	brcc	.-30     	; 0x2b30 <main+0x50>
    2b4e:	fc 01       	movw	r30, r24
    2b50:	ec 5c       	subi	r30, 0xCC	; 204
    2b52:	ff 4f       	sbci	r31, 0xFF	; 255
    2b54:	0c 94 57 1d 	jmp	0x3aae	; 0x3aae <__tablejump2__>
    2b58:	0e 94 25 1d 	call	0x3a4a	; 0x3a4a <StopTimer1>
    2b5c:	8c e0       	ldi	r24, 0x0C	; 12
    2b5e:	90 e0       	ldi	r25, 0x00	; 0
    2b60:	90 93 11 01 	sts	0x0111, r25	; 0x800111 <timeout+0x1>
    2b64:	80 93 10 01 	sts	0x0110, r24	; 0x800110 <timeout>
    2b68:	85 e0       	ldi	r24, 0x05	; 5
    2b6a:	90 e0       	ldi	r25, 0x00	; 0
    2b6c:	90 93 0b 01 	sts	0x010B, r25	; 0x80010b <t_sirene+0x1>
    2b70:	80 93 0a 01 	sts	0x010A, r24	; 0x80010a <t_sirene>
    2b74:	90 93 03 01 	sts	0x0103, r25	; 0x800103 <t_ativacao+0x1>
    2b78:	80 93 02 01 	sts	0x0102, r24	; 0x800102 <t_ativacao>
    2b7c:	81 e0       	ldi	r24, 0x01	; 1
    2b7e:	80 93 da 01 	sts	0x01DA, r24	; 0x8001da <state>
    2b82:	d6 cf       	rjmp	.-84     	; 0x2b30 <main+0x50>
    2b84:	0e 94 bf 19 	call	0x337e	; 0x337e <msg_desativado>
    2b88:	d3 cf       	rjmp	.-90     	; 0x2b30 <main+0x50>
    2b8a:	0e 94 ed 19 	call	0x33da	; 0x33da <msg_ativado>
    2b8e:	d0 cf       	rjmp	.-96     	; 0x2b30 <main+0x50>
    2b90:	0e 94 1b 1a 	call	0x3436	; 0x3436 <msg_programacao>
    2b94:	cd cf       	rjmp	.-102    	; 0x2b30 <main+0x50>
    2b96:	0e 94 fb 18 	call	0x31f6	; 0x31f6 <msg_panico>
    2b9a:	ca cf       	rjmp	.-108    	; 0x2b30 <main+0x50>
    2b9c:	0e 94 f2 16 	call	0x2de4	; 0x2de4 <verify_senhaM>
    2ba0:	c7 cf       	rjmp	.-114    	; 0x2b30 <main+0x50>
    2ba2:	0e 94 9a 12 	call	0x2534	; 0x2534 <verify_senhaA>
    2ba6:	c4 cf       	rjmp	.-120    	; 0x2b30 <main+0x50>
    2ba8:	0e 94 82 13 	call	0x2704	; 0x2704 <verify_senhaD>
    2bac:	c1 cf       	rjmp	.-126    	; 0x2b30 <main+0x50>

Disassembly of section .text.ProntoTXUART:

00003ad2 <ProntoTXUART>:
	UCSR0B = (1<<TXEN0); // hab trans  SEM interrupo
	UCSR0C = (1<<UCSZ01)|(1<<UCSZ00); // assincrono, com 1 byte, 1 bit de parada e sem paridade.
}

uint8_t ProntoTXUART (void){
	return (UCSR0A & (1<<UDRE0)); // retorna 1 qnd pode ser enviado
    3ad2:	80 91 c0 00 	lds	r24, 0x00C0	; 0x8000c0 <__TEXT_REGION_LENGTH__+0x7f80c0>
}
    3ad6:	80 72       	andi	r24, 0x20	; 32
    3ad8:	08 95       	ret

Disassembly of section .text.EnviarTXUART:

00003ae0 <EnviarTXUART>:



void EnviarTXUART (uint8_t dado){
	UDR0 = dado;
    3ae0:	80 93 c6 00 	sts	0x00C6, r24	; 0x8000c6 <__TEXT_REGION_LENGTH__+0x7f80c6>
    3ae4:	08 95       	ret

Disassembly of section .text.EnviarStringUART:

000038a4 <EnviarStringUART>:
uint8_t RTC_Read_Hours(){
	return SPI_Read(0x02);
}
uint8_t RTC_Read_Minu(){
	return SPI_Read(0x01);
}
    38a4:	cf 92       	push	r12
    38a6:	df 92       	push	r13
    38a8:	ef 92       	push	r14
    38aa:	6b 01       	movw	r12, r22
    38ac:	e8 2e       	mov	r14, r24
    38ae:	0e c0       	rjmp	.+28     	; 0x38cc <EnviarStringUART+0x28>
    38b0:	0e 94 69 1d 	call	0x3ad2	; 0x3ad2 <ProntoTXUART>
    38b4:	88 23       	and	r24, r24
    38b6:	e1 f3       	breq	.-8      	; 0x38b0 <EnviarStringUART+0xc>
    38b8:	f6 01       	movw	r30, r12
    38ba:	84 91       	lpm	r24, Z
    38bc:	e7 fc       	sbrc	r14, 7
    38be:	80 81       	ld	r24, Z
    38c0:	0e 94 70 1d 	call	0x3ae0	; 0x3ae0 <EnviarTXUART>
    38c4:	8f ef       	ldi	r24, 0xFF	; 255
    38c6:	c8 1a       	sub	r12, r24
    38c8:	d8 0a       	sbc	r13, r24
    38ca:	e8 0a       	sbc	r14, r24
    38cc:	f6 01       	movw	r30, r12
    38ce:	84 91       	lpm	r24, Z
    38d0:	e7 fc       	sbrc	r14, 7
    38d2:	80 81       	ld	r24, Z
    38d4:	81 11       	cpse	r24, r1
    38d6:	ec cf       	rjmp	.-40     	; 0x38b0 <EnviarStringUART+0xc>
    38d8:	ef 90       	pop	r14
    38da:	df 90       	pop	r13
    38dc:	cf 90       	pop	r12
    38de:	08 95       	ret

Disassembly of section .text.EnviarDec1Byte:

00002d60 <EnviarDec1Byte>:
    2d60:	1f 93       	push	r17
    2d62:	cf 93       	push	r28
    2d64:	df 93       	push	r29
    2d66:	00 d0       	rcall	.+0      	; 0x2d68 <EnviarDec1Byte+0x8>
    2d68:	1f 92       	push	r1
    2d6a:	cd b7       	in	r28, 0x3d	; 61
    2d6c:	de b7       	in	r29, 0x3e	; 62
    2d6e:	10 e0       	ldi	r17, 0x00	; 0
    2d70:	01 c0       	rjmp	.+2      	; 0x2d74 <EnviarDec1Byte+0x14>
    2d72:	19 2f       	mov	r17, r25
    2d74:	9d ec       	ldi	r25, 0xCD	; 205
    2d76:	89 9f       	mul	r24, r25
    2d78:	91 2d       	mov	r25, r1
    2d7a:	11 24       	eor	r1, r1
    2d7c:	96 95       	lsr	r25
    2d7e:	96 95       	lsr	r25
    2d80:	96 95       	lsr	r25
    2d82:	39 2f       	mov	r19, r25
    2d84:	33 0f       	add	r19, r19
    2d86:	23 2f       	mov	r18, r19
    2d88:	22 0f       	add	r18, r18
    2d8a:	22 0f       	add	r18, r18
    2d8c:	23 0f       	add	r18, r19
    2d8e:	82 1b       	sub	r24, r18
    2d90:	20 e3       	ldi	r18, 0x30	; 48
    2d92:	28 0f       	add	r18, r24
    2d94:	89 2f       	mov	r24, r25
    2d96:	e1 e0       	ldi	r30, 0x01	; 1
    2d98:	f0 e0       	ldi	r31, 0x00	; 0
    2d9a:	ec 0f       	add	r30, r28
    2d9c:	fd 1f       	adc	r31, r29
    2d9e:	e1 0f       	add	r30, r17
    2da0:	f1 1d       	adc	r31, r1
    2da2:	17 fd       	sbrc	r17, 7
    2da4:	fa 95       	dec	r31
    2da6:	20 83       	st	Z, r18
    2da8:	91 e0       	ldi	r25, 0x01	; 1
    2daa:	91 0f       	add	r25, r17
    2dac:	81 11       	cpse	r24, r1
    2dae:	e1 cf       	rjmp	.-62     	; 0x2d72 <EnviarDec1Byte+0x12>
    2db0:	10 c0       	rjmp	.+32     	; 0x2dd2 <EnviarDec1Byte+0x72>
    2db2:	0e 94 69 1d 	call	0x3ad2	; 0x3ad2 <ProntoTXUART>
    2db6:	88 23       	and	r24, r24
    2db8:	e1 f3       	breq	.-8      	; 0x2db2 <EnviarDec1Byte+0x52>
    2dba:	e1 e0       	ldi	r30, 0x01	; 1
    2dbc:	f0 e0       	ldi	r31, 0x00	; 0
    2dbe:	ec 0f       	add	r30, r28
    2dc0:	fd 1f       	adc	r31, r29
    2dc2:	e1 0f       	add	r30, r17
    2dc4:	f1 1d       	adc	r31, r1
    2dc6:	17 fd       	sbrc	r17, 7
    2dc8:	fa 95       	dec	r31
    2dca:	80 81       	ld	r24, Z
    2dcc:	0e 94 70 1d 	call	0x3ae0	; 0x3ae0 <EnviarTXUART>
    2dd0:	11 50       	subi	r17, 0x01	; 1
    2dd2:	11 23       	and	r17, r17
    2dd4:	74 f7       	brge	.-36     	; 0x2db2 <EnviarDec1Byte+0x52>
    2dd6:	0f 90       	pop	r0
    2dd8:	0f 90       	pop	r0
    2dda:	0f 90       	pop	r0
    2ddc:	df 91       	pop	r29
    2dde:	cf 91       	pop	r28
    2de0:	1f 91       	pop	r17
    2de2:	08 95       	ret

Disassembly of section .text.UARTA:

00003258 <UARTA>:
    3258:	cf 93       	push	r28
    325a:	df 93       	push	r29
    325c:	d8 2f       	mov	r29, r24
    325e:	c6 2f       	mov	r28, r22
    3260:	66 e3       	ldi	r22, 0x36	; 54
    3262:	72 e0       	ldi	r23, 0x02	; 2
    3264:	80 e0       	ldi	r24, 0x00	; 0
    3266:	0e 94 52 1c 	call	0x38a4	; 0x38a4 <EnviarStringUART>
    326a:	0e 94 69 1d 	call	0x3ad2	; 0x3ad2 <ProntoTXUART>
    326e:	88 23       	and	r24, r24
    3270:	e1 f3       	breq	.-8      	; 0x326a <UARTA+0x12>
    3272:	80 91 06 01 	lds	r24, 0x0106	; 0x800106 <User>
    3276:	0e 94 b0 16 	call	0x2d60	; 0x2d60 <EnviarDec1Byte>
    327a:	6b e5       	ldi	r22, 0x5B	; 91
    327c:	72 e0       	ldi	r23, 0x02	; 2
    327e:	80 e0       	ldi	r24, 0x00	; 0
    3280:	0e 94 52 1c 	call	0x38a4	; 0x38a4 <EnviarStringUART>
    3284:	0e 94 69 1d 	call	0x3ad2	; 0x3ad2 <ProntoTXUART>
    3288:	88 23       	and	r24, r24
    328a:	e1 f3       	breq	.-8      	; 0x3284 <UARTA+0x2c>
    328c:	8d 2f       	mov	r24, r29
    328e:	0e 94 b0 16 	call	0x2d60	; 0x2d60 <EnviarDec1Byte>
    3292:	65 e6       	ldi	r22, 0x65	; 101
    3294:	72 e0       	ldi	r23, 0x02	; 2
    3296:	80 e0       	ldi	r24, 0x00	; 0
    3298:	0e 94 52 1c 	call	0x38a4	; 0x38a4 <EnviarStringUART>
    329c:	0e 94 69 1d 	call	0x3ad2	; 0x3ad2 <ProntoTXUART>
    32a0:	88 23       	and	r24, r24
    32a2:	e1 f3       	breq	.-8      	; 0x329c <UARTA+0x44>
    32a4:	8c 2f       	mov	r24, r28
    32a6:	0e 94 b0 16 	call	0x2d60	; 0x2d60 <EnviarDec1Byte>
    32aa:	62 e7       	ldi	r22, 0x72	; 114
    32ac:	72 e0       	ldi	r23, 0x02	; 2
    32ae:	80 e0       	ldi	r24, 0x00	; 0
    32b0:	0e 94 52 1c 	call	0x38a4	; 0x38a4 <EnviarStringUART>
    32b4:	df 91       	pop	r29
    32b6:	cf 91       	pop	r28
    32b8:	08 95       	ret

Disassembly of section .text.UARTP:

000032ba <UARTP>:
    32ba:	cf 93       	push	r28
    32bc:	df 93       	push	r29
    32be:	d8 2f       	mov	r29, r24
    32c0:	c6 2f       	mov	r28, r22
    32c2:	65 e7       	ldi	r22, 0x75	; 117
    32c4:	72 e0       	ldi	r23, 0x02	; 2
    32c6:	80 e0       	ldi	r24, 0x00	; 0
    32c8:	0e 94 52 1c 	call	0x38a4	; 0x38a4 <EnviarStringUART>
    32cc:	0e 94 69 1d 	call	0x3ad2	; 0x3ad2 <ProntoTXUART>
    32d0:	88 23       	and	r24, r24
    32d2:	e1 f3       	breq	.-8      	; 0x32cc <UARTP+0x12>
    32d4:	80 91 06 01 	lds	r24, 0x0106	; 0x800106 <User>
    32d8:	0e 94 b0 16 	call	0x2d60	; 0x2d60 <EnviarDec1Byte>
    32dc:	6b e5       	ldi	r22, 0x5B	; 91
    32de:	72 e0       	ldi	r23, 0x02	; 2
    32e0:	80 e0       	ldi	r24, 0x00	; 0
    32e2:	0e 94 52 1c 	call	0x38a4	; 0x38a4 <EnviarStringUART>
    32e6:	0e 94 69 1d 	call	0x3ad2	; 0x3ad2 <ProntoTXUART>
    32ea:	88 23       	and	r24, r24
    32ec:	e1 f3       	breq	.-8      	; 0x32e6 <UARTP+0x2c>
    32ee:	8d 2f       	mov	r24, r29
    32f0:	0e 94 b0 16 	call	0x2d60	; 0x2d60 <EnviarDec1Byte>
    32f4:	65 e6       	ldi	r22, 0x65	; 101
    32f6:	72 e0       	ldi	r23, 0x02	; 2
    32f8:	80 e0       	ldi	r24, 0x00	; 0
    32fa:	0e 94 52 1c 	call	0x38a4	; 0x38a4 <EnviarStringUART>
    32fe:	0e 94 69 1d 	call	0x3ad2	; 0x3ad2 <ProntoTXUART>
    3302:	88 23       	and	r24, r24
    3304:	e1 f3       	breq	.-8      	; 0x32fe <UARTP+0x44>
    3306:	8c 2f       	mov	r24, r28
    3308:	0e 94 b0 16 	call	0x2d60	; 0x2d60 <EnviarDec1Byte>
    330c:	62 e7       	ldi	r22, 0x72	; 114
    330e:	72 e0       	ldi	r23, 0x02	; 2
    3310:	80 e0       	ldi	r24, 0x00	; 0
    3312:	0e 94 52 1c 	call	0x38a4	; 0x38a4 <EnviarStringUART>
    3316:	df 91       	pop	r29
    3318:	cf 91       	pop	r28
    331a:	08 95       	ret

Disassembly of section .text.UARTD:

0000331c <UARTD>:
    331c:	cf 93       	push	r28
    331e:	df 93       	push	r29
    3320:	d8 2f       	mov	r29, r24
    3322:	c6 2f       	mov	r28, r22
    3324:	6d e9       	ldi	r22, 0x9D	; 157
    3326:	72 e0       	ldi	r23, 0x02	; 2
    3328:	80 e0       	ldi	r24, 0x00	; 0
    332a:	0e 94 52 1c 	call	0x38a4	; 0x38a4 <EnviarStringUART>
    332e:	0e 94 69 1d 	call	0x3ad2	; 0x3ad2 <ProntoTXUART>
    3332:	88 23       	and	r24, r24
    3334:	e1 f3       	breq	.-8      	; 0x332e <UARTD+0x12>
    3336:	80 91 06 01 	lds	r24, 0x0106	; 0x800106 <User>
    333a:	0e 94 b0 16 	call	0x2d60	; 0x2d60 <EnviarDec1Byte>
    333e:	6b e5       	ldi	r22, 0x5B	; 91
    3340:	72 e0       	ldi	r23, 0x02	; 2
    3342:	80 e0       	ldi	r24, 0x00	; 0
    3344:	0e 94 52 1c 	call	0x38a4	; 0x38a4 <EnviarStringUART>
    3348:	0e 94 69 1d 	call	0x3ad2	; 0x3ad2 <ProntoTXUART>
    334c:	88 23       	and	r24, r24
    334e:	e1 f3       	breq	.-8      	; 0x3348 <UARTD+0x2c>
    3350:	8d 2f       	mov	r24, r29
    3352:	0e 94 b0 16 	call	0x2d60	; 0x2d60 <EnviarDec1Byte>
    3356:	65 e6       	ldi	r22, 0x65	; 101
    3358:	72 e0       	ldi	r23, 0x02	; 2
    335a:	80 e0       	ldi	r24, 0x00	; 0
    335c:	0e 94 52 1c 	call	0x38a4	; 0x38a4 <EnviarStringUART>
    3360:	0e 94 69 1d 	call	0x3ad2	; 0x3ad2 <ProntoTXUART>
    3364:	88 23       	and	r24, r24
    3366:	e1 f3       	breq	.-8      	; 0x3360 <UARTD+0x44>
    3368:	8c 2f       	mov	r24, r28
    336a:	0e 94 b0 16 	call	0x2d60	; 0x2d60 <EnviarDec1Byte>
    336e:	62 e7       	ldi	r22, 0x72	; 114
    3370:	72 e0       	ldi	r23, 0x02	; 2
    3372:	80 e0       	ldi	r24, 0x00	; 0
    3374:	0e 94 52 1c 	call	0x38a4	; 0x38a4 <EnviarStringUART>
    3378:	df 91       	pop	r29
    337a:	cf 91       	pop	r28
    337c:	08 95       	ret

Disassembly of section .text.__vector_2:

000002da <__vector_2>:
     2da:	1f 92       	push	r1
     2dc:	0f 92       	push	r0
     2de:	0f b6       	in	r0, 0x3f	; 63
     2e0:	0f 92       	push	r0
     2e2:	11 24       	eor	r1, r1
     2e4:	2f 93       	push	r18
     2e6:	3f 93       	push	r19
     2e8:	4f 93       	push	r20
     2ea:	5f 93       	push	r21
     2ec:	6f 93       	push	r22
     2ee:	7f 93       	push	r23
     2f0:	8f 93       	push	r24
     2f2:	9f 93       	push	r25
     2f4:	af 93       	push	r26
     2f6:	bf 93       	push	r27
     2f8:	cf 93       	push	r28
     2fa:	ef 93       	push	r30
     2fc:	ff 93       	push	r31
     2fe:	89 b1       	in	r24, 0x09	; 9
     300:	80 7f       	andi	r24, 0xF0	; 240
     302:	90 e0       	ldi	r25, 0x00	; 0
     304:	90 93 09 01 	sts	0x0109, r25	; 0x800109 <valor_pinod+0x1>
     308:	80 93 08 01 	sts	0x0108, r24	; 0x800108 <valor_pinod>
     30c:	80 3f       	cpi	r24, 0xF0	; 240
     30e:	91 05       	cpc	r25, r1
     310:	09 f0       	breq	.+2      	; 0x314 <__vector_2+0x3a>
     312:	6b c1       	rjmp	.+726    	; 0x5ea <__EEPROM_REGION_LENGTH__+0x1ea>
     314:	91 e0       	ldi	r25, 0x01	; 1
     316:	80 91 da 01 	lds	r24, 0x01DA	; 0x8001da <state>
     31a:	88 30       	cpi	r24, 0x08	; 8
     31c:	09 f0       	breq	.+2      	; 0x320 <__vector_2+0x46>
     31e:	90 e0       	ldi	r25, 0x00	; 0
     320:	81 e0       	ldi	r24, 0x01	; 1
     322:	20 91 d6 01 	lds	r18, 0x01D6	; 0x8001d6 <count_senha>
     326:	30 91 d7 01 	lds	r19, 0x01D7	; 0x8001d7 <count_senha+0x1>
     32a:	24 30       	cpi	r18, 0x04	; 4
     32c:	31 05       	cpc	r19, r1
     32e:	0c f0       	brlt	.+2      	; 0x332 <__vector_2+0x58>
     330:	80 e0       	ldi	r24, 0x00	; 0
     332:	89 23       	and	r24, r25
     334:	a9 f0       	breq	.+42     	; 0x360 <__vector_2+0x86>
     336:	81 e3       	ldi	r24, 0x31	; 49
     338:	0e 94 38 1b 	call	0x3670	; 0x3670 <send_word_lcd>
     33c:	45 ec       	ldi	r20, 0xC5	; 197
     33e:	52 e0       	ldi	r21, 0x02	; 2
     340:	60 e0       	ldi	r22, 0x00	; 0
     342:	80 91 d6 01 	lds	r24, 0x01D6	; 0x8001d6 <count_senha>
     346:	90 91 d7 01 	lds	r25, 0x01D7	; 0x8001d7 <count_senha+0x1>
     34a:	0e 94 1b 1d 	call	0x3a36	; 0x3a36 <insert_senha>
     34e:	80 91 d6 01 	lds	r24, 0x01D6	; 0x8001d6 <count_senha>
     352:	90 91 d7 01 	lds	r25, 0x01D7	; 0x8001d7 <count_senha+0x1>
     356:	01 96       	adiw	r24, 0x01	; 1
     358:	90 93 d7 01 	sts	0x01D7, r25	; 0x8001d7 <count_senha+0x1>
     35c:	80 93 d6 01 	sts	0x01D6, r24	; 0x8001d6 <count_senha>
     360:	91 e0       	ldi	r25, 0x01	; 1
     362:	80 91 da 01 	lds	r24, 0x01DA	; 0x8001da <state>
     366:	89 30       	cpi	r24, 0x09	; 9
     368:	09 f0       	breq	.+2      	; 0x36c <__vector_2+0x92>
     36a:	90 e0       	ldi	r25, 0x00	; 0
     36c:	81 e0       	ldi	r24, 0x01	; 1
     36e:	20 91 d6 01 	lds	r18, 0x01D6	; 0x8001d6 <count_senha>
     372:	30 91 d7 01 	lds	r19, 0x01D7	; 0x8001d7 <count_senha+0x1>
     376:	24 30       	cpi	r18, 0x04	; 4
     378:	31 05       	cpc	r19, r1
     37a:	0c f0       	brlt	.+2      	; 0x37e <__vector_2+0xa4>
     37c:	80 e0       	ldi	r24, 0x00	; 0
     37e:	89 23       	and	r24, r25
     380:	a9 f0       	breq	.+42     	; 0x3ac <__vector_2+0xd2>
     382:	81 e3       	ldi	r24, 0x31	; 49
     384:	0e 94 38 1b 	call	0x3670	; 0x3670 <send_word_lcd>
     388:	45 ec       	ldi	r20, 0xC5	; 197
     38a:	52 e0       	ldi	r21, 0x02	; 2
     38c:	60 e0       	ldi	r22, 0x00	; 0
     38e:	80 91 d6 01 	lds	r24, 0x01D6	; 0x8001d6 <count_senha>
     392:	90 91 d7 01 	lds	r25, 0x01D7	; 0x8001d7 <count_senha+0x1>
     396:	0e 94 73 1a 	call	0x34e6	; 0x34e6 <senha_arm>
     39a:	80 91 d6 01 	lds	r24, 0x01D6	; 0x8001d6 <count_senha>
     39e:	90 91 d7 01 	lds	r25, 0x01D7	; 0x8001d7 <count_senha+0x1>
     3a2:	01 96       	adiw	r24, 0x01	; 1
     3a4:	90 93 d7 01 	sts	0x01D7, r25	; 0x8001d7 <count_senha+0x1>
     3a8:	80 93 d6 01 	sts	0x01D6, r24	; 0x8001d6 <count_senha>
     3ac:	91 e0       	ldi	r25, 0x01	; 1
     3ae:	80 91 da 01 	lds	r24, 0x01DA	; 0x8001da <state>
     3b2:	8a 30       	cpi	r24, 0x0A	; 10
     3b4:	09 f0       	breq	.+2      	; 0x3b8 <__vector_2+0xde>
     3b6:	90 e0       	ldi	r25, 0x00	; 0
     3b8:	81 e0       	ldi	r24, 0x01	; 1
     3ba:	20 91 d6 01 	lds	r18, 0x01D6	; 0x8001d6 <count_senha>
     3be:	30 91 d7 01 	lds	r19, 0x01D7	; 0x8001d7 <count_senha+0x1>
     3c2:	24 30       	cpi	r18, 0x04	; 4
     3c4:	31 05       	cpc	r19, r1
     3c6:	0c f0       	brlt	.+2      	; 0x3ca <__vector_2+0xf0>
     3c8:	80 e0       	ldi	r24, 0x00	; 0
     3ca:	89 23       	and	r24, r25
     3cc:	a9 f0       	breq	.+42     	; 0x3f8 <__vector_2+0x11e>
     3ce:	81 e3       	ldi	r24, 0x31	; 49
     3d0:	0e 94 38 1b 	call	0x3670	; 0x3670 <send_word_lcd>
     3d4:	45 ec       	ldi	r20, 0xC5	; 197
     3d6:	52 e0       	ldi	r21, 0x02	; 2
     3d8:	60 e0       	ldi	r22, 0x00	; 0
     3da:	80 91 d6 01 	lds	r24, 0x01D6	; 0x8001d6 <count_senha>
     3de:	90 91 d7 01 	lds	r25, 0x01D7	; 0x8001d7 <count_senha+0x1>
     3e2:	0e 94 1b 1d 	call	0x3a36	; 0x3a36 <insert_senha>
     3e6:	80 91 d6 01 	lds	r24, 0x01D6	; 0x8001d6 <count_senha>
     3ea:	90 91 d7 01 	lds	r25, 0x01D7	; 0x8001d7 <count_senha+0x1>
     3ee:	01 96       	adiw	r24, 0x01	; 1
     3f0:	90 93 d7 01 	sts	0x01D7, r25	; 0x8001d7 <count_senha+0x1>
     3f4:	80 93 d6 01 	sts	0x01D6, r24	; 0x8001d6 <count_senha>
     3f8:	91 e0       	ldi	r25, 0x01	; 1
     3fa:	80 91 da 01 	lds	r24, 0x01DA	; 0x8001da <state>
     3fe:	8b 30       	cpi	r24, 0x0B	; 11
     400:	09 f0       	breq	.+2      	; 0x404 <__EEPROM_REGION_LENGTH__+0x4>
     402:	90 e0       	ldi	r25, 0x00	; 0
     404:	81 e0       	ldi	r24, 0x01	; 1
     406:	20 91 d6 01 	lds	r18, 0x01D6	; 0x8001d6 <count_senha>
     40a:	30 91 d7 01 	lds	r19, 0x01D7	; 0x8001d7 <count_senha+0x1>
     40e:	24 30       	cpi	r18, 0x04	; 4
     410:	31 05       	cpc	r19, r1
     412:	0c f0       	brlt	.+2      	; 0x416 <__EEPROM_REGION_LENGTH__+0x16>
     414:	80 e0       	ldi	r24, 0x00	; 0
     416:	89 23       	and	r24, r25
     418:	a9 f0       	breq	.+42     	; 0x444 <__EEPROM_REGION_LENGTH__+0x44>
     41a:	81 e3       	ldi	r24, 0x31	; 49
     41c:	0e 94 38 1b 	call	0x3670	; 0x3670 <send_word_lcd>
     420:	45 ec       	ldi	r20, 0xC5	; 197
     422:	52 e0       	ldi	r21, 0x02	; 2
     424:	60 e0       	ldi	r22, 0x00	; 0
     426:	80 91 d6 01 	lds	r24, 0x01D6	; 0x8001d6 <count_senha>
     42a:	90 91 d7 01 	lds	r25, 0x01D7	; 0x8001d7 <count_senha+0x1>
     42e:	0e 94 1b 1d 	call	0x3a36	; 0x3a36 <insert_senha>
     432:	80 91 d6 01 	lds	r24, 0x01D6	; 0x8001d6 <count_senha>
     436:	90 91 d7 01 	lds	r25, 0x01D7	; 0x8001d7 <count_senha+0x1>
     43a:	01 96       	adiw	r24, 0x01	; 1
     43c:	90 93 d7 01 	sts	0x01D7, r25	; 0x8001d7 <count_senha+0x1>
     440:	80 93 d6 01 	sts	0x01D6, r24	; 0x8001d6 <count_senha>
     444:	91 e0       	ldi	r25, 0x01	; 1
     446:	80 91 da 01 	lds	r24, 0x01DA	; 0x8001da <state>
     44a:	87 30       	cpi	r24, 0x07	; 7
     44c:	09 f0       	breq	.+2      	; 0x450 <__EEPROM_REGION_LENGTH__+0x50>
     44e:	90 e0       	ldi	r25, 0x00	; 0
     450:	81 e0       	ldi	r24, 0x01	; 1
     452:	20 91 d8 01 	lds	r18, 0x01D8	; 0x8001d8 <flag_a_senha>
     456:	30 91 d9 01 	lds	r19, 0x01D9	; 0x8001d9 <flag_a_senha+0x1>
     45a:	21 30       	cpi	r18, 0x01	; 1
     45c:	31 05       	cpc	r19, r1
     45e:	09 f0       	breq	.+2      	; 0x462 <__EEPROM_REGION_LENGTH__+0x62>
     460:	80 e0       	ldi	r24, 0x00	; 0
     462:	89 23       	and	r24, r25
     464:	79 f0       	breq	.+30     	; 0x484 <__EEPROM_REGION_LENGTH__+0x84>
     466:	89 e0       	ldi	r24, 0x09	; 9
     468:	80 93 da 01 	sts	0x01DA, r24	; 0x8001da <state>
     46c:	0e 94 ea 1a 	call	0x35d4	; 0x35d4 <msg_altera_senha>
     470:	81 e0       	ldi	r24, 0x01	; 1
     472:	90 e0       	ldi	r25, 0x00	; 0
     474:	90 93 28 01 	sts	0x0128, r25	; 0x800128 <addr_senha+0x1>
     478:	80 93 27 01 	sts	0x0127, r24	; 0x800127 <addr_senha>
     47c:	10 92 d9 01 	sts	0x01D9, r1	; 0x8001d9 <flag_a_senha+0x1>
     480:	10 92 d8 01 	sts	0x01D8, r1	; 0x8001d8 <flag_a_senha>
     484:	91 e0       	ldi	r25, 0x01	; 1
     486:	80 91 da 01 	lds	r24, 0x01DA	; 0x8001da <state>
     48a:	8f 30       	cpi	r24, 0x0F	; 15
     48c:	09 f0       	breq	.+2      	; 0x490 <__EEPROM_REGION_LENGTH__+0x90>
     48e:	90 e0       	ldi	r25, 0x00	; 0
     490:	81 e0       	ldi	r24, 0x01	; 1
     492:	20 91 d0 01 	lds	r18, 0x01D0	; 0x8001d0 <flag_sensor>
     496:	30 91 d1 01 	lds	r19, 0x01D1	; 0x8001d1 <flag_sensor+0x1>
     49a:	23 2b       	or	r18, r19
     49c:	09 f0       	breq	.+2      	; 0x4a0 <__EEPROM_REGION_LENGTH__+0xa0>
     49e:	80 e0       	ldi	r24, 0x00	; 0
     4a0:	89 23       	and	r24, r25
     4a2:	21 f0       	breq	.+8      	; 0x4ac <__EEPROM_REGION_LENGTH__+0xac>
     4a4:	81 e0       	ldi	r24, 0x01	; 1
     4a6:	90 e0       	ldi	r25, 0x00	; 0
     4a8:	0e 94 58 14 	call	0x28b0	; 0x28b0 <hab_sensor>
     4ac:	91 e0       	ldi	r25, 0x01	; 1
     4ae:	80 91 da 01 	lds	r24, 0x01DA	; 0x8001da <state>
     4b2:	80 31       	cpi	r24, 0x10	; 16
     4b4:	09 f0       	breq	.+2      	; 0x4b8 <__EEPROM_REGION_LENGTH__+0xb8>
     4b6:	90 e0       	ldi	r25, 0x00	; 0
     4b8:	81 e0       	ldi	r24, 0x01	; 1
     4ba:	20 91 d0 01 	lds	r18, 0x01D0	; 0x8001d0 <flag_sensor>
     4be:	30 91 d1 01 	lds	r19, 0x01D1	; 0x8001d1 <flag_sensor+0x1>
     4c2:	23 2b       	or	r18, r19
     4c4:	09 f0       	breq	.+2      	; 0x4c8 <__EEPROM_REGION_LENGTH__+0xc8>
     4c6:	80 e0       	ldi	r24, 0x00	; 0
     4c8:	89 23       	and	r24, r25
     4ca:	21 f0       	breq	.+8      	; 0x4d4 <__EEPROM_REGION_LENGTH__+0xd4>
     4cc:	81 e0       	ldi	r24, 0x01	; 1
     4ce:	90 e0       	ldi	r25, 0x00	; 0
     4d0:	0e 94 26 16 	call	0x2c4c	; 0x2c4c <hab_zonas>
     4d4:	90 91 da 01 	lds	r25, 0x01DA	; 0x8001da <state>
     4d8:	21 e0       	ldi	r18, 0x01	; 1
     4da:	40 91 c8 01 	lds	r20, 0x01C8	; 0x8001c8 <flag_z1>
     4de:	50 91 c9 01 	lds	r21, 0x01C9	; 0x8001c9 <flag_z1+0x1>
     4e2:	45 2b       	or	r20, r21
     4e4:	09 f0       	breq	.+2      	; 0x4e8 <__EEPROM_REGION_LENGTH__+0xe8>
     4e6:	20 e0       	ldi	r18, 0x00	; 0
     4e8:	81 e0       	ldi	r24, 0x01	; 1
     4ea:	91 31       	cpi	r25, 0x11	; 17
     4ec:	09 f0       	breq	.+2      	; 0x4f0 <__EEPROM_REGION_LENGTH__+0xf0>
     4ee:	80 e0       	ldi	r24, 0x00	; 0
     4f0:	82 23       	and	r24, r18
     4f2:	f9 f0       	breq	.+62     	; 0x532 <__EEPROM_REGION_LENGTH__+0x132>
     4f4:	20 91 ca 01 	lds	r18, 0x01CA	; 0x8001ca <flag_z>
     4f8:	30 91 cb 01 	lds	r19, 0x01CB	; 0x8001cb <flag_z+0x1>
     4fc:	21 15       	cp	r18, r1
     4fe:	31 05       	cpc	r19, r1
     500:	59 f4       	brne	.+22     	; 0x518 <__EEPROM_REGION_LENGTH__+0x118>
     502:	21 e0       	ldi	r18, 0x01	; 1
     504:	30 e0       	ldi	r19, 0x00	; 0
     506:	30 93 01 01 	sts	0x0101, r19	; 0x800101 <__DATA_REGION_ORIGIN__+0x1>
     50a:	20 93 00 01 	sts	0x0100, r18	; 0x800100 <__DATA_REGION_ORIGIN__>
     50e:	30 93 cb 01 	sts	0x01CB, r19	; 0x8001cb <flag_z+0x1>
     512:	20 93 ca 01 	sts	0x01CA, r18	; 0x8001ca <flag_z>
     516:	0d c0       	rjmp	.+26     	; 0x532 <__EEPROM_REGION_LENGTH__+0x132>
     518:	21 30       	cpi	r18, 0x01	; 1
     51a:	31 05       	cpc	r19, r1
     51c:	51 f4       	brne	.+20     	; 0x532 <__EEPROM_REGION_LENGTH__+0x132>
     51e:	21 e0       	ldi	r18, 0x01	; 1
     520:	30 e0       	ldi	r19, 0x00	; 0
     522:	30 93 05 01 	sts	0x0105, r19	; 0x800105 <idzona+0x1>
     526:	20 93 04 01 	sts	0x0104, r18	; 0x800104 <idzona>
     52a:	30 93 c9 01 	sts	0x01C9, r19	; 0x8001c9 <flag_z1+0x1>
     52e:	20 93 c8 01 	sts	0x01C8, r18	; 0x8001c8 <flag_z1>
     532:	20 91 bc 01 	lds	r18, 0x01BC	; 0x8001bc <cont_t>
     536:	30 91 bd 01 	lds	r19, 0x01BD	; 0x8001bd <cont_t+0x1>
     53a:	41 e0       	ldi	r20, 0x01	; 1
     53c:	93 31       	cpi	r25, 0x13	; 19
     53e:	09 f0       	breq	.+2      	; 0x542 <__EEPROM_REGION_LENGTH__+0x142>
     540:	40 e0       	ldi	r20, 0x00	; 0
     542:	81 e0       	ldi	r24, 0x01	; 1
     544:	22 30       	cpi	r18, 0x02	; 2
     546:	31 05       	cpc	r19, r1
     548:	0c f0       	brlt	.+2      	; 0x54c <__EEPROM_REGION_LENGTH__+0x14c>
     54a:	80 e0       	ldi	r24, 0x00	; 0
     54c:	84 23       	and	r24, r20
     54e:	79 f0       	breq	.+30     	; 0x56e <__EEPROM_REGION_LENGTH__+0x16e>
     550:	f9 01       	movw	r30, r18
     552:	ee 0f       	add	r30, r30
     554:	ff 1f       	adc	r31, r31
     556:	e4 5f       	subi	r30, 0xF4	; 244
     558:	fe 4f       	sbci	r31, 0xFE	; 254
     55a:	41 e0       	ldi	r20, 0x01	; 1
     55c:	50 e0       	ldi	r21, 0x00	; 0
     55e:	51 83       	std	Z+1, r21	; 0x01
     560:	40 83       	st	Z, r20
     562:	2f 5f       	subi	r18, 0xFF	; 255
     564:	3f 4f       	sbci	r19, 0xFF	; 255
     566:	30 93 bd 01 	sts	0x01BD, r19	; 0x8001bd <cont_t+0x1>
     56a:	20 93 bc 01 	sts	0x01BC, r18	; 0x8001bc <cont_t>
     56e:	81 e0       	ldi	r24, 0x01	; 1
     570:	20 91 bc 01 	lds	r18, 0x01BC	; 0x8001bc <cont_t>
     574:	30 91 bd 01 	lds	r19, 0x01BD	; 0x8001bd <cont_t+0x1>
     578:	23 30       	cpi	r18, 0x03	; 3
     57a:	31 05       	cpc	r19, r1
     57c:	0c f0       	brlt	.+2      	; 0x580 <__EEPROM_REGION_LENGTH__+0x180>
     57e:	80 e0       	ldi	r24, 0x00	; 0
     580:	21 e0       	ldi	r18, 0x01	; 1
     582:	94 31       	cpi	r25, 0x14	; 20
     584:	09 f0       	breq	.+2      	; 0x588 <__EEPROM_REGION_LENGTH__+0x188>
     586:	20 e0       	ldi	r18, 0x00	; 0
     588:	28 23       	and	r18, r24
     58a:	99 f0       	breq	.+38     	; 0x5b2 <__EEPROM_REGION_LENGTH__+0x1b2>
     58c:	20 91 b8 01 	lds	r18, 0x01B8	; 0x8001b8 <cont_s>
     590:	30 91 b9 01 	lds	r19, 0x01B9	; 0x8001b9 <cont_s+0x1>
     594:	f9 01       	movw	r30, r18
     596:	ee 0f       	add	r30, r30
     598:	ff 1f       	adc	r31, r31
     59a:	e7 5d       	subi	r30, 0xD7	; 215
     59c:	fe 4f       	sbci	r31, 0xFE	; 254
     59e:	41 e0       	ldi	r20, 0x01	; 1
     5a0:	50 e0       	ldi	r21, 0x00	; 0
     5a2:	51 83       	std	Z+1, r21	; 0x01
     5a4:	40 83       	st	Z, r20
     5a6:	2f 5f       	subi	r18, 0xFF	; 255
     5a8:	3f 4f       	sbci	r19, 0xFF	; 255
     5aa:	30 93 b9 01 	sts	0x01B9, r19	; 0x8001b9 <cont_s+0x1>
     5ae:	20 93 b8 01 	sts	0x01B8, r18	; 0x8001b8 <cont_s>
     5b2:	21 e0       	ldi	r18, 0x01	; 1
     5b4:	92 31       	cpi	r25, 0x12	; 18
     5b6:	09 f0       	breq	.+2      	; 0x5ba <__EEPROM_REGION_LENGTH__+0x1ba>
     5b8:	20 e0       	ldi	r18, 0x00	; 0
     5ba:	82 23       	and	r24, r18
     5bc:	11 f4       	brne	.+4      	; 0x5c2 <__EEPROM_REGION_LENGTH__+0x1c2>
     5be:	0c 94 e9 10 	jmp	0x21d2	; 0x21d2 <__stack+0x18d3>
     5c2:	80 91 ba 01 	lds	r24, 0x01BA	; 0x8001ba <cont_aa>
     5c6:	90 91 bb 01 	lds	r25, 0x01BB	; 0x8001bb <cont_aa+0x1>
     5ca:	fc 01       	movw	r30, r24
     5cc:	ee 0f       	add	r30, r30
     5ce:	ff 1f       	adc	r31, r31
     5d0:	ef 5d       	subi	r30, 0xDF	; 223
     5d2:	fe 4f       	sbci	r31, 0xFE	; 254
     5d4:	21 e0       	ldi	r18, 0x01	; 1
     5d6:	30 e0       	ldi	r19, 0x00	; 0
     5d8:	31 83       	std	Z+1, r19	; 0x01
     5da:	20 83       	st	Z, r18
     5dc:	01 96       	adiw	r24, 0x01	; 1
     5de:	90 93 bb 01 	sts	0x01BB, r25	; 0x8001bb <cont_aa+0x1>
     5e2:	80 93 ba 01 	sts	0x01BA, r24	; 0x8001ba <cont_aa>
     5e6:	0c 94 e9 10 	jmp	0x21d2	; 0x21d2 <__stack+0x18d3>
     5ea:	80 3e       	cpi	r24, 0xE0	; 224
     5ec:	91 05       	cpc	r25, r1
     5ee:	09 f0       	breq	.+2      	; 0x5f2 <__EEPROM_REGION_LENGTH__+0x1f2>
     5f0:	88 c1       	rjmp	.+784    	; 0x902 <__stack+0x3>
     5f2:	91 e0       	ldi	r25, 0x01	; 1
     5f4:	80 91 da 01 	lds	r24, 0x01DA	; 0x8001da <state>
     5f8:	88 30       	cpi	r24, 0x08	; 8
     5fa:	09 f0       	breq	.+2      	; 0x5fe <__EEPROM_REGION_LENGTH__+0x1fe>
     5fc:	90 e0       	ldi	r25, 0x00	; 0
     5fe:	81 e0       	ldi	r24, 0x01	; 1
     600:	20 91 d6 01 	lds	r18, 0x01D6	; 0x8001d6 <count_senha>
     604:	30 91 d7 01 	lds	r19, 0x01D7	; 0x8001d7 <count_senha+0x1>
     608:	24 30       	cpi	r18, 0x04	; 4
     60a:	31 05       	cpc	r19, r1
     60c:	0c f0       	brlt	.+2      	; 0x610 <__EEPROM_REGION_LENGTH__+0x210>
     60e:	80 e0       	ldi	r24, 0x00	; 0
     610:	89 23       	and	r24, r25
     612:	a9 f0       	breq	.+42     	; 0x63e <__EEPROM_REGION_LENGTH__+0x23e>
     614:	82 e3       	ldi	r24, 0x32	; 50
     616:	0e 94 38 1b 	call	0x3670	; 0x3670 <send_word_lcd>
     61a:	47 ec       	ldi	r20, 0xC7	; 199
     61c:	52 e0       	ldi	r21, 0x02	; 2
     61e:	60 e0       	ldi	r22, 0x00	; 0
     620:	80 91 d6 01 	lds	r24, 0x01D6	; 0x8001d6 <count_senha>
     624:	90 91 d7 01 	lds	r25, 0x01D7	; 0x8001d7 <count_senha+0x1>
     628:	0e 94 1b 1d 	call	0x3a36	; 0x3a36 <insert_senha>
     62c:	80 91 d6 01 	lds	r24, 0x01D6	; 0x8001d6 <count_senha>
     630:	90 91 d7 01 	lds	r25, 0x01D7	; 0x8001d7 <count_senha+0x1>
     634:	01 96       	adiw	r24, 0x01	; 1
     636:	90 93 d7 01 	sts	0x01D7, r25	; 0x8001d7 <count_senha+0x1>
     63a:	80 93 d6 01 	sts	0x01D6, r24	; 0x8001d6 <count_senha>
     63e:	91 e0       	ldi	r25, 0x01	; 1
     640:	80 91 da 01 	lds	r24, 0x01DA	; 0x8001da <state>
     644:	89 30       	cpi	r24, 0x09	; 9
     646:	09 f0       	breq	.+2      	; 0x64a <__EEPROM_REGION_LENGTH__+0x24a>
     648:	90 e0       	ldi	r25, 0x00	; 0
     64a:	81 e0       	ldi	r24, 0x01	; 1
     64c:	20 91 d6 01 	lds	r18, 0x01D6	; 0x8001d6 <count_senha>
     650:	30 91 d7 01 	lds	r19, 0x01D7	; 0x8001d7 <count_senha+0x1>
     654:	24 30       	cpi	r18, 0x04	; 4
     656:	31 05       	cpc	r19, r1
     658:	0c f0       	brlt	.+2      	; 0x65c <__EEPROM_REGION_LENGTH__+0x25c>
     65a:	80 e0       	ldi	r24, 0x00	; 0
     65c:	89 23       	and	r24, r25
     65e:	a9 f0       	breq	.+42     	; 0x68a <__EEPROM_REGION_LENGTH__+0x28a>
     660:	82 e3       	ldi	r24, 0x32	; 50
     662:	0e 94 38 1b 	call	0x3670	; 0x3670 <send_word_lcd>
     666:	47 ec       	ldi	r20, 0xC7	; 199
     668:	52 e0       	ldi	r21, 0x02	; 2
     66a:	60 e0       	ldi	r22, 0x00	; 0
     66c:	80 91 d6 01 	lds	r24, 0x01D6	; 0x8001d6 <count_senha>
     670:	90 91 d7 01 	lds	r25, 0x01D7	; 0x8001d7 <count_senha+0x1>
     674:	0e 94 73 1a 	call	0x34e6	; 0x34e6 <senha_arm>
     678:	80 91 d6 01 	lds	r24, 0x01D6	; 0x8001d6 <count_senha>
     67c:	90 91 d7 01 	lds	r25, 0x01D7	; 0x8001d7 <count_senha+0x1>
     680:	01 96       	adiw	r24, 0x01	; 1
     682:	90 93 d7 01 	sts	0x01D7, r25	; 0x8001d7 <count_senha+0x1>
     686:	80 93 d6 01 	sts	0x01D6, r24	; 0x8001d6 <count_senha>
     68a:	91 e0       	ldi	r25, 0x01	; 1
     68c:	80 91 da 01 	lds	r24, 0x01DA	; 0x8001da <state>
     690:	8a 30       	cpi	r24, 0x0A	; 10
     692:	09 f0       	breq	.+2      	; 0x696 <__EEPROM_REGION_LENGTH__+0x296>
     694:	90 e0       	ldi	r25, 0x00	; 0
     696:	81 e0       	ldi	r24, 0x01	; 1
     698:	20 91 d6 01 	lds	r18, 0x01D6	; 0x8001d6 <count_senha>
     69c:	30 91 d7 01 	lds	r19, 0x01D7	; 0x8001d7 <count_senha+0x1>
     6a0:	24 30       	cpi	r18, 0x04	; 4
     6a2:	31 05       	cpc	r19, r1
     6a4:	0c f0       	brlt	.+2      	; 0x6a8 <__EEPROM_REGION_LENGTH__+0x2a8>
     6a6:	80 e0       	ldi	r24, 0x00	; 0
     6a8:	89 23       	and	r24, r25
     6aa:	a9 f0       	breq	.+42     	; 0x6d6 <__EEPROM_REGION_LENGTH__+0x2d6>
     6ac:	82 e3       	ldi	r24, 0x32	; 50
     6ae:	0e 94 38 1b 	call	0x3670	; 0x3670 <send_word_lcd>
     6b2:	47 ec       	ldi	r20, 0xC7	; 199
     6b4:	52 e0       	ldi	r21, 0x02	; 2
     6b6:	60 e0       	ldi	r22, 0x00	; 0
     6b8:	80 91 d6 01 	lds	r24, 0x01D6	; 0x8001d6 <count_senha>
     6bc:	90 91 d7 01 	lds	r25, 0x01D7	; 0x8001d7 <count_senha+0x1>
     6c0:	0e 94 1b 1d 	call	0x3a36	; 0x3a36 <insert_senha>
     6c4:	80 91 d6 01 	lds	r24, 0x01D6	; 0x8001d6 <count_senha>
     6c8:	90 91 d7 01 	lds	r25, 0x01D7	; 0x8001d7 <count_senha+0x1>
     6cc:	01 96       	adiw	r24, 0x01	; 1
     6ce:	90 93 d7 01 	sts	0x01D7, r25	; 0x8001d7 <count_senha+0x1>
     6d2:	80 93 d6 01 	sts	0x01D6, r24	; 0x8001d6 <count_senha>
     6d6:	91 e0       	ldi	r25, 0x01	; 1
     6d8:	80 91 da 01 	lds	r24, 0x01DA	; 0x8001da <state>
     6dc:	8b 30       	cpi	r24, 0x0B	; 11
     6de:	09 f0       	breq	.+2      	; 0x6e2 <__EEPROM_REGION_LENGTH__+0x2e2>
     6e0:	90 e0       	ldi	r25, 0x00	; 0
     6e2:	81 e0       	ldi	r24, 0x01	; 1
     6e4:	20 91 d6 01 	lds	r18, 0x01D6	; 0x8001d6 <count_senha>
     6e8:	30 91 d7 01 	lds	r19, 0x01D7	; 0x8001d7 <count_senha+0x1>
     6ec:	24 30       	cpi	r18, 0x04	; 4
     6ee:	31 05       	cpc	r19, r1
     6f0:	0c f0       	brlt	.+2      	; 0x6f4 <__EEPROM_REGION_LENGTH__+0x2f4>
     6f2:	80 e0       	ldi	r24, 0x00	; 0
     6f4:	89 23       	and	r24, r25
     6f6:	a9 f0       	breq	.+42     	; 0x722 <__EEPROM_REGION_LENGTH__+0x322>
     6f8:	82 e3       	ldi	r24, 0x32	; 50
     6fa:	0e 94 38 1b 	call	0x3670	; 0x3670 <send_word_lcd>
     6fe:	47 ec       	ldi	r20, 0xC7	; 199
     700:	52 e0       	ldi	r21, 0x02	; 2
     702:	60 e0       	ldi	r22, 0x00	; 0
     704:	80 91 d6 01 	lds	r24, 0x01D6	; 0x8001d6 <count_senha>
     708:	90 91 d7 01 	lds	r25, 0x01D7	; 0x8001d7 <count_senha+0x1>
     70c:	0e 94 1b 1d 	call	0x3a36	; 0x3a36 <insert_senha>
     710:	80 91 d6 01 	lds	r24, 0x01D6	; 0x8001d6 <count_senha>
     714:	90 91 d7 01 	lds	r25, 0x01D7	; 0x8001d7 <count_senha+0x1>
     718:	01 96       	adiw	r24, 0x01	; 1
     71a:	90 93 d7 01 	sts	0x01D7, r25	; 0x8001d7 <count_senha+0x1>
     71e:	80 93 d6 01 	sts	0x01D6, r24	; 0x8001d6 <count_senha>
     722:	91 e0       	ldi	r25, 0x01	; 1
     724:	80 91 da 01 	lds	r24, 0x01DA	; 0x8001da <state>
     728:	87 30       	cpi	r24, 0x07	; 7
     72a:	09 f0       	breq	.+2      	; 0x72e <__EEPROM_REGION_LENGTH__+0x32e>
     72c:	90 e0       	ldi	r25, 0x00	; 0
     72e:	20 91 d8 01 	lds	r18, 0x01D8	; 0x8001d8 <flag_a_senha>
     732:	30 91 d9 01 	lds	r19, 0x01D9	; 0x8001d9 <flag_a_senha+0x1>
     736:	41 e0       	ldi	r20, 0x01	; 1
     738:	60 91 c2 01 	lds	r22, 0x01C2	; 0x8001c2 <flag_timeout>
     73c:	70 91 c3 01 	lds	r23, 0x01C3	; 0x8001c3 <flag_timeout+0x1>
     740:	67 2b       	or	r22, r23
     742:	09 f0       	breq	.+2      	; 0x746 <__EEPROM_REGION_LENGTH__+0x346>
     744:	40 e0       	ldi	r20, 0x00	; 0
     746:	81 e0       	ldi	r24, 0x01	; 1
     748:	21 15       	cp	r18, r1
     74a:	31 05       	cpc	r19, r1
     74c:	09 f0       	breq	.+2      	; 0x750 <__EEPROM_REGION_LENGTH__+0x350>
     74e:	80 e0       	ldi	r24, 0x00	; 0
     750:	84 23       	and	r24, r20
     752:	99 23       	and	r25, r25
     754:	49 f0       	breq	.+18     	; 0x768 <__EEPROM_REGION_LENGTH__+0x368>
     756:	88 23       	and	r24, r24
     758:	39 f0       	breq	.+14     	; 0x768 <__EEPROM_REGION_LENGTH__+0x368>
     75a:	81 e0       	ldi	r24, 0x01	; 1
     75c:	90 e0       	ldi	r25, 0x00	; 0
     75e:	90 93 d9 01 	sts	0x01D9, r25	; 0x8001d9 <flag_a_senha+0x1>
     762:	80 93 d8 01 	sts	0x01D8, r24	; 0x8001d8 <flag_a_senha>
     766:	16 c0       	rjmp	.+44     	; 0x794 <__EEPROM_REGION_LENGTH__+0x394>
     768:	81 e0       	ldi	r24, 0x01	; 1
     76a:	21 30       	cpi	r18, 0x01	; 1
     76c:	31 05       	cpc	r19, r1
     76e:	09 f0       	breq	.+2      	; 0x772 <__EEPROM_REGION_LENGTH__+0x372>
     770:	80 e0       	ldi	r24, 0x00	; 0
     772:	98 23       	and	r25, r24
     774:	79 f0       	breq	.+30     	; 0x794 <__EEPROM_REGION_LENGTH__+0x394>
     776:	89 e0       	ldi	r24, 0x09	; 9
     778:	80 93 da 01 	sts	0x01DA, r24	; 0x8001da <state>
     77c:	0e 94 ea 1a 	call	0x35d4	; 0x35d4 <msg_altera_senha>
     780:	82 e0       	ldi	r24, 0x02	; 2
     782:	90 e0       	ldi	r25, 0x00	; 0
     784:	90 93 28 01 	sts	0x0128, r25	; 0x800128 <addr_senha+0x1>
     788:	80 93 27 01 	sts	0x0127, r24	; 0x800127 <addr_senha>
     78c:	10 92 d9 01 	sts	0x01D9, r1	; 0x8001d9 <flag_a_senha+0x1>
     790:	10 92 d8 01 	sts	0x01D8, r1	; 0x8001d8 <flag_a_senha>
     794:	91 e0       	ldi	r25, 0x01	; 1
     796:	80 91 da 01 	lds	r24, 0x01DA	; 0x8001da <state>
     79a:	8f 30       	cpi	r24, 0x0F	; 15
     79c:	09 f0       	breq	.+2      	; 0x7a0 <__EEPROM_REGION_LENGTH__+0x3a0>
     79e:	90 e0       	ldi	r25, 0x00	; 0
     7a0:	81 e0       	ldi	r24, 0x01	; 1
     7a2:	20 91 d0 01 	lds	r18, 0x01D0	; 0x8001d0 <flag_sensor>
     7a6:	30 91 d1 01 	lds	r19, 0x01D1	; 0x8001d1 <flag_sensor+0x1>
     7aa:	23 2b       	or	r18, r19
     7ac:	09 f0       	breq	.+2      	; 0x7b0 <__EEPROM_REGION_LENGTH__+0x3b0>
     7ae:	80 e0       	ldi	r24, 0x00	; 0
     7b0:	89 23       	and	r24, r25
     7b2:	21 f0       	breq	.+8      	; 0x7bc <__EEPROM_REGION_LENGTH__+0x3bc>
     7b4:	82 e0       	ldi	r24, 0x02	; 2
     7b6:	90 e0       	ldi	r25, 0x00	; 0
     7b8:	0e 94 58 14 	call	0x28b0	; 0x28b0 <hab_sensor>
     7bc:	91 e0       	ldi	r25, 0x01	; 1
     7be:	80 91 da 01 	lds	r24, 0x01DA	; 0x8001da <state>
     7c2:	80 31       	cpi	r24, 0x10	; 16
     7c4:	09 f0       	breq	.+2      	; 0x7c8 <__EEPROM_REGION_LENGTH__+0x3c8>
     7c6:	90 e0       	ldi	r25, 0x00	; 0
     7c8:	81 e0       	ldi	r24, 0x01	; 1
     7ca:	20 91 d0 01 	lds	r18, 0x01D0	; 0x8001d0 <flag_sensor>
     7ce:	30 91 d1 01 	lds	r19, 0x01D1	; 0x8001d1 <flag_sensor+0x1>
     7d2:	23 2b       	or	r18, r19
     7d4:	09 f0       	breq	.+2      	; 0x7d8 <__EEPROM_REGION_LENGTH__+0x3d8>
     7d6:	80 e0       	ldi	r24, 0x00	; 0
     7d8:	89 23       	and	r24, r25
     7da:	21 f0       	breq	.+8      	; 0x7e4 <__EEPROM_REGION_LENGTH__+0x3e4>
     7dc:	82 e0       	ldi	r24, 0x02	; 2
     7de:	90 e0       	ldi	r25, 0x00	; 0
     7e0:	0e 94 26 16 	call	0x2c4c	; 0x2c4c <hab_zonas>
     7e4:	90 91 da 01 	lds	r25, 0x01DA	; 0x8001da <state>
     7e8:	21 e0       	ldi	r18, 0x01	; 1
     7ea:	40 91 c8 01 	lds	r20, 0x01C8	; 0x8001c8 <flag_z1>
     7ee:	50 91 c9 01 	lds	r21, 0x01C9	; 0x8001c9 <flag_z1+0x1>
     7f2:	45 2b       	or	r20, r21
     7f4:	09 f0       	breq	.+2      	; 0x7f8 <__EEPROM_REGION_LENGTH__+0x3f8>
     7f6:	20 e0       	ldi	r18, 0x00	; 0
     7f8:	81 e0       	ldi	r24, 0x01	; 1
     7fa:	91 31       	cpi	r25, 0x11	; 17
     7fc:	09 f0       	breq	.+2      	; 0x800 <__DATA_REGION_LENGTH__>
     7fe:	80 e0       	ldi	r24, 0x00	; 0
     800:	82 23       	and	r24, r18
     802:	19 f1       	breq	.+70     	; 0x84a <__DATA_REGION_LENGTH__+0x4a>
     804:	20 91 ca 01 	lds	r18, 0x01CA	; 0x8001ca <flag_z>
     808:	30 91 cb 01 	lds	r19, 0x01CB	; 0x8001cb <flag_z+0x1>
     80c:	21 15       	cp	r18, r1
     80e:	31 05       	cpc	r19, r1
     810:	69 f4       	brne	.+26     	; 0x82c <__DATA_REGION_LENGTH__+0x2c>
     812:	22 e0       	ldi	r18, 0x02	; 2
     814:	30 e0       	ldi	r19, 0x00	; 0
     816:	30 93 01 01 	sts	0x0101, r19	; 0x800101 <__DATA_REGION_ORIGIN__+0x1>
     81a:	20 93 00 01 	sts	0x0100, r18	; 0x800100 <__DATA_REGION_ORIGIN__>
     81e:	21 e0       	ldi	r18, 0x01	; 1
     820:	30 e0       	ldi	r19, 0x00	; 0
     822:	30 93 cb 01 	sts	0x01CB, r19	; 0x8001cb <flag_z+0x1>
     826:	20 93 ca 01 	sts	0x01CA, r18	; 0x8001ca <flag_z>
     82a:	0f c0       	rjmp	.+30     	; 0x84a <__DATA_REGION_LENGTH__+0x4a>
     82c:	21 30       	cpi	r18, 0x01	; 1
     82e:	31 05       	cpc	r19, r1
     830:	61 f4       	brne	.+24     	; 0x84a <__DATA_REGION_LENGTH__+0x4a>
     832:	22 e0       	ldi	r18, 0x02	; 2
     834:	30 e0       	ldi	r19, 0x00	; 0
     836:	30 93 05 01 	sts	0x0105, r19	; 0x800105 <idzona+0x1>
     83a:	20 93 04 01 	sts	0x0104, r18	; 0x800104 <idzona>
     83e:	21 e0       	ldi	r18, 0x01	; 1
     840:	30 e0       	ldi	r19, 0x00	; 0
     842:	30 93 c9 01 	sts	0x01C9, r19	; 0x8001c9 <flag_z1+0x1>
     846:	20 93 c8 01 	sts	0x01C8, r18	; 0x8001c8 <flag_z1>
     84a:	20 91 bc 01 	lds	r18, 0x01BC	; 0x8001bc <cont_t>
     84e:	30 91 bd 01 	lds	r19, 0x01BD	; 0x8001bd <cont_t+0x1>
     852:	41 e0       	ldi	r20, 0x01	; 1
     854:	93 31       	cpi	r25, 0x13	; 19
     856:	09 f0       	breq	.+2      	; 0x85a <__DATA_REGION_LENGTH__+0x5a>
     858:	40 e0       	ldi	r20, 0x00	; 0
     85a:	81 e0       	ldi	r24, 0x01	; 1
     85c:	22 30       	cpi	r18, 0x02	; 2
     85e:	31 05       	cpc	r19, r1
     860:	0c f0       	brlt	.+2      	; 0x864 <__DATA_REGION_LENGTH__+0x64>
     862:	80 e0       	ldi	r24, 0x00	; 0
     864:	84 23       	and	r24, r20
     866:	79 f0       	breq	.+30     	; 0x886 <__DATA_REGION_LENGTH__+0x86>
     868:	f9 01       	movw	r30, r18
     86a:	ee 0f       	add	r30, r30
     86c:	ff 1f       	adc	r31, r31
     86e:	e4 5f       	subi	r30, 0xF4	; 244
     870:	fe 4f       	sbci	r31, 0xFE	; 254
     872:	42 e0       	ldi	r20, 0x02	; 2
     874:	50 e0       	ldi	r21, 0x00	; 0
     876:	51 83       	std	Z+1, r21	; 0x01
     878:	40 83       	st	Z, r20
     87a:	2f 5f       	subi	r18, 0xFF	; 255
     87c:	3f 4f       	sbci	r19, 0xFF	; 255
     87e:	30 93 bd 01 	sts	0x01BD, r19	; 0x8001bd <cont_t+0x1>
     882:	20 93 bc 01 	sts	0x01BC, r18	; 0x8001bc <cont_t>
     886:	81 e0       	ldi	r24, 0x01	; 1
     888:	20 91 bc 01 	lds	r18, 0x01BC	; 0x8001bc <cont_t>
     88c:	30 91 bd 01 	lds	r19, 0x01BD	; 0x8001bd <cont_t+0x1>
     890:	23 30       	cpi	r18, 0x03	; 3
     892:	31 05       	cpc	r19, r1
     894:	0c f0       	brlt	.+2      	; 0x898 <__DATA_REGION_LENGTH__+0x98>
     896:	80 e0       	ldi	r24, 0x00	; 0
     898:	21 e0       	ldi	r18, 0x01	; 1
     89a:	94 31       	cpi	r25, 0x14	; 20
     89c:	09 f0       	breq	.+2      	; 0x8a0 <__DATA_REGION_LENGTH__+0xa0>
     89e:	20 e0       	ldi	r18, 0x00	; 0
     8a0:	28 23       	and	r18, r24
     8a2:	99 f0       	breq	.+38     	; 0x8ca <__DATA_REGION_LENGTH__+0xca>
     8a4:	20 91 b8 01 	lds	r18, 0x01B8	; 0x8001b8 <cont_s>
     8a8:	30 91 b9 01 	lds	r19, 0x01B9	; 0x8001b9 <cont_s+0x1>
     8ac:	f9 01       	movw	r30, r18
     8ae:	ee 0f       	add	r30, r30
     8b0:	ff 1f       	adc	r31, r31
     8b2:	e7 5d       	subi	r30, 0xD7	; 215
     8b4:	fe 4f       	sbci	r31, 0xFE	; 254
     8b6:	42 e0       	ldi	r20, 0x02	; 2
     8b8:	50 e0       	ldi	r21, 0x00	; 0
     8ba:	51 83       	std	Z+1, r21	; 0x01
     8bc:	40 83       	st	Z, r20
     8be:	2f 5f       	subi	r18, 0xFF	; 255
     8c0:	3f 4f       	sbci	r19, 0xFF	; 255
     8c2:	30 93 b9 01 	sts	0x01B9, r19	; 0x8001b9 <cont_s+0x1>
     8c6:	20 93 b8 01 	sts	0x01B8, r18	; 0x8001b8 <cont_s>
     8ca:	21 e0       	ldi	r18, 0x01	; 1
     8cc:	92 31       	cpi	r25, 0x12	; 18
     8ce:	09 f0       	breq	.+2      	; 0x8d2 <__DATA_REGION_LENGTH__+0xd2>
     8d0:	20 e0       	ldi	r18, 0x00	; 0
     8d2:	82 23       	and	r24, r18
     8d4:	11 f4       	brne	.+4      	; 0x8da <__DATA_REGION_LENGTH__+0xda>
     8d6:	0c 94 e9 10 	jmp	0x21d2	; 0x21d2 <__stack+0x18d3>
     8da:	80 91 ba 01 	lds	r24, 0x01BA	; 0x8001ba <cont_aa>
     8de:	90 91 bb 01 	lds	r25, 0x01BB	; 0x8001bb <cont_aa+0x1>
     8e2:	fc 01       	movw	r30, r24
     8e4:	ee 0f       	add	r30, r30
     8e6:	ff 1f       	adc	r31, r31
     8e8:	ef 5d       	subi	r30, 0xDF	; 223
     8ea:	fe 4f       	sbci	r31, 0xFE	; 254
     8ec:	22 e0       	ldi	r18, 0x02	; 2
     8ee:	30 e0       	ldi	r19, 0x00	; 0
     8f0:	31 83       	std	Z+1, r19	; 0x01
     8f2:	20 83       	st	Z, r18
     8f4:	01 96       	adiw	r24, 0x01	; 1
     8f6:	90 93 bb 01 	sts	0x01BB, r25	; 0x8001bb <cont_aa+0x1>
     8fa:	80 93 ba 01 	sts	0x01BA, r24	; 0x8001ba <cont_aa>
     8fe:	0c 94 e9 10 	jmp	0x21d2	; 0x21d2 <__stack+0x18d3>
     902:	80 3d       	cpi	r24, 0xD0	; 208
     904:	91 05       	cpc	r25, r1
     906:	09 f0       	breq	.+2      	; 0x90a <__stack+0xb>
     908:	9d c1       	rjmp	.+826    	; 0xc44 <__stack+0x345>
     90a:	91 e0       	ldi	r25, 0x01	; 1
     90c:	80 91 da 01 	lds	r24, 0x01DA	; 0x8001da <state>
     910:	88 30       	cpi	r24, 0x08	; 8
     912:	09 f0       	breq	.+2      	; 0x916 <__stack+0x17>
     914:	90 e0       	ldi	r25, 0x00	; 0
     916:	81 e0       	ldi	r24, 0x01	; 1
     918:	20 91 d6 01 	lds	r18, 0x01D6	; 0x8001d6 <count_senha>
     91c:	30 91 d7 01 	lds	r19, 0x01D7	; 0x8001d7 <count_senha+0x1>
     920:	24 30       	cpi	r18, 0x04	; 4
     922:	31 05       	cpc	r19, r1
     924:	0c f0       	brlt	.+2      	; 0x928 <__stack+0x29>
     926:	80 e0       	ldi	r24, 0x00	; 0
     928:	89 23       	and	r24, r25
     92a:	a9 f0       	breq	.+42     	; 0x956 <__stack+0x57>
     92c:	83 e3       	ldi	r24, 0x33	; 51
     92e:	0e 94 38 1b 	call	0x3670	; 0x3670 <send_word_lcd>
     932:	49 ec       	ldi	r20, 0xC9	; 201
     934:	52 e0       	ldi	r21, 0x02	; 2
     936:	60 e0       	ldi	r22, 0x00	; 0
     938:	80 91 d6 01 	lds	r24, 0x01D6	; 0x8001d6 <count_senha>
     93c:	90 91 d7 01 	lds	r25, 0x01D7	; 0x8001d7 <count_senha+0x1>
     940:	0e 94 1b 1d 	call	0x3a36	; 0x3a36 <insert_senha>
     944:	80 91 d6 01 	lds	r24, 0x01D6	; 0x8001d6 <count_senha>
     948:	90 91 d7 01 	lds	r25, 0x01D7	; 0x8001d7 <count_senha+0x1>
     94c:	01 96       	adiw	r24, 0x01	; 1
     94e:	90 93 d7 01 	sts	0x01D7, r25	; 0x8001d7 <count_senha+0x1>
     952:	80 93 d6 01 	sts	0x01D6, r24	; 0x8001d6 <count_senha>
     956:	91 e0       	ldi	r25, 0x01	; 1
     958:	80 91 da 01 	lds	r24, 0x01DA	; 0x8001da <state>
     95c:	89 30       	cpi	r24, 0x09	; 9
     95e:	09 f0       	breq	.+2      	; 0x962 <__stack+0x63>
     960:	90 e0       	ldi	r25, 0x00	; 0
     962:	81 e0       	ldi	r24, 0x01	; 1
     964:	20 91 d6 01 	lds	r18, 0x01D6	; 0x8001d6 <count_senha>
     968:	30 91 d7 01 	lds	r19, 0x01D7	; 0x8001d7 <count_senha+0x1>
     96c:	24 30       	cpi	r18, 0x04	; 4
     96e:	31 05       	cpc	r19, r1
     970:	0c f0       	brlt	.+2      	; 0x974 <__stack+0x75>
     972:	80 e0       	ldi	r24, 0x00	; 0
     974:	89 23       	and	r24, r25
     976:	a9 f0       	breq	.+42     	; 0x9a2 <__stack+0xa3>
     978:	83 e3       	ldi	r24, 0x33	; 51
     97a:	0e 94 38 1b 	call	0x3670	; 0x3670 <send_word_lcd>
     97e:	49 ec       	ldi	r20, 0xC9	; 201
     980:	52 e0       	ldi	r21, 0x02	; 2
     982:	60 e0       	ldi	r22, 0x00	; 0
     984:	80 91 d6 01 	lds	r24, 0x01D6	; 0x8001d6 <count_senha>
     988:	90 91 d7 01 	lds	r25, 0x01D7	; 0x8001d7 <count_senha+0x1>
     98c:	0e 94 73 1a 	call	0x34e6	; 0x34e6 <senha_arm>
     990:	80 91 d6 01 	lds	r24, 0x01D6	; 0x8001d6 <count_senha>
     994:	90 91 d7 01 	lds	r25, 0x01D7	; 0x8001d7 <count_senha+0x1>
     998:	01 96       	adiw	r24, 0x01	; 1
     99a:	90 93 d7 01 	sts	0x01D7, r25	; 0x8001d7 <count_senha+0x1>
     99e:	80 93 d6 01 	sts	0x01D6, r24	; 0x8001d6 <count_senha>
     9a2:	91 e0       	ldi	r25, 0x01	; 1
     9a4:	80 91 da 01 	lds	r24, 0x01DA	; 0x8001da <state>
     9a8:	8a 30       	cpi	r24, 0x0A	; 10
     9aa:	09 f0       	breq	.+2      	; 0x9ae <__stack+0xaf>
     9ac:	90 e0       	ldi	r25, 0x00	; 0
     9ae:	81 e0       	ldi	r24, 0x01	; 1
     9b0:	20 91 d6 01 	lds	r18, 0x01D6	; 0x8001d6 <count_senha>
     9b4:	30 91 d7 01 	lds	r19, 0x01D7	; 0x8001d7 <count_senha+0x1>
     9b8:	24 30       	cpi	r18, 0x04	; 4
     9ba:	31 05       	cpc	r19, r1
     9bc:	0c f0       	brlt	.+2      	; 0x9c0 <__stack+0xc1>
     9be:	80 e0       	ldi	r24, 0x00	; 0
     9c0:	89 23       	and	r24, r25
     9c2:	a9 f0       	breq	.+42     	; 0x9ee <__stack+0xef>
     9c4:	83 e3       	ldi	r24, 0x33	; 51
     9c6:	0e 94 38 1b 	call	0x3670	; 0x3670 <send_word_lcd>
     9ca:	49 ec       	ldi	r20, 0xC9	; 201
     9cc:	52 e0       	ldi	r21, 0x02	; 2
     9ce:	60 e0       	ldi	r22, 0x00	; 0
     9d0:	80 91 d6 01 	lds	r24, 0x01D6	; 0x8001d6 <count_senha>
     9d4:	90 91 d7 01 	lds	r25, 0x01D7	; 0x8001d7 <count_senha+0x1>
     9d8:	0e 94 1b 1d 	call	0x3a36	; 0x3a36 <insert_senha>
     9dc:	80 91 d6 01 	lds	r24, 0x01D6	; 0x8001d6 <count_senha>
     9e0:	90 91 d7 01 	lds	r25, 0x01D7	; 0x8001d7 <count_senha+0x1>
     9e4:	01 96       	adiw	r24, 0x01	; 1
     9e6:	90 93 d7 01 	sts	0x01D7, r25	; 0x8001d7 <count_senha+0x1>
     9ea:	80 93 d6 01 	sts	0x01D6, r24	; 0x8001d6 <count_senha>
     9ee:	91 e0       	ldi	r25, 0x01	; 1
     9f0:	80 91 da 01 	lds	r24, 0x01DA	; 0x8001da <state>
     9f4:	8b 30       	cpi	r24, 0x0B	; 11
     9f6:	09 f0       	breq	.+2      	; 0x9fa <__stack+0xfb>
     9f8:	90 e0       	ldi	r25, 0x00	; 0
     9fa:	81 e0       	ldi	r24, 0x01	; 1
     9fc:	20 91 d6 01 	lds	r18, 0x01D6	; 0x8001d6 <count_senha>
     a00:	30 91 d7 01 	lds	r19, 0x01D7	; 0x8001d7 <count_senha+0x1>
     a04:	24 30       	cpi	r18, 0x04	; 4
     a06:	31 05       	cpc	r19, r1
     a08:	0c f0       	brlt	.+2      	; 0xa0c <__stack+0x10d>
     a0a:	80 e0       	ldi	r24, 0x00	; 0
     a0c:	89 23       	and	r24, r25
     a0e:	a9 f0       	breq	.+42     	; 0xa3a <__stack+0x13b>
     a10:	83 e3       	ldi	r24, 0x33	; 51
     a12:	0e 94 38 1b 	call	0x3670	; 0x3670 <send_word_lcd>
     a16:	49 ec       	ldi	r20, 0xC9	; 201
     a18:	52 e0       	ldi	r21, 0x02	; 2
     a1a:	60 e0       	ldi	r22, 0x00	; 0
     a1c:	80 91 d6 01 	lds	r24, 0x01D6	; 0x8001d6 <count_senha>
     a20:	90 91 d7 01 	lds	r25, 0x01D7	; 0x8001d7 <count_senha+0x1>
     a24:	0e 94 1b 1d 	call	0x3a36	; 0x3a36 <insert_senha>
     a28:	80 91 d6 01 	lds	r24, 0x01D6	; 0x8001d6 <count_senha>
     a2c:	90 91 d7 01 	lds	r25, 0x01D7	; 0x8001d7 <count_senha+0x1>
     a30:	01 96       	adiw	r24, 0x01	; 1
     a32:	90 93 d7 01 	sts	0x01D7, r25	; 0x8001d7 <count_senha+0x1>
     a36:	80 93 d6 01 	sts	0x01D6, r24	; 0x8001d6 <count_senha>
     a3a:	91 e0       	ldi	r25, 0x01	; 1
     a3c:	80 91 da 01 	lds	r24, 0x01DA	; 0x8001da <state>
     a40:	87 30       	cpi	r24, 0x07	; 7
     a42:	09 f0       	breq	.+2      	; 0xa46 <__stack+0x147>
     a44:	90 e0       	ldi	r25, 0x00	; 0
     a46:	21 e0       	ldi	r18, 0x01	; 1
     a48:	40 91 d8 01 	lds	r20, 0x01D8	; 0x8001d8 <flag_a_senha>
     a4c:	50 91 d9 01 	lds	r21, 0x01D9	; 0x8001d9 <flag_a_senha+0x1>
     a50:	45 2b       	or	r20, r21
     a52:	09 f0       	breq	.+2      	; 0xa56 <__stack+0x157>
     a54:	20 e0       	ldi	r18, 0x00	; 0
     a56:	81 e0       	ldi	r24, 0x01	; 1
     a58:	40 91 c2 01 	lds	r20, 0x01C2	; 0x8001c2 <flag_timeout>
     a5c:	50 91 c3 01 	lds	r21, 0x01C3	; 0x8001c3 <flag_timeout+0x1>
     a60:	45 2b       	or	r20, r21
     a62:	09 f0       	breq	.+2      	; 0xa66 <__stack+0x167>
     a64:	80 e0       	ldi	r24, 0x00	; 0
     a66:	82 23       	and	r24, r18
     a68:	99 23       	and	r25, r25
     a6a:	a9 f0       	breq	.+42     	; 0xa96 <__stack+0x197>
     a6c:	88 23       	and	r24, r24
     a6e:	99 f0       	breq	.+38     	; 0xa96 <__stack+0x197>
     a70:	8f e0       	ldi	r24, 0x0F	; 15
     a72:	80 93 da 01 	sts	0x01DA, r24	; 0x8001da <state>
     a76:	80 91 ce 01 	lds	r24, 0x01CE	; 0x8001ce <flag_D_sensor>
     a7a:	90 91 cf 01 	lds	r25, 0x01CF	; 0x8001cf <flag_D_sensor+0x1>
     a7e:	89 2b       	or	r24, r25
     a80:	11 f4       	brne	.+4      	; 0xa86 <__stack+0x187>
     a82:	0e 94 30 17 	call	0x2e60	; 0x2e60 <msg_h_sensores>
     a86:	80 91 ce 01 	lds	r24, 0x01CE	; 0x8001ce <flag_D_sensor>
     a8a:	90 91 cf 01 	lds	r25, 0x01CF	; 0x8001cf <flag_D_sensor+0x1>
     a8e:	01 97       	sbiw	r24, 0x01	; 1
     a90:	11 f4       	brne	.+4      	; 0xa96 <__stack+0x197>
     a92:	0e 94 63 17 	call	0x2ec6	; 0x2ec6 <msg_d_sensores>
     a96:	91 e0       	ldi	r25, 0x01	; 1
     a98:	80 91 da 01 	lds	r24, 0x01DA	; 0x8001da <state>
     a9c:	87 30       	cpi	r24, 0x07	; 7
     a9e:	09 f0       	breq	.+2      	; 0xaa2 <__stack+0x1a3>
     aa0:	90 e0       	ldi	r25, 0x00	; 0
     aa2:	81 e0       	ldi	r24, 0x01	; 1
     aa4:	20 91 d8 01 	lds	r18, 0x01D8	; 0x8001d8 <flag_a_senha>
     aa8:	30 91 d9 01 	lds	r19, 0x01D9	; 0x8001d9 <flag_a_senha+0x1>
     aac:	21 30       	cpi	r18, 0x01	; 1
     aae:	31 05       	cpc	r19, r1
     ab0:	09 f0       	breq	.+2      	; 0xab4 <__stack+0x1b5>
     ab2:	80 e0       	ldi	r24, 0x00	; 0
     ab4:	89 23       	and	r24, r25
     ab6:	79 f0       	breq	.+30     	; 0xad6 <__stack+0x1d7>
     ab8:	89 e0       	ldi	r24, 0x09	; 9
     aba:	80 93 da 01 	sts	0x01DA, r24	; 0x8001da <state>
     abe:	0e 94 ea 1a 	call	0x35d4	; 0x35d4 <msg_altera_senha>
     ac2:	83 e0       	ldi	r24, 0x03	; 3
     ac4:	90 e0       	ldi	r25, 0x00	; 0
     ac6:	90 93 28 01 	sts	0x0128, r25	; 0x800128 <addr_senha+0x1>
     aca:	80 93 27 01 	sts	0x0127, r24	; 0x800127 <addr_senha>
     ace:	10 92 d9 01 	sts	0x01D9, r1	; 0x8001d9 <flag_a_senha+0x1>
     ad2:	10 92 d8 01 	sts	0x01D8, r1	; 0x8001d8 <flag_a_senha>
     ad6:	91 e0       	ldi	r25, 0x01	; 1
     ad8:	80 91 da 01 	lds	r24, 0x01DA	; 0x8001da <state>
     adc:	8f 30       	cpi	r24, 0x0F	; 15
     ade:	09 f0       	breq	.+2      	; 0xae2 <__stack+0x1e3>
     ae0:	90 e0       	ldi	r25, 0x00	; 0
     ae2:	81 e0       	ldi	r24, 0x01	; 1
     ae4:	20 91 d0 01 	lds	r18, 0x01D0	; 0x8001d0 <flag_sensor>
     ae8:	30 91 d1 01 	lds	r19, 0x01D1	; 0x8001d1 <flag_sensor+0x1>
     aec:	23 2b       	or	r18, r19
     aee:	09 f0       	breq	.+2      	; 0xaf2 <__stack+0x1f3>
     af0:	80 e0       	ldi	r24, 0x00	; 0
     af2:	89 23       	and	r24, r25
     af4:	21 f0       	breq	.+8      	; 0xafe <__stack+0x1ff>
     af6:	83 e0       	ldi	r24, 0x03	; 3
     af8:	90 e0       	ldi	r25, 0x00	; 0
     afa:	0e 94 58 14 	call	0x28b0	; 0x28b0 <hab_sensor>
     afe:	91 e0       	ldi	r25, 0x01	; 1
     b00:	80 91 da 01 	lds	r24, 0x01DA	; 0x8001da <state>
     b04:	80 31       	cpi	r24, 0x10	; 16
     b06:	09 f0       	breq	.+2      	; 0xb0a <__stack+0x20b>
     b08:	90 e0       	ldi	r25, 0x00	; 0
     b0a:	81 e0       	ldi	r24, 0x01	; 1
     b0c:	20 91 d0 01 	lds	r18, 0x01D0	; 0x8001d0 <flag_sensor>
     b10:	30 91 d1 01 	lds	r19, 0x01D1	; 0x8001d1 <flag_sensor+0x1>
     b14:	23 2b       	or	r18, r19
     b16:	09 f0       	breq	.+2      	; 0xb1a <__stack+0x21b>
     b18:	80 e0       	ldi	r24, 0x00	; 0
     b1a:	89 23       	and	r24, r25
     b1c:	21 f0       	breq	.+8      	; 0xb26 <__stack+0x227>
     b1e:	83 e0       	ldi	r24, 0x03	; 3
     b20:	90 e0       	ldi	r25, 0x00	; 0
     b22:	0e 94 26 16 	call	0x2c4c	; 0x2c4c <hab_zonas>
     b26:	90 91 da 01 	lds	r25, 0x01DA	; 0x8001da <state>
     b2a:	21 e0       	ldi	r18, 0x01	; 1
     b2c:	40 91 c8 01 	lds	r20, 0x01C8	; 0x8001c8 <flag_z1>
     b30:	50 91 c9 01 	lds	r21, 0x01C9	; 0x8001c9 <flag_z1+0x1>
     b34:	45 2b       	or	r20, r21
     b36:	09 f0       	breq	.+2      	; 0xb3a <__stack+0x23b>
     b38:	20 e0       	ldi	r18, 0x00	; 0
     b3a:	81 e0       	ldi	r24, 0x01	; 1
     b3c:	91 31       	cpi	r25, 0x11	; 17
     b3e:	09 f0       	breq	.+2      	; 0xb42 <__stack+0x243>
     b40:	80 e0       	ldi	r24, 0x00	; 0
     b42:	82 23       	and	r24, r18
     b44:	19 f1       	breq	.+70     	; 0xb8c <__stack+0x28d>
     b46:	20 91 ca 01 	lds	r18, 0x01CA	; 0x8001ca <flag_z>
     b4a:	30 91 cb 01 	lds	r19, 0x01CB	; 0x8001cb <flag_z+0x1>
     b4e:	21 15       	cp	r18, r1
     b50:	31 05       	cpc	r19, r1
     b52:	69 f4       	brne	.+26     	; 0xb6e <__stack+0x26f>
     b54:	23 e0       	ldi	r18, 0x03	; 3
     b56:	30 e0       	ldi	r19, 0x00	; 0
     b58:	30 93 01 01 	sts	0x0101, r19	; 0x800101 <__DATA_REGION_ORIGIN__+0x1>
     b5c:	20 93 00 01 	sts	0x0100, r18	; 0x800100 <__DATA_REGION_ORIGIN__>
     b60:	21 e0       	ldi	r18, 0x01	; 1
     b62:	30 e0       	ldi	r19, 0x00	; 0
     b64:	30 93 cb 01 	sts	0x01CB, r19	; 0x8001cb <flag_z+0x1>
     b68:	20 93 ca 01 	sts	0x01CA, r18	; 0x8001ca <flag_z>
     b6c:	0f c0       	rjmp	.+30     	; 0xb8c <__stack+0x28d>
     b6e:	21 30       	cpi	r18, 0x01	; 1
     b70:	31 05       	cpc	r19, r1
     b72:	61 f4       	brne	.+24     	; 0xb8c <__stack+0x28d>
     b74:	23 e0       	ldi	r18, 0x03	; 3
     b76:	30 e0       	ldi	r19, 0x00	; 0
     b78:	30 93 05 01 	sts	0x0105, r19	; 0x800105 <idzona+0x1>
     b7c:	20 93 04 01 	sts	0x0104, r18	; 0x800104 <idzona>
     b80:	21 e0       	ldi	r18, 0x01	; 1
     b82:	30 e0       	ldi	r19, 0x00	; 0
     b84:	30 93 c9 01 	sts	0x01C9, r19	; 0x8001c9 <flag_z1+0x1>
     b88:	20 93 c8 01 	sts	0x01C8, r18	; 0x8001c8 <flag_z1>
     b8c:	20 91 bc 01 	lds	r18, 0x01BC	; 0x8001bc <cont_t>
     b90:	30 91 bd 01 	lds	r19, 0x01BD	; 0x8001bd <cont_t+0x1>
     b94:	41 e0       	ldi	r20, 0x01	; 1
     b96:	93 31       	cpi	r25, 0x13	; 19
     b98:	09 f0       	breq	.+2      	; 0xb9c <__stack+0x29d>
     b9a:	40 e0       	ldi	r20, 0x00	; 0
     b9c:	81 e0       	ldi	r24, 0x01	; 1
     b9e:	22 30       	cpi	r18, 0x02	; 2
     ba0:	31 05       	cpc	r19, r1
     ba2:	0c f0       	brlt	.+2      	; 0xba6 <__stack+0x2a7>
     ba4:	80 e0       	ldi	r24, 0x00	; 0
     ba6:	84 23       	and	r24, r20
     ba8:	79 f0       	breq	.+30     	; 0xbc8 <__stack+0x2c9>
     baa:	f9 01       	movw	r30, r18
     bac:	ee 0f       	add	r30, r30
     bae:	ff 1f       	adc	r31, r31
     bb0:	e4 5f       	subi	r30, 0xF4	; 244
     bb2:	fe 4f       	sbci	r31, 0xFE	; 254
     bb4:	43 e0       	ldi	r20, 0x03	; 3
     bb6:	50 e0       	ldi	r21, 0x00	; 0
     bb8:	51 83       	std	Z+1, r21	; 0x01
     bba:	40 83       	st	Z, r20
     bbc:	2f 5f       	subi	r18, 0xFF	; 255
     bbe:	3f 4f       	sbci	r19, 0xFF	; 255
     bc0:	30 93 bd 01 	sts	0x01BD, r19	; 0x8001bd <cont_t+0x1>
     bc4:	20 93 bc 01 	sts	0x01BC, r18	; 0x8001bc <cont_t>
     bc8:	81 e0       	ldi	r24, 0x01	; 1
     bca:	20 91 bc 01 	lds	r18, 0x01BC	; 0x8001bc <cont_t>
     bce:	30 91 bd 01 	lds	r19, 0x01BD	; 0x8001bd <cont_t+0x1>
     bd2:	23 30       	cpi	r18, 0x03	; 3
     bd4:	31 05       	cpc	r19, r1
     bd6:	0c f0       	brlt	.+2      	; 0xbda <__stack+0x2db>
     bd8:	80 e0       	ldi	r24, 0x00	; 0
     bda:	21 e0       	ldi	r18, 0x01	; 1
     bdc:	94 31       	cpi	r25, 0x14	; 20
     bde:	09 f0       	breq	.+2      	; 0xbe2 <__stack+0x2e3>
     be0:	20 e0       	ldi	r18, 0x00	; 0
     be2:	28 23       	and	r18, r24
     be4:	99 f0       	breq	.+38     	; 0xc0c <__stack+0x30d>
     be6:	20 91 b8 01 	lds	r18, 0x01B8	; 0x8001b8 <cont_s>
     bea:	30 91 b9 01 	lds	r19, 0x01B9	; 0x8001b9 <cont_s+0x1>
     bee:	f9 01       	movw	r30, r18
     bf0:	ee 0f       	add	r30, r30
     bf2:	ff 1f       	adc	r31, r31
     bf4:	e7 5d       	subi	r30, 0xD7	; 215
     bf6:	fe 4f       	sbci	r31, 0xFE	; 254
     bf8:	43 e0       	ldi	r20, 0x03	; 3
     bfa:	50 e0       	ldi	r21, 0x00	; 0
     bfc:	51 83       	std	Z+1, r21	; 0x01
     bfe:	40 83       	st	Z, r20
     c00:	2f 5f       	subi	r18, 0xFF	; 255
     c02:	3f 4f       	sbci	r19, 0xFF	; 255
     c04:	30 93 b9 01 	sts	0x01B9, r19	; 0x8001b9 <cont_s+0x1>
     c08:	20 93 b8 01 	sts	0x01B8, r18	; 0x8001b8 <cont_s>
     c0c:	21 e0       	ldi	r18, 0x01	; 1
     c0e:	92 31       	cpi	r25, 0x12	; 18
     c10:	09 f0       	breq	.+2      	; 0xc14 <__stack+0x315>
     c12:	20 e0       	ldi	r18, 0x00	; 0
     c14:	82 23       	and	r24, r18
     c16:	11 f4       	brne	.+4      	; 0xc1c <__stack+0x31d>
     c18:	0c 94 e9 10 	jmp	0x21d2	; 0x21d2 <__stack+0x18d3>
     c1c:	80 91 ba 01 	lds	r24, 0x01BA	; 0x8001ba <cont_aa>
     c20:	90 91 bb 01 	lds	r25, 0x01BB	; 0x8001bb <cont_aa+0x1>
     c24:	fc 01       	movw	r30, r24
     c26:	ee 0f       	add	r30, r30
     c28:	ff 1f       	adc	r31, r31
     c2a:	ef 5d       	subi	r30, 0xDF	; 223
     c2c:	fe 4f       	sbci	r31, 0xFE	; 254
     c2e:	23 e0       	ldi	r18, 0x03	; 3
     c30:	30 e0       	ldi	r19, 0x00	; 0
     c32:	31 83       	std	Z+1, r19	; 0x01
     c34:	20 83       	st	Z, r18
     c36:	01 96       	adiw	r24, 0x01	; 1
     c38:	90 93 bb 01 	sts	0x01BB, r25	; 0x8001bb <cont_aa+0x1>
     c3c:	80 93 ba 01 	sts	0x01BA, r24	; 0x8001ba <cont_aa>
     c40:	0c 94 e9 10 	jmp	0x21d2	; 0x21d2 <__stack+0x18d3>
     c44:	80 3c       	cpi	r24, 0xC0	; 192
     c46:	91 05       	cpc	r25, r1
     c48:	79 f4       	brne	.+30     	; 0xc68 <__stack+0x369>
     c4a:	80 91 da 01 	lds	r24, 0x01DA	; 0x8001da <state>
     c4e:	81 30       	cpi	r24, 0x01	; 1
     c50:	11 f0       	breq	.+4      	; 0xc56 <__stack+0x357>
     c52:	0c 94 e9 10 	jmp	0x21d2	; 0x21d2 <__stack+0x18d3>
     c56:	88 e0       	ldi	r24, 0x08	; 8
     c58:	80 93 da 01 	sts	0x01DA, r24	; 0x8001da <state>
     c5c:	0e 94 c3 1a 	call	0x3586	; 0x3586 <msg_inserir_senha>
     c60:	0e 94 51 1d 	call	0x3aa2	; 0x3aa2 <StartTimer1>
     c64:	0c 94 e9 10 	jmp	0x21d2	; 0x21d2 <__stack+0x18d3>
     c68:	80 3b       	cpi	r24, 0xB0	; 176
     c6a:	91 05       	cpc	r25, r1
     c6c:	09 f0       	breq	.+2      	; 0xc70 <__stack+0x371>
     c6e:	5d c1       	rjmp	.+698    	; 0xf2a <__stack+0x62b>
     c70:	91 e0       	ldi	r25, 0x01	; 1
     c72:	80 91 da 01 	lds	r24, 0x01DA	; 0x8001da <state>
     c76:	88 30       	cpi	r24, 0x08	; 8
     c78:	09 f0       	breq	.+2      	; 0xc7c <__stack+0x37d>
     c7a:	90 e0       	ldi	r25, 0x00	; 0
     c7c:	81 e0       	ldi	r24, 0x01	; 1
     c7e:	20 91 d6 01 	lds	r18, 0x01D6	; 0x8001d6 <count_senha>
     c82:	30 91 d7 01 	lds	r19, 0x01D7	; 0x8001d7 <count_senha+0x1>
     c86:	24 30       	cpi	r18, 0x04	; 4
     c88:	31 05       	cpc	r19, r1
     c8a:	0c f0       	brlt	.+2      	; 0xc8e <__stack+0x38f>
     c8c:	80 e0       	ldi	r24, 0x00	; 0
     c8e:	89 23       	and	r24, r25
     c90:	a9 f0       	breq	.+42     	; 0xcbc <__stack+0x3bd>
     c92:	84 e3       	ldi	r24, 0x34	; 52
     c94:	0e 94 38 1b 	call	0x3670	; 0x3670 <send_word_lcd>
     c98:	4b ec       	ldi	r20, 0xCB	; 203
     c9a:	52 e0       	ldi	r21, 0x02	; 2
     c9c:	60 e0       	ldi	r22, 0x00	; 0
     c9e:	80 91 d6 01 	lds	r24, 0x01D6	; 0x8001d6 <count_senha>
     ca2:	90 91 d7 01 	lds	r25, 0x01D7	; 0x8001d7 <count_senha+0x1>
     ca6:	0e 94 1b 1d 	call	0x3a36	; 0x3a36 <insert_senha>
     caa:	80 91 d6 01 	lds	r24, 0x01D6	; 0x8001d6 <count_senha>
     cae:	90 91 d7 01 	lds	r25, 0x01D7	; 0x8001d7 <count_senha+0x1>
     cb2:	01 96       	adiw	r24, 0x01	; 1
     cb4:	90 93 d7 01 	sts	0x01D7, r25	; 0x8001d7 <count_senha+0x1>
     cb8:	80 93 d6 01 	sts	0x01D6, r24	; 0x8001d6 <count_senha>
     cbc:	91 e0       	ldi	r25, 0x01	; 1
     cbe:	80 91 da 01 	lds	r24, 0x01DA	; 0x8001da <state>
     cc2:	89 30       	cpi	r24, 0x09	; 9
     cc4:	09 f0       	breq	.+2      	; 0xcc8 <__stack+0x3c9>
     cc6:	90 e0       	ldi	r25, 0x00	; 0
     cc8:	81 e0       	ldi	r24, 0x01	; 1
     cca:	20 91 d6 01 	lds	r18, 0x01D6	; 0x8001d6 <count_senha>
     cce:	30 91 d7 01 	lds	r19, 0x01D7	; 0x8001d7 <count_senha+0x1>
     cd2:	24 30       	cpi	r18, 0x04	; 4
     cd4:	31 05       	cpc	r19, r1
     cd6:	0c f0       	brlt	.+2      	; 0xcda <__stack+0x3db>
     cd8:	80 e0       	ldi	r24, 0x00	; 0
     cda:	89 23       	and	r24, r25
     cdc:	a9 f0       	breq	.+42     	; 0xd08 <__stack+0x409>
     cde:	84 e3       	ldi	r24, 0x34	; 52
     ce0:	0e 94 38 1b 	call	0x3670	; 0x3670 <send_word_lcd>
     ce4:	4b ec       	ldi	r20, 0xCB	; 203
     ce6:	52 e0       	ldi	r21, 0x02	; 2
     ce8:	60 e0       	ldi	r22, 0x00	; 0
     cea:	80 91 d6 01 	lds	r24, 0x01D6	; 0x8001d6 <count_senha>
     cee:	90 91 d7 01 	lds	r25, 0x01D7	; 0x8001d7 <count_senha+0x1>
     cf2:	0e 94 73 1a 	call	0x34e6	; 0x34e6 <senha_arm>
     cf6:	80 91 d6 01 	lds	r24, 0x01D6	; 0x8001d6 <count_senha>
     cfa:	90 91 d7 01 	lds	r25, 0x01D7	; 0x8001d7 <count_senha+0x1>
     cfe:	01 96       	adiw	r24, 0x01	; 1
     d00:	90 93 d7 01 	sts	0x01D7, r25	; 0x8001d7 <count_senha+0x1>
     d04:	80 93 d6 01 	sts	0x01D6, r24	; 0x8001d6 <count_senha>
     d08:	91 e0       	ldi	r25, 0x01	; 1
     d0a:	80 91 da 01 	lds	r24, 0x01DA	; 0x8001da <state>
     d0e:	8a 30       	cpi	r24, 0x0A	; 10
     d10:	09 f0       	breq	.+2      	; 0xd14 <__stack+0x415>
     d12:	90 e0       	ldi	r25, 0x00	; 0
     d14:	81 e0       	ldi	r24, 0x01	; 1
     d16:	20 91 d6 01 	lds	r18, 0x01D6	; 0x8001d6 <count_senha>
     d1a:	30 91 d7 01 	lds	r19, 0x01D7	; 0x8001d7 <count_senha+0x1>
     d1e:	24 30       	cpi	r18, 0x04	; 4
     d20:	31 05       	cpc	r19, r1
     d22:	0c f0       	brlt	.+2      	; 0xd26 <__stack+0x427>
     d24:	80 e0       	ldi	r24, 0x00	; 0
     d26:	89 23       	and	r24, r25
     d28:	a9 f0       	breq	.+42     	; 0xd54 <__stack+0x455>
     d2a:	84 e3       	ldi	r24, 0x34	; 52
     d2c:	0e 94 38 1b 	call	0x3670	; 0x3670 <send_word_lcd>
     d30:	4b ec       	ldi	r20, 0xCB	; 203
     d32:	52 e0       	ldi	r21, 0x02	; 2
     d34:	60 e0       	ldi	r22, 0x00	; 0
     d36:	80 91 d6 01 	lds	r24, 0x01D6	; 0x8001d6 <count_senha>
     d3a:	90 91 d7 01 	lds	r25, 0x01D7	; 0x8001d7 <count_senha+0x1>
     d3e:	0e 94 1b 1d 	call	0x3a36	; 0x3a36 <insert_senha>
     d42:	80 91 d6 01 	lds	r24, 0x01D6	; 0x8001d6 <count_senha>
     d46:	90 91 d7 01 	lds	r25, 0x01D7	; 0x8001d7 <count_senha+0x1>
     d4a:	01 96       	adiw	r24, 0x01	; 1
     d4c:	90 93 d7 01 	sts	0x01D7, r25	; 0x8001d7 <count_senha+0x1>
     d50:	80 93 d6 01 	sts	0x01D6, r24	; 0x8001d6 <count_senha>
     d54:	91 e0       	ldi	r25, 0x01	; 1
     d56:	80 91 da 01 	lds	r24, 0x01DA	; 0x8001da <state>
     d5a:	8b 30       	cpi	r24, 0x0B	; 11
     d5c:	09 f0       	breq	.+2      	; 0xd60 <__stack+0x461>
     d5e:	90 e0       	ldi	r25, 0x00	; 0
     d60:	81 e0       	ldi	r24, 0x01	; 1
     d62:	20 91 d6 01 	lds	r18, 0x01D6	; 0x8001d6 <count_senha>
     d66:	30 91 d7 01 	lds	r19, 0x01D7	; 0x8001d7 <count_senha+0x1>
     d6a:	24 30       	cpi	r18, 0x04	; 4
     d6c:	31 05       	cpc	r19, r1
     d6e:	0c f0       	brlt	.+2      	; 0xd72 <__stack+0x473>
     d70:	80 e0       	ldi	r24, 0x00	; 0
     d72:	89 23       	and	r24, r25
     d74:	a9 f0       	breq	.+42     	; 0xda0 <__stack+0x4a1>
     d76:	84 e3       	ldi	r24, 0x34	; 52
     d78:	0e 94 38 1b 	call	0x3670	; 0x3670 <send_word_lcd>
     d7c:	4b ec       	ldi	r20, 0xCB	; 203
     d7e:	52 e0       	ldi	r21, 0x02	; 2
     d80:	60 e0       	ldi	r22, 0x00	; 0
     d82:	80 91 d6 01 	lds	r24, 0x01D6	; 0x8001d6 <count_senha>
     d86:	90 91 d7 01 	lds	r25, 0x01D7	; 0x8001d7 <count_senha+0x1>
     d8a:	0e 94 1b 1d 	call	0x3a36	; 0x3a36 <insert_senha>
     d8e:	80 91 d6 01 	lds	r24, 0x01D6	; 0x8001d6 <count_senha>
     d92:	90 91 d7 01 	lds	r25, 0x01D7	; 0x8001d7 <count_senha+0x1>
     d96:	01 96       	adiw	r24, 0x01	; 1
     d98:	90 93 d7 01 	sts	0x01D7, r25	; 0x8001d7 <count_senha+0x1>
     d9c:	80 93 d6 01 	sts	0x01D6, r24	; 0x8001d6 <count_senha>
     da0:	91 e0       	ldi	r25, 0x01	; 1
     da2:	80 91 da 01 	lds	r24, 0x01DA	; 0x8001da <state>
     da6:	8f 30       	cpi	r24, 0x0F	; 15
     da8:	09 f0       	breq	.+2      	; 0xdac <__stack+0x4ad>
     daa:	90 e0       	ldi	r25, 0x00	; 0
     dac:	81 e0       	ldi	r24, 0x01	; 1
     dae:	20 91 d0 01 	lds	r18, 0x01D0	; 0x8001d0 <flag_sensor>
     db2:	30 91 d1 01 	lds	r19, 0x01D1	; 0x8001d1 <flag_sensor+0x1>
     db6:	23 2b       	or	r18, r19
     db8:	09 f0       	breq	.+2      	; 0xdbc <__stack+0x4bd>
     dba:	80 e0       	ldi	r24, 0x00	; 0
     dbc:	89 23       	and	r24, r25
     dbe:	21 f0       	breq	.+8      	; 0xdc8 <__stack+0x4c9>
     dc0:	84 e0       	ldi	r24, 0x04	; 4
     dc2:	90 e0       	ldi	r25, 0x00	; 0
     dc4:	0e 94 58 14 	call	0x28b0	; 0x28b0 <hab_sensor>
     dc8:	91 e0       	ldi	r25, 0x01	; 1
     dca:	80 91 da 01 	lds	r24, 0x01DA	; 0x8001da <state>
     dce:	87 30       	cpi	r24, 0x07	; 7
     dd0:	09 f0       	breq	.+2      	; 0xdd4 <__stack+0x4d5>
     dd2:	90 e0       	ldi	r25, 0x00	; 0
     dd4:	21 e0       	ldi	r18, 0x01	; 1
     dd6:	40 91 d8 01 	lds	r20, 0x01D8	; 0x8001d8 <flag_a_senha>
     dda:	50 91 d9 01 	lds	r21, 0x01D9	; 0x8001d9 <flag_a_senha+0x1>
     dde:	45 2b       	or	r20, r21
     de0:	09 f0       	breq	.+2      	; 0xde4 <__stack+0x4e5>
     de2:	20 e0       	ldi	r18, 0x00	; 0
     de4:	81 e0       	ldi	r24, 0x01	; 1
     de6:	40 91 c2 01 	lds	r20, 0x01C2	; 0x8001c2 <flag_timeout>
     dea:	50 91 c3 01 	lds	r21, 0x01C3	; 0x8001c3 <flag_timeout+0x1>
     dee:	45 2b       	or	r20, r21
     df0:	09 f0       	breq	.+2      	; 0xdf4 <__stack+0x4f5>
     df2:	80 e0       	ldi	r24, 0x00	; 0
     df4:	82 23       	and	r24, r18
     df6:	99 23       	and	r25, r25
     df8:	a9 f0       	breq	.+42     	; 0xe24 <__stack+0x525>
     dfa:	88 23       	and	r24, r24
     dfc:	99 f0       	breq	.+38     	; 0xe24 <__stack+0x525>
     dfe:	81 e1       	ldi	r24, 0x11	; 17
     e00:	80 93 da 01 	sts	0x01DA, r24	; 0x8001da <state>
     e04:	80 91 ce 01 	lds	r24, 0x01CE	; 0x8001ce <flag_D_sensor>
     e08:	90 91 cf 01 	lds	r25, 0x01CF	; 0x8001cf <flag_D_sensor+0x1>
     e0c:	89 2b       	or	r24, r25
     e0e:	11 f4       	brne	.+4      	; 0xe14 <__stack+0x515>
     e10:	0e 94 fc 17 	call	0x2ff8	; 0x2ff8 <msg_h_ass>
     e14:	80 91 ce 01 	lds	r24, 0x01CE	; 0x8001ce <flag_D_sensor>
     e18:	90 91 cf 01 	lds	r25, 0x01CF	; 0x8001cf <flag_D_sensor+0x1>
     e1c:	01 97       	sbiw	r24, 0x01	; 1
     e1e:	11 f4       	brne	.+4      	; 0xe24 <__stack+0x525>
     e20:	0e 94 2f 18 	call	0x305e	; 0x305e <msg_d_ass>
     e24:	90 91 da 01 	lds	r25, 0x01DA	; 0x8001da <state>
     e28:	21 e0       	ldi	r18, 0x01	; 1
     e2a:	91 31       	cpi	r25, 0x11	; 17
     e2c:	09 f0       	breq	.+2      	; 0xe30 <__stack+0x531>
     e2e:	20 e0       	ldi	r18, 0x00	; 0
     e30:	31 e0       	ldi	r19, 0x01	; 1
     e32:	40 91 c8 01 	lds	r20, 0x01C8	; 0x8001c8 <flag_z1>
     e36:	50 91 c9 01 	lds	r21, 0x01C9	; 0x8001c9 <flag_z1+0x1>
     e3a:	45 2b       	or	r20, r21
     e3c:	09 f0       	breq	.+2      	; 0xe40 <__stack+0x541>
     e3e:	30 e0       	ldi	r19, 0x00	; 0
     e40:	81 e0       	ldi	r24, 0x01	; 1
     e42:	40 91 ca 01 	lds	r20, 0x01CA	; 0x8001ca <flag_z>
     e46:	50 91 cb 01 	lds	r21, 0x01CB	; 0x8001cb <flag_z+0x1>
     e4a:	45 2b       	or	r20, r21
     e4c:	09 f0       	breq	.+2      	; 0xe50 <__stack+0x551>
     e4e:	80 e0       	ldi	r24, 0x00	; 0
     e50:	83 23       	and	r24, r19
     e52:	22 23       	and	r18, r18
     e54:	71 f0       	breq	.+28     	; 0xe72 <__stack+0x573>
     e56:	88 23       	and	r24, r24
     e58:	61 f0       	breq	.+24     	; 0xe72 <__stack+0x573>
     e5a:	24 e0       	ldi	r18, 0x04	; 4
     e5c:	30 e0       	ldi	r19, 0x00	; 0
     e5e:	30 93 01 01 	sts	0x0101, r19	; 0x800101 <__DATA_REGION_ORIGIN__+0x1>
     e62:	20 93 00 01 	sts	0x0100, r18	; 0x800100 <__DATA_REGION_ORIGIN__>
     e66:	21 e0       	ldi	r18, 0x01	; 1
     e68:	30 e0       	ldi	r19, 0x00	; 0
     e6a:	30 93 c9 01 	sts	0x01C9, r19	; 0x8001c9 <flag_z1+0x1>
     e6e:	20 93 c8 01 	sts	0x01C8, r18	; 0x8001c8 <flag_z1>
     e72:	20 91 bc 01 	lds	r18, 0x01BC	; 0x8001bc <cont_t>
     e76:	30 91 bd 01 	lds	r19, 0x01BD	; 0x8001bd <cont_t+0x1>
     e7a:	41 e0       	ldi	r20, 0x01	; 1
     e7c:	93 31       	cpi	r25, 0x13	; 19
     e7e:	09 f0       	breq	.+2      	; 0xe82 <__stack+0x583>
     e80:	40 e0       	ldi	r20, 0x00	; 0
     e82:	81 e0       	ldi	r24, 0x01	; 1
     e84:	22 30       	cpi	r18, 0x02	; 2
     e86:	31 05       	cpc	r19, r1
     e88:	0c f0       	brlt	.+2      	; 0xe8c <__stack+0x58d>
     e8a:	80 e0       	ldi	r24, 0x00	; 0
     e8c:	84 23       	and	r24, r20
     e8e:	79 f0       	breq	.+30     	; 0xeae <__stack+0x5af>
     e90:	f9 01       	movw	r30, r18
     e92:	ee 0f       	add	r30, r30
     e94:	ff 1f       	adc	r31, r31
     e96:	e4 5f       	subi	r30, 0xF4	; 244
     e98:	fe 4f       	sbci	r31, 0xFE	; 254
     e9a:	44 e0       	ldi	r20, 0x04	; 4
     e9c:	50 e0       	ldi	r21, 0x00	; 0
     e9e:	51 83       	std	Z+1, r21	; 0x01
     ea0:	40 83       	st	Z, r20
     ea2:	2f 5f       	subi	r18, 0xFF	; 255
     ea4:	3f 4f       	sbci	r19, 0xFF	; 255
     ea6:	30 93 bd 01 	sts	0x01BD, r19	; 0x8001bd <cont_t+0x1>
     eaa:	20 93 bc 01 	sts	0x01BC, r18	; 0x8001bc <cont_t>
     eae:	81 e0       	ldi	r24, 0x01	; 1
     eb0:	20 91 bc 01 	lds	r18, 0x01BC	; 0x8001bc <cont_t>
     eb4:	30 91 bd 01 	lds	r19, 0x01BD	; 0x8001bd <cont_t+0x1>
     eb8:	23 30       	cpi	r18, 0x03	; 3
     eba:	31 05       	cpc	r19, r1
     ebc:	0c f0       	brlt	.+2      	; 0xec0 <__stack+0x5c1>
     ebe:	80 e0       	ldi	r24, 0x00	; 0
     ec0:	21 e0       	ldi	r18, 0x01	; 1
     ec2:	94 31       	cpi	r25, 0x14	; 20
     ec4:	09 f0       	breq	.+2      	; 0xec8 <__stack+0x5c9>
     ec6:	20 e0       	ldi	r18, 0x00	; 0
     ec8:	28 23       	and	r18, r24
     eca:	99 f0       	breq	.+38     	; 0xef2 <__stack+0x5f3>
     ecc:	20 91 b8 01 	lds	r18, 0x01B8	; 0x8001b8 <cont_s>
     ed0:	30 91 b9 01 	lds	r19, 0x01B9	; 0x8001b9 <cont_s+0x1>
     ed4:	f9 01       	movw	r30, r18
     ed6:	ee 0f       	add	r30, r30
     ed8:	ff 1f       	adc	r31, r31
     eda:	e7 5d       	subi	r30, 0xD7	; 215
     edc:	fe 4f       	sbci	r31, 0xFE	; 254
     ede:	44 e0       	ldi	r20, 0x04	; 4
     ee0:	50 e0       	ldi	r21, 0x00	; 0
     ee2:	51 83       	std	Z+1, r21	; 0x01
     ee4:	40 83       	st	Z, r20
     ee6:	2f 5f       	subi	r18, 0xFF	; 255
     ee8:	3f 4f       	sbci	r19, 0xFF	; 255
     eea:	30 93 b9 01 	sts	0x01B9, r19	; 0x8001b9 <cont_s+0x1>
     eee:	20 93 b8 01 	sts	0x01B8, r18	; 0x8001b8 <cont_s>
     ef2:	21 e0       	ldi	r18, 0x01	; 1
     ef4:	92 31       	cpi	r25, 0x12	; 18
     ef6:	09 f0       	breq	.+2      	; 0xefa <__stack+0x5fb>
     ef8:	20 e0       	ldi	r18, 0x00	; 0
     efa:	82 23       	and	r24, r18
     efc:	11 f4       	brne	.+4      	; 0xf02 <__stack+0x603>
     efe:	0c 94 e9 10 	jmp	0x21d2	; 0x21d2 <__stack+0x18d3>
     f02:	80 91 ba 01 	lds	r24, 0x01BA	; 0x8001ba <cont_aa>
     f06:	90 91 bb 01 	lds	r25, 0x01BB	; 0x8001bb <cont_aa+0x1>
     f0a:	fc 01       	movw	r30, r24
     f0c:	ee 0f       	add	r30, r30
     f0e:	ff 1f       	adc	r31, r31
     f10:	ef 5d       	subi	r30, 0xDF	; 223
     f12:	fe 4f       	sbci	r31, 0xFE	; 254
     f14:	24 e0       	ldi	r18, 0x04	; 4
     f16:	30 e0       	ldi	r19, 0x00	; 0
     f18:	31 83       	std	Z+1, r19	; 0x01
     f1a:	20 83       	st	Z, r18
     f1c:	01 96       	adiw	r24, 0x01	; 1
     f1e:	90 93 bb 01 	sts	0x01BB, r25	; 0x8001bb <cont_aa+0x1>
     f22:	80 93 ba 01 	sts	0x01BA, r24	; 0x8001ba <cont_aa>
     f26:	0c 94 e9 10 	jmp	0x21d2	; 0x21d2 <__stack+0x18d3>
     f2a:	80 3a       	cpi	r24, 0xA0	; 160
     f2c:	91 05       	cpc	r25, r1
     f2e:	09 f0       	breq	.+2      	; 0xf32 <__stack+0x633>
     f30:	5d c1       	rjmp	.+698    	; 0x11ec <__stack+0x8ed>
     f32:	91 e0       	ldi	r25, 0x01	; 1
     f34:	80 91 da 01 	lds	r24, 0x01DA	; 0x8001da <state>
     f38:	88 30       	cpi	r24, 0x08	; 8
     f3a:	09 f0       	breq	.+2      	; 0xf3e <__stack+0x63f>
     f3c:	90 e0       	ldi	r25, 0x00	; 0
     f3e:	81 e0       	ldi	r24, 0x01	; 1
     f40:	20 91 d6 01 	lds	r18, 0x01D6	; 0x8001d6 <count_senha>
     f44:	30 91 d7 01 	lds	r19, 0x01D7	; 0x8001d7 <count_senha+0x1>
     f48:	24 30       	cpi	r18, 0x04	; 4
     f4a:	31 05       	cpc	r19, r1
     f4c:	0c f0       	brlt	.+2      	; 0xf50 <__stack+0x651>
     f4e:	80 e0       	ldi	r24, 0x00	; 0
     f50:	89 23       	and	r24, r25
     f52:	a9 f0       	breq	.+42     	; 0xf7e <__stack+0x67f>
     f54:	85 e3       	ldi	r24, 0x35	; 53
     f56:	0e 94 38 1b 	call	0x3670	; 0x3670 <send_word_lcd>
     f5a:	4d ec       	ldi	r20, 0xCD	; 205
     f5c:	52 e0       	ldi	r21, 0x02	; 2
     f5e:	60 e0       	ldi	r22, 0x00	; 0
     f60:	80 91 d6 01 	lds	r24, 0x01D6	; 0x8001d6 <count_senha>
     f64:	90 91 d7 01 	lds	r25, 0x01D7	; 0x8001d7 <count_senha+0x1>
     f68:	0e 94 1b 1d 	call	0x3a36	; 0x3a36 <insert_senha>
     f6c:	80 91 d6 01 	lds	r24, 0x01D6	; 0x8001d6 <count_senha>
     f70:	90 91 d7 01 	lds	r25, 0x01D7	; 0x8001d7 <count_senha+0x1>
     f74:	01 96       	adiw	r24, 0x01	; 1
     f76:	90 93 d7 01 	sts	0x01D7, r25	; 0x8001d7 <count_senha+0x1>
     f7a:	80 93 d6 01 	sts	0x01D6, r24	; 0x8001d6 <count_senha>
     f7e:	91 e0       	ldi	r25, 0x01	; 1
     f80:	80 91 da 01 	lds	r24, 0x01DA	; 0x8001da <state>
     f84:	89 30       	cpi	r24, 0x09	; 9
     f86:	09 f0       	breq	.+2      	; 0xf8a <__stack+0x68b>
     f88:	90 e0       	ldi	r25, 0x00	; 0
     f8a:	81 e0       	ldi	r24, 0x01	; 1
     f8c:	20 91 d6 01 	lds	r18, 0x01D6	; 0x8001d6 <count_senha>
     f90:	30 91 d7 01 	lds	r19, 0x01D7	; 0x8001d7 <count_senha+0x1>
     f94:	24 30       	cpi	r18, 0x04	; 4
     f96:	31 05       	cpc	r19, r1
     f98:	0c f0       	brlt	.+2      	; 0xf9c <__stack+0x69d>
     f9a:	80 e0       	ldi	r24, 0x00	; 0
     f9c:	89 23       	and	r24, r25
     f9e:	a9 f0       	breq	.+42     	; 0xfca <__stack+0x6cb>
     fa0:	85 e3       	ldi	r24, 0x35	; 53
     fa2:	0e 94 38 1b 	call	0x3670	; 0x3670 <send_word_lcd>
     fa6:	4d ec       	ldi	r20, 0xCD	; 205
     fa8:	52 e0       	ldi	r21, 0x02	; 2
     faa:	60 e0       	ldi	r22, 0x00	; 0
     fac:	80 91 d6 01 	lds	r24, 0x01D6	; 0x8001d6 <count_senha>
     fb0:	90 91 d7 01 	lds	r25, 0x01D7	; 0x8001d7 <count_senha+0x1>
     fb4:	0e 94 73 1a 	call	0x34e6	; 0x34e6 <senha_arm>
     fb8:	80 91 d6 01 	lds	r24, 0x01D6	; 0x8001d6 <count_senha>
     fbc:	90 91 d7 01 	lds	r25, 0x01D7	; 0x8001d7 <count_senha+0x1>
     fc0:	01 96       	adiw	r24, 0x01	; 1
     fc2:	90 93 d7 01 	sts	0x01D7, r25	; 0x8001d7 <count_senha+0x1>
     fc6:	80 93 d6 01 	sts	0x01D6, r24	; 0x8001d6 <count_senha>
     fca:	91 e0       	ldi	r25, 0x01	; 1
     fcc:	80 91 da 01 	lds	r24, 0x01DA	; 0x8001da <state>
     fd0:	8a 30       	cpi	r24, 0x0A	; 10
     fd2:	09 f0       	breq	.+2      	; 0xfd6 <__stack+0x6d7>
     fd4:	90 e0       	ldi	r25, 0x00	; 0
     fd6:	81 e0       	ldi	r24, 0x01	; 1
     fd8:	20 91 d6 01 	lds	r18, 0x01D6	; 0x8001d6 <count_senha>
     fdc:	30 91 d7 01 	lds	r19, 0x01D7	; 0x8001d7 <count_senha+0x1>
     fe0:	24 30       	cpi	r18, 0x04	; 4
     fe2:	31 05       	cpc	r19, r1
     fe4:	0c f0       	brlt	.+2      	; 0xfe8 <__stack+0x6e9>
     fe6:	80 e0       	ldi	r24, 0x00	; 0
     fe8:	89 23       	and	r24, r25
     fea:	a9 f0       	breq	.+42     	; 0x1016 <__stack+0x717>
     fec:	85 e3       	ldi	r24, 0x35	; 53
     fee:	0e 94 38 1b 	call	0x3670	; 0x3670 <send_word_lcd>
     ff2:	4d ec       	ldi	r20, 0xCD	; 205
     ff4:	52 e0       	ldi	r21, 0x02	; 2
     ff6:	60 e0       	ldi	r22, 0x00	; 0
     ff8:	80 91 d6 01 	lds	r24, 0x01D6	; 0x8001d6 <count_senha>
     ffc:	90 91 d7 01 	lds	r25, 0x01D7	; 0x8001d7 <count_senha+0x1>
    1000:	0e 94 1b 1d 	call	0x3a36	; 0x3a36 <insert_senha>
    1004:	80 91 d6 01 	lds	r24, 0x01D6	; 0x8001d6 <count_senha>
    1008:	90 91 d7 01 	lds	r25, 0x01D7	; 0x8001d7 <count_senha+0x1>
    100c:	01 96       	adiw	r24, 0x01	; 1
    100e:	90 93 d7 01 	sts	0x01D7, r25	; 0x8001d7 <count_senha+0x1>
    1012:	80 93 d6 01 	sts	0x01D6, r24	; 0x8001d6 <count_senha>
    1016:	91 e0       	ldi	r25, 0x01	; 1
    1018:	80 91 da 01 	lds	r24, 0x01DA	; 0x8001da <state>
    101c:	8b 30       	cpi	r24, 0x0B	; 11
    101e:	09 f0       	breq	.+2      	; 0x1022 <__stack+0x723>
    1020:	90 e0       	ldi	r25, 0x00	; 0
    1022:	81 e0       	ldi	r24, 0x01	; 1
    1024:	20 91 d6 01 	lds	r18, 0x01D6	; 0x8001d6 <count_senha>
    1028:	30 91 d7 01 	lds	r19, 0x01D7	; 0x8001d7 <count_senha+0x1>
    102c:	24 30       	cpi	r18, 0x04	; 4
    102e:	31 05       	cpc	r19, r1
    1030:	0c f0       	brlt	.+2      	; 0x1034 <__stack+0x735>
    1032:	80 e0       	ldi	r24, 0x00	; 0
    1034:	89 23       	and	r24, r25
    1036:	a9 f0       	breq	.+42     	; 0x1062 <__stack+0x763>
    1038:	85 e3       	ldi	r24, 0x35	; 53
    103a:	0e 94 38 1b 	call	0x3670	; 0x3670 <send_word_lcd>
    103e:	4d ec       	ldi	r20, 0xCD	; 205
    1040:	52 e0       	ldi	r21, 0x02	; 2
    1042:	60 e0       	ldi	r22, 0x00	; 0
    1044:	80 91 d6 01 	lds	r24, 0x01D6	; 0x8001d6 <count_senha>
    1048:	90 91 d7 01 	lds	r25, 0x01D7	; 0x8001d7 <count_senha+0x1>
    104c:	0e 94 1b 1d 	call	0x3a36	; 0x3a36 <insert_senha>
    1050:	80 91 d6 01 	lds	r24, 0x01D6	; 0x8001d6 <count_senha>
    1054:	90 91 d7 01 	lds	r25, 0x01D7	; 0x8001d7 <count_senha+0x1>
    1058:	01 96       	adiw	r24, 0x01	; 1
    105a:	90 93 d7 01 	sts	0x01D7, r25	; 0x8001d7 <count_senha+0x1>
    105e:	80 93 d6 01 	sts	0x01D6, r24	; 0x8001d6 <count_senha>
    1062:	91 e0       	ldi	r25, 0x01	; 1
    1064:	80 91 da 01 	lds	r24, 0x01DA	; 0x8001da <state>
    1068:	8f 30       	cpi	r24, 0x0F	; 15
    106a:	09 f0       	breq	.+2      	; 0x106e <__stack+0x76f>
    106c:	90 e0       	ldi	r25, 0x00	; 0
    106e:	81 e0       	ldi	r24, 0x01	; 1
    1070:	20 91 d0 01 	lds	r18, 0x01D0	; 0x8001d0 <flag_sensor>
    1074:	30 91 d1 01 	lds	r19, 0x01D1	; 0x8001d1 <flag_sensor+0x1>
    1078:	23 2b       	or	r18, r19
    107a:	09 f0       	breq	.+2      	; 0x107e <__stack+0x77f>
    107c:	80 e0       	ldi	r24, 0x00	; 0
    107e:	89 23       	and	r24, r25
    1080:	21 f0       	breq	.+8      	; 0x108a <__stack+0x78b>
    1082:	85 e0       	ldi	r24, 0x05	; 5
    1084:	90 e0       	ldi	r25, 0x00	; 0
    1086:	0e 94 58 14 	call	0x28b0	; 0x28b0 <hab_sensor>
    108a:	91 e0       	ldi	r25, 0x01	; 1
    108c:	80 91 da 01 	lds	r24, 0x01DA	; 0x8001da <state>
    1090:	87 30       	cpi	r24, 0x07	; 7
    1092:	09 f0       	breq	.+2      	; 0x1096 <__stack+0x797>
    1094:	90 e0       	ldi	r25, 0x00	; 0
    1096:	21 e0       	ldi	r18, 0x01	; 1
    1098:	40 91 d8 01 	lds	r20, 0x01D8	; 0x8001d8 <flag_a_senha>
    109c:	50 91 d9 01 	lds	r21, 0x01D9	; 0x8001d9 <flag_a_senha+0x1>
    10a0:	45 2b       	or	r20, r21
    10a2:	09 f0       	breq	.+2      	; 0x10a6 <__stack+0x7a7>
    10a4:	20 e0       	ldi	r18, 0x00	; 0
    10a6:	81 e0       	ldi	r24, 0x01	; 1
    10a8:	40 91 c2 01 	lds	r20, 0x01C2	; 0x8001c2 <flag_timeout>
    10ac:	50 91 c3 01 	lds	r21, 0x01C3	; 0x8001c3 <flag_timeout+0x1>
    10b0:	45 2b       	or	r20, r21
    10b2:	09 f0       	breq	.+2      	; 0x10b6 <__stack+0x7b7>
    10b4:	80 e0       	ldi	r24, 0x00	; 0
    10b6:	82 23       	and	r24, r18
    10b8:	99 23       	and	r25, r25
    10ba:	a9 f0       	breq	.+42     	; 0x10e6 <__stack+0x7e7>
    10bc:	88 23       	and	r24, r24
    10be:	99 f0       	breq	.+38     	; 0x10e6 <__stack+0x7e7>
    10c0:	80 e1       	ldi	r24, 0x10	; 16
    10c2:	80 93 da 01 	sts	0x01DA, r24	; 0x8001da <state>
    10c6:	80 91 ce 01 	lds	r24, 0x01CE	; 0x8001ce <flag_D_sensor>
    10ca:	90 91 cf 01 	lds	r25, 0x01CF	; 0x8001cf <flag_D_sensor+0x1>
    10ce:	89 2b       	or	r24, r25
    10d0:	11 f4       	brne	.+4      	; 0x10d6 <__stack+0x7d7>
    10d2:	0e 94 96 17 	call	0x2f2c	; 0x2f2c <msg_h_zona>
    10d6:	80 91 ce 01 	lds	r24, 0x01CE	; 0x8001ce <flag_D_sensor>
    10da:	90 91 cf 01 	lds	r25, 0x01CF	; 0x8001cf <flag_D_sensor+0x1>
    10de:	01 97       	sbiw	r24, 0x01	; 1
    10e0:	11 f4       	brne	.+4      	; 0x10e6 <__stack+0x7e7>
    10e2:	0e 94 c9 17 	call	0x2f92	; 0x2f92 <msg_d_zona>
    10e6:	90 91 da 01 	lds	r25, 0x01DA	; 0x8001da <state>
    10ea:	21 e0       	ldi	r18, 0x01	; 1
    10ec:	91 31       	cpi	r25, 0x11	; 17
    10ee:	09 f0       	breq	.+2      	; 0x10f2 <__stack+0x7f3>
    10f0:	20 e0       	ldi	r18, 0x00	; 0
    10f2:	31 e0       	ldi	r19, 0x01	; 1
    10f4:	40 91 c8 01 	lds	r20, 0x01C8	; 0x8001c8 <flag_z1>
    10f8:	50 91 c9 01 	lds	r21, 0x01C9	; 0x8001c9 <flag_z1+0x1>
    10fc:	45 2b       	or	r20, r21
    10fe:	09 f0       	breq	.+2      	; 0x1102 <__stack+0x803>
    1100:	30 e0       	ldi	r19, 0x00	; 0
    1102:	81 e0       	ldi	r24, 0x01	; 1
    1104:	40 91 ca 01 	lds	r20, 0x01CA	; 0x8001ca <flag_z>
    1108:	50 91 cb 01 	lds	r21, 0x01CB	; 0x8001cb <flag_z+0x1>
    110c:	45 2b       	or	r20, r21
    110e:	09 f0       	breq	.+2      	; 0x1112 <__stack+0x813>
    1110:	80 e0       	ldi	r24, 0x00	; 0
    1112:	83 23       	and	r24, r19
    1114:	22 23       	and	r18, r18
    1116:	71 f0       	breq	.+28     	; 0x1134 <__stack+0x835>
    1118:	88 23       	and	r24, r24
    111a:	61 f0       	breq	.+24     	; 0x1134 <__stack+0x835>
    111c:	25 e0       	ldi	r18, 0x05	; 5
    111e:	30 e0       	ldi	r19, 0x00	; 0
    1120:	30 93 01 01 	sts	0x0101, r19	; 0x800101 <__DATA_REGION_ORIGIN__+0x1>
    1124:	20 93 00 01 	sts	0x0100, r18	; 0x800100 <__DATA_REGION_ORIGIN__>
    1128:	21 e0       	ldi	r18, 0x01	; 1
    112a:	30 e0       	ldi	r19, 0x00	; 0
    112c:	30 93 c9 01 	sts	0x01C9, r19	; 0x8001c9 <flag_z1+0x1>
    1130:	20 93 c8 01 	sts	0x01C8, r18	; 0x8001c8 <flag_z1>
    1134:	20 91 bc 01 	lds	r18, 0x01BC	; 0x8001bc <cont_t>
    1138:	30 91 bd 01 	lds	r19, 0x01BD	; 0x8001bd <cont_t+0x1>
    113c:	41 e0       	ldi	r20, 0x01	; 1
    113e:	93 31       	cpi	r25, 0x13	; 19
    1140:	09 f0       	breq	.+2      	; 0x1144 <__stack+0x845>
    1142:	40 e0       	ldi	r20, 0x00	; 0
    1144:	81 e0       	ldi	r24, 0x01	; 1
    1146:	22 30       	cpi	r18, 0x02	; 2
    1148:	31 05       	cpc	r19, r1
    114a:	0c f0       	brlt	.+2      	; 0x114e <__stack+0x84f>
    114c:	80 e0       	ldi	r24, 0x00	; 0
    114e:	84 23       	and	r24, r20
    1150:	79 f0       	breq	.+30     	; 0x1170 <__stack+0x871>
    1152:	f9 01       	movw	r30, r18
    1154:	ee 0f       	add	r30, r30
    1156:	ff 1f       	adc	r31, r31
    1158:	e4 5f       	subi	r30, 0xF4	; 244
    115a:	fe 4f       	sbci	r31, 0xFE	; 254
    115c:	45 e0       	ldi	r20, 0x05	; 5
    115e:	50 e0       	ldi	r21, 0x00	; 0
    1160:	51 83       	std	Z+1, r21	; 0x01
    1162:	40 83       	st	Z, r20
    1164:	2f 5f       	subi	r18, 0xFF	; 255
    1166:	3f 4f       	sbci	r19, 0xFF	; 255
    1168:	30 93 bd 01 	sts	0x01BD, r19	; 0x8001bd <cont_t+0x1>
    116c:	20 93 bc 01 	sts	0x01BC, r18	; 0x8001bc <cont_t>
    1170:	81 e0       	ldi	r24, 0x01	; 1
    1172:	20 91 bc 01 	lds	r18, 0x01BC	; 0x8001bc <cont_t>
    1176:	30 91 bd 01 	lds	r19, 0x01BD	; 0x8001bd <cont_t+0x1>
    117a:	23 30       	cpi	r18, 0x03	; 3
    117c:	31 05       	cpc	r19, r1
    117e:	0c f0       	brlt	.+2      	; 0x1182 <__stack+0x883>
    1180:	80 e0       	ldi	r24, 0x00	; 0
    1182:	21 e0       	ldi	r18, 0x01	; 1
    1184:	94 31       	cpi	r25, 0x14	; 20
    1186:	09 f0       	breq	.+2      	; 0x118a <__stack+0x88b>
    1188:	20 e0       	ldi	r18, 0x00	; 0
    118a:	28 23       	and	r18, r24
    118c:	99 f0       	breq	.+38     	; 0x11b4 <__stack+0x8b5>
    118e:	20 91 b8 01 	lds	r18, 0x01B8	; 0x8001b8 <cont_s>
    1192:	30 91 b9 01 	lds	r19, 0x01B9	; 0x8001b9 <cont_s+0x1>
    1196:	f9 01       	movw	r30, r18
    1198:	ee 0f       	add	r30, r30
    119a:	ff 1f       	adc	r31, r31
    119c:	e7 5d       	subi	r30, 0xD7	; 215
    119e:	fe 4f       	sbci	r31, 0xFE	; 254
    11a0:	45 e0       	ldi	r20, 0x05	; 5
    11a2:	50 e0       	ldi	r21, 0x00	; 0
    11a4:	51 83       	std	Z+1, r21	; 0x01
    11a6:	40 83       	st	Z, r20
    11a8:	2f 5f       	subi	r18, 0xFF	; 255
    11aa:	3f 4f       	sbci	r19, 0xFF	; 255
    11ac:	30 93 b9 01 	sts	0x01B9, r19	; 0x8001b9 <cont_s+0x1>
    11b0:	20 93 b8 01 	sts	0x01B8, r18	; 0x8001b8 <cont_s>
    11b4:	21 e0       	ldi	r18, 0x01	; 1
    11b6:	92 31       	cpi	r25, 0x12	; 18
    11b8:	09 f0       	breq	.+2      	; 0x11bc <__stack+0x8bd>
    11ba:	20 e0       	ldi	r18, 0x00	; 0
    11bc:	82 23       	and	r24, r18
    11be:	11 f4       	brne	.+4      	; 0x11c4 <__stack+0x8c5>
    11c0:	0c 94 e9 10 	jmp	0x21d2	; 0x21d2 <__stack+0x18d3>
    11c4:	80 91 ba 01 	lds	r24, 0x01BA	; 0x8001ba <cont_aa>
    11c8:	90 91 bb 01 	lds	r25, 0x01BB	; 0x8001bb <cont_aa+0x1>
    11cc:	fc 01       	movw	r30, r24
    11ce:	ee 0f       	add	r30, r30
    11d0:	ff 1f       	adc	r31, r31
    11d2:	ef 5d       	subi	r30, 0xDF	; 223
    11d4:	fe 4f       	sbci	r31, 0xFE	; 254
    11d6:	25 e0       	ldi	r18, 0x05	; 5
    11d8:	30 e0       	ldi	r19, 0x00	; 0
    11da:	31 83       	std	Z+1, r19	; 0x01
    11dc:	20 83       	st	Z, r18
    11de:	01 96       	adiw	r24, 0x01	; 1
    11e0:	90 93 bb 01 	sts	0x01BB, r25	; 0x8001bb <cont_aa+0x1>
    11e4:	80 93 ba 01 	sts	0x01BA, r24	; 0x8001ba <cont_aa>
    11e8:	0c 94 e9 10 	jmp	0x21d2	; 0x21d2 <__stack+0x18d3>
    11ec:	80 39       	cpi	r24, 0x90	; 144
    11ee:	91 05       	cpc	r25, r1
    11f0:	09 f0       	breq	.+2      	; 0x11f4 <__stack+0x8f5>
    11f2:	5c c1       	rjmp	.+696    	; 0x14ac <__stack+0xbad>
    11f4:	91 e0       	ldi	r25, 0x01	; 1
    11f6:	80 91 da 01 	lds	r24, 0x01DA	; 0x8001da <state>
    11fa:	88 30       	cpi	r24, 0x08	; 8
    11fc:	09 f0       	breq	.+2      	; 0x1200 <__stack+0x901>
    11fe:	90 e0       	ldi	r25, 0x00	; 0
    1200:	81 e0       	ldi	r24, 0x01	; 1
    1202:	20 91 d6 01 	lds	r18, 0x01D6	; 0x8001d6 <count_senha>
    1206:	30 91 d7 01 	lds	r19, 0x01D7	; 0x8001d7 <count_senha+0x1>
    120a:	24 30       	cpi	r18, 0x04	; 4
    120c:	31 05       	cpc	r19, r1
    120e:	0c f0       	brlt	.+2      	; 0x1212 <__stack+0x913>
    1210:	80 e0       	ldi	r24, 0x00	; 0
    1212:	89 23       	and	r24, r25
    1214:	a9 f0       	breq	.+42     	; 0x1240 <__stack+0x941>
    1216:	86 e3       	ldi	r24, 0x36	; 54
    1218:	0e 94 38 1b 	call	0x3670	; 0x3670 <send_word_lcd>
    121c:	4f ec       	ldi	r20, 0xCF	; 207
    121e:	52 e0       	ldi	r21, 0x02	; 2
    1220:	60 e0       	ldi	r22, 0x00	; 0
    1222:	80 91 d6 01 	lds	r24, 0x01D6	; 0x8001d6 <count_senha>
    1226:	90 91 d7 01 	lds	r25, 0x01D7	; 0x8001d7 <count_senha+0x1>
    122a:	0e 94 1b 1d 	call	0x3a36	; 0x3a36 <insert_senha>
    122e:	80 91 d6 01 	lds	r24, 0x01D6	; 0x8001d6 <count_senha>
    1232:	90 91 d7 01 	lds	r25, 0x01D7	; 0x8001d7 <count_senha+0x1>
    1236:	01 96       	adiw	r24, 0x01	; 1
    1238:	90 93 d7 01 	sts	0x01D7, r25	; 0x8001d7 <count_senha+0x1>
    123c:	80 93 d6 01 	sts	0x01D6, r24	; 0x8001d6 <count_senha>
    1240:	91 e0       	ldi	r25, 0x01	; 1
    1242:	80 91 da 01 	lds	r24, 0x01DA	; 0x8001da <state>
    1246:	89 30       	cpi	r24, 0x09	; 9
    1248:	09 f0       	breq	.+2      	; 0x124c <__stack+0x94d>
    124a:	90 e0       	ldi	r25, 0x00	; 0
    124c:	81 e0       	ldi	r24, 0x01	; 1
    124e:	20 91 d6 01 	lds	r18, 0x01D6	; 0x8001d6 <count_senha>
    1252:	30 91 d7 01 	lds	r19, 0x01D7	; 0x8001d7 <count_senha+0x1>
    1256:	24 30       	cpi	r18, 0x04	; 4
    1258:	31 05       	cpc	r19, r1
    125a:	0c f0       	brlt	.+2      	; 0x125e <__stack+0x95f>
    125c:	80 e0       	ldi	r24, 0x00	; 0
    125e:	89 23       	and	r24, r25
    1260:	a9 f0       	breq	.+42     	; 0x128c <__stack+0x98d>
    1262:	86 e3       	ldi	r24, 0x36	; 54
    1264:	0e 94 38 1b 	call	0x3670	; 0x3670 <send_word_lcd>
    1268:	4f ec       	ldi	r20, 0xCF	; 207
    126a:	52 e0       	ldi	r21, 0x02	; 2
    126c:	60 e0       	ldi	r22, 0x00	; 0
    126e:	80 91 d6 01 	lds	r24, 0x01D6	; 0x8001d6 <count_senha>
    1272:	90 91 d7 01 	lds	r25, 0x01D7	; 0x8001d7 <count_senha+0x1>
    1276:	0e 94 73 1a 	call	0x34e6	; 0x34e6 <senha_arm>
    127a:	80 91 d6 01 	lds	r24, 0x01D6	; 0x8001d6 <count_senha>
    127e:	90 91 d7 01 	lds	r25, 0x01D7	; 0x8001d7 <count_senha+0x1>
    1282:	01 96       	adiw	r24, 0x01	; 1
    1284:	90 93 d7 01 	sts	0x01D7, r25	; 0x8001d7 <count_senha+0x1>
    1288:	80 93 d6 01 	sts	0x01D6, r24	; 0x8001d6 <count_senha>
    128c:	91 e0       	ldi	r25, 0x01	; 1
    128e:	80 91 da 01 	lds	r24, 0x01DA	; 0x8001da <state>
    1292:	8a 30       	cpi	r24, 0x0A	; 10
    1294:	09 f0       	breq	.+2      	; 0x1298 <__stack+0x999>
    1296:	90 e0       	ldi	r25, 0x00	; 0
    1298:	81 e0       	ldi	r24, 0x01	; 1
    129a:	20 91 d6 01 	lds	r18, 0x01D6	; 0x8001d6 <count_senha>
    129e:	30 91 d7 01 	lds	r19, 0x01D7	; 0x8001d7 <count_senha+0x1>
    12a2:	24 30       	cpi	r18, 0x04	; 4
    12a4:	31 05       	cpc	r19, r1
    12a6:	0c f0       	brlt	.+2      	; 0x12aa <__stack+0x9ab>
    12a8:	80 e0       	ldi	r24, 0x00	; 0
    12aa:	89 23       	and	r24, r25
    12ac:	a9 f0       	breq	.+42     	; 0x12d8 <__stack+0x9d9>
    12ae:	86 e3       	ldi	r24, 0x36	; 54
    12b0:	0e 94 38 1b 	call	0x3670	; 0x3670 <send_word_lcd>
    12b4:	4f ec       	ldi	r20, 0xCF	; 207
    12b6:	52 e0       	ldi	r21, 0x02	; 2
    12b8:	60 e0       	ldi	r22, 0x00	; 0
    12ba:	80 91 d6 01 	lds	r24, 0x01D6	; 0x8001d6 <count_senha>
    12be:	90 91 d7 01 	lds	r25, 0x01D7	; 0x8001d7 <count_senha+0x1>
    12c2:	0e 94 1b 1d 	call	0x3a36	; 0x3a36 <insert_senha>
    12c6:	80 91 d6 01 	lds	r24, 0x01D6	; 0x8001d6 <count_senha>
    12ca:	90 91 d7 01 	lds	r25, 0x01D7	; 0x8001d7 <count_senha+0x1>
    12ce:	01 96       	adiw	r24, 0x01	; 1
    12d0:	90 93 d7 01 	sts	0x01D7, r25	; 0x8001d7 <count_senha+0x1>
    12d4:	80 93 d6 01 	sts	0x01D6, r24	; 0x8001d6 <count_senha>
    12d8:	91 e0       	ldi	r25, 0x01	; 1
    12da:	80 91 da 01 	lds	r24, 0x01DA	; 0x8001da <state>
    12de:	8b 30       	cpi	r24, 0x0B	; 11
    12e0:	09 f0       	breq	.+2      	; 0x12e4 <__stack+0x9e5>
    12e2:	90 e0       	ldi	r25, 0x00	; 0
    12e4:	81 e0       	ldi	r24, 0x01	; 1
    12e6:	20 91 d6 01 	lds	r18, 0x01D6	; 0x8001d6 <count_senha>
    12ea:	30 91 d7 01 	lds	r19, 0x01D7	; 0x8001d7 <count_senha+0x1>
    12ee:	24 30       	cpi	r18, 0x04	; 4
    12f0:	31 05       	cpc	r19, r1
    12f2:	0c f0       	brlt	.+2      	; 0x12f6 <__stack+0x9f7>
    12f4:	80 e0       	ldi	r24, 0x00	; 0
    12f6:	89 23       	and	r24, r25
    12f8:	a9 f0       	breq	.+42     	; 0x1324 <__stack+0xa25>
    12fa:	86 e3       	ldi	r24, 0x36	; 54
    12fc:	0e 94 38 1b 	call	0x3670	; 0x3670 <send_word_lcd>
    1300:	4f ec       	ldi	r20, 0xCF	; 207
    1302:	52 e0       	ldi	r21, 0x02	; 2
    1304:	60 e0       	ldi	r22, 0x00	; 0
    1306:	80 91 d6 01 	lds	r24, 0x01D6	; 0x8001d6 <count_senha>
    130a:	90 91 d7 01 	lds	r25, 0x01D7	; 0x8001d7 <count_senha+0x1>
    130e:	0e 94 1b 1d 	call	0x3a36	; 0x3a36 <insert_senha>
    1312:	80 91 d6 01 	lds	r24, 0x01D6	; 0x8001d6 <count_senha>
    1316:	90 91 d7 01 	lds	r25, 0x01D7	; 0x8001d7 <count_senha+0x1>
    131a:	01 96       	adiw	r24, 0x01	; 1
    131c:	90 93 d7 01 	sts	0x01D7, r25	; 0x8001d7 <count_senha+0x1>
    1320:	80 93 d6 01 	sts	0x01D6, r24	; 0x8001d6 <count_senha>
    1324:	91 e0       	ldi	r25, 0x01	; 1
    1326:	80 91 da 01 	lds	r24, 0x01DA	; 0x8001da <state>
    132a:	8f 30       	cpi	r24, 0x0F	; 15
    132c:	09 f0       	breq	.+2      	; 0x1330 <__stack+0xa31>
    132e:	90 e0       	ldi	r25, 0x00	; 0
    1330:	81 e0       	ldi	r24, 0x01	; 1
    1332:	20 91 d0 01 	lds	r18, 0x01D0	; 0x8001d0 <flag_sensor>
    1336:	30 91 d1 01 	lds	r19, 0x01D1	; 0x8001d1 <flag_sensor+0x1>
    133a:	23 2b       	or	r18, r19
    133c:	09 f0       	breq	.+2      	; 0x1340 <__stack+0xa41>
    133e:	80 e0       	ldi	r24, 0x00	; 0
    1340:	89 23       	and	r24, r25
    1342:	21 f0       	breq	.+8      	; 0x134c <__stack+0xa4d>
    1344:	86 e0       	ldi	r24, 0x06	; 6
    1346:	90 e0       	ldi	r25, 0x00	; 0
    1348:	0e 94 58 14 	call	0x28b0	; 0x28b0 <hab_sensor>
    134c:	80 91 da 01 	lds	r24, 0x01DA	; 0x8001da <state>
    1350:	21 e0       	ldi	r18, 0x01	; 1
    1352:	81 31       	cpi	r24, 0x11	; 17
    1354:	09 f0       	breq	.+2      	; 0x1358 <__stack+0xa59>
    1356:	20 e0       	ldi	r18, 0x00	; 0
    1358:	31 e0       	ldi	r19, 0x01	; 1
    135a:	40 91 c8 01 	lds	r20, 0x01C8	; 0x8001c8 <flag_z1>
    135e:	50 91 c9 01 	lds	r21, 0x01C9	; 0x8001c9 <flag_z1+0x1>
    1362:	45 2b       	or	r20, r21
    1364:	09 f0       	breq	.+2      	; 0x1368 <__stack+0xa69>
    1366:	30 e0       	ldi	r19, 0x00	; 0
    1368:	91 e0       	ldi	r25, 0x01	; 1
    136a:	40 91 ca 01 	lds	r20, 0x01CA	; 0x8001ca <flag_z>
    136e:	50 91 cb 01 	lds	r21, 0x01CB	; 0x8001cb <flag_z+0x1>
    1372:	45 2b       	or	r20, r21
    1374:	09 f0       	breq	.+2      	; 0x1378 <__stack+0xa79>
    1376:	90 e0       	ldi	r25, 0x00	; 0
    1378:	93 23       	and	r25, r19
    137a:	22 23       	and	r18, r18
    137c:	71 f0       	breq	.+28     	; 0x139a <__stack+0xa9b>
    137e:	99 23       	and	r25, r25
    1380:	61 f0       	breq	.+24     	; 0x139a <__stack+0xa9b>
    1382:	26 e0       	ldi	r18, 0x06	; 6
    1384:	30 e0       	ldi	r19, 0x00	; 0
    1386:	30 93 01 01 	sts	0x0101, r19	; 0x800101 <__DATA_REGION_ORIGIN__+0x1>
    138a:	20 93 00 01 	sts	0x0100, r18	; 0x800100 <__DATA_REGION_ORIGIN__>
    138e:	21 e0       	ldi	r18, 0x01	; 1
    1390:	30 e0       	ldi	r19, 0x00	; 0
    1392:	30 93 c9 01 	sts	0x01C9, r19	; 0x8001c9 <flag_z1+0x1>
    1396:	20 93 c8 01 	sts	0x01C8, r18	; 0x8001c8 <flag_z1>
    139a:	20 91 bc 01 	lds	r18, 0x01BC	; 0x8001bc <cont_t>
    139e:	30 91 bd 01 	lds	r19, 0x01BD	; 0x8001bd <cont_t+0x1>
    13a2:	41 e0       	ldi	r20, 0x01	; 1
    13a4:	83 31       	cpi	r24, 0x13	; 19
    13a6:	09 f0       	breq	.+2      	; 0x13aa <__stack+0xaab>
    13a8:	40 e0       	ldi	r20, 0x00	; 0
    13aa:	91 e0       	ldi	r25, 0x01	; 1
    13ac:	22 30       	cpi	r18, 0x02	; 2
    13ae:	31 05       	cpc	r19, r1
    13b0:	0c f0       	brlt	.+2      	; 0x13b4 <__stack+0xab5>
    13b2:	90 e0       	ldi	r25, 0x00	; 0
    13b4:	94 23       	and	r25, r20
    13b6:	79 f0       	breq	.+30     	; 0x13d6 <__stack+0xad7>
    13b8:	f9 01       	movw	r30, r18
    13ba:	ee 0f       	add	r30, r30
    13bc:	ff 1f       	adc	r31, r31
    13be:	e4 5f       	subi	r30, 0xF4	; 244
    13c0:	fe 4f       	sbci	r31, 0xFE	; 254
    13c2:	46 e0       	ldi	r20, 0x06	; 6
    13c4:	50 e0       	ldi	r21, 0x00	; 0
    13c6:	51 83       	std	Z+1, r21	; 0x01
    13c8:	40 83       	st	Z, r20
    13ca:	2f 5f       	subi	r18, 0xFF	; 255
    13cc:	3f 4f       	sbci	r19, 0xFF	; 255
    13ce:	30 93 bd 01 	sts	0x01BD, r19	; 0x8001bd <cont_t+0x1>
    13d2:	20 93 bc 01 	sts	0x01BC, r18	; 0x8001bc <cont_t>
    13d6:	21 e0       	ldi	r18, 0x01	; 1
    13d8:	40 91 bc 01 	lds	r20, 0x01BC	; 0x8001bc <cont_t>
    13dc:	50 91 bd 01 	lds	r21, 0x01BD	; 0x8001bd <cont_t+0x1>
    13e0:	43 30       	cpi	r20, 0x03	; 3
    13e2:	51 05       	cpc	r21, r1
    13e4:	0c f0       	brlt	.+2      	; 0x13e8 <__stack+0xae9>
    13e6:	20 e0       	ldi	r18, 0x00	; 0
    13e8:	91 e0       	ldi	r25, 0x01	; 1
    13ea:	84 31       	cpi	r24, 0x14	; 20
    13ec:	09 f0       	breq	.+2      	; 0x13f0 <__stack+0xaf1>
    13ee:	90 e0       	ldi	r25, 0x00	; 0
    13f0:	92 23       	and	r25, r18
    13f2:	99 f0       	breq	.+38     	; 0x141a <__stack+0xb1b>
    13f4:	20 91 b8 01 	lds	r18, 0x01B8	; 0x8001b8 <cont_s>
    13f8:	30 91 b9 01 	lds	r19, 0x01B9	; 0x8001b9 <cont_s+0x1>
    13fc:	f9 01       	movw	r30, r18
    13fe:	ee 0f       	add	r30, r30
    1400:	ff 1f       	adc	r31, r31
    1402:	e7 5d       	subi	r30, 0xD7	; 215
    1404:	fe 4f       	sbci	r31, 0xFE	; 254
    1406:	46 e0       	ldi	r20, 0x06	; 6
    1408:	50 e0       	ldi	r21, 0x00	; 0
    140a:	51 83       	std	Z+1, r21	; 0x01
    140c:	40 83       	st	Z, r20
    140e:	2f 5f       	subi	r18, 0xFF	; 255
    1410:	3f 4f       	sbci	r19, 0xFF	; 255
    1412:	30 93 b9 01 	sts	0x01B9, r19	; 0x8001b9 <cont_s+0x1>
    1416:	20 93 b8 01 	sts	0x01B8, r18	; 0x8001b8 <cont_s>
    141a:	91 e0       	ldi	r25, 0x01	; 1
    141c:	87 30       	cpi	r24, 0x07	; 7
    141e:	09 f0       	breq	.+2      	; 0x1422 <__stack+0xb23>
    1420:	90 e0       	ldi	r25, 0x00	; 0
    1422:	21 e0       	ldi	r18, 0x01	; 1
    1424:	40 91 d8 01 	lds	r20, 0x01D8	; 0x8001d8 <flag_a_senha>
    1428:	50 91 d9 01 	lds	r21, 0x01D9	; 0x8001d9 <flag_a_senha+0x1>
    142c:	45 2b       	or	r20, r21
    142e:	09 f0       	breq	.+2      	; 0x1432 <__stack+0xb33>
    1430:	20 e0       	ldi	r18, 0x00	; 0
    1432:	81 e0       	ldi	r24, 0x01	; 1
    1434:	40 91 c2 01 	lds	r20, 0x01C2	; 0x8001c2 <flag_timeout>
    1438:	50 91 c3 01 	lds	r21, 0x01C3	; 0x8001c3 <flag_timeout+0x1>
    143c:	45 2b       	or	r20, r21
    143e:	09 f0       	breq	.+2      	; 0x1442 <__stack+0xb43>
    1440:	80 e0       	ldi	r24, 0x00	; 0
    1442:	82 23       	and	r24, r18
    1444:	99 23       	and	r25, r25
    1446:	69 f0       	breq	.+26     	; 0x1462 <__stack+0xb63>
    1448:	88 23       	and	r24, r24
    144a:	59 f0       	breq	.+22     	; 0x1462 <__stack+0xb63>
    144c:	82 e1       	ldi	r24, 0x12	; 18
    144e:	80 93 da 01 	sts	0x01DA, r24	; 0x8001da <state>
    1452:	81 e0       	ldi	r24, 0x01	; 1
    1454:	90 e0       	ldi	r25, 0x00	; 0
    1456:	90 93 bf 01 	sts	0x01BF, r25	; 0x8001bf <flag_tat+0x1>
    145a:	80 93 be 01 	sts	0x01BE, r24	; 0x8001be <flag_tat>
    145e:	0e 94 c8 18 	call	0x3190	; 0x3190 <msg_temp_ativ>
    1462:	91 e0       	ldi	r25, 0x01	; 1
    1464:	80 91 da 01 	lds	r24, 0x01DA	; 0x8001da <state>
    1468:	82 31       	cpi	r24, 0x12	; 18
    146a:	09 f0       	breq	.+2      	; 0x146e <__stack+0xb6f>
    146c:	90 e0       	ldi	r25, 0x00	; 0
    146e:	81 e0       	ldi	r24, 0x01	; 1
    1470:	20 91 bc 01 	lds	r18, 0x01BC	; 0x8001bc <cont_t>
    1474:	30 91 bd 01 	lds	r19, 0x01BD	; 0x8001bd <cont_t+0x1>
    1478:	23 30       	cpi	r18, 0x03	; 3
    147a:	31 05       	cpc	r19, r1
    147c:	0c f0       	brlt	.+2      	; 0x1480 <__stack+0xb81>
    147e:	80 e0       	ldi	r24, 0x00	; 0
    1480:	89 23       	and	r24, r25
    1482:	09 f4       	brne	.+2      	; 0x1486 <__stack+0xb87>
    1484:	a6 c6       	rjmp	.+3404   	; 0x21d2 <__stack+0x18d3>
    1486:	80 91 ba 01 	lds	r24, 0x01BA	; 0x8001ba <cont_aa>
    148a:	90 91 bb 01 	lds	r25, 0x01BB	; 0x8001bb <cont_aa+0x1>
    148e:	fc 01       	movw	r30, r24
    1490:	ee 0f       	add	r30, r30
    1492:	ff 1f       	adc	r31, r31
    1494:	ef 5d       	subi	r30, 0xDF	; 223
    1496:	fe 4f       	sbci	r31, 0xFE	; 254
    1498:	26 e0       	ldi	r18, 0x06	; 6
    149a:	30 e0       	ldi	r19, 0x00	; 0
    149c:	31 83       	std	Z+1, r19	; 0x01
    149e:	20 83       	st	Z, r18
    14a0:	01 96       	adiw	r24, 0x01	; 1
    14a2:	90 93 bb 01 	sts	0x01BB, r25	; 0x8001bb <cont_aa+0x1>
    14a6:	80 93 ba 01 	sts	0x01BA, r24	; 0x8001ba <cont_aa>
    14aa:	93 c6       	rjmp	.+3366   	; 0x21d2 <__stack+0x18d3>
    14ac:	80 38       	cpi	r24, 0x80	; 128
    14ae:	91 05       	cpc	r25, r1
    14b0:	19 f5       	brne	.+70     	; 0x14f8 <__stack+0xbf9>
    14b2:	91 e0       	ldi	r25, 0x01	; 1
    14b4:	80 91 da 01 	lds	r24, 0x01DA	; 0x8001da <state>
    14b8:	88 30       	cpi	r24, 0x08	; 8
    14ba:	09 f0       	breq	.+2      	; 0x14be <__stack+0xbbf>
    14bc:	90 e0       	ldi	r25, 0x00	; 0
    14be:	81 e0       	ldi	r24, 0x01	; 1
    14c0:	20 91 d6 01 	lds	r18, 0x01D6	; 0x8001d6 <count_senha>
    14c4:	30 91 d7 01 	lds	r19, 0x01D7	; 0x8001d7 <count_senha+0x1>
    14c8:	24 30       	cpi	r18, 0x04	; 4
    14ca:	31 05       	cpc	r19, r1
    14cc:	09 f0       	breq	.+2      	; 0x14d0 <__stack+0xbd1>
    14ce:	80 e0       	ldi	r24, 0x00	; 0
    14d0:	89 23       	and	r24, r25
    14d2:	39 f0       	breq	.+14     	; 0x14e2 <__stack+0xbe3>
    14d4:	8c e0       	ldi	r24, 0x0C	; 12
    14d6:	80 93 da 01 	sts	0x01DA, r24	; 0x8001da <state>
    14da:	10 92 d7 01 	sts	0x01D7, r1	; 0x8001d7 <count_senha+0x1>
    14de:	10 92 d6 01 	sts	0x01D6, r1	; 0x8001d6 <count_senha>
    14e2:	80 91 da 01 	lds	r24, 0x01DA	; 0x8001da <state>
    14e6:	81 30       	cpi	r24, 0x01	; 1
    14e8:	09 f0       	breq	.+2      	; 0x14ec <__stack+0xbed>
    14ea:	73 c6       	rjmp	.+3302   	; 0x21d2 <__stack+0x18d3>
    14ec:	8a e0       	ldi	r24, 0x0A	; 10
    14ee:	80 93 da 01 	sts	0x01DA, r24	; 0x8001da <state>
    14f2:	0e 94 c3 1a 	call	0x3586	; 0x3586 <msg_inserir_senha>
    14f6:	6d c6       	rjmp	.+3290   	; 0x21d2 <__stack+0x18d3>
    14f8:	80 37       	cpi	r24, 0x70	; 112
    14fa:	91 05       	cpc	r25, r1
    14fc:	09 f0       	breq	.+2      	; 0x1500 <__stack+0xc01>
    14fe:	53 c1       	rjmp	.+678    	; 0x17a6 <__stack+0xea7>
    1500:	91 e0       	ldi	r25, 0x01	; 1
    1502:	80 91 da 01 	lds	r24, 0x01DA	; 0x8001da <state>
    1506:	88 30       	cpi	r24, 0x08	; 8
    1508:	09 f0       	breq	.+2      	; 0x150c <__stack+0xc0d>
    150a:	90 e0       	ldi	r25, 0x00	; 0
    150c:	81 e0       	ldi	r24, 0x01	; 1
    150e:	20 91 d6 01 	lds	r18, 0x01D6	; 0x8001d6 <count_senha>
    1512:	30 91 d7 01 	lds	r19, 0x01D7	; 0x8001d7 <count_senha+0x1>
    1516:	24 30       	cpi	r18, 0x04	; 4
    1518:	31 05       	cpc	r19, r1
    151a:	0c f0       	brlt	.+2      	; 0x151e <__stack+0xc1f>
    151c:	80 e0       	ldi	r24, 0x00	; 0
    151e:	89 23       	and	r24, r25
    1520:	a9 f0       	breq	.+42     	; 0x154c <__stack+0xc4d>
    1522:	87 e3       	ldi	r24, 0x37	; 55
    1524:	0e 94 38 1b 	call	0x3670	; 0x3670 <send_word_lcd>
    1528:	41 ed       	ldi	r20, 0xD1	; 209
    152a:	52 e0       	ldi	r21, 0x02	; 2
    152c:	60 e0       	ldi	r22, 0x00	; 0
    152e:	80 91 d6 01 	lds	r24, 0x01D6	; 0x8001d6 <count_senha>
    1532:	90 91 d7 01 	lds	r25, 0x01D7	; 0x8001d7 <count_senha+0x1>
    1536:	0e 94 1b 1d 	call	0x3a36	; 0x3a36 <insert_senha>
    153a:	80 91 d6 01 	lds	r24, 0x01D6	; 0x8001d6 <count_senha>
    153e:	90 91 d7 01 	lds	r25, 0x01D7	; 0x8001d7 <count_senha+0x1>
    1542:	01 96       	adiw	r24, 0x01	; 1
    1544:	90 93 d7 01 	sts	0x01D7, r25	; 0x8001d7 <count_senha+0x1>
    1548:	80 93 d6 01 	sts	0x01D6, r24	; 0x8001d6 <count_senha>
    154c:	91 e0       	ldi	r25, 0x01	; 1
    154e:	80 91 da 01 	lds	r24, 0x01DA	; 0x8001da <state>
    1552:	89 30       	cpi	r24, 0x09	; 9
    1554:	09 f0       	breq	.+2      	; 0x1558 <__stack+0xc59>
    1556:	90 e0       	ldi	r25, 0x00	; 0
    1558:	81 e0       	ldi	r24, 0x01	; 1
    155a:	20 91 d6 01 	lds	r18, 0x01D6	; 0x8001d6 <count_senha>
    155e:	30 91 d7 01 	lds	r19, 0x01D7	; 0x8001d7 <count_senha+0x1>
    1562:	24 30       	cpi	r18, 0x04	; 4
    1564:	31 05       	cpc	r19, r1
    1566:	0c f0       	brlt	.+2      	; 0x156a <__stack+0xc6b>
    1568:	80 e0       	ldi	r24, 0x00	; 0
    156a:	89 23       	and	r24, r25
    156c:	a9 f0       	breq	.+42     	; 0x1598 <__stack+0xc99>
    156e:	87 e3       	ldi	r24, 0x37	; 55
    1570:	0e 94 38 1b 	call	0x3670	; 0x3670 <send_word_lcd>
    1574:	41 ed       	ldi	r20, 0xD1	; 209
    1576:	52 e0       	ldi	r21, 0x02	; 2
    1578:	60 e0       	ldi	r22, 0x00	; 0
    157a:	80 91 d6 01 	lds	r24, 0x01D6	; 0x8001d6 <count_senha>
    157e:	90 91 d7 01 	lds	r25, 0x01D7	; 0x8001d7 <count_senha+0x1>
    1582:	0e 94 73 1a 	call	0x34e6	; 0x34e6 <senha_arm>
    1586:	80 91 d6 01 	lds	r24, 0x01D6	; 0x8001d6 <count_senha>
    158a:	90 91 d7 01 	lds	r25, 0x01D7	; 0x8001d7 <count_senha+0x1>
    158e:	01 96       	adiw	r24, 0x01	; 1
    1590:	90 93 d7 01 	sts	0x01D7, r25	; 0x8001d7 <count_senha+0x1>
    1594:	80 93 d6 01 	sts	0x01D6, r24	; 0x8001d6 <count_senha>
    1598:	91 e0       	ldi	r25, 0x01	; 1
    159a:	80 91 da 01 	lds	r24, 0x01DA	; 0x8001da <state>
    159e:	8a 30       	cpi	r24, 0x0A	; 10
    15a0:	09 f0       	breq	.+2      	; 0x15a4 <__stack+0xca5>
    15a2:	90 e0       	ldi	r25, 0x00	; 0
    15a4:	81 e0       	ldi	r24, 0x01	; 1
    15a6:	20 91 d6 01 	lds	r18, 0x01D6	; 0x8001d6 <count_senha>
    15aa:	30 91 d7 01 	lds	r19, 0x01D7	; 0x8001d7 <count_senha+0x1>
    15ae:	24 30       	cpi	r18, 0x04	; 4
    15b0:	31 05       	cpc	r19, r1
    15b2:	0c f0       	brlt	.+2      	; 0x15b6 <__stack+0xcb7>
    15b4:	80 e0       	ldi	r24, 0x00	; 0
    15b6:	89 23       	and	r24, r25
    15b8:	a9 f0       	breq	.+42     	; 0x15e4 <__stack+0xce5>
    15ba:	87 e3       	ldi	r24, 0x37	; 55
    15bc:	0e 94 38 1b 	call	0x3670	; 0x3670 <send_word_lcd>
    15c0:	41 ed       	ldi	r20, 0xD1	; 209
    15c2:	52 e0       	ldi	r21, 0x02	; 2
    15c4:	60 e0       	ldi	r22, 0x00	; 0
    15c6:	80 91 d6 01 	lds	r24, 0x01D6	; 0x8001d6 <count_senha>
    15ca:	90 91 d7 01 	lds	r25, 0x01D7	; 0x8001d7 <count_senha+0x1>
    15ce:	0e 94 1b 1d 	call	0x3a36	; 0x3a36 <insert_senha>
    15d2:	80 91 d6 01 	lds	r24, 0x01D6	; 0x8001d6 <count_senha>
    15d6:	90 91 d7 01 	lds	r25, 0x01D7	; 0x8001d7 <count_senha+0x1>
    15da:	01 96       	adiw	r24, 0x01	; 1
    15dc:	90 93 d7 01 	sts	0x01D7, r25	; 0x8001d7 <count_senha+0x1>
    15e0:	80 93 d6 01 	sts	0x01D6, r24	; 0x8001d6 <count_senha>
    15e4:	91 e0       	ldi	r25, 0x01	; 1
    15e6:	80 91 da 01 	lds	r24, 0x01DA	; 0x8001da <state>
    15ea:	8b 30       	cpi	r24, 0x0B	; 11
    15ec:	09 f0       	breq	.+2      	; 0x15f0 <__stack+0xcf1>
    15ee:	90 e0       	ldi	r25, 0x00	; 0
    15f0:	81 e0       	ldi	r24, 0x01	; 1
    15f2:	20 91 d6 01 	lds	r18, 0x01D6	; 0x8001d6 <count_senha>
    15f6:	30 91 d7 01 	lds	r19, 0x01D7	; 0x8001d7 <count_senha+0x1>
    15fa:	24 30       	cpi	r18, 0x04	; 4
    15fc:	31 05       	cpc	r19, r1
    15fe:	0c f0       	brlt	.+2      	; 0x1602 <__stack+0xd03>
    1600:	80 e0       	ldi	r24, 0x00	; 0
    1602:	89 23       	and	r24, r25
    1604:	a9 f0       	breq	.+42     	; 0x1630 <__stack+0xd31>
    1606:	87 e3       	ldi	r24, 0x37	; 55
    1608:	0e 94 38 1b 	call	0x3670	; 0x3670 <send_word_lcd>
    160c:	4f ec       	ldi	r20, 0xCF	; 207
    160e:	52 e0       	ldi	r21, 0x02	; 2
    1610:	60 e0       	ldi	r22, 0x00	; 0
    1612:	80 91 d6 01 	lds	r24, 0x01D6	; 0x8001d6 <count_senha>
    1616:	90 91 d7 01 	lds	r25, 0x01D7	; 0x8001d7 <count_senha+0x1>
    161a:	0e 94 1b 1d 	call	0x3a36	; 0x3a36 <insert_senha>
    161e:	80 91 d6 01 	lds	r24, 0x01D6	; 0x8001d6 <count_senha>
    1622:	90 91 d7 01 	lds	r25, 0x01D7	; 0x8001d7 <count_senha+0x1>
    1626:	01 96       	adiw	r24, 0x01	; 1
    1628:	90 93 d7 01 	sts	0x01D7, r25	; 0x8001d7 <count_senha+0x1>
    162c:	80 93 d6 01 	sts	0x01D6, r24	; 0x8001d6 <count_senha>
    1630:	91 e0       	ldi	r25, 0x01	; 1
    1632:	80 91 da 01 	lds	r24, 0x01DA	; 0x8001da <state>
    1636:	8f 30       	cpi	r24, 0x0F	; 15
    1638:	09 f0       	breq	.+2      	; 0x163c <__stack+0xd3d>
    163a:	90 e0       	ldi	r25, 0x00	; 0
    163c:	81 e0       	ldi	r24, 0x01	; 1
    163e:	20 91 d0 01 	lds	r18, 0x01D0	; 0x8001d0 <flag_sensor>
    1642:	30 91 d1 01 	lds	r19, 0x01D1	; 0x8001d1 <flag_sensor+0x1>
    1646:	23 2b       	or	r18, r19
    1648:	09 f0       	breq	.+2      	; 0x164c <__stack+0xd4d>
    164a:	80 e0       	ldi	r24, 0x00	; 0
    164c:	89 23       	and	r24, r25
    164e:	21 f0       	breq	.+8      	; 0x1658 <__stack+0xd59>
    1650:	87 e0       	ldi	r24, 0x07	; 7
    1652:	90 e0       	ldi	r25, 0x00	; 0
    1654:	0e 94 58 14 	call	0x28b0	; 0x28b0 <hab_sensor>
    1658:	90 91 da 01 	lds	r25, 0x01DA	; 0x8001da <state>
    165c:	21 e0       	ldi	r18, 0x01	; 1
    165e:	91 31       	cpi	r25, 0x11	; 17
    1660:	09 f0       	breq	.+2      	; 0x1664 <__stack+0xd65>
    1662:	20 e0       	ldi	r18, 0x00	; 0
    1664:	31 e0       	ldi	r19, 0x01	; 1
    1666:	40 91 c8 01 	lds	r20, 0x01C8	; 0x8001c8 <flag_z1>
    166a:	50 91 c9 01 	lds	r21, 0x01C9	; 0x8001c9 <flag_z1+0x1>
    166e:	45 2b       	or	r20, r21
    1670:	09 f0       	breq	.+2      	; 0x1674 <__stack+0xd75>
    1672:	30 e0       	ldi	r19, 0x00	; 0
    1674:	81 e0       	ldi	r24, 0x01	; 1
    1676:	40 91 ca 01 	lds	r20, 0x01CA	; 0x8001ca <flag_z>
    167a:	50 91 cb 01 	lds	r21, 0x01CB	; 0x8001cb <flag_z+0x1>
    167e:	45 2b       	or	r20, r21
    1680:	09 f0       	breq	.+2      	; 0x1684 <__stack+0xd85>
    1682:	80 e0       	ldi	r24, 0x00	; 0
    1684:	83 23       	and	r24, r19
    1686:	22 23       	and	r18, r18
    1688:	71 f0       	breq	.+28     	; 0x16a6 <__stack+0xda7>
    168a:	88 23       	and	r24, r24
    168c:	61 f0       	breq	.+24     	; 0x16a6 <__stack+0xda7>
    168e:	27 e0       	ldi	r18, 0x07	; 7
    1690:	30 e0       	ldi	r19, 0x00	; 0
    1692:	30 93 01 01 	sts	0x0101, r19	; 0x800101 <__DATA_REGION_ORIGIN__+0x1>
    1696:	20 93 00 01 	sts	0x0100, r18	; 0x800100 <__DATA_REGION_ORIGIN__>
    169a:	21 e0       	ldi	r18, 0x01	; 1
    169c:	30 e0       	ldi	r19, 0x00	; 0
    169e:	30 93 c9 01 	sts	0x01C9, r19	; 0x8001c9 <flag_z1+0x1>
    16a2:	20 93 c8 01 	sts	0x01C8, r18	; 0x8001c8 <flag_z1>
    16a6:	20 91 bc 01 	lds	r18, 0x01BC	; 0x8001bc <cont_t>
    16aa:	30 91 bd 01 	lds	r19, 0x01BD	; 0x8001bd <cont_t+0x1>
    16ae:	41 e0       	ldi	r20, 0x01	; 1
    16b0:	93 31       	cpi	r25, 0x13	; 19
    16b2:	09 f0       	breq	.+2      	; 0x16b6 <__stack+0xdb7>
    16b4:	40 e0       	ldi	r20, 0x00	; 0
    16b6:	81 e0       	ldi	r24, 0x01	; 1
    16b8:	22 30       	cpi	r18, 0x02	; 2
    16ba:	31 05       	cpc	r19, r1
    16bc:	0c f0       	brlt	.+2      	; 0x16c0 <__stack+0xdc1>
    16be:	80 e0       	ldi	r24, 0x00	; 0
    16c0:	84 23       	and	r24, r20
    16c2:	79 f0       	breq	.+30     	; 0x16e2 <__stack+0xde3>
    16c4:	f9 01       	movw	r30, r18
    16c6:	ee 0f       	add	r30, r30
    16c8:	ff 1f       	adc	r31, r31
    16ca:	e4 5f       	subi	r30, 0xF4	; 244
    16cc:	fe 4f       	sbci	r31, 0xFE	; 254
    16ce:	47 e0       	ldi	r20, 0x07	; 7
    16d0:	50 e0       	ldi	r21, 0x00	; 0
    16d2:	51 83       	std	Z+1, r21	; 0x01
    16d4:	40 83       	st	Z, r20
    16d6:	2f 5f       	subi	r18, 0xFF	; 255
    16d8:	3f 4f       	sbci	r19, 0xFF	; 255
    16da:	30 93 bd 01 	sts	0x01BD, r19	; 0x8001bd <cont_t+0x1>
    16de:	20 93 bc 01 	sts	0x01BC, r18	; 0x8001bc <cont_t>
    16e2:	21 e0       	ldi	r18, 0x01	; 1
    16e4:	97 30       	cpi	r25, 0x07	; 7
    16e6:	09 f0       	breq	.+2      	; 0x16ea <__stack+0xdeb>
    16e8:	20 e0       	ldi	r18, 0x00	; 0
    16ea:	91 e0       	ldi	r25, 0x01	; 1
    16ec:	40 91 d8 01 	lds	r20, 0x01D8	; 0x8001d8 <flag_a_senha>
    16f0:	50 91 d9 01 	lds	r21, 0x01D9	; 0x8001d9 <flag_a_senha+0x1>
    16f4:	45 2b       	or	r20, r21
    16f6:	09 f0       	breq	.+2      	; 0x16fa <__stack+0xdfb>
    16f8:	90 e0       	ldi	r25, 0x00	; 0
    16fa:	81 e0       	ldi	r24, 0x01	; 1
    16fc:	40 91 c2 01 	lds	r20, 0x01C2	; 0x8001c2 <flag_timeout>
    1700:	50 91 c3 01 	lds	r21, 0x01C3	; 0x8001c3 <flag_timeout+0x1>
    1704:	45 2b       	or	r20, r21
    1706:	09 f0       	breq	.+2      	; 0x170a <__stack+0xe0b>
    1708:	80 e0       	ldi	r24, 0x00	; 0
    170a:	89 23       	and	r24, r25
    170c:	22 23       	and	r18, r18
    170e:	69 f0       	breq	.+26     	; 0x172a <__stack+0xe2b>
    1710:	88 23       	and	r24, r24
    1712:	59 f0       	breq	.+22     	; 0x172a <__stack+0xe2b>
    1714:	83 e1       	ldi	r24, 0x13	; 19
    1716:	80 93 da 01 	sts	0x01DA, r24	; 0x8001da <state>
    171a:	81 e0       	ldi	r24, 0x01	; 1
    171c:	90 e0       	ldi	r25, 0x00	; 0
    171e:	90 93 c3 01 	sts	0x01C3, r25	; 0x8001c3 <flag_timeout+0x1>
    1722:	80 93 c2 01 	sts	0x01C2, r24	; 0x8001c2 <flag_timeout>
    1726:	0e 94 62 18 	call	0x30c4	; 0x30c4 <msg_ajusteTout>
    172a:	20 91 da 01 	lds	r18, 0x01DA	; 0x8001da <state>
    172e:	81 e0       	ldi	r24, 0x01	; 1
    1730:	40 91 bc 01 	lds	r20, 0x01BC	; 0x8001bc <cont_t>
    1734:	50 91 bd 01 	lds	r21, 0x01BD	; 0x8001bd <cont_t+0x1>
    1738:	43 30       	cpi	r20, 0x03	; 3
    173a:	51 05       	cpc	r21, r1
    173c:	0c f0       	brlt	.+2      	; 0x1740 <__stack+0xe41>
    173e:	80 e0       	ldi	r24, 0x00	; 0
    1740:	91 e0       	ldi	r25, 0x01	; 1
    1742:	24 31       	cpi	r18, 0x14	; 20
    1744:	09 f0       	breq	.+2      	; 0x1748 <__stack+0xe49>
    1746:	90 e0       	ldi	r25, 0x00	; 0
    1748:	98 23       	and	r25, r24
    174a:	99 f0       	breq	.+38     	; 0x1772 <__stack+0xe73>
    174c:	40 91 b8 01 	lds	r20, 0x01B8	; 0x8001b8 <cont_s>
    1750:	50 91 b9 01 	lds	r21, 0x01B9	; 0x8001b9 <cont_s+0x1>
    1754:	fa 01       	movw	r30, r20
    1756:	ee 0f       	add	r30, r30
    1758:	ff 1f       	adc	r31, r31
    175a:	e7 5d       	subi	r30, 0xD7	; 215
    175c:	fe 4f       	sbci	r31, 0xFE	; 254
    175e:	67 e0       	ldi	r22, 0x07	; 7
    1760:	70 e0       	ldi	r23, 0x00	; 0
    1762:	71 83       	std	Z+1, r23	; 0x01
    1764:	60 83       	st	Z, r22
    1766:	4f 5f       	subi	r20, 0xFF	; 255
    1768:	5f 4f       	sbci	r21, 0xFF	; 255
    176a:	50 93 b9 01 	sts	0x01B9, r21	; 0x8001b9 <cont_s+0x1>
    176e:	40 93 b8 01 	sts	0x01B8, r20	; 0x8001b8 <cont_s>
    1772:	91 e0       	ldi	r25, 0x01	; 1
    1774:	22 31       	cpi	r18, 0x12	; 18
    1776:	09 f0       	breq	.+2      	; 0x177a <__stack+0xe7b>
    1778:	90 e0       	ldi	r25, 0x00	; 0
    177a:	89 23       	and	r24, r25
    177c:	09 f4       	brne	.+2      	; 0x1780 <__stack+0xe81>
    177e:	29 c5       	rjmp	.+2642   	; 0x21d2 <__stack+0x18d3>
    1780:	80 91 ba 01 	lds	r24, 0x01BA	; 0x8001ba <cont_aa>
    1784:	90 91 bb 01 	lds	r25, 0x01BB	; 0x8001bb <cont_aa+0x1>
    1788:	fc 01       	movw	r30, r24
    178a:	ee 0f       	add	r30, r30
    178c:	ff 1f       	adc	r31, r31
    178e:	ef 5d       	subi	r30, 0xDF	; 223
    1790:	fe 4f       	sbci	r31, 0xFE	; 254
    1792:	27 e0       	ldi	r18, 0x07	; 7
    1794:	30 e0       	ldi	r19, 0x00	; 0
    1796:	31 83       	std	Z+1, r19	; 0x01
    1798:	20 83       	st	Z, r18
    179a:	01 96       	adiw	r24, 0x01	; 1
    179c:	90 93 bb 01 	sts	0x01BB, r25	; 0x8001bb <cont_aa+0x1>
    17a0:	80 93 ba 01 	sts	0x01BA, r24	; 0x8001ba <cont_aa>
    17a4:	16 c5       	rjmp	.+2604   	; 0x21d2 <__stack+0x18d3>
    17a6:	80 36       	cpi	r24, 0x60	; 96
    17a8:	91 05       	cpc	r25, r1
    17aa:	09 f0       	breq	.+2      	; 0x17ae <__stack+0xeaf>
    17ac:	23 c1       	rjmp	.+582    	; 0x19f4 <__stack+0x10f5>
    17ae:	91 e0       	ldi	r25, 0x01	; 1
    17b0:	80 91 da 01 	lds	r24, 0x01DA	; 0x8001da <state>
    17b4:	88 30       	cpi	r24, 0x08	; 8
    17b6:	09 f0       	breq	.+2      	; 0x17ba <__stack+0xebb>
    17b8:	90 e0       	ldi	r25, 0x00	; 0
    17ba:	81 e0       	ldi	r24, 0x01	; 1
    17bc:	20 91 d6 01 	lds	r18, 0x01D6	; 0x8001d6 <count_senha>
    17c0:	30 91 d7 01 	lds	r19, 0x01D7	; 0x8001d7 <count_senha+0x1>
    17c4:	24 30       	cpi	r18, 0x04	; 4
    17c6:	31 05       	cpc	r19, r1
    17c8:	0c f0       	brlt	.+2      	; 0x17cc <__stack+0xecd>
    17ca:	80 e0       	ldi	r24, 0x00	; 0
    17cc:	89 23       	and	r24, r25
    17ce:	a9 f0       	breq	.+42     	; 0x17fa <__stack+0xefb>
    17d0:	88 e3       	ldi	r24, 0x38	; 56
    17d2:	0e 94 38 1b 	call	0x3670	; 0x3670 <send_word_lcd>
    17d6:	43 ed       	ldi	r20, 0xD3	; 211
    17d8:	52 e0       	ldi	r21, 0x02	; 2
    17da:	60 e0       	ldi	r22, 0x00	; 0
    17dc:	80 91 d6 01 	lds	r24, 0x01D6	; 0x8001d6 <count_senha>
    17e0:	90 91 d7 01 	lds	r25, 0x01D7	; 0x8001d7 <count_senha+0x1>
    17e4:	0e 94 1b 1d 	call	0x3a36	; 0x3a36 <insert_senha>
    17e8:	80 91 d6 01 	lds	r24, 0x01D6	; 0x8001d6 <count_senha>
    17ec:	90 91 d7 01 	lds	r25, 0x01D7	; 0x8001d7 <count_senha+0x1>
    17f0:	01 96       	adiw	r24, 0x01	; 1
    17f2:	90 93 d7 01 	sts	0x01D7, r25	; 0x8001d7 <count_senha+0x1>
    17f6:	80 93 d6 01 	sts	0x01D6, r24	; 0x8001d6 <count_senha>
    17fa:	91 e0       	ldi	r25, 0x01	; 1
    17fc:	80 91 da 01 	lds	r24, 0x01DA	; 0x8001da <state>
    1800:	89 30       	cpi	r24, 0x09	; 9
    1802:	09 f0       	breq	.+2      	; 0x1806 <__stack+0xf07>
    1804:	90 e0       	ldi	r25, 0x00	; 0
    1806:	81 e0       	ldi	r24, 0x01	; 1
    1808:	20 91 d6 01 	lds	r18, 0x01D6	; 0x8001d6 <count_senha>
    180c:	30 91 d7 01 	lds	r19, 0x01D7	; 0x8001d7 <count_senha+0x1>
    1810:	24 30       	cpi	r18, 0x04	; 4
    1812:	31 05       	cpc	r19, r1
    1814:	0c f0       	brlt	.+2      	; 0x1818 <__stack+0xf19>
    1816:	80 e0       	ldi	r24, 0x00	; 0
    1818:	89 23       	and	r24, r25
    181a:	a9 f0       	breq	.+42     	; 0x1846 <__stack+0xf47>
    181c:	88 e3       	ldi	r24, 0x38	; 56
    181e:	0e 94 38 1b 	call	0x3670	; 0x3670 <send_word_lcd>
    1822:	43 ed       	ldi	r20, 0xD3	; 211
    1824:	52 e0       	ldi	r21, 0x02	; 2
    1826:	60 e0       	ldi	r22, 0x00	; 0
    1828:	80 91 d6 01 	lds	r24, 0x01D6	; 0x8001d6 <count_senha>
    182c:	90 91 d7 01 	lds	r25, 0x01D7	; 0x8001d7 <count_senha+0x1>
    1830:	0e 94 73 1a 	call	0x34e6	; 0x34e6 <senha_arm>
    1834:	80 91 d6 01 	lds	r24, 0x01D6	; 0x8001d6 <count_senha>
    1838:	90 91 d7 01 	lds	r25, 0x01D7	; 0x8001d7 <count_senha+0x1>
    183c:	01 96       	adiw	r24, 0x01	; 1
    183e:	90 93 d7 01 	sts	0x01D7, r25	; 0x8001d7 <count_senha+0x1>
    1842:	80 93 d6 01 	sts	0x01D6, r24	; 0x8001d6 <count_senha>
    1846:	91 e0       	ldi	r25, 0x01	; 1
    1848:	80 91 da 01 	lds	r24, 0x01DA	; 0x8001da <state>
    184c:	8a 30       	cpi	r24, 0x0A	; 10
    184e:	09 f0       	breq	.+2      	; 0x1852 <__stack+0xf53>
    1850:	90 e0       	ldi	r25, 0x00	; 0
    1852:	81 e0       	ldi	r24, 0x01	; 1
    1854:	20 91 d6 01 	lds	r18, 0x01D6	; 0x8001d6 <count_senha>
    1858:	30 91 d7 01 	lds	r19, 0x01D7	; 0x8001d7 <count_senha+0x1>
    185c:	24 30       	cpi	r18, 0x04	; 4
    185e:	31 05       	cpc	r19, r1
    1860:	0c f0       	brlt	.+2      	; 0x1864 <__stack+0xf65>
    1862:	80 e0       	ldi	r24, 0x00	; 0
    1864:	89 23       	and	r24, r25
    1866:	a9 f0       	breq	.+42     	; 0x1892 <__stack+0xf93>
    1868:	88 e3       	ldi	r24, 0x38	; 56
    186a:	0e 94 38 1b 	call	0x3670	; 0x3670 <send_word_lcd>
    186e:	43 ed       	ldi	r20, 0xD3	; 211
    1870:	52 e0       	ldi	r21, 0x02	; 2
    1872:	60 e0       	ldi	r22, 0x00	; 0
    1874:	80 91 d6 01 	lds	r24, 0x01D6	; 0x8001d6 <count_senha>
    1878:	90 91 d7 01 	lds	r25, 0x01D7	; 0x8001d7 <count_senha+0x1>
    187c:	0e 94 1b 1d 	call	0x3a36	; 0x3a36 <insert_senha>
    1880:	80 91 d6 01 	lds	r24, 0x01D6	; 0x8001d6 <count_senha>
    1884:	90 91 d7 01 	lds	r25, 0x01D7	; 0x8001d7 <count_senha+0x1>
    1888:	01 96       	adiw	r24, 0x01	; 1
    188a:	90 93 d7 01 	sts	0x01D7, r25	; 0x8001d7 <count_senha+0x1>
    188e:	80 93 d6 01 	sts	0x01D6, r24	; 0x8001d6 <count_senha>
    1892:	91 e0       	ldi	r25, 0x01	; 1
    1894:	80 91 da 01 	lds	r24, 0x01DA	; 0x8001da <state>
    1898:	8b 30       	cpi	r24, 0x0B	; 11
    189a:	09 f0       	breq	.+2      	; 0x189e <__stack+0xf9f>
    189c:	90 e0       	ldi	r25, 0x00	; 0
    189e:	81 e0       	ldi	r24, 0x01	; 1
    18a0:	20 91 d6 01 	lds	r18, 0x01D6	; 0x8001d6 <count_senha>
    18a4:	30 91 d7 01 	lds	r19, 0x01D7	; 0x8001d7 <count_senha+0x1>
    18a8:	24 30       	cpi	r18, 0x04	; 4
    18aa:	31 05       	cpc	r19, r1
    18ac:	0c f0       	brlt	.+2      	; 0x18b0 <__stack+0xfb1>
    18ae:	80 e0       	ldi	r24, 0x00	; 0
    18b0:	89 23       	and	r24, r25
    18b2:	a9 f0       	breq	.+42     	; 0x18de <__stack+0xfdf>
    18b4:	88 e3       	ldi	r24, 0x38	; 56
    18b6:	0e 94 38 1b 	call	0x3670	; 0x3670 <send_word_lcd>
    18ba:	4f ec       	ldi	r20, 0xCF	; 207
    18bc:	52 e0       	ldi	r21, 0x02	; 2
    18be:	60 e0       	ldi	r22, 0x00	; 0
    18c0:	80 91 d6 01 	lds	r24, 0x01D6	; 0x8001d6 <count_senha>
    18c4:	90 91 d7 01 	lds	r25, 0x01D7	; 0x8001d7 <count_senha+0x1>
    18c8:	0e 94 1b 1d 	call	0x3a36	; 0x3a36 <insert_senha>
    18cc:	80 91 d6 01 	lds	r24, 0x01D6	; 0x8001d6 <count_senha>
    18d0:	90 91 d7 01 	lds	r25, 0x01D7	; 0x8001d7 <count_senha+0x1>
    18d4:	01 96       	adiw	r24, 0x01	; 1
    18d6:	90 93 d7 01 	sts	0x01D7, r25	; 0x8001d7 <count_senha+0x1>
    18da:	80 93 d6 01 	sts	0x01D6, r24	; 0x8001d6 <count_senha>
    18de:	90 91 da 01 	lds	r25, 0x01DA	; 0x8001da <state>
    18e2:	20 91 bc 01 	lds	r18, 0x01BC	; 0x8001bc <cont_t>
    18e6:	30 91 bd 01 	lds	r19, 0x01BD	; 0x8001bd <cont_t+0x1>
    18ea:	41 e0       	ldi	r20, 0x01	; 1
    18ec:	93 31       	cpi	r25, 0x13	; 19
    18ee:	09 f0       	breq	.+2      	; 0x18f2 <__stack+0xff3>
    18f0:	40 e0       	ldi	r20, 0x00	; 0
    18f2:	81 e0       	ldi	r24, 0x01	; 1
    18f4:	22 30       	cpi	r18, 0x02	; 2
    18f6:	31 05       	cpc	r19, r1
    18f8:	0c f0       	brlt	.+2      	; 0x18fc <__stack+0xffd>
    18fa:	80 e0       	ldi	r24, 0x00	; 0
    18fc:	84 23       	and	r24, r20
    18fe:	79 f0       	breq	.+30     	; 0x191e <__stack+0x101f>
    1900:	f9 01       	movw	r30, r18
    1902:	ee 0f       	add	r30, r30
    1904:	ff 1f       	adc	r31, r31
    1906:	e4 5f       	subi	r30, 0xF4	; 244
    1908:	fe 4f       	sbci	r31, 0xFE	; 254
    190a:	48 e0       	ldi	r20, 0x08	; 8
    190c:	50 e0       	ldi	r21, 0x00	; 0
    190e:	51 83       	std	Z+1, r21	; 0x01
    1910:	40 83       	st	Z, r20
    1912:	2f 5f       	subi	r18, 0xFF	; 255
    1914:	3f 4f       	sbci	r19, 0xFF	; 255
    1916:	30 93 bd 01 	sts	0x01BD, r19	; 0x8001bd <cont_t+0x1>
    191a:	20 93 bc 01 	sts	0x01BC, r18	; 0x8001bc <cont_t>
    191e:	21 e0       	ldi	r18, 0x01	; 1
    1920:	40 91 bc 01 	lds	r20, 0x01BC	; 0x8001bc <cont_t>
    1924:	50 91 bd 01 	lds	r21, 0x01BD	; 0x8001bd <cont_t+0x1>
    1928:	43 30       	cpi	r20, 0x03	; 3
    192a:	51 05       	cpc	r21, r1
    192c:	0c f0       	brlt	.+2      	; 0x1930 <__stack+0x1031>
    192e:	20 e0       	ldi	r18, 0x00	; 0
    1930:	81 e0       	ldi	r24, 0x01	; 1
    1932:	94 31       	cpi	r25, 0x14	; 20
    1934:	09 f0       	breq	.+2      	; 0x1938 <__stack+0x1039>
    1936:	80 e0       	ldi	r24, 0x00	; 0
    1938:	82 23       	and	r24, r18
    193a:	99 f0       	breq	.+38     	; 0x1962 <__stack+0x1063>
    193c:	20 91 b8 01 	lds	r18, 0x01B8	; 0x8001b8 <cont_s>
    1940:	30 91 b9 01 	lds	r19, 0x01B9	; 0x8001b9 <cont_s+0x1>
    1944:	f9 01       	movw	r30, r18
    1946:	ee 0f       	add	r30, r30
    1948:	ff 1f       	adc	r31, r31
    194a:	e7 5d       	subi	r30, 0xD7	; 215
    194c:	fe 4f       	sbci	r31, 0xFE	; 254
    194e:	48 e0       	ldi	r20, 0x08	; 8
    1950:	50 e0       	ldi	r21, 0x00	; 0
    1952:	51 83       	std	Z+1, r21	; 0x01
    1954:	40 83       	st	Z, r20
    1956:	2f 5f       	subi	r18, 0xFF	; 255
    1958:	3f 4f       	sbci	r19, 0xFF	; 255
    195a:	30 93 b9 01 	sts	0x01B9, r19	; 0x8001b9 <cont_s+0x1>
    195e:	20 93 b8 01 	sts	0x01B8, r18	; 0x8001b8 <cont_s>
    1962:	21 e0       	ldi	r18, 0x01	; 1
    1964:	97 30       	cpi	r25, 0x07	; 7
    1966:	09 f0       	breq	.+2      	; 0x196a <__stack+0x106b>
    1968:	20 e0       	ldi	r18, 0x00	; 0
    196a:	91 e0       	ldi	r25, 0x01	; 1
    196c:	40 91 d8 01 	lds	r20, 0x01D8	; 0x8001d8 <flag_a_senha>
    1970:	50 91 d9 01 	lds	r21, 0x01D9	; 0x8001d9 <flag_a_senha+0x1>
    1974:	45 2b       	or	r20, r21
    1976:	09 f0       	breq	.+2      	; 0x197a <__stack+0x107b>
    1978:	90 e0       	ldi	r25, 0x00	; 0
    197a:	81 e0       	ldi	r24, 0x01	; 1
    197c:	40 91 c2 01 	lds	r20, 0x01C2	; 0x8001c2 <flag_timeout>
    1980:	50 91 c3 01 	lds	r21, 0x01C3	; 0x8001c3 <flag_timeout+0x1>
    1984:	45 2b       	or	r20, r21
    1986:	09 f0       	breq	.+2      	; 0x198a <__stack+0x108b>
    1988:	80 e0       	ldi	r24, 0x00	; 0
    198a:	89 23       	and	r24, r25
    198c:	22 23       	and	r18, r18
    198e:	69 f0       	breq	.+26     	; 0x19aa <__stack+0x10ab>
    1990:	88 23       	and	r24, r24
    1992:	59 f0       	breq	.+22     	; 0x19aa <__stack+0x10ab>
    1994:	84 e1       	ldi	r24, 0x14	; 20
    1996:	80 93 da 01 	sts	0x01DA, r24	; 0x8001da <state>
    199a:	81 e0       	ldi	r24, 0x01	; 1
    199c:	90 e0       	ldi	r25, 0x00	; 0
    199e:	90 93 c1 01 	sts	0x01C1, r25	; 0x8001c1 <flag_tsirene+0x1>
    19a2:	80 93 c0 01 	sts	0x01C0, r24	; 0x8001c0 <flag_tsirene>
    19a6:	0e 94 95 18 	call	0x312a	; 0x312a <msg_time_sirene>
    19aa:	91 e0       	ldi	r25, 0x01	; 1
    19ac:	80 91 da 01 	lds	r24, 0x01DA	; 0x8001da <state>
    19b0:	82 31       	cpi	r24, 0x12	; 18
    19b2:	09 f0       	breq	.+2      	; 0x19b6 <__stack+0x10b7>
    19b4:	90 e0       	ldi	r25, 0x00	; 0
    19b6:	81 e0       	ldi	r24, 0x01	; 1
    19b8:	20 91 bc 01 	lds	r18, 0x01BC	; 0x8001bc <cont_t>
    19bc:	30 91 bd 01 	lds	r19, 0x01BD	; 0x8001bd <cont_t+0x1>
    19c0:	23 30       	cpi	r18, 0x03	; 3
    19c2:	31 05       	cpc	r19, r1
    19c4:	0c f0       	brlt	.+2      	; 0x19c8 <__stack+0x10c9>
    19c6:	80 e0       	ldi	r24, 0x00	; 0
    19c8:	89 23       	and	r24, r25
    19ca:	09 f4       	brne	.+2      	; 0x19ce <__stack+0x10cf>
    19cc:	02 c4       	rjmp	.+2052   	; 0x21d2 <__stack+0x18d3>
    19ce:	80 91 ba 01 	lds	r24, 0x01BA	; 0x8001ba <cont_aa>
    19d2:	90 91 bb 01 	lds	r25, 0x01BB	; 0x8001bb <cont_aa+0x1>
    19d6:	fc 01       	movw	r30, r24
    19d8:	ee 0f       	add	r30, r30
    19da:	ff 1f       	adc	r31, r31
    19dc:	ef 5d       	subi	r30, 0xDF	; 223
    19de:	fe 4f       	sbci	r31, 0xFE	; 254
    19e0:	28 e0       	ldi	r18, 0x08	; 8
    19e2:	30 e0       	ldi	r19, 0x00	; 0
    19e4:	31 83       	std	Z+1, r19	; 0x01
    19e6:	20 83       	st	Z, r18
    19e8:	01 96       	adiw	r24, 0x01	; 1
    19ea:	90 93 bb 01 	sts	0x01BB, r25	; 0x8001bb <cont_aa+0x1>
    19ee:	80 93 ba 01 	sts	0x01BA, r24	; 0x8001ba <cont_aa>
    19f2:	ef c3       	rjmp	.+2014   	; 0x21d2 <__stack+0x18d3>
    19f4:	80 35       	cpi	r24, 0x50	; 80
    19f6:	91 05       	cpc	r25, r1
    19f8:	09 f0       	breq	.+2      	; 0x19fc <__stack+0x10fd>
    19fa:	f4 c0       	rjmp	.+488    	; 0x1be4 <__stack+0x12e5>
    19fc:	91 e0       	ldi	r25, 0x01	; 1
    19fe:	80 91 da 01 	lds	r24, 0x01DA	; 0x8001da <state>
    1a02:	88 30       	cpi	r24, 0x08	; 8
    1a04:	09 f0       	breq	.+2      	; 0x1a08 <__stack+0x1109>
    1a06:	90 e0       	ldi	r25, 0x00	; 0
    1a08:	81 e0       	ldi	r24, 0x01	; 1
    1a0a:	20 91 d6 01 	lds	r18, 0x01D6	; 0x8001d6 <count_senha>
    1a0e:	30 91 d7 01 	lds	r19, 0x01D7	; 0x8001d7 <count_senha+0x1>
    1a12:	24 30       	cpi	r18, 0x04	; 4
    1a14:	31 05       	cpc	r19, r1
    1a16:	0c f0       	brlt	.+2      	; 0x1a1a <__stack+0x111b>
    1a18:	80 e0       	ldi	r24, 0x00	; 0
    1a1a:	89 23       	and	r24, r25
    1a1c:	a9 f0       	breq	.+42     	; 0x1a48 <__stack+0x1149>
    1a1e:	89 e3       	ldi	r24, 0x39	; 57
    1a20:	0e 94 38 1b 	call	0x3670	; 0x3670 <send_word_lcd>
    1a24:	45 ed       	ldi	r20, 0xD5	; 213
    1a26:	52 e0       	ldi	r21, 0x02	; 2
    1a28:	60 e0       	ldi	r22, 0x00	; 0
    1a2a:	80 91 d6 01 	lds	r24, 0x01D6	; 0x8001d6 <count_senha>
    1a2e:	90 91 d7 01 	lds	r25, 0x01D7	; 0x8001d7 <count_senha+0x1>
    1a32:	0e 94 1b 1d 	call	0x3a36	; 0x3a36 <insert_senha>
    1a36:	80 91 d6 01 	lds	r24, 0x01D6	; 0x8001d6 <count_senha>
    1a3a:	90 91 d7 01 	lds	r25, 0x01D7	; 0x8001d7 <count_senha+0x1>
    1a3e:	01 96       	adiw	r24, 0x01	; 1
    1a40:	90 93 d7 01 	sts	0x01D7, r25	; 0x8001d7 <count_senha+0x1>
    1a44:	80 93 d6 01 	sts	0x01D6, r24	; 0x8001d6 <count_senha>
    1a48:	91 e0       	ldi	r25, 0x01	; 1
    1a4a:	80 91 da 01 	lds	r24, 0x01DA	; 0x8001da <state>
    1a4e:	89 30       	cpi	r24, 0x09	; 9
    1a50:	09 f0       	breq	.+2      	; 0x1a54 <__stack+0x1155>
    1a52:	90 e0       	ldi	r25, 0x00	; 0
    1a54:	81 e0       	ldi	r24, 0x01	; 1
    1a56:	20 91 d6 01 	lds	r18, 0x01D6	; 0x8001d6 <count_senha>
    1a5a:	30 91 d7 01 	lds	r19, 0x01D7	; 0x8001d7 <count_senha+0x1>
    1a5e:	24 30       	cpi	r18, 0x04	; 4
    1a60:	31 05       	cpc	r19, r1
    1a62:	0c f0       	brlt	.+2      	; 0x1a66 <__stack+0x1167>
    1a64:	80 e0       	ldi	r24, 0x00	; 0
    1a66:	89 23       	and	r24, r25
    1a68:	a9 f0       	breq	.+42     	; 0x1a94 <__stack+0x1195>
    1a6a:	89 e3       	ldi	r24, 0x39	; 57
    1a6c:	0e 94 38 1b 	call	0x3670	; 0x3670 <send_word_lcd>
    1a70:	45 ed       	ldi	r20, 0xD5	; 213
    1a72:	52 e0       	ldi	r21, 0x02	; 2
    1a74:	60 e0       	ldi	r22, 0x00	; 0
    1a76:	80 91 d6 01 	lds	r24, 0x01D6	; 0x8001d6 <count_senha>
    1a7a:	90 91 d7 01 	lds	r25, 0x01D7	; 0x8001d7 <count_senha+0x1>
    1a7e:	0e 94 73 1a 	call	0x34e6	; 0x34e6 <senha_arm>
    1a82:	80 91 d6 01 	lds	r24, 0x01D6	; 0x8001d6 <count_senha>
    1a86:	90 91 d7 01 	lds	r25, 0x01D7	; 0x8001d7 <count_senha+0x1>
    1a8a:	01 96       	adiw	r24, 0x01	; 1
    1a8c:	90 93 d7 01 	sts	0x01D7, r25	; 0x8001d7 <count_senha+0x1>
    1a90:	80 93 d6 01 	sts	0x01D6, r24	; 0x8001d6 <count_senha>
    1a94:	91 e0       	ldi	r25, 0x01	; 1
    1a96:	80 91 da 01 	lds	r24, 0x01DA	; 0x8001da <state>
    1a9a:	8a 30       	cpi	r24, 0x0A	; 10
    1a9c:	09 f0       	breq	.+2      	; 0x1aa0 <__stack+0x11a1>
    1a9e:	90 e0       	ldi	r25, 0x00	; 0
    1aa0:	81 e0       	ldi	r24, 0x01	; 1
    1aa2:	20 91 d6 01 	lds	r18, 0x01D6	; 0x8001d6 <count_senha>
    1aa6:	30 91 d7 01 	lds	r19, 0x01D7	; 0x8001d7 <count_senha+0x1>
    1aaa:	24 30       	cpi	r18, 0x04	; 4
    1aac:	31 05       	cpc	r19, r1
    1aae:	0c f0       	brlt	.+2      	; 0x1ab2 <__stack+0x11b3>
    1ab0:	80 e0       	ldi	r24, 0x00	; 0
    1ab2:	89 23       	and	r24, r25
    1ab4:	a9 f0       	breq	.+42     	; 0x1ae0 <__stack+0x11e1>
    1ab6:	89 e3       	ldi	r24, 0x39	; 57
    1ab8:	0e 94 38 1b 	call	0x3670	; 0x3670 <send_word_lcd>
    1abc:	45 ed       	ldi	r20, 0xD5	; 213
    1abe:	52 e0       	ldi	r21, 0x02	; 2
    1ac0:	60 e0       	ldi	r22, 0x00	; 0
    1ac2:	80 91 d6 01 	lds	r24, 0x01D6	; 0x8001d6 <count_senha>
    1ac6:	90 91 d7 01 	lds	r25, 0x01D7	; 0x8001d7 <count_senha+0x1>
    1aca:	0e 94 1b 1d 	call	0x3a36	; 0x3a36 <insert_senha>
    1ace:	80 91 d6 01 	lds	r24, 0x01D6	; 0x8001d6 <count_senha>
    1ad2:	90 91 d7 01 	lds	r25, 0x01D7	; 0x8001d7 <count_senha+0x1>
    1ad6:	01 96       	adiw	r24, 0x01	; 1
    1ad8:	90 93 d7 01 	sts	0x01D7, r25	; 0x8001d7 <count_senha+0x1>
    1adc:	80 93 d6 01 	sts	0x01D6, r24	; 0x8001d6 <count_senha>
    1ae0:	91 e0       	ldi	r25, 0x01	; 1
    1ae2:	80 91 da 01 	lds	r24, 0x01DA	; 0x8001da <state>
    1ae6:	8b 30       	cpi	r24, 0x0B	; 11
    1ae8:	09 f0       	breq	.+2      	; 0x1aec <__stack+0x11ed>
    1aea:	90 e0       	ldi	r25, 0x00	; 0
    1aec:	81 e0       	ldi	r24, 0x01	; 1
    1aee:	20 91 d6 01 	lds	r18, 0x01D6	; 0x8001d6 <count_senha>
    1af2:	30 91 d7 01 	lds	r19, 0x01D7	; 0x8001d7 <count_senha+0x1>
    1af6:	24 30       	cpi	r18, 0x04	; 4
    1af8:	31 05       	cpc	r19, r1
    1afa:	0c f0       	brlt	.+2      	; 0x1afe <__stack+0x11ff>
    1afc:	80 e0       	ldi	r24, 0x00	; 0
    1afe:	89 23       	and	r24, r25
    1b00:	a9 f0       	breq	.+42     	; 0x1b2c <__stack+0x122d>
    1b02:	89 e3       	ldi	r24, 0x39	; 57
    1b04:	0e 94 38 1b 	call	0x3670	; 0x3670 <send_word_lcd>
    1b08:	45 ed       	ldi	r20, 0xD5	; 213
    1b0a:	52 e0       	ldi	r21, 0x02	; 2
    1b0c:	60 e0       	ldi	r22, 0x00	; 0
    1b0e:	80 91 d6 01 	lds	r24, 0x01D6	; 0x8001d6 <count_senha>
    1b12:	90 91 d7 01 	lds	r25, 0x01D7	; 0x8001d7 <count_senha+0x1>
    1b16:	0e 94 1b 1d 	call	0x3a36	; 0x3a36 <insert_senha>
    1b1a:	80 91 d6 01 	lds	r24, 0x01D6	; 0x8001d6 <count_senha>
    1b1e:	90 91 d7 01 	lds	r25, 0x01D7	; 0x8001d7 <count_senha+0x1>
    1b22:	01 96       	adiw	r24, 0x01	; 1
    1b24:	90 93 d7 01 	sts	0x01D7, r25	; 0x8001d7 <count_senha+0x1>
    1b28:	80 93 d6 01 	sts	0x01D6, r24	; 0x8001d6 <count_senha>
    1b2c:	20 91 da 01 	lds	r18, 0x01DA	; 0x8001da <state>
    1b30:	40 91 bc 01 	lds	r20, 0x01BC	; 0x8001bc <cont_t>
    1b34:	50 91 bd 01 	lds	r21, 0x01BD	; 0x8001bd <cont_t+0x1>
    1b38:	91 e0       	ldi	r25, 0x01	; 1
    1b3a:	23 31       	cpi	r18, 0x13	; 19
    1b3c:	09 f0       	breq	.+2      	; 0x1b40 <__stack+0x1241>
    1b3e:	90 e0       	ldi	r25, 0x00	; 0
    1b40:	81 e0       	ldi	r24, 0x01	; 1
    1b42:	42 30       	cpi	r20, 0x02	; 2
    1b44:	51 05       	cpc	r21, r1
    1b46:	0c f0       	brlt	.+2      	; 0x1b4a <__stack+0x124b>
    1b48:	80 e0       	ldi	r24, 0x00	; 0
    1b4a:	89 23       	and	r24, r25
    1b4c:	79 f0       	breq	.+30     	; 0x1b6c <__stack+0x126d>
    1b4e:	fa 01       	movw	r30, r20
    1b50:	ee 0f       	add	r30, r30
    1b52:	ff 1f       	adc	r31, r31
    1b54:	e4 5f       	subi	r30, 0xF4	; 244
    1b56:	fe 4f       	sbci	r31, 0xFE	; 254
    1b58:	89 e0       	ldi	r24, 0x09	; 9
    1b5a:	90 e0       	ldi	r25, 0x00	; 0
    1b5c:	91 83       	std	Z+1, r25	; 0x01
    1b5e:	80 83       	st	Z, r24
    1b60:	4f 5f       	subi	r20, 0xFF	; 255
    1b62:	5f 4f       	sbci	r21, 0xFF	; 255
    1b64:	50 93 bd 01 	sts	0x01BD, r21	; 0x8001bd <cont_t+0x1>
    1b68:	40 93 bc 01 	sts	0x01BC, r20	; 0x8001bc <cont_t>
    1b6c:	81 e0       	ldi	r24, 0x01	; 1
    1b6e:	40 91 bc 01 	lds	r20, 0x01BC	; 0x8001bc <cont_t>
    1b72:	50 91 bd 01 	lds	r21, 0x01BD	; 0x8001bd <cont_t+0x1>
    1b76:	43 30       	cpi	r20, 0x03	; 3
    1b78:	51 05       	cpc	r21, r1
    1b7a:	0c f0       	brlt	.+2      	; 0x1b7e <__stack+0x127f>
    1b7c:	80 e0       	ldi	r24, 0x00	; 0
    1b7e:	91 e0       	ldi	r25, 0x01	; 1
    1b80:	24 31       	cpi	r18, 0x14	; 20
    1b82:	09 f0       	breq	.+2      	; 0x1b86 <__stack+0x1287>
    1b84:	90 e0       	ldi	r25, 0x00	; 0
    1b86:	98 23       	and	r25, r24
    1b88:	99 f0       	breq	.+38     	; 0x1bb0 <__stack+0x12b1>
    1b8a:	40 91 b8 01 	lds	r20, 0x01B8	; 0x8001b8 <cont_s>
    1b8e:	50 91 b9 01 	lds	r21, 0x01B9	; 0x8001b9 <cont_s+0x1>
    1b92:	fa 01       	movw	r30, r20
    1b94:	ee 0f       	add	r30, r30
    1b96:	ff 1f       	adc	r31, r31
    1b98:	e7 5d       	subi	r30, 0xD7	; 215
    1b9a:	fe 4f       	sbci	r31, 0xFE	; 254
    1b9c:	69 e0       	ldi	r22, 0x09	; 9
    1b9e:	70 e0       	ldi	r23, 0x00	; 0
    1ba0:	71 83       	std	Z+1, r23	; 0x01
    1ba2:	60 83       	st	Z, r22
    1ba4:	4f 5f       	subi	r20, 0xFF	; 255
    1ba6:	5f 4f       	sbci	r21, 0xFF	; 255
    1ba8:	50 93 b9 01 	sts	0x01B9, r21	; 0x8001b9 <cont_s+0x1>
    1bac:	40 93 b8 01 	sts	0x01B8, r20	; 0x8001b8 <cont_s>
    1bb0:	91 e0       	ldi	r25, 0x01	; 1
    1bb2:	22 31       	cpi	r18, 0x12	; 18
    1bb4:	09 f0       	breq	.+2      	; 0x1bb8 <__stack+0x12b9>
    1bb6:	90 e0       	ldi	r25, 0x00	; 0
    1bb8:	89 23       	and	r24, r25
    1bba:	09 f4       	brne	.+2      	; 0x1bbe <__stack+0x12bf>
    1bbc:	0a c3       	rjmp	.+1556   	; 0x21d2 <__stack+0x18d3>
    1bbe:	80 91 ba 01 	lds	r24, 0x01BA	; 0x8001ba <cont_aa>
    1bc2:	90 91 bb 01 	lds	r25, 0x01BB	; 0x8001bb <cont_aa+0x1>
    1bc6:	fc 01       	movw	r30, r24
    1bc8:	ee 0f       	add	r30, r30
    1bca:	ff 1f       	adc	r31, r31
    1bcc:	ef 5d       	subi	r30, 0xDF	; 223
    1bce:	fe 4f       	sbci	r31, 0xFE	; 254
    1bd0:	29 e0       	ldi	r18, 0x09	; 9
    1bd2:	30 e0       	ldi	r19, 0x00	; 0
    1bd4:	31 83       	std	Z+1, r19	; 0x01
    1bd6:	20 83       	st	Z, r18
    1bd8:	01 96       	adiw	r24, 0x01	; 1
    1bda:	90 93 bb 01 	sts	0x01BB, r25	; 0x8001bb <cont_aa+0x1>
    1bde:	80 93 ba 01 	sts	0x01BA, r24	; 0x8001ba <cont_aa>
    1be2:	f7 c2       	rjmp	.+1518   	; 0x21d2 <__stack+0x18d3>
    1be4:	80 34       	cpi	r24, 0x40	; 64
    1be6:	91 05       	cpc	r25, r1
    1be8:	49 f5       	brne	.+82     	; 0x1c3c <__stack+0x133d>
    1bea:	80 91 da 01 	lds	r24, 0x01DA	; 0x8001da <state>
    1bee:	85 30       	cpi	r24, 0x05	; 5
    1bf0:	29 f4       	brne	.+10     	; 0x1bfc <__stack+0x12fd>
    1bf2:	8b e0       	ldi	r24, 0x0B	; 11
    1bf4:	80 93 da 01 	sts	0x01DA, r24	; 0x8001da <state>
    1bf8:	0e 94 c3 1a 	call	0x3586	; 0x3586 <msg_inserir_senha>
    1bfc:	91 e0       	ldi	r25, 0x01	; 1
    1bfe:	80 91 da 01 	lds	r24, 0x01DA	; 0x8001da <state>
    1c02:	88 30       	cpi	r24, 0x08	; 8
    1c04:	09 f0       	breq	.+2      	; 0x1c08 <__stack+0x1309>
    1c06:	90 e0       	ldi	r25, 0x00	; 0
    1c08:	81 e0       	ldi	r24, 0x01	; 1
    1c0a:	20 91 d6 01 	lds	r18, 0x01D6	; 0x8001d6 <count_senha>
    1c0e:	30 91 d7 01 	lds	r19, 0x01D7	; 0x8001d7 <count_senha+0x1>
    1c12:	24 30       	cpi	r18, 0x04	; 4
    1c14:	31 05       	cpc	r19, r1
    1c16:	09 f0       	breq	.+2      	; 0x1c1a <__stack+0x131b>
    1c18:	80 e0       	ldi	r24, 0x00	; 0
    1c1a:	89 23       	and	r24, r25
    1c1c:	09 f4       	brne	.+2      	; 0x1c20 <__stack+0x1321>
    1c1e:	d9 c2       	rjmp	.+1458   	; 0x21d2 <__stack+0x18d3>
    1c20:	8c e0       	ldi	r24, 0x0C	; 12
    1c22:	80 93 da 01 	sts	0x01DA, r24	; 0x8001da <state>
    1c26:	81 e0       	ldi	r24, 0x01	; 1
    1c28:	90 e0       	ldi	r25, 0x00	; 0
    1c2a:	90 93 cf 01 	sts	0x01CF, r25	; 0x8001cf <flag_D_sensor+0x1>
    1c2e:	80 93 ce 01 	sts	0x01CE, r24	; 0x8001ce <flag_D_sensor>
    1c32:	10 92 d7 01 	sts	0x01D7, r1	; 0x8001d7 <count_senha+0x1>
    1c36:	10 92 d6 01 	sts	0x01D6, r1	; 0x8001d6 <count_senha>
    1c3a:	cb c2       	rjmp	.+1430   	; 0x21d2 <__stack+0x18d3>
    1c3c:	80 33       	cpi	r24, 0x30	; 48
    1c3e:	91 05       	cpc	r25, r1
    1c40:	11 f5       	brne	.+68     	; 0x1c86 <__stack+0x1387>
    1c42:	10 92 da 01 	sts	0x01DA, r1	; 0x8001da <state>
    1c46:	0e 94 11 1d 	call	0x3a22	; 0x3a22 <clear_Display>
    1c4a:	0e 94 ee 1b 	call	0x37dc	; 0x37dc <msg_restauracao>
    1c4e:	10 92 cd 01 	sts	0x01CD, r1	; 0x8001cd <flag_p+0x1>
    1c52:	10 92 cc 01 	sts	0x01CC, r1	; 0x8001cc <flag_p>
    1c56:	10 92 d1 01 	sts	0x01D1, r1	; 0x8001d1 <flag_sensor+0x1>
    1c5a:	10 92 d0 01 	sts	0x01D0, r1	; 0x8001d0 <flag_sensor>
    1c5e:	10 92 cf 01 	sts	0x01CF, r1	; 0x8001cf <flag_D_sensor+0x1>
    1c62:	10 92 ce 01 	sts	0x01CE, r1	; 0x8001ce <flag_D_sensor>
    1c66:	10 92 d9 01 	sts	0x01D9, r1	; 0x8001d9 <flag_a_senha+0x1>
    1c6a:	10 92 d8 01 	sts	0x01D8, r1	; 0x8001d8 <flag_a_senha>
    1c6e:	10 92 69 00 	sts	0x0069, r1	; 0x800069 <__TEXT_REGION_LENGTH__+0x7f8069>
    1c72:	1d ba       	out	0x1d, r1	; 29
    1c74:	62 e3       	ldi	r22, 0x32	; 50
    1c76:	70 e0       	ldi	r23, 0x00	; 0
    1c78:	80 e0       	ldi	r24, 0x00	; 0
    1c7a:	90 e0       	ldi	r25, 0x00	; 0
    1c7c:	0e 94 49 1a 	call	0x3492	; 0x3492 <delay_ms>
    1c80:	0e 94 4b 1d 	call	0x3a96	; 0x3a96 <init_int1>
    1c84:	a6 c2       	rjmp	.+1356   	; 0x21d2 <__stack+0x18d3>
    1c86:	80 32       	cpi	r24, 0x20	; 32
    1c88:	91 05       	cpc	r25, r1
    1c8a:	09 f0       	breq	.+2      	; 0x1c8e <__stack+0x138f>
    1c8c:	25 c1       	rjmp	.+586    	; 0x1ed8 <__stack+0x15d9>
    1c8e:	91 e0       	ldi	r25, 0x01	; 1
    1c90:	80 91 da 01 	lds	r24, 0x01DA	; 0x8001da <state>
    1c94:	88 30       	cpi	r24, 0x08	; 8
    1c96:	09 f0       	breq	.+2      	; 0x1c9a <__stack+0x139b>
    1c98:	90 e0       	ldi	r25, 0x00	; 0
    1c9a:	81 e0       	ldi	r24, 0x01	; 1
    1c9c:	20 91 d6 01 	lds	r18, 0x01D6	; 0x8001d6 <count_senha>
    1ca0:	30 91 d7 01 	lds	r19, 0x01D7	; 0x8001d7 <count_senha+0x1>
    1ca4:	24 30       	cpi	r18, 0x04	; 4
    1ca6:	31 05       	cpc	r19, r1
    1ca8:	0c f0       	brlt	.+2      	; 0x1cac <__stack+0x13ad>
    1caa:	80 e0       	ldi	r24, 0x00	; 0
    1cac:	89 23       	and	r24, r25
    1cae:	a9 f0       	breq	.+42     	; 0x1cda <__stack+0x13db>
    1cb0:	80 e3       	ldi	r24, 0x30	; 48
    1cb2:	0e 94 38 1b 	call	0x3670	; 0x3670 <send_word_lcd>
    1cb6:	47 ed       	ldi	r20, 0xD7	; 215
    1cb8:	52 e0       	ldi	r21, 0x02	; 2
    1cba:	60 e0       	ldi	r22, 0x00	; 0
    1cbc:	80 91 d6 01 	lds	r24, 0x01D6	; 0x8001d6 <count_senha>
    1cc0:	90 91 d7 01 	lds	r25, 0x01D7	; 0x8001d7 <count_senha+0x1>
    1cc4:	0e 94 1b 1d 	call	0x3a36	; 0x3a36 <insert_senha>
    1cc8:	80 91 d6 01 	lds	r24, 0x01D6	; 0x8001d6 <count_senha>
    1ccc:	90 91 d7 01 	lds	r25, 0x01D7	; 0x8001d7 <count_senha+0x1>
    1cd0:	01 96       	adiw	r24, 0x01	; 1
    1cd2:	90 93 d7 01 	sts	0x01D7, r25	; 0x8001d7 <count_senha+0x1>
    1cd6:	80 93 d6 01 	sts	0x01D6, r24	; 0x8001d6 <count_senha>
    1cda:	91 e0       	ldi	r25, 0x01	; 1
    1cdc:	80 91 da 01 	lds	r24, 0x01DA	; 0x8001da <state>
    1ce0:	89 30       	cpi	r24, 0x09	; 9
    1ce2:	09 f0       	breq	.+2      	; 0x1ce6 <__stack+0x13e7>
    1ce4:	90 e0       	ldi	r25, 0x00	; 0
    1ce6:	81 e0       	ldi	r24, 0x01	; 1
    1ce8:	20 91 d6 01 	lds	r18, 0x01D6	; 0x8001d6 <count_senha>
    1cec:	30 91 d7 01 	lds	r19, 0x01D7	; 0x8001d7 <count_senha+0x1>
    1cf0:	24 30       	cpi	r18, 0x04	; 4
    1cf2:	31 05       	cpc	r19, r1
    1cf4:	0c f0       	brlt	.+2      	; 0x1cf8 <__stack+0x13f9>
    1cf6:	80 e0       	ldi	r24, 0x00	; 0
    1cf8:	89 23       	and	r24, r25
    1cfa:	a9 f0       	breq	.+42     	; 0x1d26 <__stack+0x1427>
    1cfc:	80 e3       	ldi	r24, 0x30	; 48
    1cfe:	0e 94 38 1b 	call	0x3670	; 0x3670 <send_word_lcd>
    1d02:	47 ed       	ldi	r20, 0xD7	; 215
    1d04:	52 e0       	ldi	r21, 0x02	; 2
    1d06:	60 e0       	ldi	r22, 0x00	; 0
    1d08:	80 91 d6 01 	lds	r24, 0x01D6	; 0x8001d6 <count_senha>
    1d0c:	90 91 d7 01 	lds	r25, 0x01D7	; 0x8001d7 <count_senha+0x1>
    1d10:	0e 94 73 1a 	call	0x34e6	; 0x34e6 <senha_arm>
    1d14:	80 91 d6 01 	lds	r24, 0x01D6	; 0x8001d6 <count_senha>
    1d18:	90 91 d7 01 	lds	r25, 0x01D7	; 0x8001d7 <count_senha+0x1>
    1d1c:	01 96       	adiw	r24, 0x01	; 1
    1d1e:	90 93 d7 01 	sts	0x01D7, r25	; 0x8001d7 <count_senha+0x1>
    1d22:	80 93 d6 01 	sts	0x01D6, r24	; 0x8001d6 <count_senha>
    1d26:	91 e0       	ldi	r25, 0x01	; 1
    1d28:	80 91 da 01 	lds	r24, 0x01DA	; 0x8001da <state>
    1d2c:	8a 30       	cpi	r24, 0x0A	; 10
    1d2e:	09 f0       	breq	.+2      	; 0x1d32 <__stack+0x1433>
    1d30:	90 e0       	ldi	r25, 0x00	; 0
    1d32:	81 e0       	ldi	r24, 0x01	; 1
    1d34:	20 91 d6 01 	lds	r18, 0x01D6	; 0x8001d6 <count_senha>
    1d38:	30 91 d7 01 	lds	r19, 0x01D7	; 0x8001d7 <count_senha+0x1>
    1d3c:	24 30       	cpi	r18, 0x04	; 4
    1d3e:	31 05       	cpc	r19, r1
    1d40:	0c f0       	brlt	.+2      	; 0x1d44 <__stack+0x1445>
    1d42:	80 e0       	ldi	r24, 0x00	; 0
    1d44:	89 23       	and	r24, r25
    1d46:	a9 f0       	breq	.+42     	; 0x1d72 <__stack+0x1473>
    1d48:	80 e3       	ldi	r24, 0x30	; 48
    1d4a:	0e 94 38 1b 	call	0x3670	; 0x3670 <send_word_lcd>
    1d4e:	47 ed       	ldi	r20, 0xD7	; 215
    1d50:	52 e0       	ldi	r21, 0x02	; 2
    1d52:	60 e0       	ldi	r22, 0x00	; 0
    1d54:	80 91 d6 01 	lds	r24, 0x01D6	; 0x8001d6 <count_senha>
    1d58:	90 91 d7 01 	lds	r25, 0x01D7	; 0x8001d7 <count_senha+0x1>
    1d5c:	0e 94 1b 1d 	call	0x3a36	; 0x3a36 <insert_senha>
    1d60:	80 91 d6 01 	lds	r24, 0x01D6	; 0x8001d6 <count_senha>
    1d64:	90 91 d7 01 	lds	r25, 0x01D7	; 0x8001d7 <count_senha+0x1>
    1d68:	01 96       	adiw	r24, 0x01	; 1
    1d6a:	90 93 d7 01 	sts	0x01D7, r25	; 0x8001d7 <count_senha+0x1>
    1d6e:	80 93 d6 01 	sts	0x01D6, r24	; 0x8001d6 <count_senha>
    1d72:	91 e0       	ldi	r25, 0x01	; 1
    1d74:	80 91 da 01 	lds	r24, 0x01DA	; 0x8001da <state>
    1d78:	8b 30       	cpi	r24, 0x0B	; 11
    1d7a:	09 f0       	breq	.+2      	; 0x1d7e <__stack+0x147f>
    1d7c:	90 e0       	ldi	r25, 0x00	; 0
    1d7e:	81 e0       	ldi	r24, 0x01	; 1
    1d80:	20 91 d6 01 	lds	r18, 0x01D6	; 0x8001d6 <count_senha>
    1d84:	30 91 d7 01 	lds	r19, 0x01D7	; 0x8001d7 <count_senha+0x1>
    1d88:	24 30       	cpi	r18, 0x04	; 4
    1d8a:	31 05       	cpc	r19, r1
    1d8c:	0c f0       	brlt	.+2      	; 0x1d90 <__stack+0x1491>
    1d8e:	80 e0       	ldi	r24, 0x00	; 0
    1d90:	89 23       	and	r24, r25
    1d92:	a9 f0       	breq	.+42     	; 0x1dbe <__stack+0x14bf>
    1d94:	80 e3       	ldi	r24, 0x30	; 48
    1d96:	0e 94 38 1b 	call	0x3670	; 0x3670 <send_word_lcd>
    1d9a:	47 ed       	ldi	r20, 0xD7	; 215
    1d9c:	52 e0       	ldi	r21, 0x02	; 2
    1d9e:	60 e0       	ldi	r22, 0x00	; 0
    1da0:	80 91 d6 01 	lds	r24, 0x01D6	; 0x8001d6 <count_senha>
    1da4:	90 91 d7 01 	lds	r25, 0x01D7	; 0x8001d7 <count_senha+0x1>
    1da8:	0e 94 1b 1d 	call	0x3a36	; 0x3a36 <insert_senha>
    1dac:	80 91 d6 01 	lds	r24, 0x01D6	; 0x8001d6 <count_senha>
    1db0:	90 91 d7 01 	lds	r25, 0x01D7	; 0x8001d7 <count_senha+0x1>
    1db4:	01 96       	adiw	r24, 0x01	; 1
    1db6:	90 93 d7 01 	sts	0x01D7, r25	; 0x8001d7 <count_senha+0x1>
    1dba:	80 93 d6 01 	sts	0x01D6, r24	; 0x8001d6 <count_senha>
    1dbe:	91 e0       	ldi	r25, 0x01	; 1
    1dc0:	80 91 da 01 	lds	r24, 0x01DA	; 0x8001da <state>
    1dc4:	8f 30       	cpi	r24, 0x0F	; 15
    1dc6:	09 f0       	breq	.+2      	; 0x1dca <__stack+0x14cb>
    1dc8:	90 e0       	ldi	r25, 0x00	; 0
    1dca:	81 e0       	ldi	r24, 0x01	; 1
    1dcc:	20 91 d0 01 	lds	r18, 0x01D0	; 0x8001d0 <flag_sensor>
    1dd0:	30 91 d1 01 	lds	r19, 0x01D1	; 0x8001d1 <flag_sensor+0x1>
    1dd4:	23 2b       	or	r18, r19
    1dd6:	09 f0       	breq	.+2      	; 0x1dda <__stack+0x14db>
    1dd8:	80 e0       	ldi	r24, 0x00	; 0
    1dda:	89 23       	and	r24, r25
    1ddc:	21 f0       	breq	.+8      	; 0x1de6 <__stack+0x14e7>
    1dde:	80 e0       	ldi	r24, 0x00	; 0
    1de0:	90 e0       	ldi	r25, 0x00	; 0
    1de2:	0e 94 58 14 	call	0x28b0	; 0x28b0 <hab_sensor>
    1de6:	20 91 da 01 	lds	r18, 0x01DA	; 0x8001da <state>
    1dea:	91 e0       	ldi	r25, 0x01	; 1
    1dec:	21 31       	cpi	r18, 0x11	; 17
    1dee:	09 f0       	breq	.+2      	; 0x1df2 <__stack+0x14f3>
    1df0:	90 e0       	ldi	r25, 0x00	; 0
    1df2:	31 e0       	ldi	r19, 0x01	; 1
    1df4:	40 91 c8 01 	lds	r20, 0x01C8	; 0x8001c8 <flag_z1>
    1df8:	50 91 c9 01 	lds	r21, 0x01C9	; 0x8001c9 <flag_z1+0x1>
    1dfc:	45 2b       	or	r20, r21
    1dfe:	09 f0       	breq	.+2      	; 0x1e02 <__stack+0x1503>
    1e00:	30 e0       	ldi	r19, 0x00	; 0
    1e02:	81 e0       	ldi	r24, 0x01	; 1
    1e04:	40 91 ca 01 	lds	r20, 0x01CA	; 0x8001ca <flag_z>
    1e08:	50 91 cb 01 	lds	r21, 0x01CB	; 0x8001cb <flag_z+0x1>
    1e0c:	45 2b       	or	r20, r21
    1e0e:	09 f0       	breq	.+2      	; 0x1e12 <__stack+0x1513>
    1e10:	80 e0       	ldi	r24, 0x00	; 0
    1e12:	83 23       	and	r24, r19
    1e14:	99 23       	and	r25, r25
    1e16:	61 f0       	breq	.+24     	; 0x1e30 <__stack+0x1531>
    1e18:	88 23       	and	r24, r24
    1e1a:	51 f0       	breq	.+20     	; 0x1e30 <__stack+0x1531>
    1e1c:	10 92 01 01 	sts	0x0101, r1	; 0x800101 <__DATA_REGION_ORIGIN__+0x1>
    1e20:	10 92 00 01 	sts	0x0100, r1	; 0x800100 <__DATA_REGION_ORIGIN__>
    1e24:	81 e0       	ldi	r24, 0x01	; 1
    1e26:	90 e0       	ldi	r25, 0x00	; 0
    1e28:	90 93 c9 01 	sts	0x01C9, r25	; 0x8001c9 <flag_z1+0x1>
    1e2c:	80 93 c8 01 	sts	0x01C8, r24	; 0x8001c8 <flag_z1>
    1e30:	40 91 bc 01 	lds	r20, 0x01BC	; 0x8001bc <cont_t>
    1e34:	50 91 bd 01 	lds	r21, 0x01BD	; 0x8001bd <cont_t+0x1>
    1e38:	91 e0       	ldi	r25, 0x01	; 1
    1e3a:	23 31       	cpi	r18, 0x13	; 19
    1e3c:	09 f0       	breq	.+2      	; 0x1e40 <__stack+0x1541>
    1e3e:	90 e0       	ldi	r25, 0x00	; 0
    1e40:	81 e0       	ldi	r24, 0x01	; 1
    1e42:	42 30       	cpi	r20, 0x02	; 2
    1e44:	51 05       	cpc	r21, r1
    1e46:	0c f0       	brlt	.+2      	; 0x1e4a <__stack+0x154b>
    1e48:	80 e0       	ldi	r24, 0x00	; 0
    1e4a:	89 23       	and	r24, r25
    1e4c:	69 f0       	breq	.+26     	; 0x1e68 <__stack+0x1569>
    1e4e:	fa 01       	movw	r30, r20
    1e50:	ee 0f       	add	r30, r30
    1e52:	ff 1f       	adc	r31, r31
    1e54:	e4 5f       	subi	r30, 0xF4	; 244
    1e56:	fe 4f       	sbci	r31, 0xFE	; 254
    1e58:	11 82       	std	Z+1, r1	; 0x01
    1e5a:	10 82       	st	Z, r1
    1e5c:	4f 5f       	subi	r20, 0xFF	; 255
    1e5e:	5f 4f       	sbci	r21, 0xFF	; 255
    1e60:	50 93 bd 01 	sts	0x01BD, r21	; 0x8001bd <cont_t+0x1>
    1e64:	40 93 bc 01 	sts	0x01BC, r20	; 0x8001bc <cont_t>
    1e68:	81 e0       	ldi	r24, 0x01	; 1
    1e6a:	40 91 bc 01 	lds	r20, 0x01BC	; 0x8001bc <cont_t>
    1e6e:	50 91 bd 01 	lds	r21, 0x01BD	; 0x8001bd <cont_t+0x1>
    1e72:	43 30       	cpi	r20, 0x03	; 3
    1e74:	51 05       	cpc	r21, r1
    1e76:	0c f0       	brlt	.+2      	; 0x1e7a <__stack+0x157b>
    1e78:	80 e0       	ldi	r24, 0x00	; 0
    1e7a:	91 e0       	ldi	r25, 0x01	; 1
    1e7c:	24 31       	cpi	r18, 0x14	; 20
    1e7e:	09 f0       	breq	.+2      	; 0x1e82 <__stack+0x1583>
    1e80:	90 e0       	ldi	r25, 0x00	; 0
    1e82:	98 23       	and	r25, r24
    1e84:	89 f0       	breq	.+34     	; 0x1ea8 <__stack+0x15a9>
    1e86:	40 91 b8 01 	lds	r20, 0x01B8	; 0x8001b8 <cont_s>
    1e8a:	50 91 b9 01 	lds	r21, 0x01B9	; 0x8001b9 <cont_s+0x1>
    1e8e:	fa 01       	movw	r30, r20
    1e90:	ee 0f       	add	r30, r30
    1e92:	ff 1f       	adc	r31, r31
    1e94:	e7 5d       	subi	r30, 0xD7	; 215
    1e96:	fe 4f       	sbci	r31, 0xFE	; 254
    1e98:	11 82       	std	Z+1, r1	; 0x01
    1e9a:	10 82       	st	Z, r1
    1e9c:	4f 5f       	subi	r20, 0xFF	; 255
    1e9e:	5f 4f       	sbci	r21, 0xFF	; 255
    1ea0:	50 93 b9 01 	sts	0x01B9, r21	; 0x8001b9 <cont_s+0x1>
    1ea4:	40 93 b8 01 	sts	0x01B8, r20	; 0x8001b8 <cont_s>
    1ea8:	91 e0       	ldi	r25, 0x01	; 1
    1eaa:	22 31       	cpi	r18, 0x12	; 18
    1eac:	09 f0       	breq	.+2      	; 0x1eb0 <__stack+0x15b1>
    1eae:	90 e0       	ldi	r25, 0x00	; 0
    1eb0:	89 23       	and	r24, r25
    1eb2:	09 f4       	brne	.+2      	; 0x1eb6 <__stack+0x15b7>
    1eb4:	8e c1       	rjmp	.+796    	; 0x21d2 <__stack+0x18d3>
    1eb6:	80 91 ba 01 	lds	r24, 0x01BA	; 0x8001ba <cont_aa>
    1eba:	90 91 bb 01 	lds	r25, 0x01BB	; 0x8001bb <cont_aa+0x1>
    1ebe:	fc 01       	movw	r30, r24
    1ec0:	ee 0f       	add	r30, r30
    1ec2:	ff 1f       	adc	r31, r31
    1ec4:	ef 5d       	subi	r30, 0xDF	; 223
    1ec6:	fe 4f       	sbci	r31, 0xFE	; 254
    1ec8:	11 82       	std	Z+1, r1	; 0x01
    1eca:	10 82       	st	Z, r1
    1ecc:	01 96       	adiw	r24, 0x01	; 1
    1ece:	90 93 bb 01 	sts	0x01BB, r25	; 0x8001bb <cont_aa+0x1>
    1ed2:	80 93 ba 01 	sts	0x01BA, r24	; 0x8001ba <cont_aa>
    1ed6:	7d c1       	rjmp	.+762    	; 0x21d2 <__stack+0x18d3>
    1ed8:	80 31       	cpi	r24, 0x10	; 16
    1eda:	91 05       	cpc	r25, r1
    1edc:	29 f5       	brne	.+74     	; 0x1f28 <__stack+0x1629>
    1ede:	80 91 cc 01 	lds	r24, 0x01CC	; 0x8001cc <flag_p>
    1ee2:	90 91 cd 01 	lds	r25, 0x01CD	; 0x8001cd <flag_p+0x1>
    1ee6:	00 97       	sbiw	r24, 0x00	; 0
    1ee8:	b1 f4       	brne	.+44     	; 0x1f16 <__stack+0x1617>
    1eea:	80 91 da 01 	lds	r24, 0x01DA	; 0x8001da <state>
    1eee:	87 30       	cpi	r24, 0x07	; 7
    1ef0:	11 f0       	breq	.+4      	; 0x1ef6 <__stack+0x15f7>
    1ef2:	85 30       	cpi	r24, 0x05	; 5
    1ef4:	21 f4       	brne	.+8      	; 0x1efe <__stack+0x15ff>
    1ef6:	0e 94 25 1d 	call	0x3a4a	; 0x3a4a <StopTimer1>
    1efa:	0e 94 f1 1c 	call	0x39e2	; 0x39e2 <ZerarTemps>
    1efe:	0e 94 5d 1d 	call	0x3aba	; 0x3aba <StartSirene>
    1f02:	86 e0       	ldi	r24, 0x06	; 6
    1f04:	80 93 da 01 	sts	0x01DA, r24	; 0x8001da <state>
    1f08:	81 e0       	ldi	r24, 0x01	; 1
    1f0a:	90 e0       	ldi	r25, 0x00	; 0
    1f0c:	90 93 cd 01 	sts	0x01CD, r25	; 0x8001cd <flag_p+0x1>
    1f10:	80 93 cc 01 	sts	0x01CC, r24	; 0x8001cc <flag_p>
    1f14:	5e c1       	rjmp	.+700    	; 0x21d2 <__stack+0x18d3>
    1f16:	01 97       	sbiw	r24, 0x01	; 1
    1f18:	09 f0       	breq	.+2      	; 0x1f1c <__stack+0x161d>
    1f1a:	5b c1       	rjmp	.+694    	; 0x21d2 <__stack+0x18d3>
    1f1c:	0e 94 6d 1d 	call	0x3ada	; 0x3ada <StopSirene>
    1f20:	81 e0       	ldi	r24, 0x01	; 1
    1f22:	80 93 da 01 	sts	0x01DA, r24	; 0x8001da <state>
    1f26:	55 c1       	rjmp	.+682    	; 0x21d2 <__stack+0x18d3>
    1f28:	89 2b       	or	r24, r25
    1f2a:	09 f0       	breq	.+2      	; 0x1f2e <__stack+0x162f>
    1f2c:	52 c1       	rjmp	.+676    	; 0x21d2 <__stack+0x18d3>
    1f2e:	91 e0       	ldi	r25, 0x01	; 1
    1f30:	80 91 da 01 	lds	r24, 0x01DA	; 0x8001da <state>
    1f34:	89 30       	cpi	r24, 0x09	; 9
    1f36:	09 f0       	breq	.+2      	; 0x1f3a <__stack+0x163b>
    1f38:	90 e0       	ldi	r25, 0x00	; 0
    1f3a:	81 e0       	ldi	r24, 0x01	; 1
    1f3c:	20 91 d6 01 	lds	r18, 0x01D6	; 0x8001d6 <count_senha>
    1f40:	30 91 d7 01 	lds	r19, 0x01D7	; 0x8001d7 <count_senha+0x1>
    1f44:	24 30       	cpi	r18, 0x04	; 4
    1f46:	31 05       	cpc	r19, r1
    1f48:	09 f0       	breq	.+2      	; 0x1f4c <__stack+0x164d>
    1f4a:	80 e0       	ldi	r24, 0x00	; 0
    1f4c:	89 23       	and	r24, r25
    1f4e:	89 f0       	breq	.+34     	; 0x1f72 <__stack+0x1673>
    1f50:	81 e0       	ldi	r24, 0x01	; 1
    1f52:	80 93 da 01 	sts	0x01DA, r24	; 0x8001da <state>
    1f56:	0e 94 11 1d 	call	0x3a22	; 0x3a22 <clear_Display>
    1f5a:	10 92 d7 01 	sts	0x01D7, r1	; 0x8001d7 <count_senha+0x1>
    1f5e:	10 92 d6 01 	sts	0x01D6, r1	; 0x8001d6 <count_senha>
    1f62:	0e 94 61 1d 	call	0x3ac2	; 0x3ac2 <RTC_Read_Hours>
    1f66:	c8 2f       	mov	r28, r24
    1f68:	0e 94 65 1d 	call	0x3aca	; 0x3aca <RTC_Read_Day>
    1f6c:	6c 2f       	mov	r22, r28
    1f6e:	0e 94 5d 19 	call	0x32ba	; 0x32ba <UARTP>
    1f72:	91 e0       	ldi	r25, 0x01	; 1
    1f74:	80 91 da 01 	lds	r24, 0x01DA	; 0x8001da <state>
    1f78:	8a 30       	cpi	r24, 0x0A	; 10
    1f7a:	09 f0       	breq	.+2      	; 0x1f7e <__stack+0x167f>
    1f7c:	90 e0       	ldi	r25, 0x00	; 0
    1f7e:	81 e0       	ldi	r24, 0x01	; 1
    1f80:	20 91 d6 01 	lds	r18, 0x01D6	; 0x8001d6 <count_senha>
    1f84:	30 91 d7 01 	lds	r19, 0x01D7	; 0x8001d7 <count_senha+0x1>
    1f88:	24 30       	cpi	r18, 0x04	; 4
    1f8a:	31 05       	cpc	r19, r1
    1f8c:	09 f0       	breq	.+2      	; 0x1f90 <__stack+0x1691>
    1f8e:	80 e0       	ldi	r24, 0x00	; 0
    1f90:	89 23       	and	r24, r25
    1f92:	89 f0       	breq	.+34     	; 0x1fb6 <__stack+0x16b7>
    1f94:	8d e0       	ldi	r24, 0x0D	; 13
    1f96:	80 93 da 01 	sts	0x01DA, r24	; 0x8001da <state>
    1f9a:	0e 94 11 1d 	call	0x3a22	; 0x3a22 <clear_Display>
    1f9e:	10 92 d7 01 	sts	0x01D7, r1	; 0x8001d7 <count_senha+0x1>
    1fa2:	10 92 d6 01 	sts	0x01D6, r1	; 0x8001d6 <count_senha>
    1fa6:	0e 94 61 1d 	call	0x3ac2	; 0x3ac2 <RTC_Read_Hours>
    1faa:	c8 2f       	mov	r28, r24
    1fac:	0e 94 65 1d 	call	0x3aca	; 0x3aca <RTC_Read_Day>
    1fb0:	6c 2f       	mov	r22, r28
    1fb2:	0e 94 2c 19 	call	0x3258	; 0x3258 <UARTA>
    1fb6:	91 e0       	ldi	r25, 0x01	; 1
    1fb8:	80 91 da 01 	lds	r24, 0x01DA	; 0x8001da <state>
    1fbc:	8b 30       	cpi	r24, 0x0B	; 11
    1fbe:	09 f0       	breq	.+2      	; 0x1fc2 <__stack+0x16c3>
    1fc0:	90 e0       	ldi	r25, 0x00	; 0
    1fc2:	81 e0       	ldi	r24, 0x01	; 1
    1fc4:	20 91 d6 01 	lds	r18, 0x01D6	; 0x8001d6 <count_senha>
    1fc8:	30 91 d7 01 	lds	r19, 0x01D7	; 0x8001d7 <count_senha+0x1>
    1fcc:	24 30       	cpi	r18, 0x04	; 4
    1fce:	31 05       	cpc	r19, r1
    1fd0:	09 f0       	breq	.+2      	; 0x1fd4 <__stack+0x16d5>
    1fd2:	80 e0       	ldi	r24, 0x00	; 0
    1fd4:	89 23       	and	r24, r25
    1fd6:	89 f0       	breq	.+34     	; 0x1ffa <__stack+0x16fb>
    1fd8:	8e e0       	ldi	r24, 0x0E	; 14
    1fda:	80 93 da 01 	sts	0x01DA, r24	; 0x8001da <state>
    1fde:	0e 94 11 1d 	call	0x3a22	; 0x3a22 <clear_Display>
    1fe2:	10 92 d7 01 	sts	0x01D7, r1	; 0x8001d7 <count_senha+0x1>
    1fe6:	10 92 d6 01 	sts	0x01D6, r1	; 0x8001d6 <count_senha>
    1fea:	0e 94 61 1d 	call	0x3ac2	; 0x3ac2 <RTC_Read_Hours>
    1fee:	c8 2f       	mov	r28, r24
    1ff0:	0e 94 65 1d 	call	0x3aca	; 0x3aca <RTC_Read_Day>
    1ff4:	6c 2f       	mov	r22, r28
    1ff6:	0e 94 8e 19 	call	0x331c	; 0x331c <UARTD>
    1ffa:	91 e0       	ldi	r25, 0x01	; 1
    1ffc:	80 91 da 01 	lds	r24, 0x01DA	; 0x8001da <state>
    2000:	8f 30       	cpi	r24, 0x0F	; 15
    2002:	09 f0       	breq	.+2      	; 0x2006 <__stack+0x1707>
    2004:	90 e0       	ldi	r25, 0x00	; 0
    2006:	81 e0       	ldi	r24, 0x01	; 1
    2008:	20 91 d0 01 	lds	r18, 0x01D0	; 0x8001d0 <flag_sensor>
    200c:	30 91 d1 01 	lds	r19, 0x01D1	; 0x8001d1 <flag_sensor+0x1>
    2010:	21 30       	cpi	r18, 0x01	; 1
    2012:	31 05       	cpc	r19, r1
    2014:	09 f0       	breq	.+2      	; 0x2018 <__stack+0x1719>
    2016:	80 e0       	ldi	r24, 0x00	; 0
    2018:	89 23       	and	r24, r25
    201a:	79 f0       	breq	.+30     	; 0x203a <__stack+0x173b>
    201c:	81 e0       	ldi	r24, 0x01	; 1
    201e:	80 93 da 01 	sts	0x01DA, r24	; 0x8001da <state>
    2022:	10 92 d1 01 	sts	0x01D1, r1	; 0x8001d1 <flag_sensor+0x1>
    2026:	10 92 d0 01 	sts	0x01D0, r1	; 0x8001d0 <flag_sensor>
    202a:	0e 94 61 1d 	call	0x3ac2	; 0x3ac2 <RTC_Read_Hours>
    202e:	c8 2f       	mov	r28, r24
    2030:	0e 94 65 1d 	call	0x3aca	; 0x3aca <RTC_Read_Day>
    2034:	6c 2f       	mov	r22, r28
    2036:	0e 94 5d 19 	call	0x32ba	; 0x32ba <UARTP>
    203a:	91 e0       	ldi	r25, 0x01	; 1
    203c:	80 91 da 01 	lds	r24, 0x01DA	; 0x8001da <state>
    2040:	80 31       	cpi	r24, 0x10	; 16
    2042:	09 f0       	breq	.+2      	; 0x2046 <__stack+0x1747>
    2044:	90 e0       	ldi	r25, 0x00	; 0
    2046:	81 e0       	ldi	r24, 0x01	; 1
    2048:	20 91 d0 01 	lds	r18, 0x01D0	; 0x8001d0 <flag_sensor>
    204c:	30 91 d1 01 	lds	r19, 0x01D1	; 0x8001d1 <flag_sensor+0x1>
    2050:	21 30       	cpi	r18, 0x01	; 1
    2052:	31 05       	cpc	r19, r1
    2054:	09 f0       	breq	.+2      	; 0x2058 <__stack+0x1759>
    2056:	80 e0       	ldi	r24, 0x00	; 0
    2058:	89 23       	and	r24, r25
    205a:	79 f0       	breq	.+30     	; 0x207a <__stack+0x177b>
    205c:	81 e0       	ldi	r24, 0x01	; 1
    205e:	80 93 da 01 	sts	0x01DA, r24	; 0x8001da <state>
    2062:	10 92 d1 01 	sts	0x01D1, r1	; 0x8001d1 <flag_sensor+0x1>
    2066:	10 92 d0 01 	sts	0x01D0, r1	; 0x8001d0 <flag_sensor>
    206a:	0e 94 61 1d 	call	0x3ac2	; 0x3ac2 <RTC_Read_Hours>
    206e:	c8 2f       	mov	r28, r24
    2070:	0e 94 65 1d 	call	0x3aca	; 0x3aca <RTC_Read_Day>
    2074:	6c 2f       	mov	r22, r28
    2076:	0e 94 5d 19 	call	0x32ba	; 0x32ba <UARTP>
    207a:	91 e0       	ldi	r25, 0x01	; 1
    207c:	80 91 da 01 	lds	r24, 0x01DA	; 0x8001da <state>
    2080:	81 31       	cpi	r24, 0x11	; 17
    2082:	09 f0       	breq	.+2      	; 0x2086 <__stack+0x1787>
    2084:	90 e0       	ldi	r25, 0x00	; 0
    2086:	21 e0       	ldi	r18, 0x01	; 1
    2088:	40 91 c8 01 	lds	r20, 0x01C8	; 0x8001c8 <flag_z1>
    208c:	50 91 c9 01 	lds	r21, 0x01C9	; 0x8001c9 <flag_z1+0x1>
    2090:	41 30       	cpi	r20, 0x01	; 1
    2092:	51 05       	cpc	r21, r1
    2094:	09 f0       	breq	.+2      	; 0x2098 <__stack+0x1799>
    2096:	20 e0       	ldi	r18, 0x00	; 0
    2098:	81 e0       	ldi	r24, 0x01	; 1
    209a:	40 91 ca 01 	lds	r20, 0x01CA	; 0x8001ca <flag_z>
    209e:	50 91 cb 01 	lds	r21, 0x01CB	; 0x8001cb <flag_z+0x1>
    20a2:	41 30       	cpi	r20, 0x01	; 1
    20a4:	51 05       	cpc	r21, r1
    20a6:	09 f0       	breq	.+2      	; 0x20aa <__stack+0x17ab>
    20a8:	80 e0       	ldi	r24, 0x00	; 0
    20aa:	82 23       	and	r24, r18
    20ac:	99 23       	and	r25, r25
    20ae:	f9 f0       	breq	.+62     	; 0x20ee <__stack+0x17ef>
    20b0:	88 23       	and	r24, r24
    20b2:	e9 f0       	breq	.+58     	; 0x20ee <__stack+0x17ef>
    20b4:	81 e0       	ldi	r24, 0x01	; 1
    20b6:	80 93 da 01 	sts	0x01DA, r24	; 0x8001da <state>
    20ba:	60 91 04 01 	lds	r22, 0x0104	; 0x800104 <idzona>
    20be:	70 91 05 01 	lds	r23, 0x0105	; 0x800105 <idzona+0x1>
    20c2:	80 91 00 01 	lds	r24, 0x0100	; 0x800100 <__DATA_REGION_ORIGIN__>
    20c6:	90 91 01 01 	lds	r25, 0x0101	; 0x800101 <__DATA_REGION_ORIGIN__+0x1>
    20ca:	0e 94 fb 10 	call	0x21f6	; 0x21f6 <assSensorZona>
    20ce:	10 92 cb 01 	sts	0x01CB, r1	; 0x8001cb <flag_z+0x1>
    20d2:	10 92 ca 01 	sts	0x01CA, r1	; 0x8001ca <flag_z>
    20d6:	10 92 c9 01 	sts	0x01C9, r1	; 0x8001c9 <flag_z1+0x1>
    20da:	10 92 c8 01 	sts	0x01C8, r1	; 0x8001c8 <flag_z1>
    20de:	0e 94 61 1d 	call	0x3ac2	; 0x3ac2 <RTC_Read_Hours>
    20e2:	c8 2f       	mov	r28, r24
    20e4:	0e 94 65 1d 	call	0x3aca	; 0x3aca <RTC_Read_Day>
    20e8:	6c 2f       	mov	r22, r28
    20ea:	0e 94 5d 19 	call	0x32ba	; 0x32ba <UARTP>
    20ee:	91 e0       	ldi	r25, 0x01	; 1
    20f0:	80 91 da 01 	lds	r24, 0x01DA	; 0x8001da <state>
    20f4:	83 31       	cpi	r24, 0x13	; 19
    20f6:	09 f0       	breq	.+2      	; 0x20fa <__stack+0x17fb>
    20f8:	90 e0       	ldi	r25, 0x00	; 0
    20fa:	21 e0       	ldi	r18, 0x01	; 1
    20fc:	40 91 bc 01 	lds	r20, 0x01BC	; 0x8001bc <cont_t>
    2100:	50 91 bd 01 	lds	r21, 0x01BD	; 0x8001bd <cont_t+0x1>
    2104:	42 30       	cpi	r20, 0x02	; 2
    2106:	51 05       	cpc	r21, r1
    2108:	0c f4       	brge	.+2      	; 0x210c <__stack+0x180d>
    210a:	20 e0       	ldi	r18, 0x00	; 0
    210c:	81 e0       	ldi	r24, 0x01	; 1
    210e:	40 91 c2 01 	lds	r20, 0x01C2	; 0x8001c2 <flag_timeout>
    2112:	50 91 c3 01 	lds	r21, 0x01C3	; 0x8001c3 <flag_timeout+0x1>
    2116:	41 30       	cpi	r20, 0x01	; 1
    2118:	51 05       	cpc	r21, r1
    211a:	09 f0       	breq	.+2      	; 0x211e <__stack+0x181f>
    211c:	80 e0       	ldi	r24, 0x00	; 0
    211e:	82 23       	and	r24, r18
    2120:	99 23       	and	r25, r25
    2122:	99 f0       	breq	.+38     	; 0x214a <__stack+0x184b>
    2124:	88 23       	and	r24, r24
    2126:	89 f0       	breq	.+34     	; 0x214a <__stack+0x184b>
    2128:	81 e0       	ldi	r24, 0x01	; 1
    212a:	80 93 da 01 	sts	0x01DA, r24	; 0x8001da <state>
    212e:	0e 94 70 1c 	call	0x38e0	; 0x38e0 <set_timeout>
    2132:	10 92 bd 01 	sts	0x01BD, r1	; 0x8001bd <cont_t+0x1>
    2136:	10 92 bc 01 	sts	0x01BC, r1	; 0x8001bc <cont_t>
    213a:	0e 94 61 1d 	call	0x3ac2	; 0x3ac2 <RTC_Read_Hours>
    213e:	c8 2f       	mov	r28, r24
    2140:	0e 94 65 1d 	call	0x3aca	; 0x3aca <RTC_Read_Day>
    2144:	6c 2f       	mov	r22, r28
    2146:	0e 94 5d 19 	call	0x32ba	; 0x32ba <UARTP>
    214a:	91 e0       	ldi	r25, 0x01	; 1
    214c:	80 91 da 01 	lds	r24, 0x01DA	; 0x8001da <state>
    2150:	84 31       	cpi	r24, 0x14	; 20
    2152:	09 f0       	breq	.+2      	; 0x2156 <__stack+0x1857>
    2154:	90 e0       	ldi	r25, 0x00	; 0
    2156:	81 e0       	ldi	r24, 0x01	; 1
    2158:	20 91 b8 01 	lds	r18, 0x01B8	; 0x8001b8 <cont_s>
    215c:	30 91 b9 01 	lds	r19, 0x01B9	; 0x8001b9 <cont_s+0x1>
    2160:	23 30       	cpi	r18, 0x03	; 3
    2162:	31 05       	cpc	r19, r1
    2164:	0c f4       	brge	.+2      	; 0x2168 <__stack+0x1869>
    2166:	80 e0       	ldi	r24, 0x00	; 0
    2168:	89 23       	and	r24, r25
    216a:	89 f0       	breq	.+34     	; 0x218e <__stack+0x188f>
    216c:	81 e0       	ldi	r24, 0x01	; 1
    216e:	80 93 da 01 	sts	0x01DA, r24	; 0x8001da <state>
    2172:	0e 94 ca 1b 	call	0x3794	; 0x3794 <set_timeS>
    2176:	10 92 b9 01 	sts	0x01B9, r1	; 0x8001b9 <cont_s+0x1>
    217a:	10 92 b8 01 	sts	0x01B8, r1	; 0x8001b8 <cont_s>
    217e:	0e 94 61 1d 	call	0x3ac2	; 0x3ac2 <RTC_Read_Hours>
    2182:	c8 2f       	mov	r28, r24
    2184:	0e 94 65 1d 	call	0x3aca	; 0x3aca <RTC_Read_Day>
    2188:	6c 2f       	mov	r22, r28
    218a:	0e 94 5d 19 	call	0x32ba	; 0x32ba <UARTP>
    218e:	91 e0       	ldi	r25, 0x01	; 1
    2190:	80 91 da 01 	lds	r24, 0x01DA	; 0x8001da <state>
    2194:	82 31       	cpi	r24, 0x12	; 18
    2196:	09 f0       	breq	.+2      	; 0x219a <__stack+0x189b>
    2198:	90 e0       	ldi	r25, 0x00	; 0
    219a:	81 e0       	ldi	r24, 0x01	; 1
    219c:	20 91 ba 01 	lds	r18, 0x01BA	; 0x8001ba <cont_aa>
    21a0:	30 91 bb 01 	lds	r19, 0x01BB	; 0x8001bb <cont_aa+0x1>
    21a4:	23 30       	cpi	r18, 0x03	; 3
    21a6:	31 05       	cpc	r19, r1
    21a8:	0c f4       	brge	.+2      	; 0x21ac <__stack+0x18ad>
    21aa:	80 e0       	ldi	r24, 0x00	; 0
    21ac:	89 23       	and	r24, r25
    21ae:	89 f0       	breq	.+34     	; 0x21d2 <__stack+0x18d3>
    21b0:	81 e0       	ldi	r24, 0x01	; 1
    21b2:	80 93 da 01 	sts	0x01DA, r24	; 0x8001da <state>
    21b6:	0e 94 a6 1b 	call	0x374c	; 0x374c <set_timeA>
    21ba:	10 92 bb 01 	sts	0x01BB, r1	; 0x8001bb <cont_aa+0x1>
    21be:	10 92 ba 01 	sts	0x01BA, r1	; 0x8001ba <cont_aa>
    21c2:	0e 94 61 1d 	call	0x3ac2	; 0x3ac2 <RTC_Read_Hours>
    21c6:	c8 2f       	mov	r28, r24
    21c8:	0e 94 65 1d 	call	0x3aca	; 0x3aca <RTC_Read_Day>
    21cc:	6c 2f       	mov	r22, r28
    21ce:	0e 94 5d 19 	call	0x32ba	; 0x32ba <UARTP>
    21d2:	ff 91       	pop	r31
    21d4:	ef 91       	pop	r30
    21d6:	cf 91       	pop	r28
    21d8:	bf 91       	pop	r27
    21da:	af 91       	pop	r26
    21dc:	9f 91       	pop	r25
    21de:	8f 91       	pop	r24
    21e0:	7f 91       	pop	r23
    21e2:	6f 91       	pop	r22
    21e4:	5f 91       	pop	r21
    21e6:	4f 91       	pop	r20
    21e8:	3f 91       	pop	r19
    21ea:	2f 91       	pop	r18
    21ec:	0f 90       	pop	r0
    21ee:	0f be       	out	0x3f, r0	; 63
    21f0:	0f 90       	pop	r0
    21f2:	1f 90       	pop	r1
    21f4:	18 95       	reti

Disassembly of section .text.libgcc.div:

00003820 <__udivmodsi4>:
    3820:	a1 e2       	ldi	r26, 0x21	; 33
    3822:	1a 2e       	mov	r1, r26
    3824:	aa 1b       	sub	r26, r26
    3826:	bb 1b       	sub	r27, r27
    3828:	fd 01       	movw	r30, r26
    382a:	0d c0       	rjmp	.+26     	; 0x3846 <__udivmodsi4_ep>

0000382c <__udivmodsi4_loop>:
    382c:	aa 1f       	adc	r26, r26
    382e:	bb 1f       	adc	r27, r27
    3830:	ee 1f       	adc	r30, r30
    3832:	ff 1f       	adc	r31, r31
    3834:	a2 17       	cp	r26, r18
    3836:	b3 07       	cpc	r27, r19
    3838:	e4 07       	cpc	r30, r20
    383a:	f5 07       	cpc	r31, r21
    383c:	20 f0       	brcs	.+8      	; 0x3846 <__udivmodsi4_ep>
    383e:	a2 1b       	sub	r26, r18
    3840:	b3 0b       	sbc	r27, r19
    3842:	e4 0b       	sbc	r30, r20
    3844:	f5 0b       	sbc	r31, r21

00003846 <__udivmodsi4_ep>:
    3846:	66 1f       	adc	r22, r22
    3848:	77 1f       	adc	r23, r23
    384a:	88 1f       	adc	r24, r24
    384c:	99 1f       	adc	r25, r25
    384e:	1a 94       	dec	r1
    3850:	69 f7       	brne	.-38     	; 0x382c <__udivmodsi4_loop>
    3852:	60 95       	com	r22
    3854:	70 95       	com	r23
    3856:	80 95       	com	r24
    3858:	90 95       	com	r25
    385a:	9b 01       	movw	r18, r22
    385c:	ac 01       	movw	r20, r24
    385e:	bd 01       	movw	r22, r26
    3860:	cf 01       	movw	r24, r30
    3862:	08 95       	ret

Disassembly of section .text.libgcc:

00003aae <__tablejump2__>:
    3aae:	ee 0f       	add	r30, r30
    3ab0:	ff 1f       	adc	r31, r31
    3ab2:	05 90       	lpm	r0, Z+
    3ab4:	f4 91       	lpm	r31, Z
    3ab6:	e0 2d       	mov	r30, r0
    3ab8:	09 94       	ijmp

Disassembly of section .text.libgcc.mul:

000039f8 <__muluhisi3>:
    39f8:	0e 94 d5 1c 	call	0x39aa	; 0x39aa <__umulhisi3>
    39fc:	a5 9f       	mul	r26, r21
    39fe:	90 0d       	add	r25, r0
    3a00:	b4 9f       	mul	r27, r20
    3a02:	90 0d       	add	r25, r0
    3a04:	a4 9f       	mul	r26, r20
    3a06:	80 0d       	add	r24, r0
    3a08:	91 1d       	adc	r25, r1
    3a0a:	11 24       	eor	r1, r1
    3a0c:	08 95       	ret

Disassembly of section .text.libgcc:

000039c8 <__movmemx_qi>:
    39c8:	99 27       	eor	r25, r25

000039ca <__movmemx_hi>:
    39ca:	77 fd       	sbrc	r23, 7
    39cc:	05 c0       	rjmp	.+10     	; 0x39d8 <__movmemx_hi+0xe>
    39ce:	05 90       	lpm	r0, Z+
    39d0:	0d 92       	st	X+, r0
    39d2:	01 97       	sbiw	r24, 0x01	; 1
    39d4:	e1 f7       	brne	.-8      	; 0x39ce <__movmemx_hi+0x4>
    39d6:	08 95       	ret
    39d8:	01 90       	ld	r0, Z+
    39da:	0d 92       	st	X+, r0
    39dc:	01 97       	sbiw	r24, 0x01	; 1
    39de:	e1 f7       	brne	.-8      	; 0x39d8 <__movmemx_hi+0xe>
    39e0:	08 95       	ret

Disassembly of section .text.libgcc.mul:

000039aa <__umulhisi3>:
    39aa:	a2 9f       	mul	r26, r18
    39ac:	b0 01       	movw	r22, r0
    39ae:	b3 9f       	mul	r27, r19
    39b0:	c0 01       	movw	r24, r0
    39b2:	a3 9f       	mul	r26, r19
    39b4:	70 0d       	add	r23, r0
    39b6:	81 1d       	adc	r24, r1
    39b8:	11 24       	eor	r1, r1
    39ba:	91 1d       	adc	r25, r1
    39bc:	b2 9f       	mul	r27, r18
    39be:	70 0d       	add	r23, r0
    39c0:	81 1d       	adc	r24, r1
    39c2:	11 24       	eor	r1, r1
    39c4:	91 1d       	adc	r25, r1
    39c6:	08 95       	ret
