
LCD_matrix.elf:     file format elf32-avr

Sections:
Idx Name          Size      VMA       LMA       File off  Algn
  0 .data         00000000  00800100  00800100  0000386d  2**0
                  ALLOC, LOAD, DATA
  1 .text         00000104  00000000  00000000  00000134  2**1
                  CONTENTS, ALLOC, LOAD, READONLY, CODE
  2 .bss          00000032  00800100  00800100  0000386d  2**0
                  ALLOC
  3 .comment      0000002f  00000000  00000000  0000386d  2**0
                  CONTENTS, READONLY
  4 .debug_aranges 000001d0  00000000  00000000  0000389c  2**0
                  CONTENTS, READONLY, DEBUGGING
  5 .debug_info   00002eb7  00000000  00000000  00003a6c  2**0
                  CONTENTS, READONLY, DEBUGGING
  6 .debug_abbrev 00000802  00000000  00000000  00006923  2**0
                  CONTENTS, READONLY, DEBUGGING
  7 .debug_line   00001e2d  00000000  00000000  00007125  2**0
                  CONTENTS, READONLY, DEBUGGING
  8 .debug_frame  0000053c  00000000  00000000  00008f54  2**2
                  CONTENTS, READONLY, DEBUGGING
  9 .debug_str    00000218  00000000  00000000  00009490  2**0
                  CONTENTS, READONLY, DEBUGGING
 10 .debug_loc    00000b09  00000000  00000000  000096a8  2**0
                  CONTENTS, READONLY, DEBUGGING
 11 .debug_ranges 000001c0  00000000  00000000  0000a1b1  2**0
                  CONTENTS, READONLY, DEBUGGING
 12 .text         00000004  000036ba  000036ba  000037ee  2**1
                  CONTENTS, ALLOC, LOAD, READONLY, CODE
 13 .note.gnu.avr.deviceinfo 00000040  00000000  00000000  0000a374  2**2
                  CONTENTS, READONLY, DEBUGGING
 14 .text.SetBit  00000012  00003664  00003664  00003798  2**1
                  CONTENTS, ALLOC, LOAD, READONLY, CODE
 15 .text.ClearBit 00000014  00003614  00003614  00003748  2**1
                  CONTENTS, ALLOC, LOAD, READONLY, CODE
 16 .text.shiftIn 00000084  00002b8a  00002b8a  00002cbe  2**1
                  CONTENTS, ALLOC, LOAD, READONLY, CODE
 17 .text.shiftOut 00000048  0000336e  0000336e  000034a2  2**1
                  CONTENTS, ALLOC, LOAD, READONLY, CODE
 18 .text.init_int1 0000000c  00003688  00003688  000037bc  2**1
                  CONTENTS, ALLOC, LOAD, READONLY, CODE
 19 .text.delay_ms 00000054  00003192  00003192  000032c6  2**1
                  CONTENTS, ALLOC, LOAD, READONLY, CODE
 20 .text.delay_ns 00000048  000033b6  000033b6  000034ea  2**1
                  CONTENTS, ALLOC, LOAD, READONLY, CODE
 21 .text.send_instruction_lcd 00000040  000034d2  000034d2  00003606  2**1
                  CONTENTS, ALLOC, LOAD, READONLY, CODE
 22 .text.clear_Display 00000014  00003628  00003628  0000375c  2**1
                  CONTENTS, ALLOC, LOAD, READONLY, CODE
 23 .text.send_instruction_lcd_nibble 00000020  00003590  00003590  000036c4  2**1
                  CONTENTS, ALLOC, LOAD, READONLY, CODE
 24 .text.inicializa_display 0000009e  000029ca  000029ca  00002afe  2**1
                  CONTENTS, ALLOC, LOAD, READONLY, CODE
 25 .text.send_word_lcd 0000004c  00003322  00003322  00003456  2**1
                  CONTENTS, ALLOC, LOAD, READONLY, CODE
 26 .text.set_DDRAM_ADDR 0000004e  00003238  00003238  0000336c  2**1
                  CONTENTS, ALLOC, LOAD, READONLY, CODE
 27 .text.envia_frase 0000002c  00003542  00003542  00003676  2**1
                  CONTENTS, ALLOC, LOAD, READONLY, CODE
 28 .progmemx.data 00000146  00000104  00000104  00000238  2**0
                  CONTENTS, ALLOC, LOAD, READONLY, PROGMEMX
 29 .text.msg_inserir_senha 0000004e  00003286  00003286  000033ba  2**1
                  CONTENTS, ALLOC, LOAD, READONLY, CODE
 30 .text.msg_desativado 0000005c  0000307e  0000307e  000031b2  2**1
                  CONTENTS, ALLOC, LOAD, READONLY, CODE
 31 .text.msg_ativado 0000005c  000030da  000030da  0000320e  2**1
                  CONTENTS, ALLOC, LOAD, READONLY, CODE
 32 .text.msg_programacao 0000005c  00003136  00003136  0000326a  2**1
                  CONTENTS, ALLOC, LOAD, READONLY, CODE
 33 .text.msg_altera_senha 0000004e  000032d4  000032d4  00003408  2**1
                  CONTENTS, ALLOC, LOAD, READONLY, CODE
 34 .text.msg_h_sensores 00000066  00002c86  00002c86  00002dba  2**1
                  CONTENTS, ALLOC, LOAD, READONLY, CODE
 35 .text.msg_d_sensores 00000066  00002cec  00002cec  00002e20  2**1
                  CONTENTS, ALLOC, LOAD, READONLY, CODE
 36 .text.msg_panico 00000062  0000301c  0000301c  00003150  2**1
                  CONTENTS, ALLOC, LOAD, READONLY, CODE
 37 .text.msg_restauracao 00000044  0000348e  0000348e  000035c2  2**1
                  CONTENTS, ALLOC, LOAD, READONLY, CODE
 38 .text.msg_h_zona 00000066  00002d52  00002d52  00002e86  2**1
                  CONTENTS, ALLOC, LOAD, READONLY, CODE
 39 .text.msg_d_zona 00000066  00002db8  00002db8  00002eec  2**1
                  CONTENTS, ALLOC, LOAD, READONLY, CODE
 40 .text.msg_h_ass 00000066  00002e1e  00002e1e  00002f52  2**1
                  CONTENTS, ALLOC, LOAD, READONLY, CODE
 41 .text.msg_d_ass 00000066  00002e84  00002e84  00002fb8  2**1
                  CONTENTS, ALLOC, LOAD, READONLY, CODE
 42 .text.msg_ajusteTout 00000066  00002eea  00002eea  0000301e  2**1
                  CONTENTS, ALLOC, LOAD, READONLY, CODE
 43 .text.msg_time_sirene 00000066  00002f50  00002f50  00003084  2**1
                  CONTENTS, ALLOC, LOAD, READONLY, CODE
 44 .text.msg_temp_ativ 00000066  00002fb6  00002fb6  000030ea  2**1
                  CONTENTS, ALLOC, LOAD, READONLY, CODE
 45 .text.insert_senha 00000014  0000363c  0000363c  00003770  2**1
                  CONTENTS, ALLOC, LOAD, READONLY, CODE
 46 .text.senha_arm 00000052  000031e6  000031e6  0000331a  2**1
                  CONTENTS, ALLOC, LOAD, READONLY, CODE
 47 .text.verify_senhaM 00000078  00002c0e  00002c0e  00002d42  2**1
                  CONTENTS, ALLOC, LOAD, READONLY, CODE
 48 .text.verify_senhaD 000001bc  0000242e  0000242e  00002562  2**1
                  CONTENTS, ALLOC, LOAD, READONLY, CODE
 49 .text.hab_sensor 00000146  00002792  00002792  000028c6  2**1
                  CONTENTS, ALLOC, LOAD, READONLY, CODE
 50 .text.hab_zonas 00000090  00002afa  00002afa  00002c2e  2**1
                  CONTENTS, ALLOC, LOAD, READONLY, CODE
 51 .text.assSensorZona 0000033e  000020f0  000020f0  00002224  2**1
                  CONTENTS, ALLOC, LOAD, READONLY, CODE
 52 .text.set_timeout 00000030  00003512  00003512  00003646  2**1
                  CONTENTS, ALLOC, LOAD, READONLY, CODE
 53 .text.set_timeA 00000048  000033fe  000033fe  00003532  2**1
                  CONTENTS, ALLOC, LOAD, READONLY, CODE
 54 .text.set_timeS 00000048  00003446  00003446  0000357a  2**1
                  CONTENTS, ALLOC, LOAD, READONLY, CODE
 55 .text.SetupTimer1 00000022  0000356e  0000356e  000036a2  2**1
                  CONTENTS, ALLOC, LOAD, READONLY, CODE
 56 .text.StartTimer1 0000000c  00003694  00003694  000037c8  2**1
                  CONTENTS, ALLOC, LOAD, READONLY, CODE
 57 .text.verify_senhaA 000001a8  000025ea  000025ea  0000271e  2**1
                  CONTENTS, ALLOC, LOAD, READONLY, CODE
 58 .text.StopTimer1 00000014  00003650  00003650  00003784  2**1
                  CONTENTS, ALLOC, LOAD, READONLY, CODE
 59 .text.SetupTimer0 00000012  00003676  00003676  000037aa  2**1
                  CONTENTS, ALLOC, LOAD, READONLY, CODE
 60 .text.main    00000092  00002a68  00002a68  00002b9c  2**1
                  CONTENTS, ALLOC, LOAD, READONLY, CODE
 61 .text.ZerarTemps 00000016  000035e8  000035e8  0000371c  2**1
                  CONTENTS, ALLOC, LOAD, READONLY, CODE
 62 .text.StartSirene 00000008  000036ac  000036ac  000037e0  2**1
                  CONTENTS, ALLOC, LOAD, READONLY, CODE
 63 .text.StopSirene 00000006  000036b4  000036b4  000037e8  2**1
                  CONTENTS, ALLOC, LOAD, READONLY, CODE
 64 .text.__vector_2 00001ea6  0000024a  0000024a  0000037e  2**1
                  CONTENTS, ALLOC, LOAD, READONLY, CODE
 65 .text.__vector_11 000000f2  000028d8  000028d8  00002a0c  2**1
                  CONTENTS, ALLOC, LOAD, READONLY, CODE
 66 .bss.state    00000001  008001d8  008001d8  0000386d  2**0
                  ALLOC
 67 .data.sensor7 00000006  0080016e  000036fa  0000382e  2**0
                  CONTENTS, ALLOC, LOAD, DATA
 68 .data.sensor6 00000006  00800174  00003700  00003834  2**0
                  CONTENTS, ALLOC, LOAD, DATA
 69 .data.sensor5 00000006  0080017a  00003706  0000383a  2**0
                  CONTENTS, ALLOC, LOAD, DATA
 70 .data.sensor4 00000006  00800180  0000370c  00003840  2**0
                  CONTENTS, ALLOC, LOAD, DATA
 71 .data.sensor3 00000006  00800186  00003712  00003846  2**0
                  CONTENTS, ALLOC, LOAD, DATA
 72 .data.sensor2 00000006  0080018c  00003718  0000384c  2**0
                  CONTENTS, ALLOC, LOAD, DATA
 73 .data.sensor1 00000006  00800192  0000371e  00003852  2**0
                  CONTENTS, ALLOC, LOAD, DATA
 74 .bss.sensor0  00000006  00800198  00800198  0000386d  2**0
                  ALLOC
 75 .data.zona3   00000014  00800132  000036be  000037f2  2**0
                  CONTENTS, ALLOC, LOAD, DATA
 76 .data.zona2   00000014  00800146  000036d2  00003806  2**0
                  CONTENTS, ALLOC, LOAD, DATA
 77 .data.zona1   00000014  0080015a  000036e6  0000381a  2**0
                  CONTENTS, ALLOC, LOAD, DATA
 78 .bss.cont_s   00000002  008001b6  008001b6  0000386d  2**0
                  ALLOC
 79 .bss.cont_aa  00000002  008001b8  008001b8  0000386d  2**0
                  ALLOC
 80 .bss.cont_t   00000002  008001ba  008001ba  0000386d  2**0
                  ALLOC
 81 .bss.flag_tat 00000002  008001bc  008001bc  0000386d  2**0
                  ALLOC
 82 .bss.flag_tsirene 00000002  008001be  008001be  0000386d  2**0
                  ALLOC
 83 .bss.flag_timeout 00000002  008001c0  008001c0  0000386d  2**0
                  ALLOC
 84 .bss.cont_ativacao 00000002  008001c2  008001c2  0000386d  2**0
                  ALLOC
 85 .bss.cont_sirene 00000002  008001c4  008001c4  0000386d  2**0
                  ALLOC
 86 .bss.cont_timeout 00000001  008001d9  008001d9  0000386d  2**0
                  ALLOC
 87 .bss.flag_z1  00000002  008001c6  008001c6  0000386d  2**0
                  ALLOC
 88 .bss.flag_z   00000002  008001c8  008001c8  0000386d  2**0
                  ALLOC
 89 .bss.flag_p   00000002  008001ca  008001ca  0000386d  2**0
                  ALLOC
 90 .bss.flag_D_sensor 00000002  008001cc  008001cc  0000386d  2**0
                  ALLOC
 91 .bss.flag_sensor 00000002  008001ce  008001ce  0000386d  2**0
                  ALLOC
 92 .bss.cont_b   00000002  008001d0  008001d0  0000386d  2**0
                  ALLOC
 93 .bss.cont_a   00000002  008001d2  008001d2  0000386d  2**0
                  ALLOC
 94 .bss.count_senha 00000002  008001d4  008001d4  0000386d  2**0
                  ALLOC
 95 .bss.flag_a_senha 00000002  008001d6  008001d6  0000386d  2**0
                  ALLOC
 96 .data.senha3  00000005  0080019e  00003724  00003858  2**0
                  CONTENTS, ALLOC, LOAD, DATA
 97 .data.senha2  00000005  008001a3  00003729  0000385d  2**0
                  CONTENTS, ALLOC, LOAD, DATA
 98 .data.senha1  00000005  008001a8  0000372e  00003862  2**0
                  CONTENTS, ALLOC, LOAD, DATA
 99 .data.mestre  00000005  008001ad  00003733  00003867  2**0
                  CONTENTS, ALLOC, LOAD, DATA
100 .bss.x        00000004  008001b2  008001b2  0000386d  2**0
                  ALLOC
101 .data.varEscritaSerial 00000001  008001da  00003738  0000386c  2**0
                  CONTENTS, ALLOC, LOAD, DATA
102 .bss.varLeituraSerial 00000001  008001db  008001db  0000386d  2**0
                  ALLOC
103 .text.libgcc  0000000c  000036a0  000036a0  000037d4  2**1
                  CONTENTS, ALLOC, LOAD, READONLY, CODE
104 .text.libgcc.mul 00000016  000035fe  000035fe  00003732  2**1
                  CONTENTS, ALLOC, LOAD, READONLY, CODE
105 .text.libgcc  0000001a  000035ce  000035ce  00003702  2**1
                  CONTENTS, ALLOC, LOAD, READONLY, CODE
106 .text.libgcc.mul 0000001e  000035b0  000035b0  000036e4  2**1
                  CONTENTS, ALLOC, LOAD, READONLY, CODE

Disassembly of section .text:

00000000 <__vectors>:
   0:	0c 94 58 00 	jmp	0xb0	; 0xb0 <__ctors_end>
   4:	0c 94 5d 1b 	jmp	0x36ba	; 0x36ba <__bad_interrupt>
   8:	0c 94 25 01 	jmp	0x24a	; 0x24a <__vector_2>
   c:	0c 94 5d 1b 	jmp	0x36ba	; 0x36ba <__bad_interrupt>
  10:	0c 94 5d 1b 	jmp	0x36ba	; 0x36ba <__bad_interrupt>
  14:	0c 94 5d 1b 	jmp	0x36ba	; 0x36ba <__bad_interrupt>
  18:	0c 94 5d 1b 	jmp	0x36ba	; 0x36ba <__bad_interrupt>
  1c:	0c 94 5d 1b 	jmp	0x36ba	; 0x36ba <__bad_interrupt>
  20:	0c 94 5d 1b 	jmp	0x36ba	; 0x36ba <__bad_interrupt>
  24:	0c 94 5d 1b 	jmp	0x36ba	; 0x36ba <__bad_interrupt>
  28:	0c 94 5d 1b 	jmp	0x36ba	; 0x36ba <__bad_interrupt>
  2c:	0c 94 6c 14 	jmp	0x28d8	; 0x28d8 <__vector_11>
  30:	0c 94 5d 1b 	jmp	0x36ba	; 0x36ba <__bad_interrupt>
  34:	0c 94 5d 1b 	jmp	0x36ba	; 0x36ba <__bad_interrupt>
  38:	0c 94 5d 1b 	jmp	0x36ba	; 0x36ba <__bad_interrupt>
  3c:	0c 94 5d 1b 	jmp	0x36ba	; 0x36ba <__bad_interrupt>
  40:	0c 94 5d 1b 	jmp	0x36ba	; 0x36ba <__bad_interrupt>
  44:	0c 94 5d 1b 	jmp	0x36ba	; 0x36ba <__bad_interrupt>
  48:	0c 94 5d 1b 	jmp	0x36ba	; 0x36ba <__bad_interrupt>
  4c:	0c 94 5d 1b 	jmp	0x36ba	; 0x36ba <__bad_interrupt>
  50:	0c 94 5d 1b 	jmp	0x36ba	; 0x36ba <__bad_interrupt>
  54:	0c 94 5d 1b 	jmp	0x36ba	; 0x36ba <__bad_interrupt>
  58:	0c 94 5d 1b 	jmp	0x36ba	; 0x36ba <__bad_interrupt>
  5c:	0c 94 5d 1b 	jmp	0x36ba	; 0x36ba <__bad_interrupt>
  60:	0c 94 5d 1b 	jmp	0x36ba	; 0x36ba <__bad_interrupt>
  64:	0c 94 5d 1b 	jmp	0x36ba	; 0x36ba <__bad_interrupt>
  68:	53 15       	cp	r21, r3
  6a:	45 15       	cp	r20, r5
  6c:	45 15       	cp	r20, r5
  6e:	45 15       	cp	r20, r5
  70:	45 15       	cp	r20, r5
  72:	6b 15       	cp	r22, r11
  74:	71 15       	cp	r23, r1
  76:	6e 15       	cp	r22, r14
  78:	45 15       	cp	r20, r5
  7a:	45 15       	cp	r20, r5
  7c:	45 15       	cp	r20, r5
  7e:	45 15       	cp	r20, r5
  80:	74 15       	cp	r23, r4
  82:	77 15       	cp	r23, r7
  84:	7a 15       	cp	r23, r10

00000086 <.dinit>:
  86:	01 00       	.word	0x0001	; ????
  88:	01 32       	cpi	r16, 0x21	; 33
  8a:	80 01       	movw	r16, r0
  8c:	32 01       	movw	r6, r4
  8e:	98 00       	.word	0x0098	; ????
  90:	36 be       	out	0x36, r3	; 54
  92:	01 98       	cbi	0x00, 1	; 0
  94:	01 9e       	mul	r0, r17
  96:	80 01       	movw	r16, r0
  98:	9e 01       	movw	r18, r28
  9a:	b2 00       	.word	0x00b2	; ????
  9c:	37 24       	eor	r3, r7
  9e:	01 b2       	in	r0, 0x11	; 17
  a0:	01 da       	rcall	.-3070   	; 0xfffff4a4 <__eeprom_end+0xff7ef4a4>
  a2:	80 01       	movw	r16, r0
  a4:	da 01       	movw	r26, r20
  a6:	db 00       	.word	0x00db	; ????
  a8:	37 38       	cpi	r19, 0x87	; 135
  aa:	01 db       	rcall	.-2558   	; 0xfffff6ae <__eeprom_end+0xff7ef6ae>
  ac:	01 dc       	rcall	.-2046   	; 0xfffff8b0 <__eeprom_end+0xff7ef8b0>
  ae:	80 00       	.word	0x0080	; ????

000000b0 <__ctors_end>:
  b0:	11 24       	eor	r1, r1
  b2:	1f be       	out	0x3f, r1	; 63
  b4:	cf ef       	ldi	r28, 0xFF	; 255
  b6:	d8 e0       	ldi	r29, 0x08	; 8
  b8:	de bf       	out	0x3e, r29	; 62
  ba:	cd bf       	out	0x3d, r28	; 61

000000bc <__do_copy_data>:
  bc:	e6 e8       	ldi	r30, 0x86	; 134
  be:	f0 e0       	ldi	r31, 0x00	; 0
  c0:	40 e0       	ldi	r20, 0x00	; 0
  c2:	17 c0       	rjmp	.+46     	; 0xf2 <__do_clear_bss+0x8>
  c4:	b5 91       	lpm	r27, Z+
  c6:	a5 91       	lpm	r26, Z+
  c8:	35 91       	lpm	r19, Z+
  ca:	25 91       	lpm	r18, Z+
  cc:	05 91       	lpm	r16, Z+
  ce:	07 fd       	sbrc	r16, 7
  d0:	0c c0       	rjmp	.+24     	; 0xea <__do_clear_bss>
  d2:	95 91       	lpm	r25, Z+
  d4:	85 91       	lpm	r24, Z+
  d6:	ef 01       	movw	r28, r30
  d8:	f9 2f       	mov	r31, r25
  da:	e8 2f       	mov	r30, r24
  dc:	05 90       	lpm	r0, Z+
  de:	0d 92       	st	X+, r0
  e0:	a2 17       	cp	r26, r18
  e2:	b3 07       	cpc	r27, r19
  e4:	d9 f7       	brne	.-10     	; 0xdc <__do_copy_data+0x20>
  e6:	fe 01       	movw	r30, r28
  e8:	04 c0       	rjmp	.+8      	; 0xf2 <__do_clear_bss+0x8>

000000ea <__do_clear_bss>:
  ea:	1d 92       	st	X+, r1
  ec:	a2 17       	cp	r26, r18
  ee:	b3 07       	cpc	r27, r19
  f0:	e1 f7       	brne	.-8      	; 0xea <__do_clear_bss>
  f2:	ef 3a       	cpi	r30, 0xAF	; 175
  f4:	f4 07       	cpc	r31, r20
  f6:	31 f7       	brne	.-52     	; 0xc4 <__do_copy_data+0x8>
  f8:	0e 94 34 15 	call	0x2a68	; 0x2a68 <main>
  fc:	0c 94 80 00 	jmp	0x100	; 0x100 <_exit>

00000100 <_exit>:
 100:	f8 94       	cli

00000102 <__stop_program>:
 102:	ff cf       	rjmp	.-2      	; 0x102 <__stop_program>

Disassembly of section .text:

000036ba <__bad_interrupt>:
    36ba:	0c 94 00 00 	jmp	0	; 0x0 <__TEXT_REGION_ORIGIN__>

Disassembly of section .text.SetBit:

00003664 <SetBit>:
}

void StopTimer0()
{
	TCCR0B &= ~((1 << CS02) | (1 << CS01) | (1 << CS00)); // sem prescaler, o timer para
	TCNT0 = 0; // zerado para não atrapalhar a próxima contagem
    3664:	21 e0       	ldi	r18, 0x01	; 1
    3666:	30 e0       	ldi	r19, 0x00	; 0
    3668:	02 c0       	rjmp	.+4      	; 0x366e <SetBit+0xa>
    366a:	22 0f       	add	r18, r18
    366c:	33 1f       	adc	r19, r19
    366e:	6a 95       	dec	r22
    3670:	e2 f7       	brpl	.-8      	; 0x366a <SetBit+0x6>
    3672:	82 2b       	or	r24, r18
    3674:	08 95       	ret

Disassembly of section .text.ClearBit:

00003614 <ClearBit>:
    3614:	21 e0       	ldi	r18, 0x01	; 1
    3616:	30 e0       	ldi	r19, 0x00	; 0
    3618:	02 c0       	rjmp	.+4      	; 0x361e <ClearBit+0xa>
    361a:	22 0f       	add	r18, r18
    361c:	33 1f       	adc	r19, r19
    361e:	6a 95       	dec	r22
    3620:	e2 f7       	brpl	.-8      	; 0x361a <ClearBit+0x6>
    3622:	20 95       	com	r18
    3624:	82 23       	and	r24, r18
    3626:	08 95       	ret

Disassembly of section .text.shiftIn:

00002b8a <shiftIn>:
    2b8a:	cf 93       	push	r28
    2b8c:	85 b1       	in	r24, 0x05	; 5
    2b8e:	80 64       	ori	r24, 0x40	; 64
    2b90:	85 b9       	out	0x05, r24	; 5
    2b92:	85 b1       	in	r24, 0x05	; 5
    2b94:	82 60       	ori	r24, 0x02	; 2
    2b96:	85 b9       	out	0x05, r24	; 5
    2b98:	85 b1       	in	r24, 0x05	; 5
    2b9a:	8d 7f       	andi	r24, 0xFD	; 253
    2b9c:	85 b9       	out	0x05, r24	; 5
    2b9e:	85 b1       	in	r24, 0x05	; 5
    2ba0:	8f 7b       	andi	r24, 0xBF	; 191
    2ba2:	85 b9       	out	0x05, r24	; 5
    2ba4:	c0 e0       	ldi	r28, 0x00	; 0
    2ba6:	2f c0       	rjmp	.+94     	; 0x2c06 <shiftIn+0x7c>
    2ba8:	18 9b       	sbis	0x03, 0	; 3
    2baa:	15 c0       	rjmp	.+42     	; 0x2bd6 <shiftIn+0x4c>
    2bac:	80 91 db 01 	lds	r24, 0x01DB	; 0x8001db <varLeituraSerial>
    2bb0:	21 e0       	ldi	r18, 0x01	; 1
    2bb2:	30 e0       	ldi	r19, 0x00	; 0
    2bb4:	0c 2e       	mov	r0, r28
    2bb6:	02 c0       	rjmp	.+4      	; 0x2bbc <shiftIn+0x32>
    2bb8:	22 0f       	add	r18, r18
    2bba:	33 1f       	adc	r19, r19
    2bbc:	0a 94       	dec	r0
    2bbe:	e2 f7       	brpl	.-8      	; 0x2bb8 <shiftIn+0x2e>
    2bc0:	20 95       	com	r18
    2bc2:	30 95       	com	r19
    2bc4:	28 2b       	or	r18, r24
    2bc6:	23 2b       	or	r18, r19
    2bc8:	b9 f0       	breq	.+46     	; 0x2bf8 <shiftIn+0x6e>
    2bca:	6c 2f       	mov	r22, r28
    2bcc:	0e 94 32 1b 	call	0x3664	; 0x3664 <SetBit>
    2bd0:	80 93 db 01 	sts	0x01DB, r24	; 0x8001db <varLeituraSerial>
    2bd4:	11 c0       	rjmp	.+34     	; 0x2bf8 <shiftIn+0x6e>
    2bd6:	80 91 db 01 	lds	r24, 0x01DB	; 0x8001db <varLeituraSerial>
    2bda:	28 2f       	mov	r18, r24
    2bdc:	30 e0       	ldi	r19, 0x00	; 0
    2bde:	0c 2e       	mov	r0, r28
    2be0:	02 c0       	rjmp	.+4      	; 0x2be6 <shiftIn+0x5c>
    2be2:	35 95       	asr	r19
    2be4:	27 95       	ror	r18
    2be6:	0a 94       	dec	r0
    2be8:	e2 f7       	brpl	.-8      	; 0x2be2 <shiftIn+0x58>
    2bea:	20 ff       	sbrs	r18, 0
    2bec:	05 c0       	rjmp	.+10     	; 0x2bf8 <shiftIn+0x6e>
    2bee:	6c 2f       	mov	r22, r28
    2bf0:	0e 94 0a 1b 	call	0x3614	; 0x3614 <ClearBit>
    2bf4:	80 93 db 01 	sts	0x01DB, r24	; 0x8001db <varLeituraSerial>
    2bf8:	85 b1       	in	r24, 0x05	; 5
    2bfa:	82 60       	ori	r24, 0x02	; 2
    2bfc:	85 b9       	out	0x05, r24	; 5
    2bfe:	85 b1       	in	r24, 0x05	; 5
    2c00:	8d 7f       	andi	r24, 0xFD	; 253
    2c02:	85 b9       	out	0x05, r24	; 5
    2c04:	cf 5f       	subi	r28, 0xFF	; 255
    2c06:	c8 30       	cpi	r28, 0x08	; 8
    2c08:	78 f2       	brcs	.-98     	; 0x2ba8 <shiftIn+0x1e>
    2c0a:	cf 91       	pop	r28
    2c0c:	08 95       	ret

Disassembly of section .text.shiftOut:

0000336e <shiftOut>:
    336e:	20 e0       	ldi	r18, 0x00	; 0
    3370:	19 c0       	rjmp	.+50     	; 0x33a4 <shiftOut+0x36>
    3372:	80 91 da 01 	lds	r24, 0x01DA	; 0x8001da <varEscritaSerial>
    3376:	90 e0       	ldi	r25, 0x00	; 0
    3378:	02 2e       	mov	r0, r18
    337a:	02 c0       	rjmp	.+4      	; 0x3380 <shiftOut+0x12>
    337c:	95 95       	asr	r25
    337e:	87 95       	ror	r24
    3380:	0a 94       	dec	r0
    3382:	e2 f7       	brpl	.-8      	; 0x337c <shiftOut+0xe>
    3384:	80 ff       	sbrs	r24, 0
    3386:	04 c0       	rjmp	.+8      	; 0x3390 <shiftOut+0x22>
    3388:	8b b1       	in	r24, 0x0b	; 11
    338a:	84 60       	ori	r24, 0x04	; 4
    338c:	8b b9       	out	0x0b, r24	; 11
    338e:	03 c0       	rjmp	.+6      	; 0x3396 <shiftOut+0x28>
    3390:	8b b1       	in	r24, 0x0b	; 11
    3392:	8b 7f       	andi	r24, 0xFB	; 251
    3394:	8b b9       	out	0x0b, r24	; 11
    3396:	85 b1       	in	r24, 0x05	; 5
    3398:	82 60       	ori	r24, 0x02	; 2
    339a:	85 b9       	out	0x05, r24	; 5
    339c:	85 b1       	in	r24, 0x05	; 5
    339e:	8d 7f       	andi	r24, 0xFD	; 253
    33a0:	85 b9       	out	0x05, r24	; 5
    33a2:	2f 5f       	subi	r18, 0xFF	; 255
    33a4:	28 30       	cpi	r18, 0x08	; 8
    33a6:	28 f3       	brcs	.-54     	; 0x3372 <shiftOut+0x4>
    33a8:	83 b1       	in	r24, 0x03	; 3
    33aa:	8f 77       	andi	r24, 0x7F	; 127
    33ac:	83 b9       	out	0x03, r24	; 3
    33ae:	83 b1       	in	r24, 0x03	; 3
    33b0:	80 68       	ori	r24, 0x80	; 128
    33b2:	83 b9       	out	0x03, r24	; 3
    33b4:	08 95       	ret

Disassembly of section .text.init_int1:

00003688 <init_int1>:

// INTERRUPÇÃO EXTERNA //

void init_int1(){
	
	EICRA = (1<<ISC11) | (1<<ISC10);
    3688:	8c e0       	ldi	r24, 0x0C	; 12
    368a:	80 93 69 00 	sts	0x0069, r24	; 0x800069 <__TEXT_REGION_LENGTH__+0x7f8069>
	EIMSK = (1<<INT1);
    368e:	82 e0       	ldi	r24, 0x02	; 2
    3690:	8d bb       	out	0x1d, r24	; 29
    3692:	08 95       	ret

Disassembly of section .text.delay_ms:

00003192 <delay_ms>:
}

void StopTimer0()
{
	TCCR0B &= ~((1 << CS02) | (1 << CS01) | (1 << CS00)); // sem prescaler, o timer para
	TCNT0 = 0; // zerado para não atrapalhar a próxima contagem
    3192:	9b 01       	movw	r18, r22
    3194:	ac 01       	movw	r20, r24
    3196:	10 92 b2 01 	sts	0x01B2, r1	; 0x8001b2 <x>
    319a:	10 92 b3 01 	sts	0x01B3, r1	; 0x8001b3 <x+0x1>
    319e:	10 92 b4 01 	sts	0x01B4, r1	; 0x8001b4 <x+0x2>
    31a2:	10 92 b5 01 	sts	0x01B5, r1	; 0x8001b5 <x+0x3>
    31a6:	a8 ee       	ldi	r26, 0xE8	; 232
    31a8:	b3 e0       	ldi	r27, 0x03	; 3
    31aa:	0e 94 ff 1a 	call	0x35fe	; 0x35fe <__muluhisi3>
    31ae:	ab 01       	movw	r20, r22
    31b0:	bc 01       	movw	r22, r24
    31b2:	0b c0       	rjmp	.+22     	; 0x31ca <delay_ms+0x38>
    31b4:	01 96       	adiw	r24, 0x01	; 1
    31b6:	a1 1d       	adc	r26, r1
    31b8:	b1 1d       	adc	r27, r1
    31ba:	80 93 b2 01 	sts	0x01B2, r24	; 0x8001b2 <x>
    31be:	90 93 b3 01 	sts	0x01B3, r25	; 0x8001b3 <x+0x1>
    31c2:	a0 93 b4 01 	sts	0x01B4, r26	; 0x8001b4 <x+0x2>
    31c6:	b0 93 b5 01 	sts	0x01B5, r27	; 0x8001b5 <x+0x3>
    31ca:	80 91 b2 01 	lds	r24, 0x01B2	; 0x8001b2 <x>
    31ce:	90 91 b3 01 	lds	r25, 0x01B3	; 0x8001b3 <x+0x1>
    31d2:	a0 91 b4 01 	lds	r26, 0x01B4	; 0x8001b4 <x+0x2>
    31d6:	b0 91 b5 01 	lds	r27, 0x01B5	; 0x8001b5 <x+0x3>
    31da:	48 17       	cp	r20, r24
    31dc:	59 07       	cpc	r21, r25
    31de:	6a 07       	cpc	r22, r26
    31e0:	7b 07       	cpc	r23, r27
    31e2:	44 f7       	brge	.-48     	; 0x31b4 <delay_ms+0x22>
    31e4:	08 95       	ret

Disassembly of section .text.delay_ns:

000033b6 <delay_ns>:
    33b6:	ab 01       	movw	r20, r22
    33b8:	bc 01       	movw	r22, r24
    33ba:	10 92 b2 01 	sts	0x01B2, r1	; 0x8001b2 <x>
    33be:	10 92 b3 01 	sts	0x01B3, r1	; 0x8001b3 <x+0x1>
    33c2:	10 92 b4 01 	sts	0x01B4, r1	; 0x8001b4 <x+0x2>
    33c6:	10 92 b5 01 	sts	0x01B5, r1	; 0x8001b5 <x+0x3>
    33ca:	0b c0       	rjmp	.+22     	; 0x33e2 <delay_ns+0x2c>
    33cc:	01 96       	adiw	r24, 0x01	; 1
    33ce:	a1 1d       	adc	r26, r1
    33d0:	b1 1d       	adc	r27, r1
    33d2:	80 93 b2 01 	sts	0x01B2, r24	; 0x8001b2 <x>
    33d6:	90 93 b3 01 	sts	0x01B3, r25	; 0x8001b3 <x+0x1>
    33da:	a0 93 b4 01 	sts	0x01B4, r26	; 0x8001b4 <x+0x2>
    33de:	b0 93 b5 01 	sts	0x01B5, r27	; 0x8001b5 <x+0x3>
    33e2:	80 91 b2 01 	lds	r24, 0x01B2	; 0x8001b2 <x>
    33e6:	90 91 b3 01 	lds	r25, 0x01B3	; 0x8001b3 <x+0x1>
    33ea:	a0 91 b4 01 	lds	r26, 0x01B4	; 0x8001b4 <x+0x2>
    33ee:	b0 91 b5 01 	lds	r27, 0x01B5	; 0x8001b5 <x+0x3>
    33f2:	48 17       	cp	r20, r24
    33f4:	59 07       	cpc	r21, r25
    33f6:	6a 07       	cpc	r22, r26
    33f8:	7b 07       	cpc	r23, r27
    33fa:	44 f7       	brge	.-48     	; 0x33cc <delay_ns+0x16>
    33fc:	08 95       	ret

Disassembly of section .text.send_instruction_lcd:

000034d2 <send_instruction_lcd>:
    34d2:	98 b1       	in	r25, 0x08	; 8
    34d4:	90 7c       	andi	r25, 0xC0	; 192
    34d6:	98 b9       	out	0x08, r25	; 8
    34d8:	98 b1       	in	r25, 0x08	; 8
    34da:	9f 7e       	andi	r25, 0xEF	; 239
    34dc:	98 b9       	out	0x08, r25	; 8
    34de:	98 b1       	in	r25, 0x08	; 8
    34e0:	90 62       	ori	r25, 0x20	; 32
    34e2:	98 b9       	out	0x08, r25	; 8
    34e4:	98 b1       	in	r25, 0x08	; 8
    34e6:	28 2f       	mov	r18, r24
    34e8:	22 95       	swap	r18
    34ea:	2f 70       	andi	r18, 0x0F	; 15
    34ec:	92 2b       	or	r25, r18
    34ee:	98 b9       	out	0x08, r25	; 8
    34f0:	98 b1       	in	r25, 0x08	; 8
    34f2:	9f 7d       	andi	r25, 0xDF	; 223
    34f4:	98 b9       	out	0x08, r25	; 8
    34f6:	98 b1       	in	r25, 0x08	; 8
    34f8:	90 7c       	andi	r25, 0xC0	; 192
    34fa:	98 b9       	out	0x08, r25	; 8
    34fc:	98 b1       	in	r25, 0x08	; 8
    34fe:	90 62       	ori	r25, 0x20	; 32
    3500:	98 b9       	out	0x08, r25	; 8
    3502:	98 b1       	in	r25, 0x08	; 8
    3504:	8f 70       	andi	r24, 0x0F	; 15
    3506:	89 2b       	or	r24, r25
    3508:	88 b9       	out	0x08, r24	; 8
    350a:	88 b1       	in	r24, 0x08	; 8
    350c:	8f 7d       	andi	r24, 0xDF	; 223
    350e:	88 b9       	out	0x08, r24	; 8
    3510:	08 95       	ret

Disassembly of section .text.clear_Display:

00003628 <clear_Display>:
    3628:	81 e0       	ldi	r24, 0x01	; 1
    362a:	0e 94 69 1a 	call	0x34d2	; 0x34d2 <send_instruction_lcd>
    362e:	6f e0       	ldi	r22, 0x0F	; 15
    3630:	70 e0       	ldi	r23, 0x00	; 0
    3632:	80 e0       	ldi	r24, 0x00	; 0
    3634:	90 e0       	ldi	r25, 0x00	; 0
    3636:	0e 94 c9 18 	call	0x3192	; 0x3192 <delay_ms>
    363a:	08 95       	ret

Disassembly of section .text.send_instruction_lcd_nibble:

00003590 <send_instruction_lcd_nibble>:
    3590:	98 b1       	in	r25, 0x08	; 8
    3592:	90 7c       	andi	r25, 0xC0	; 192
    3594:	98 b9       	out	0x08, r25	; 8
    3596:	98 b1       	in	r25, 0x08	; 8
    3598:	9f 7e       	andi	r25, 0xEF	; 239
    359a:	98 b9       	out	0x08, r25	; 8
    359c:	98 b1       	in	r25, 0x08	; 8
    359e:	90 62       	ori	r25, 0x20	; 32
    35a0:	98 b9       	out	0x08, r25	; 8
    35a2:	98 b1       	in	r25, 0x08	; 8
    35a4:	89 2b       	or	r24, r25
    35a6:	88 b9       	out	0x08, r24	; 8
    35a8:	88 b1       	in	r24, 0x08	; 8
    35aa:	8f 7d       	andi	r24, 0xDF	; 223
    35ac:	88 b9       	out	0x08, r24	; 8
    35ae:	08 95       	ret

Disassembly of section .text.inicializa_display:

000029ca <inicializa_display>:
    29ca:	6f e0       	ldi	r22, 0x0F	; 15
    29cc:	70 e0       	ldi	r23, 0x00	; 0
    29ce:	80 e0       	ldi	r24, 0x00	; 0
    29d0:	90 e0       	ldi	r25, 0x00	; 0
    29d2:	0e 94 c9 18 	call	0x3192	; 0x3192 <delay_ms>
    29d6:	83 e0       	ldi	r24, 0x03	; 3
    29d8:	0e 94 c8 1a 	call	0x3590	; 0x3590 <send_instruction_lcd_nibble>
    29dc:	65 e0       	ldi	r22, 0x05	; 5
    29de:	70 e0       	ldi	r23, 0x00	; 0
    29e0:	80 e0       	ldi	r24, 0x00	; 0
    29e2:	90 e0       	ldi	r25, 0x00	; 0
    29e4:	0e 94 c9 18 	call	0x3192	; 0x3192 <delay_ms>
    29e8:	83 e0       	ldi	r24, 0x03	; 3
    29ea:	0e 94 c8 1a 	call	0x3590	; 0x3590 <send_instruction_lcd_nibble>
    29ee:	64 e6       	ldi	r22, 0x64	; 100
    29f0:	70 e0       	ldi	r23, 0x00	; 0
    29f2:	80 e0       	ldi	r24, 0x00	; 0
    29f4:	90 e0       	ldi	r25, 0x00	; 0
    29f6:	0e 94 db 19 	call	0x33b6	; 0x33b6 <delay_ns>
    29fa:	83 e0       	ldi	r24, 0x03	; 3
    29fc:	0e 94 c8 1a 	call	0x3590	; 0x3590 <send_instruction_lcd_nibble>
    2a00:	68 e2       	ldi	r22, 0x28	; 40
    2a02:	70 e0       	ldi	r23, 0x00	; 0
    2a04:	80 e0       	ldi	r24, 0x00	; 0
    2a06:	90 e0       	ldi	r25, 0x00	; 0
    2a08:	0e 94 db 19 	call	0x33b6	; 0x33b6 <delay_ns>
    2a0c:	82 e0       	ldi	r24, 0x02	; 2
    2a0e:	0e 94 c8 1a 	call	0x3590	; 0x3590 <send_instruction_lcd_nibble>
    2a12:	68 e2       	ldi	r22, 0x28	; 40
    2a14:	70 e0       	ldi	r23, 0x00	; 0
    2a16:	80 e0       	ldi	r24, 0x00	; 0
    2a18:	90 e0       	ldi	r25, 0x00	; 0
    2a1a:	0e 94 db 19 	call	0x33b6	; 0x33b6 <delay_ns>
    2a1e:	88 e2       	ldi	r24, 0x28	; 40
    2a20:	0e 94 69 1a 	call	0x34d2	; 0x34d2 <send_instruction_lcd>
    2a24:	68 e2       	ldi	r22, 0x28	; 40
    2a26:	70 e0       	ldi	r23, 0x00	; 0
    2a28:	80 e0       	ldi	r24, 0x00	; 0
    2a2a:	90 e0       	ldi	r25, 0x00	; 0
    2a2c:	0e 94 db 19 	call	0x33b6	; 0x33b6 <delay_ns>
    2a30:	81 e0       	ldi	r24, 0x01	; 1
    2a32:	0e 94 69 1a 	call	0x34d2	; 0x34d2 <send_instruction_lcd>
    2a36:	62 e0       	ldi	r22, 0x02	; 2
    2a38:	70 e0       	ldi	r23, 0x00	; 0
    2a3a:	80 e0       	ldi	r24, 0x00	; 0
    2a3c:	90 e0       	ldi	r25, 0x00	; 0
    2a3e:	0e 94 c9 18 	call	0x3192	; 0x3192 <delay_ms>
    2a42:	86 e0       	ldi	r24, 0x06	; 6
    2a44:	0e 94 69 1a 	call	0x34d2	; 0x34d2 <send_instruction_lcd>
    2a48:	68 e2       	ldi	r22, 0x28	; 40
    2a4a:	70 e0       	ldi	r23, 0x00	; 0
    2a4c:	80 e0       	ldi	r24, 0x00	; 0
    2a4e:	90 e0       	ldi	r25, 0x00	; 0
    2a50:	0e 94 db 19 	call	0x33b6	; 0x33b6 <delay_ns>
    2a54:	8c e0       	ldi	r24, 0x0C	; 12
    2a56:	0e 94 69 1a 	call	0x34d2	; 0x34d2 <send_instruction_lcd>
    2a5a:	68 e2       	ldi	r22, 0x28	; 40
    2a5c:	70 e0       	ldi	r23, 0x00	; 0
    2a5e:	80 e0       	ldi	r24, 0x00	; 0
    2a60:	90 e0       	ldi	r25, 0x00	; 0
    2a62:	0e 94 db 19 	call	0x33b6	; 0x33b6 <delay_ns>
    2a66:	08 95       	ret

Disassembly of section .text.send_word_lcd:

00003322 <send_word_lcd>:
    3322:	98 b1       	in	r25, 0x08	; 8
    3324:	90 7f       	andi	r25, 0xF0	; 240
    3326:	98 b9       	out	0x08, r25	; 8
    3328:	98 b1       	in	r25, 0x08	; 8
    332a:	90 61       	ori	r25, 0x10	; 16
    332c:	98 b9       	out	0x08, r25	; 8
    332e:	98 b1       	in	r25, 0x08	; 8
    3330:	90 62       	ori	r25, 0x20	; 32
    3332:	98 b9       	out	0x08, r25	; 8
    3334:	98 b1       	in	r25, 0x08	; 8
    3336:	28 2f       	mov	r18, r24
    3338:	22 95       	swap	r18
    333a:	2f 70       	andi	r18, 0x0F	; 15
    333c:	92 2b       	or	r25, r18
    333e:	98 b9       	out	0x08, r25	; 8
    3340:	98 b1       	in	r25, 0x08	; 8
    3342:	9f 7d       	andi	r25, 0xDF	; 223
    3344:	98 b9       	out	0x08, r25	; 8
    3346:	98 b1       	in	r25, 0x08	; 8
    3348:	90 7f       	andi	r25, 0xF0	; 240
    334a:	98 b9       	out	0x08, r25	; 8
    334c:	98 b1       	in	r25, 0x08	; 8
    334e:	90 62       	ori	r25, 0x20	; 32
    3350:	98 b9       	out	0x08, r25	; 8
    3352:	98 b1       	in	r25, 0x08	; 8
    3354:	8f 70       	andi	r24, 0x0F	; 15
    3356:	89 2b       	or	r24, r25
    3358:	88 b9       	out	0x08, r24	; 8
    335a:	88 b1       	in	r24, 0x08	; 8
    335c:	8f 7d       	andi	r24, 0xDF	; 223
    335e:	88 b9       	out	0x08, r24	; 8
    3360:	6b e2       	ldi	r22, 0x2B	; 43
    3362:	70 e0       	ldi	r23, 0x00	; 0
    3364:	80 e0       	ldi	r24, 0x00	; 0
    3366:	90 e0       	ldi	r25, 0x00	; 0
    3368:	0e 94 db 19 	call	0x33b6	; 0x33b6 <delay_ns>
    336c:	08 95       	ret

Disassembly of section .text.set_DDRAM_ADDR:

00003238 <set_DDRAM_ADDR>:
    3238:	80 68       	ori	r24, 0x80	; 128
    323a:	98 b1       	in	r25, 0x08	; 8
    323c:	90 7c       	andi	r25, 0xC0	; 192
    323e:	98 b9       	out	0x08, r25	; 8
    3240:	98 b1       	in	r25, 0x08	; 8
    3242:	9f 7e       	andi	r25, 0xEF	; 239
    3244:	98 b9       	out	0x08, r25	; 8
    3246:	98 b1       	in	r25, 0x08	; 8
    3248:	90 62       	ori	r25, 0x20	; 32
    324a:	98 b9       	out	0x08, r25	; 8
    324c:	98 b1       	in	r25, 0x08	; 8
    324e:	28 2f       	mov	r18, r24
    3250:	22 95       	swap	r18
    3252:	2f 70       	andi	r18, 0x0F	; 15
    3254:	92 2b       	or	r25, r18
    3256:	98 b9       	out	0x08, r25	; 8
    3258:	98 b1       	in	r25, 0x08	; 8
    325a:	9f 7d       	andi	r25, 0xDF	; 223
    325c:	98 b9       	out	0x08, r25	; 8
    325e:	98 b1       	in	r25, 0x08	; 8
    3260:	90 7c       	andi	r25, 0xC0	; 192
    3262:	98 b9       	out	0x08, r25	; 8
    3264:	98 b1       	in	r25, 0x08	; 8
    3266:	90 62       	ori	r25, 0x20	; 32
    3268:	98 b9       	out	0x08, r25	; 8
    326a:	98 b1       	in	r25, 0x08	; 8
    326c:	8f 70       	andi	r24, 0x0F	; 15
    326e:	89 2b       	or	r24, r25
    3270:	88 b9       	out	0x08, r24	; 8
    3272:	88 b1       	in	r24, 0x08	; 8
    3274:	8f 7d       	andi	r24, 0xDF	; 223
    3276:	88 b9       	out	0x08, r24	; 8
    3278:	6b e2       	ldi	r22, 0x2B	; 43
    327a:	70 e0       	ldi	r23, 0x00	; 0
    327c:	80 e0       	ldi	r24, 0x00	; 0
    327e:	90 e0       	ldi	r25, 0x00	; 0
    3280:	0e 94 db 19 	call	0x33b6	; 0x33b6 <delay_ns>
    3284:	08 95       	ret

Disassembly of section .text.envia_frase:

00003542 <envia_frase>:
    3542:	0f 93       	push	r16
    3544:	1f 93       	push	r17
    3546:	cf 93       	push	r28
    3548:	8c 01       	movw	r16, r24
    354a:	86 2f       	mov	r24, r22
    354c:	0e 94 1c 19 	call	0x3238	; 0x3238 <set_DDRAM_ADDR>
    3550:	c0 e0       	ldi	r28, 0x00	; 0
    3552:	03 c0       	rjmp	.+6      	; 0x355a <envia_frase+0x18>
    3554:	0e 94 91 19 	call	0x3322	; 0x3322 <send_word_lcd>
    3558:	cf 5f       	subi	r28, 0xFF	; 255
    355a:	f8 01       	movw	r30, r16
    355c:	ec 0f       	add	r30, r28
    355e:	f1 1d       	adc	r31, r1
    3560:	80 81       	ld	r24, Z
    3562:	81 11       	cpse	r24, r1
    3564:	f7 cf       	rjmp	.-18     	; 0x3554 <envia_frase+0x12>
    3566:	cf 91       	pop	r28
    3568:	1f 91       	pop	r17
    356a:	0f 91       	pop	r16
    356c:	08 95       	ret

Disassembly of section .text.msg_inserir_senha:

00003286 <msg_inserir_senha>:
    3286:	cf 93       	push	r28
    3288:	df 93       	push	r29
    328a:	cd b7       	in	r28, 0x3d	; 61
    328c:	de b7       	in	r29, 0x3e	; 62
    328e:	61 97       	sbiw	r28, 0x11	; 17
    3290:	0f b6       	in	r0, 0x3f	; 63
    3292:	f8 94       	cli
    3294:	de bf       	out	0x3e, r29	; 62
    3296:	0f be       	out	0x3f, r0	; 63
    3298:	cd bf       	out	0x3d, r28	; 61
    329a:	0e 94 14 1b 	call	0x3628	; 0x3628 <clear_Display>
    329e:	24 e0       	ldi	r18, 0x04	; 4
    32a0:	31 e0       	ldi	r19, 0x01	; 1
    32a2:	40 e0       	ldi	r20, 0x00	; 0
    32a4:	81 e1       	ldi	r24, 0x11	; 17
    32a6:	f9 01       	movw	r30, r18
    32a8:	de 01       	movw	r26, r28
    32aa:	11 96       	adiw	r26, 0x01	; 1
    32ac:	74 2f       	mov	r23, r20
    32ae:	0e 94 e7 1a 	call	0x35ce	; 0x35ce <__movmemx_qi>
    32b2:	60 e0       	ldi	r22, 0x00	; 0
    32b4:	ce 01       	movw	r24, r28
    32b6:	01 96       	adiw	r24, 0x01	; 1
    32b8:	0e 94 a1 1a 	call	0x3542	; 0x3542 <envia_frase>
    32bc:	80 ec       	ldi	r24, 0xC0	; 192
    32be:	0e 94 69 1a 	call	0x34d2	; 0x34d2 <send_instruction_lcd>
    32c2:	61 96       	adiw	r28, 0x11	; 17
    32c4:	0f b6       	in	r0, 0x3f	; 63
    32c6:	f8 94       	cli
    32c8:	de bf       	out	0x3e, r29	; 62
    32ca:	0f be       	out	0x3f, r0	; 63
    32cc:	cd bf       	out	0x3d, r28	; 61
    32ce:	df 91       	pop	r29
    32d0:	cf 91       	pop	r28
    32d2:	08 95       	ret

Disassembly of section .text.msg_desativado:

0000307e <msg_desativado>:
    307e:	cf 93       	push	r28
    3080:	df 93       	push	r29
    3082:	cd b7       	in	r28, 0x3d	; 61
    3084:	de b7       	in	r29, 0x3e	; 62
    3086:	62 97       	sbiw	r28, 0x12	; 18
    3088:	0f b6       	in	r0, 0x3f	; 63
    308a:	f8 94       	cli
    308c:	de bf       	out	0x3e, r29	; 62
    308e:	0f be       	out	0x3f, r0	; 63
    3090:	cd bf       	out	0x3d, r28	; 61
    3092:	25 e1       	ldi	r18, 0x15	; 21
    3094:	31 e0       	ldi	r19, 0x01	; 1
    3096:	40 e0       	ldi	r20, 0x00	; 0
    3098:	81 e1       	ldi	r24, 0x11	; 17
    309a:	f9 01       	movw	r30, r18
    309c:	de 01       	movw	r26, r28
    309e:	11 96       	adiw	r26, 0x01	; 1
    30a0:	74 2f       	mov	r23, r20
    30a2:	0e 94 e7 1a 	call	0x35ce	; 0x35ce <__movmemx_qi>
    30a6:	60 e0       	ldi	r22, 0x00	; 0
    30a8:	ce 01       	movw	r24, r28
    30aa:	01 96       	adiw	r24, 0x01	; 1
    30ac:	0e 94 a1 1a 	call	0x3542	; 0x3542 <envia_frase>
    30b0:	1a 8a       	std	Y+18, r1	; 0x12
    30b2:	60 e4       	ldi	r22, 0x40	; 64
    30b4:	ce 01       	movw	r24, r28
    30b6:	42 96       	adiw	r24, 0x12	; 18
    30b8:	0e 94 a1 1a 	call	0x3542	; 0x3542 <envia_frase>
    30bc:	63 e0       	ldi	r22, 0x03	; 3
    30be:	70 e0       	ldi	r23, 0x00	; 0
    30c0:	80 e0       	ldi	r24, 0x00	; 0
    30c2:	90 e0       	ldi	r25, 0x00	; 0
    30c4:	0e 94 c9 18 	call	0x3192	; 0x3192 <delay_ms>
    30c8:	62 96       	adiw	r28, 0x12	; 18
    30ca:	0f b6       	in	r0, 0x3f	; 63
    30cc:	f8 94       	cli
    30ce:	de bf       	out	0x3e, r29	; 62
    30d0:	0f be       	out	0x3f, r0	; 63
    30d2:	cd bf       	out	0x3d, r28	; 61
    30d4:	df 91       	pop	r29
    30d6:	cf 91       	pop	r28
    30d8:	08 95       	ret

Disassembly of section .text.msg_ativado:

000030da <msg_ativado>:
    30da:	cf 93       	push	r28
    30dc:	df 93       	push	r29
    30de:	cd b7       	in	r28, 0x3d	; 61
    30e0:	de b7       	in	r29, 0x3e	; 62
    30e2:	2f 97       	sbiw	r28, 0x0f	; 15
    30e4:	0f b6       	in	r0, 0x3f	; 63
    30e6:	f8 94       	cli
    30e8:	de bf       	out	0x3e, r29	; 62
    30ea:	0f be       	out	0x3f, r0	; 63
    30ec:	cd bf       	out	0x3d, r28	; 61
    30ee:	26 e2       	ldi	r18, 0x26	; 38
    30f0:	31 e0       	ldi	r19, 0x01	; 1
    30f2:	40 e0       	ldi	r20, 0x00	; 0
    30f4:	8e e0       	ldi	r24, 0x0E	; 14
    30f6:	f9 01       	movw	r30, r18
    30f8:	de 01       	movw	r26, r28
    30fa:	11 96       	adiw	r26, 0x01	; 1
    30fc:	74 2f       	mov	r23, r20
    30fe:	0e 94 e7 1a 	call	0x35ce	; 0x35ce <__movmemx_qi>
    3102:	60 e0       	ldi	r22, 0x00	; 0
    3104:	ce 01       	movw	r24, r28
    3106:	01 96       	adiw	r24, 0x01	; 1
    3108:	0e 94 a1 1a 	call	0x3542	; 0x3542 <envia_frase>
    310c:	1f 86       	std	Y+15, r1	; 0x0f
    310e:	60 e4       	ldi	r22, 0x40	; 64
    3110:	ce 01       	movw	r24, r28
    3112:	0f 96       	adiw	r24, 0x0f	; 15
    3114:	0e 94 a1 1a 	call	0x3542	; 0x3542 <envia_frase>
    3118:	63 e0       	ldi	r22, 0x03	; 3
    311a:	70 e0       	ldi	r23, 0x00	; 0
    311c:	80 e0       	ldi	r24, 0x00	; 0
    311e:	90 e0       	ldi	r25, 0x00	; 0
    3120:	0e 94 c9 18 	call	0x3192	; 0x3192 <delay_ms>
    3124:	2f 96       	adiw	r28, 0x0f	; 15
    3126:	0f b6       	in	r0, 0x3f	; 63
    3128:	f8 94       	cli
    312a:	de bf       	out	0x3e, r29	; 62
    312c:	0f be       	out	0x3f, r0	; 63
    312e:	cd bf       	out	0x3d, r28	; 61
    3130:	df 91       	pop	r29
    3132:	cf 91       	pop	r28
    3134:	08 95       	ret

Disassembly of section .text.msg_programacao:

00003136 <msg_programacao>:
    3136:	cf 93       	push	r28
    3138:	df 93       	push	r29
    313a:	cd b7       	in	r28, 0x3d	; 61
    313c:	de b7       	in	r29, 0x3e	; 62
    313e:	62 97       	sbiw	r28, 0x12	; 18
    3140:	0f b6       	in	r0, 0x3f	; 63
    3142:	f8 94       	cli
    3144:	de bf       	out	0x3e, r29	; 62
    3146:	0f be       	out	0x3f, r0	; 63
    3148:	cd bf       	out	0x3d, r28	; 61
    314a:	24 e3       	ldi	r18, 0x34	; 52
    314c:	31 e0       	ldi	r19, 0x01	; 1
    314e:	40 e0       	ldi	r20, 0x00	; 0
    3150:	81 e1       	ldi	r24, 0x11	; 17
    3152:	f9 01       	movw	r30, r18
    3154:	de 01       	movw	r26, r28
    3156:	11 96       	adiw	r26, 0x01	; 1
    3158:	74 2f       	mov	r23, r20
    315a:	0e 94 e7 1a 	call	0x35ce	; 0x35ce <__movmemx_qi>
    315e:	60 e0       	ldi	r22, 0x00	; 0
    3160:	ce 01       	movw	r24, r28
    3162:	01 96       	adiw	r24, 0x01	; 1
    3164:	0e 94 a1 1a 	call	0x3542	; 0x3542 <envia_frase>
    3168:	1a 8a       	std	Y+18, r1	; 0x12
    316a:	60 e4       	ldi	r22, 0x40	; 64
    316c:	ce 01       	movw	r24, r28
    316e:	42 96       	adiw	r24, 0x12	; 18
    3170:	0e 94 a1 1a 	call	0x3542	; 0x3542 <envia_frase>
    3174:	63 e0       	ldi	r22, 0x03	; 3
    3176:	70 e0       	ldi	r23, 0x00	; 0
    3178:	80 e0       	ldi	r24, 0x00	; 0
    317a:	90 e0       	ldi	r25, 0x00	; 0
    317c:	0e 94 c9 18 	call	0x3192	; 0x3192 <delay_ms>
    3180:	62 96       	adiw	r28, 0x12	; 18
    3182:	0f b6       	in	r0, 0x3f	; 63
    3184:	f8 94       	cli
    3186:	de bf       	out	0x3e, r29	; 62
    3188:	0f be       	out	0x3f, r0	; 63
    318a:	cd bf       	out	0x3d, r28	; 61
    318c:	df 91       	pop	r29
    318e:	cf 91       	pop	r28
    3190:	08 95       	ret

Disassembly of section .text.msg_altera_senha:

000032d4 <msg_altera_senha>:
    32d4:	cf 93       	push	r28
    32d6:	df 93       	push	r29
    32d8:	cd b7       	in	r28, 0x3d	; 61
    32da:	de b7       	in	r29, 0x3e	; 62
    32dc:	60 97       	sbiw	r28, 0x10	; 16
    32de:	0f b6       	in	r0, 0x3f	; 63
    32e0:	f8 94       	cli
    32e2:	de bf       	out	0x3e, r29	; 62
    32e4:	0f be       	out	0x3f, r0	; 63
    32e6:	cd bf       	out	0x3d, r28	; 61
    32e8:	0e 94 14 1b 	call	0x3628	; 0x3628 <clear_Display>
    32ec:	25 e4       	ldi	r18, 0x45	; 69
    32ee:	31 e0       	ldi	r19, 0x01	; 1
    32f0:	40 e0       	ldi	r20, 0x00	; 0
    32f2:	80 e1       	ldi	r24, 0x10	; 16
    32f4:	f9 01       	movw	r30, r18
    32f6:	de 01       	movw	r26, r28
    32f8:	11 96       	adiw	r26, 0x01	; 1
    32fa:	74 2f       	mov	r23, r20
    32fc:	0e 94 e7 1a 	call	0x35ce	; 0x35ce <__movmemx_qi>
    3300:	60 e0       	ldi	r22, 0x00	; 0
    3302:	ce 01       	movw	r24, r28
    3304:	01 96       	adiw	r24, 0x01	; 1
    3306:	0e 94 a1 1a 	call	0x3542	; 0x3542 <envia_frase>
    330a:	80 ec       	ldi	r24, 0xC0	; 192
    330c:	0e 94 69 1a 	call	0x34d2	; 0x34d2 <send_instruction_lcd>
    3310:	60 96       	adiw	r28, 0x10	; 16
    3312:	0f b6       	in	r0, 0x3f	; 63
    3314:	f8 94       	cli
    3316:	de bf       	out	0x3e, r29	; 62
    3318:	0f be       	out	0x3f, r0	; 63
    331a:	cd bf       	out	0x3d, r28	; 61
    331c:	df 91       	pop	r29
    331e:	cf 91       	pop	r28
    3320:	08 95       	ret

Disassembly of section .text.msg_h_sensores:

00002c86 <msg_h_sensores>:
    2c86:	cf 93       	push	r28
    2c88:	df 93       	push	r29
    2c8a:	cd b7       	in	r28, 0x3d	; 61
    2c8c:	de b7       	in	r29, 0x3e	; 62
    2c8e:	6d 97       	sbiw	r28, 0x1d	; 29
    2c90:	0f b6       	in	r0, 0x3f	; 63
    2c92:	f8 94       	cli
    2c94:	de bf       	out	0x3e, r29	; 62
    2c96:	0f be       	out	0x3f, r0	; 63
    2c98:	cd bf       	out	0x3d, r28	; 61
    2c9a:	0e 94 14 1b 	call	0x3628	; 0x3628 <clear_Display>
    2c9e:	25 e5       	ldi	r18, 0x55	; 85
    2ca0:	31 e0       	ldi	r19, 0x01	; 1
    2ca2:	40 e0       	ldi	r20, 0x00	; 0
    2ca4:	8f e0       	ldi	r24, 0x0F	; 15
    2ca6:	f9 01       	movw	r30, r18
    2ca8:	de 01       	movw	r26, r28
    2caa:	11 96       	adiw	r26, 0x01	; 1
    2cac:	74 2f       	mov	r23, r20
    2cae:	0e 94 e7 1a 	call	0x35ce	; 0x35ce <__movmemx_qi>
    2cb2:	60 e0       	ldi	r22, 0x00	; 0
    2cb4:	ce 01       	movw	r24, r28
    2cb6:	01 96       	adiw	r24, 0x01	; 1
    2cb8:	0e 94 a1 1a 	call	0x3542	; 0x3542 <envia_frase>
    2cbc:	24 e6       	ldi	r18, 0x64	; 100
    2cbe:	31 e0       	ldi	r19, 0x01	; 1
    2cc0:	40 e0       	ldi	r20, 0x00	; 0
    2cc2:	8e e0       	ldi	r24, 0x0E	; 14
    2cc4:	f9 01       	movw	r30, r18
    2cc6:	de 01       	movw	r26, r28
    2cc8:	50 96       	adiw	r26, 0x10	; 16
    2cca:	74 2f       	mov	r23, r20
    2ccc:	0e 94 e7 1a 	call	0x35ce	; 0x35ce <__movmemx_qi>
    2cd0:	60 e4       	ldi	r22, 0x40	; 64
    2cd2:	ce 01       	movw	r24, r28
    2cd4:	40 96       	adiw	r24, 0x10	; 16
    2cd6:	0e 94 a1 1a 	call	0x3542	; 0x3542 <envia_frase>
    2cda:	6d 96       	adiw	r28, 0x1d	; 29
    2cdc:	0f b6       	in	r0, 0x3f	; 63
    2cde:	f8 94       	cli
    2ce0:	de bf       	out	0x3e, r29	; 62
    2ce2:	0f be       	out	0x3f, r0	; 63
    2ce4:	cd bf       	out	0x3d, r28	; 61
    2ce6:	df 91       	pop	r29
    2ce8:	cf 91       	pop	r28
    2cea:	08 95       	ret

Disassembly of section .text.msg_d_sensores:

00002cec <msg_d_sensores>:
    2cec:	cf 93       	push	r28
    2cee:	df 93       	push	r29
    2cf0:	cd b7       	in	r28, 0x3d	; 61
    2cf2:	de b7       	in	r29, 0x3e	; 62
    2cf4:	6e 97       	sbiw	r28, 0x1e	; 30
    2cf6:	0f b6       	in	r0, 0x3f	; 63
    2cf8:	f8 94       	cli
    2cfa:	de bf       	out	0x3e, r29	; 62
    2cfc:	0f be       	out	0x3f, r0	; 63
    2cfe:	cd bf       	out	0x3d, r28	; 61
    2d00:	0e 94 14 1b 	call	0x3628	; 0x3628 <clear_Display>
    2d04:	25 e5       	ldi	r18, 0x55	; 85
    2d06:	31 e0       	ldi	r19, 0x01	; 1
    2d08:	40 e0       	ldi	r20, 0x00	; 0
    2d0a:	8f e0       	ldi	r24, 0x0F	; 15
    2d0c:	f9 01       	movw	r30, r18
    2d0e:	de 01       	movw	r26, r28
    2d10:	11 96       	adiw	r26, 0x01	; 1
    2d12:	74 2f       	mov	r23, r20
    2d14:	0e 94 e7 1a 	call	0x35ce	; 0x35ce <__movmemx_qi>
    2d18:	60 e0       	ldi	r22, 0x00	; 0
    2d1a:	ce 01       	movw	r24, r28
    2d1c:	01 96       	adiw	r24, 0x01	; 1
    2d1e:	0e 94 a1 1a 	call	0x3542	; 0x3542 <envia_frase>
    2d22:	22 e7       	ldi	r18, 0x72	; 114
    2d24:	31 e0       	ldi	r19, 0x01	; 1
    2d26:	40 e0       	ldi	r20, 0x00	; 0
    2d28:	8f e0       	ldi	r24, 0x0F	; 15
    2d2a:	f9 01       	movw	r30, r18
    2d2c:	de 01       	movw	r26, r28
    2d2e:	50 96       	adiw	r26, 0x10	; 16
    2d30:	74 2f       	mov	r23, r20
    2d32:	0e 94 e7 1a 	call	0x35ce	; 0x35ce <__movmemx_qi>
    2d36:	60 e4       	ldi	r22, 0x40	; 64
    2d38:	ce 01       	movw	r24, r28
    2d3a:	40 96       	adiw	r24, 0x10	; 16
    2d3c:	0e 94 a1 1a 	call	0x3542	; 0x3542 <envia_frase>
    2d40:	6e 96       	adiw	r28, 0x1e	; 30
    2d42:	0f b6       	in	r0, 0x3f	; 63
    2d44:	f8 94       	cli
    2d46:	de bf       	out	0x3e, r29	; 62
    2d48:	0f be       	out	0x3f, r0	; 63
    2d4a:	cd bf       	out	0x3d, r28	; 61
    2d4c:	df 91       	pop	r29
    2d4e:	cf 91       	pop	r28
    2d50:	08 95       	ret

Disassembly of section .text.msg_panico:

0000301c <msg_panico>:
    301c:	cf 93       	push	r28
    301e:	df 93       	push	r29
    3020:	cd b7       	in	r28, 0x3d	; 61
    3022:	de b7       	in	r29, 0x3e	; 62
    3024:	6e 97       	sbiw	r28, 0x1e	; 30
    3026:	0f b6       	in	r0, 0x3f	; 63
    3028:	f8 94       	cli
    302a:	de bf       	out	0x3e, r29	; 62
    302c:	0f be       	out	0x3f, r0	; 63
    302e:	cd bf       	out	0x3d, r28	; 61
    3030:	21 e8       	ldi	r18, 0x81	; 129
    3032:	31 e0       	ldi	r19, 0x01	; 1
    3034:	40 e0       	ldi	r20, 0x00	; 0
    3036:	8e e0       	ldi	r24, 0x0E	; 14
    3038:	f9 01       	movw	r30, r18
    303a:	de 01       	movw	r26, r28
    303c:	11 96       	adiw	r26, 0x01	; 1
    303e:	74 2f       	mov	r23, r20
    3040:	0e 94 e7 1a 	call	0x35ce	; 0x35ce <__movmemx_qi>
    3044:	60 e0       	ldi	r22, 0x00	; 0
    3046:	ce 01       	movw	r24, r28
    3048:	01 96       	adiw	r24, 0x01	; 1
    304a:	0e 94 a1 1a 	call	0x3542	; 0x3542 <envia_frase>
    304e:	2f e8       	ldi	r18, 0x8F	; 143
    3050:	31 e0       	ldi	r19, 0x01	; 1
    3052:	40 e0       	ldi	r20, 0x00	; 0
    3054:	80 e1       	ldi	r24, 0x10	; 16
    3056:	f9 01       	movw	r30, r18
    3058:	de 01       	movw	r26, r28
    305a:	1f 96       	adiw	r26, 0x0f	; 15
    305c:	74 2f       	mov	r23, r20
    305e:	0e 94 e7 1a 	call	0x35ce	; 0x35ce <__movmemx_qi>
    3062:	60 e4       	ldi	r22, 0x40	; 64
    3064:	ce 01       	movw	r24, r28
    3066:	0f 96       	adiw	r24, 0x0f	; 15
    3068:	0e 94 a1 1a 	call	0x3542	; 0x3542 <envia_frase>
    306c:	6e 96       	adiw	r28, 0x1e	; 30
    306e:	0f b6       	in	r0, 0x3f	; 63
    3070:	f8 94       	cli
    3072:	de bf       	out	0x3e, r29	; 62
    3074:	0f be       	out	0x3f, r0	; 63
    3076:	cd bf       	out	0x3d, r28	; 61
    3078:	df 91       	pop	r29
    307a:	cf 91       	pop	r28
    307c:	08 95       	ret

Disassembly of section .text.msg_restauracao:

0000348e <msg_restauracao>:
    348e:	cf 93       	push	r28
    3490:	df 93       	push	r29
    3492:	cd b7       	in	r28, 0x3d	; 61
    3494:	de b7       	in	r29, 0x3e	; 62
    3496:	2d 97       	sbiw	r28, 0x0d	; 13
    3498:	0f b6       	in	r0, 0x3f	; 63
    349a:	f8 94       	cli
    349c:	de bf       	out	0x3e, r29	; 62
    349e:	0f be       	out	0x3f, r0	; 63
    34a0:	cd bf       	out	0x3d, r28	; 61
    34a2:	2f e9       	ldi	r18, 0x9F	; 159
    34a4:	31 e0       	ldi	r19, 0x01	; 1
    34a6:	40 e0       	ldi	r20, 0x00	; 0
    34a8:	8d e0       	ldi	r24, 0x0D	; 13
    34aa:	f9 01       	movw	r30, r18
    34ac:	de 01       	movw	r26, r28
    34ae:	11 96       	adiw	r26, 0x01	; 1
    34b0:	74 2f       	mov	r23, r20
    34b2:	0e 94 e7 1a 	call	0x35ce	; 0x35ce <__movmemx_qi>
    34b6:	60 e0       	ldi	r22, 0x00	; 0
    34b8:	ce 01       	movw	r24, r28
    34ba:	01 96       	adiw	r24, 0x01	; 1
    34bc:	0e 94 a1 1a 	call	0x3542	; 0x3542 <envia_frase>
    34c0:	2d 96       	adiw	r28, 0x0d	; 13
    34c2:	0f b6       	in	r0, 0x3f	; 63
    34c4:	f8 94       	cli
    34c6:	de bf       	out	0x3e, r29	; 62
    34c8:	0f be       	out	0x3f, r0	; 63
    34ca:	cd bf       	out	0x3d, r28	; 61
    34cc:	df 91       	pop	r29
    34ce:	cf 91       	pop	r28
    34d0:	08 95       	ret

Disassembly of section .text.msg_h_zona:

00002d52 <msg_h_zona>:
    2d52:	cf 93       	push	r28
    2d54:	df 93       	push	r29
    2d56:	cd b7       	in	r28, 0x3d	; 61
    2d58:	de b7       	in	r29, 0x3e	; 62
    2d5a:	6a 97       	sbiw	r28, 0x1a	; 26
    2d5c:	0f b6       	in	r0, 0x3f	; 63
    2d5e:	f8 94       	cli
    2d60:	de bf       	out	0x3e, r29	; 62
    2d62:	0f be       	out	0x3f, r0	; 63
    2d64:	cd bf       	out	0x3d, r28	; 61
    2d66:	0e 94 14 1b 	call	0x3628	; 0x3628 <clear_Display>
    2d6a:	2c ea       	ldi	r18, 0xAC	; 172
    2d6c:	31 e0       	ldi	r19, 0x01	; 1
    2d6e:	40 e0       	ldi	r20, 0x00	; 0
    2d70:	8d e0       	ldi	r24, 0x0D	; 13
    2d72:	f9 01       	movw	r30, r18
    2d74:	de 01       	movw	r26, r28
    2d76:	11 96       	adiw	r26, 0x01	; 1
    2d78:	74 2f       	mov	r23, r20
    2d7a:	0e 94 e7 1a 	call	0x35ce	; 0x35ce <__movmemx_qi>
    2d7e:	60 e0       	ldi	r22, 0x00	; 0
    2d80:	ce 01       	movw	r24, r28
    2d82:	01 96       	adiw	r24, 0x01	; 1
    2d84:	0e 94 a1 1a 	call	0x3542	; 0x3542 <envia_frase>
    2d88:	29 eb       	ldi	r18, 0xB9	; 185
    2d8a:	31 e0       	ldi	r19, 0x01	; 1
    2d8c:	40 e0       	ldi	r20, 0x00	; 0
    2d8e:	8d e0       	ldi	r24, 0x0D	; 13
    2d90:	f9 01       	movw	r30, r18
    2d92:	de 01       	movw	r26, r28
    2d94:	1e 96       	adiw	r26, 0x0e	; 14
    2d96:	74 2f       	mov	r23, r20
    2d98:	0e 94 e7 1a 	call	0x35ce	; 0x35ce <__movmemx_qi>
    2d9c:	60 e4       	ldi	r22, 0x40	; 64
    2d9e:	ce 01       	movw	r24, r28
    2da0:	0e 96       	adiw	r24, 0x0e	; 14
    2da2:	0e 94 a1 1a 	call	0x3542	; 0x3542 <envia_frase>
    2da6:	6a 96       	adiw	r28, 0x1a	; 26
    2da8:	0f b6       	in	r0, 0x3f	; 63
    2daa:	f8 94       	cli
    2dac:	de bf       	out	0x3e, r29	; 62
    2dae:	0f be       	out	0x3f, r0	; 63
    2db0:	cd bf       	out	0x3d, r28	; 61
    2db2:	df 91       	pop	r29
    2db4:	cf 91       	pop	r28
    2db6:	08 95       	ret

Disassembly of section .text.msg_d_zona:

00002db8 <msg_d_zona>:
    2db8:	cf 93       	push	r28
    2dba:	df 93       	push	r29
    2dbc:	cd b7       	in	r28, 0x3d	; 61
    2dbe:	de b7       	in	r29, 0x3e	; 62
    2dc0:	6b 97       	sbiw	r28, 0x1b	; 27
    2dc2:	0f b6       	in	r0, 0x3f	; 63
    2dc4:	f8 94       	cli
    2dc6:	de bf       	out	0x3e, r29	; 62
    2dc8:	0f be       	out	0x3f, r0	; 63
    2dca:	cd bf       	out	0x3d, r28	; 61
    2dcc:	0e 94 14 1b 	call	0x3628	; 0x3628 <clear_Display>
    2dd0:	2c ea       	ldi	r18, 0xAC	; 172
    2dd2:	31 e0       	ldi	r19, 0x01	; 1
    2dd4:	40 e0       	ldi	r20, 0x00	; 0
    2dd6:	8d e0       	ldi	r24, 0x0D	; 13
    2dd8:	f9 01       	movw	r30, r18
    2dda:	de 01       	movw	r26, r28
    2ddc:	11 96       	adiw	r26, 0x01	; 1
    2dde:	74 2f       	mov	r23, r20
    2de0:	0e 94 e7 1a 	call	0x35ce	; 0x35ce <__movmemx_qi>
    2de4:	60 e0       	ldi	r22, 0x00	; 0
    2de6:	ce 01       	movw	r24, r28
    2de8:	01 96       	adiw	r24, 0x01	; 1
    2dea:	0e 94 a1 1a 	call	0x3542	; 0x3542 <envia_frase>
    2dee:	26 ec       	ldi	r18, 0xC6	; 198
    2df0:	31 e0       	ldi	r19, 0x01	; 1
    2df2:	40 e0       	ldi	r20, 0x00	; 0
    2df4:	8e e0       	ldi	r24, 0x0E	; 14
    2df6:	f9 01       	movw	r30, r18
    2df8:	de 01       	movw	r26, r28
    2dfa:	1e 96       	adiw	r26, 0x0e	; 14
    2dfc:	74 2f       	mov	r23, r20
    2dfe:	0e 94 e7 1a 	call	0x35ce	; 0x35ce <__movmemx_qi>
    2e02:	60 e4       	ldi	r22, 0x40	; 64
    2e04:	ce 01       	movw	r24, r28
    2e06:	0e 96       	adiw	r24, 0x0e	; 14
    2e08:	0e 94 a1 1a 	call	0x3542	; 0x3542 <envia_frase>
    2e0c:	6b 96       	adiw	r28, 0x1b	; 27
    2e0e:	0f b6       	in	r0, 0x3f	; 63
    2e10:	f8 94       	cli
    2e12:	de bf       	out	0x3e, r29	; 62
    2e14:	0f be       	out	0x3f, r0	; 63
    2e16:	cd bf       	out	0x3d, r28	; 61
    2e18:	df 91       	pop	r29
    2e1a:	cf 91       	pop	r28
    2e1c:	08 95       	ret

Disassembly of section .text.msg_h_ass:

00002e1e <msg_h_ass>:
    2e1e:	cf 93       	push	r28
    2e20:	df 93       	push	r29
    2e22:	cd b7       	in	r28, 0x3d	; 61
    2e24:	de b7       	in	r29, 0x3e	; 62
    2e26:	6b 97       	sbiw	r28, 0x1b	; 27
    2e28:	0f b6       	in	r0, 0x3f	; 63
    2e2a:	f8 94       	cli
    2e2c:	de bf       	out	0x3e, r29	; 62
    2e2e:	0f be       	out	0x3f, r0	; 63
    2e30:	cd bf       	out	0x3d, r28	; 61
    2e32:	0e 94 14 1b 	call	0x3628	; 0x3628 <clear_Display>
    2e36:	24 ed       	ldi	r18, 0xD4	; 212
    2e38:	31 e0       	ldi	r19, 0x01	; 1
    2e3a:	40 e0       	ldi	r20, 0x00	; 0
    2e3c:	8d e0       	ldi	r24, 0x0D	; 13
    2e3e:	f9 01       	movw	r30, r18
    2e40:	de 01       	movw	r26, r28
    2e42:	11 96       	adiw	r26, 0x01	; 1
    2e44:	74 2f       	mov	r23, r20
    2e46:	0e 94 e7 1a 	call	0x35ce	; 0x35ce <__movmemx_qi>
    2e4a:	60 e0       	ldi	r22, 0x00	; 0
    2e4c:	ce 01       	movw	r24, r28
    2e4e:	01 96       	adiw	r24, 0x01	; 1
    2e50:	0e 94 a1 1a 	call	0x3542	; 0x3542 <envia_frase>
    2e54:	21 ee       	ldi	r18, 0xE1	; 225
    2e56:	31 e0       	ldi	r19, 0x01	; 1
    2e58:	40 e0       	ldi	r20, 0x00	; 0
    2e5a:	8e e0       	ldi	r24, 0x0E	; 14
    2e5c:	f9 01       	movw	r30, r18
    2e5e:	de 01       	movw	r26, r28
    2e60:	1e 96       	adiw	r26, 0x0e	; 14
    2e62:	74 2f       	mov	r23, r20
    2e64:	0e 94 e7 1a 	call	0x35ce	; 0x35ce <__movmemx_qi>
    2e68:	60 e4       	ldi	r22, 0x40	; 64
    2e6a:	ce 01       	movw	r24, r28
    2e6c:	0e 96       	adiw	r24, 0x0e	; 14
    2e6e:	0e 94 a1 1a 	call	0x3542	; 0x3542 <envia_frase>
    2e72:	6b 96       	adiw	r28, 0x1b	; 27
    2e74:	0f b6       	in	r0, 0x3f	; 63
    2e76:	f8 94       	cli
    2e78:	de bf       	out	0x3e, r29	; 62
    2e7a:	0f be       	out	0x3f, r0	; 63
    2e7c:	cd bf       	out	0x3d, r28	; 61
    2e7e:	df 91       	pop	r29
    2e80:	cf 91       	pop	r28
    2e82:	08 95       	ret

Disassembly of section .text.msg_d_ass:

00002e84 <msg_d_ass>:
    2e84:	cf 93       	push	r28
    2e86:	df 93       	push	r29
    2e88:	cd b7       	in	r28, 0x3d	; 61
    2e8a:	de b7       	in	r29, 0x3e	; 62
    2e8c:	6c 97       	sbiw	r28, 0x1c	; 28
    2e8e:	0f b6       	in	r0, 0x3f	; 63
    2e90:	f8 94       	cli
    2e92:	de bf       	out	0x3e, r29	; 62
    2e94:	0f be       	out	0x3f, r0	; 63
    2e96:	cd bf       	out	0x3d, r28	; 61
    2e98:	0e 94 14 1b 	call	0x3628	; 0x3628 <clear_Display>
    2e9c:	2f ee       	ldi	r18, 0xEF	; 239
    2e9e:	31 e0       	ldi	r19, 0x01	; 1
    2ea0:	40 e0       	ldi	r20, 0x00	; 0
    2ea2:	8e e0       	ldi	r24, 0x0E	; 14
    2ea4:	f9 01       	movw	r30, r18
    2ea6:	de 01       	movw	r26, r28
    2ea8:	11 96       	adiw	r26, 0x01	; 1
    2eaa:	74 2f       	mov	r23, r20
    2eac:	0e 94 e7 1a 	call	0x35ce	; 0x35ce <__movmemx_qi>
    2eb0:	60 e0       	ldi	r22, 0x00	; 0
    2eb2:	ce 01       	movw	r24, r28
    2eb4:	01 96       	adiw	r24, 0x01	; 1
    2eb6:	0e 94 a1 1a 	call	0x3542	; 0x3542 <envia_frase>
    2eba:	21 ee       	ldi	r18, 0xE1	; 225
    2ebc:	31 e0       	ldi	r19, 0x01	; 1
    2ebe:	40 e0       	ldi	r20, 0x00	; 0
    2ec0:	8e e0       	ldi	r24, 0x0E	; 14
    2ec2:	f9 01       	movw	r30, r18
    2ec4:	de 01       	movw	r26, r28
    2ec6:	1f 96       	adiw	r26, 0x0f	; 15
    2ec8:	74 2f       	mov	r23, r20
    2eca:	0e 94 e7 1a 	call	0x35ce	; 0x35ce <__movmemx_qi>
    2ece:	60 e4       	ldi	r22, 0x40	; 64
    2ed0:	ce 01       	movw	r24, r28
    2ed2:	0f 96       	adiw	r24, 0x0f	; 15
    2ed4:	0e 94 a1 1a 	call	0x3542	; 0x3542 <envia_frase>
    2ed8:	6c 96       	adiw	r28, 0x1c	; 28
    2eda:	0f b6       	in	r0, 0x3f	; 63
    2edc:	f8 94       	cli
    2ede:	de bf       	out	0x3e, r29	; 62
    2ee0:	0f be       	out	0x3f, r0	; 63
    2ee2:	cd bf       	out	0x3d, r28	; 61
    2ee4:	df 91       	pop	r29
    2ee6:	cf 91       	pop	r28
    2ee8:	08 95       	ret

Disassembly of section .text.msg_ajusteTout:

00002eea <msg_ajusteTout>:
    2eea:	cf 93       	push	r28
    2eec:	df 93       	push	r29
    2eee:	cd b7       	in	r28, 0x3d	; 61
    2ef0:	de b7       	in	r29, 0x3e	; 62
    2ef2:	6b 97       	sbiw	r28, 0x1b	; 27
    2ef4:	0f b6       	in	r0, 0x3f	; 63
    2ef6:	f8 94       	cli
    2ef8:	de bf       	out	0x3e, r29	; 62
    2efa:	0f be       	out	0x3f, r0	; 63
    2efc:	cd bf       	out	0x3d, r28	; 61
    2efe:	0e 94 14 1b 	call	0x3628	; 0x3628 <clear_Display>
    2f02:	2d ef       	ldi	r18, 0xFD	; 253
    2f04:	31 e0       	ldi	r19, 0x01	; 1
    2f06:	40 e0       	ldi	r20, 0x00	; 0
    2f08:	8e e0       	ldi	r24, 0x0E	; 14
    2f0a:	f9 01       	movw	r30, r18
    2f0c:	de 01       	movw	r26, r28
    2f0e:	11 96       	adiw	r26, 0x01	; 1
    2f10:	74 2f       	mov	r23, r20
    2f12:	0e 94 e7 1a 	call	0x35ce	; 0x35ce <__movmemx_qi>
    2f16:	60 e0       	ldi	r22, 0x00	; 0
    2f18:	ce 01       	movw	r24, r28
    2f1a:	01 96       	adiw	r24, 0x01	; 1
    2f1c:	0e 94 a1 1a 	call	0x3542	; 0x3542 <envia_frase>
    2f20:	2b e0       	ldi	r18, 0x0B	; 11
    2f22:	32 e0       	ldi	r19, 0x02	; 2
    2f24:	40 e0       	ldi	r20, 0x00	; 0
    2f26:	8d e0       	ldi	r24, 0x0D	; 13
    2f28:	f9 01       	movw	r30, r18
    2f2a:	de 01       	movw	r26, r28
    2f2c:	1f 96       	adiw	r26, 0x0f	; 15
    2f2e:	74 2f       	mov	r23, r20
    2f30:	0e 94 e7 1a 	call	0x35ce	; 0x35ce <__movmemx_qi>
    2f34:	60 e4       	ldi	r22, 0x40	; 64
    2f36:	ce 01       	movw	r24, r28
    2f38:	0f 96       	adiw	r24, 0x0f	; 15
    2f3a:	0e 94 a1 1a 	call	0x3542	; 0x3542 <envia_frase>
    2f3e:	6b 96       	adiw	r28, 0x1b	; 27
    2f40:	0f b6       	in	r0, 0x3f	; 63
    2f42:	f8 94       	cli
    2f44:	de bf       	out	0x3e, r29	; 62
    2f46:	0f be       	out	0x3f, r0	; 63
    2f48:	cd bf       	out	0x3d, r28	; 61
    2f4a:	df 91       	pop	r29
    2f4c:	cf 91       	pop	r28
    2f4e:	08 95       	ret

Disassembly of section .text.msg_time_sirene:

00002f50 <msg_time_sirene>:
    2f50:	cf 93       	push	r28
    2f52:	df 93       	push	r29
    2f54:	cd b7       	in	r28, 0x3d	; 61
    2f56:	de b7       	in	r29, 0x3e	; 62
    2f58:	6e 97       	sbiw	r28, 0x1e	; 30
    2f5a:	0f b6       	in	r0, 0x3f	; 63
    2f5c:	f8 94       	cli
    2f5e:	de bf       	out	0x3e, r29	; 62
    2f60:	0f be       	out	0x3f, r0	; 63
    2f62:	cd bf       	out	0x3d, r28	; 61
    2f64:	0e 94 14 1b 	call	0x3628	; 0x3628 <clear_Display>
    2f68:	2d ef       	ldi	r18, 0xFD	; 253
    2f6a:	31 e0       	ldi	r19, 0x01	; 1
    2f6c:	40 e0       	ldi	r20, 0x00	; 0
    2f6e:	8e e0       	ldi	r24, 0x0E	; 14
    2f70:	f9 01       	movw	r30, r18
    2f72:	de 01       	movw	r26, r28
    2f74:	11 96       	adiw	r26, 0x01	; 1
    2f76:	74 2f       	mov	r23, r20
    2f78:	0e 94 e7 1a 	call	0x35ce	; 0x35ce <__movmemx_qi>
    2f7c:	60 e0       	ldi	r22, 0x00	; 0
    2f7e:	ce 01       	movw	r24, r28
    2f80:	01 96       	adiw	r24, 0x01	; 1
    2f82:	0e 94 a1 1a 	call	0x3542	; 0x3542 <envia_frase>
    2f86:	28 e1       	ldi	r18, 0x18	; 24
    2f88:	32 e0       	ldi	r19, 0x02	; 2
    2f8a:	40 e0       	ldi	r20, 0x00	; 0
    2f8c:	80 e1       	ldi	r24, 0x10	; 16
    2f8e:	f9 01       	movw	r30, r18
    2f90:	de 01       	movw	r26, r28
    2f92:	1f 96       	adiw	r26, 0x0f	; 15
    2f94:	74 2f       	mov	r23, r20
    2f96:	0e 94 e7 1a 	call	0x35ce	; 0x35ce <__movmemx_qi>
    2f9a:	60 e4       	ldi	r22, 0x40	; 64
    2f9c:	ce 01       	movw	r24, r28
    2f9e:	0f 96       	adiw	r24, 0x0f	; 15
    2fa0:	0e 94 a1 1a 	call	0x3542	; 0x3542 <envia_frase>
    2fa4:	6e 96       	adiw	r28, 0x1e	; 30
    2fa6:	0f b6       	in	r0, 0x3f	; 63
    2fa8:	f8 94       	cli
    2faa:	de bf       	out	0x3e, r29	; 62
    2fac:	0f be       	out	0x3f, r0	; 63
    2fae:	cd bf       	out	0x3d, r28	; 61
    2fb0:	df 91       	pop	r29
    2fb2:	cf 91       	pop	r28
    2fb4:	08 95       	ret

Disassembly of section .text.msg_temp_ativ:

00002fb6 <msg_temp_ativ>:
    2fb6:	cf 93       	push	r28
    2fb8:	df 93       	push	r29
    2fba:	cd b7       	in	r28, 0x3d	; 61
    2fbc:	de b7       	in	r29, 0x3e	; 62
    2fbe:	6c 97       	sbiw	r28, 0x1c	; 28
    2fc0:	0f b6       	in	r0, 0x3f	; 63
    2fc2:	f8 94       	cli
    2fc4:	de bf       	out	0x3e, r29	; 62
    2fc6:	0f be       	out	0x3f, r0	; 63
    2fc8:	cd bf       	out	0x3d, r28	; 61
    2fca:	0e 94 14 1b 	call	0x3628	; 0x3628 <clear_Display>
    2fce:	2d ef       	ldi	r18, 0xFD	; 253
    2fd0:	31 e0       	ldi	r19, 0x01	; 1
    2fd2:	40 e0       	ldi	r20, 0x00	; 0
    2fd4:	8e e0       	ldi	r24, 0x0E	; 14
    2fd6:	f9 01       	movw	r30, r18
    2fd8:	de 01       	movw	r26, r28
    2fda:	11 96       	adiw	r26, 0x01	; 1
    2fdc:	74 2f       	mov	r23, r20
    2fde:	0e 94 e7 1a 	call	0x35ce	; 0x35ce <__movmemx_qi>
    2fe2:	60 e0       	ldi	r22, 0x00	; 0
    2fe4:	ce 01       	movw	r24, r28
    2fe6:	01 96       	adiw	r24, 0x01	; 1
    2fe8:	0e 94 a1 1a 	call	0x3542	; 0x3542 <envia_frase>
    2fec:	28 e2       	ldi	r18, 0x28	; 40
    2fee:	32 e0       	ldi	r19, 0x02	; 2
    2ff0:	40 e0       	ldi	r20, 0x00	; 0
    2ff2:	8e e0       	ldi	r24, 0x0E	; 14
    2ff4:	f9 01       	movw	r30, r18
    2ff6:	de 01       	movw	r26, r28
    2ff8:	1f 96       	adiw	r26, 0x0f	; 15
    2ffa:	74 2f       	mov	r23, r20
    2ffc:	0e 94 e7 1a 	call	0x35ce	; 0x35ce <__movmemx_qi>
    3000:	60 e4       	ldi	r22, 0x40	; 64
    3002:	ce 01       	movw	r24, r28
    3004:	0f 96       	adiw	r24, 0x0f	; 15
    3006:	0e 94 a1 1a 	call	0x3542	; 0x3542 <envia_frase>
    300a:	6c 96       	adiw	r28, 0x1c	; 28
    300c:	0f b6       	in	r0, 0x3f	; 63
    300e:	f8 94       	cli
    3010:	de bf       	out	0x3e, r29	; 62
    3012:	0f be       	out	0x3f, r0	; 63
    3014:	cd bf       	out	0x3d, r28	; 61
    3016:	df 91       	pop	r29
    3018:	cf 91       	pop	r28
    301a:	08 95       	ret

Disassembly of section .text.insert_senha:

0000363c <insert_senha>:
    363c:	e4 2f       	mov	r30, r20
    363e:	f5 2f       	mov	r31, r21
    3640:	24 91       	lpm	r18, Z
    3642:	67 fd       	sbrc	r22, 7
    3644:	20 81       	ld	r18, Z
    3646:	83 5d       	subi	r24, 0xD3	; 211
    3648:	9e 4f       	sbci	r25, 0xFE	; 254
    364a:	fc 01       	movw	r30, r24
    364c:	20 83       	st	Z, r18
    364e:	08 95       	ret

Disassembly of section .text.senha_arm:

000031e6 <senha_arm>:
    31e6:	20 91 25 01 	lds	r18, 0x0125	; 0x800125 <addr_senha>
    31ea:	30 91 26 01 	lds	r19, 0x0126	; 0x800126 <addr_senha+0x1>
    31ee:	21 30       	cpi	r18, 0x01	; 1
    31f0:	31 05       	cpc	r19, r1
    31f2:	49 f4       	brne	.+18     	; 0x3206 <senha_arm+0x20>
    31f4:	e4 2f       	mov	r30, r20
    31f6:	f5 2f       	mov	r31, r21
    31f8:	74 91       	lpm	r23, Z
    31fa:	67 fd       	sbrc	r22, 7
    31fc:	70 81       	ld	r23, Z
    31fe:	fc 01       	movw	r30, r24
    3200:	e8 55       	subi	r30, 0x58	; 88
    3202:	fe 4f       	sbci	r31, 0xFE	; 254
    3204:	70 83       	st	Z, r23
    3206:	22 30       	cpi	r18, 0x02	; 2
    3208:	31 05       	cpc	r19, r1
    320a:	49 f4       	brne	.+18     	; 0x321e <senha_arm+0x38>
    320c:	e4 2f       	mov	r30, r20
    320e:	f5 2f       	mov	r31, r21
    3210:	74 91       	lpm	r23, Z
    3212:	67 fd       	sbrc	r22, 7
    3214:	70 81       	ld	r23, Z
    3216:	fc 01       	movw	r30, r24
    3218:	ed 55       	subi	r30, 0x5D	; 93
    321a:	fe 4f       	sbci	r31, 0xFE	; 254
    321c:	70 83       	st	Z, r23
    321e:	23 30       	cpi	r18, 0x03	; 3
    3220:	31 05       	cpc	r19, r1
    3222:	49 f4       	brne	.+18     	; 0x3236 <senha_arm+0x50>
    3224:	e4 2f       	mov	r30, r20
    3226:	f5 2f       	mov	r31, r21
    3228:	24 91       	lpm	r18, Z
    322a:	67 fd       	sbrc	r22, 7
    322c:	20 81       	ld	r18, Z
    322e:	fc 01       	movw	r30, r24
    3230:	e2 56       	subi	r30, 0x62	; 98
    3232:	fe 4f       	sbci	r31, 0xFE	; 254
    3234:	20 83       	st	Z, r18
    3236:	08 95       	ret

Disassembly of section .text.verify_senhaM:

00002c0e <verify_senhaM>:
    2c0e:	10 92 d3 01 	sts	0x01D3, r1	; 0x8001d3 <cont_a+0x1>
    2c12:	10 92 d2 01 	sts	0x01D2, r1	; 0x8001d2 <cont_a>
    2c16:	10 92 d1 01 	sts	0x01D1, r1	; 0x8001d1 <cont_b+0x1>
    2c1a:	10 92 d0 01 	sts	0x01D0, r1	; 0x8001d0 <cont_b>
    2c1e:	15 c0       	rjmp	.+42     	; 0x2c4a <verify_senhaM+0x3c>
    2c20:	fc 01       	movw	r30, r24
    2c22:	e3 5d       	subi	r30, 0xD3	; 211
    2c24:	fe 4f       	sbci	r31, 0xFE	; 254
    2c26:	30 81       	ld	r19, Z
    2c28:	23 13       	cpse	r18, r19
    2c2a:	0a c0       	rjmp	.+20     	; 0x2c40 <verify_senhaM+0x32>
    2c2c:	20 91 d0 01 	lds	r18, 0x01D0	; 0x8001d0 <cont_b>
    2c30:	30 91 d1 01 	lds	r19, 0x01D1	; 0x8001d1 <cont_b+0x1>
    2c34:	2f 5f       	subi	r18, 0xFF	; 255
    2c36:	3f 4f       	sbci	r19, 0xFF	; 255
    2c38:	30 93 d1 01 	sts	0x01D1, r19	; 0x8001d1 <cont_b+0x1>
    2c3c:	20 93 d0 01 	sts	0x01D0, r18	; 0x8001d0 <cont_b>
    2c40:	01 96       	adiw	r24, 0x01	; 1
    2c42:	90 93 d3 01 	sts	0x01D3, r25	; 0x8001d3 <cont_a+0x1>
    2c46:	80 93 d2 01 	sts	0x01D2, r24	; 0x8001d2 <cont_a>
    2c4a:	80 91 d2 01 	lds	r24, 0x01D2	; 0x8001d2 <cont_a>
    2c4e:	90 91 d3 01 	lds	r25, 0x01D3	; 0x8001d3 <cont_a+0x1>
    2c52:	fc 01       	movw	r30, r24
    2c54:	e3 55       	subi	r30, 0x53	; 83
    2c56:	fe 4f       	sbci	r31, 0xFE	; 254
    2c58:	20 81       	ld	r18, Z
    2c5a:	21 11       	cpse	r18, r1
    2c5c:	e1 cf       	rjmp	.-62     	; 0x2c20 <verify_senhaM+0x12>
    2c5e:	80 91 d0 01 	lds	r24, 0x01D0	; 0x8001d0 <cont_b>
    2c62:	90 91 d1 01 	lds	r25, 0x01D1	; 0x8001d1 <cont_b+0x1>
    2c66:	04 97       	sbiw	r24, 0x04	; 4
    2c68:	31 f4       	brne	.+12     	; 0x2c76 <verify_senhaM+0x68>
    2c6a:	87 e0       	ldi	r24, 0x07	; 7
    2c6c:	80 93 d8 01 	sts	0x01D8, r24	; 0x8001d8 <state>
    2c70:	0e 94 14 1b 	call	0x3628	; 0x3628 <clear_Display>
    2c74:	08 95       	ret
    2c76:	81 e0       	ldi	r24, 0x01	; 1
    2c78:	80 93 d8 01 	sts	0x01D8, r24	; 0x8001d8 <state>
    2c7c:	0e 94 14 1b 	call	0x3628	; 0x3628 <clear_Display>
    2c80:	0e 94 3f 18 	call	0x307e	; 0x307e <msg_desativado>
    2c84:	08 95       	ret

Disassembly of section .text.verify_senhaD:

0000242e <verify_senhaD>:
    242e:	10 92 d3 01 	sts	0x01D3, r1	; 0x8001d3 <cont_a+0x1>
    2432:	10 92 d2 01 	sts	0x01D2, r1	; 0x8001d2 <cont_a>
    2436:	10 92 d1 01 	sts	0x01D1, r1	; 0x8001d1 <cont_b+0x1>
    243a:	10 92 d0 01 	sts	0x01D0, r1	; 0x8001d0 <cont_b>
    243e:	15 c0       	rjmp	.+42     	; 0x246a <verify_senhaD+0x3c>
    2440:	fc 01       	movw	r30, r24
    2442:	e3 5d       	subi	r30, 0xD3	; 211
    2444:	fe 4f       	sbci	r31, 0xFE	; 254
    2446:	30 81       	ld	r19, Z
    2448:	23 13       	cpse	r18, r19
    244a:	0a c0       	rjmp	.+20     	; 0x2460 <verify_senhaD+0x32>
    244c:	20 91 d0 01 	lds	r18, 0x01D0	; 0x8001d0 <cont_b>
    2450:	30 91 d1 01 	lds	r19, 0x01D1	; 0x8001d1 <cont_b+0x1>
    2454:	2f 5f       	subi	r18, 0xFF	; 255
    2456:	3f 4f       	sbci	r19, 0xFF	; 255
    2458:	30 93 d1 01 	sts	0x01D1, r19	; 0x8001d1 <cont_b+0x1>
    245c:	20 93 d0 01 	sts	0x01D0, r18	; 0x8001d0 <cont_b>
    2460:	01 96       	adiw	r24, 0x01	; 1
    2462:	90 93 d3 01 	sts	0x01D3, r25	; 0x8001d3 <cont_a+0x1>
    2466:	80 93 d2 01 	sts	0x01D2, r24	; 0x8001d2 <cont_a>
    246a:	80 91 d2 01 	lds	r24, 0x01D2	; 0x8001d2 <cont_a>
    246e:	90 91 d3 01 	lds	r25, 0x01D3	; 0x8001d3 <cont_a+0x1>
    2472:	fc 01       	movw	r30, r24
    2474:	e3 55       	subi	r30, 0x53	; 83
    2476:	fe 4f       	sbci	r31, 0xFE	; 254
    2478:	20 81       	ld	r18, Z
    247a:	21 11       	cpse	r18, r1
    247c:	e1 cf       	rjmp	.-62     	; 0x2440 <verify_senhaD+0x12>
    247e:	80 91 d0 01 	lds	r24, 0x01D0	; 0x8001d0 <cont_b>
    2482:	90 91 d1 01 	lds	r25, 0x01D1	; 0x8001d1 <cont_b+0x1>
    2486:	04 97       	sbiw	r24, 0x04	; 4
    2488:	41 f4       	brne	.+16     	; 0x249a <verify_senhaD+0x6c>
    248a:	81 e0       	ldi	r24, 0x01	; 1
    248c:	80 93 d8 01 	sts	0x01D8, r24	; 0x8001d8 <state>
    2490:	0e 94 14 1b 	call	0x3628	; 0x3628 <clear_Display>
    2494:	0e 94 3f 18 	call	0x307e	; 0x307e <msg_desativado>
    2498:	08 95       	ret
    249a:	10 92 d3 01 	sts	0x01D3, r1	; 0x8001d3 <cont_a+0x1>
    249e:	10 92 d2 01 	sts	0x01D2, r1	; 0x8001d2 <cont_a>
    24a2:	10 92 d1 01 	sts	0x01D1, r1	; 0x8001d1 <cont_b+0x1>
    24a6:	10 92 d0 01 	sts	0x01D0, r1	; 0x8001d0 <cont_b>
    24aa:	15 c0       	rjmp	.+42     	; 0x24d6 <verify_senhaD+0xa8>
    24ac:	fc 01       	movw	r30, r24
    24ae:	e3 5d       	subi	r30, 0xD3	; 211
    24b0:	fe 4f       	sbci	r31, 0xFE	; 254
    24b2:	30 81       	ld	r19, Z
    24b4:	23 13       	cpse	r18, r19
    24b6:	0a c0       	rjmp	.+20     	; 0x24cc <verify_senhaD+0x9e>
    24b8:	20 91 d0 01 	lds	r18, 0x01D0	; 0x8001d0 <cont_b>
    24bc:	30 91 d1 01 	lds	r19, 0x01D1	; 0x8001d1 <cont_b+0x1>
    24c0:	2f 5f       	subi	r18, 0xFF	; 255
    24c2:	3f 4f       	sbci	r19, 0xFF	; 255
    24c4:	30 93 d1 01 	sts	0x01D1, r19	; 0x8001d1 <cont_b+0x1>
    24c8:	20 93 d0 01 	sts	0x01D0, r18	; 0x8001d0 <cont_b>
    24cc:	01 96       	adiw	r24, 0x01	; 1
    24ce:	90 93 d3 01 	sts	0x01D3, r25	; 0x8001d3 <cont_a+0x1>
    24d2:	80 93 d2 01 	sts	0x01D2, r24	; 0x8001d2 <cont_a>
    24d6:	80 91 d2 01 	lds	r24, 0x01D2	; 0x8001d2 <cont_a>
    24da:	90 91 d3 01 	lds	r25, 0x01D3	; 0x8001d3 <cont_a+0x1>
    24de:	fc 01       	movw	r30, r24
    24e0:	e8 55       	subi	r30, 0x58	; 88
    24e2:	fe 4f       	sbci	r31, 0xFE	; 254
    24e4:	20 81       	ld	r18, Z
    24e6:	21 11       	cpse	r18, r1
    24e8:	e1 cf       	rjmp	.-62     	; 0x24ac <verify_senhaD+0x7e>
    24ea:	80 91 d0 01 	lds	r24, 0x01D0	; 0x8001d0 <cont_b>
    24ee:	90 91 d1 01 	lds	r25, 0x01D1	; 0x8001d1 <cont_b+0x1>
    24f2:	04 97       	sbiw	r24, 0x04	; 4
    24f4:	41 f4       	brne	.+16     	; 0x2506 <verify_senhaD+0xd8>
    24f6:	81 e0       	ldi	r24, 0x01	; 1
    24f8:	80 93 d8 01 	sts	0x01D8, r24	; 0x8001d8 <state>
    24fc:	0e 94 14 1b 	call	0x3628	; 0x3628 <clear_Display>
    2500:	0e 94 3f 18 	call	0x307e	; 0x307e <msg_desativado>
    2504:	08 95       	ret
    2506:	10 92 d3 01 	sts	0x01D3, r1	; 0x8001d3 <cont_a+0x1>
    250a:	10 92 d2 01 	sts	0x01D2, r1	; 0x8001d2 <cont_a>
    250e:	10 92 d1 01 	sts	0x01D1, r1	; 0x8001d1 <cont_b+0x1>
    2512:	10 92 d0 01 	sts	0x01D0, r1	; 0x8001d0 <cont_b>
    2516:	15 c0       	rjmp	.+42     	; 0x2542 <verify_senhaD+0x114>
    2518:	fc 01       	movw	r30, r24
    251a:	e3 5d       	subi	r30, 0xD3	; 211
    251c:	fe 4f       	sbci	r31, 0xFE	; 254
    251e:	30 81       	ld	r19, Z
    2520:	23 13       	cpse	r18, r19
    2522:	0a c0       	rjmp	.+20     	; 0x2538 <verify_senhaD+0x10a>
    2524:	20 91 d0 01 	lds	r18, 0x01D0	; 0x8001d0 <cont_b>
    2528:	30 91 d1 01 	lds	r19, 0x01D1	; 0x8001d1 <cont_b+0x1>
    252c:	2f 5f       	subi	r18, 0xFF	; 255
    252e:	3f 4f       	sbci	r19, 0xFF	; 255
    2530:	30 93 d1 01 	sts	0x01D1, r19	; 0x8001d1 <cont_b+0x1>
    2534:	20 93 d0 01 	sts	0x01D0, r18	; 0x8001d0 <cont_b>
    2538:	01 96       	adiw	r24, 0x01	; 1
    253a:	90 93 d3 01 	sts	0x01D3, r25	; 0x8001d3 <cont_a+0x1>
    253e:	80 93 d2 01 	sts	0x01D2, r24	; 0x8001d2 <cont_a>
    2542:	80 91 d2 01 	lds	r24, 0x01D2	; 0x8001d2 <cont_a>
    2546:	90 91 d3 01 	lds	r25, 0x01D3	; 0x8001d3 <cont_a+0x1>
    254a:	fc 01       	movw	r30, r24
    254c:	ed 55       	subi	r30, 0x5D	; 93
    254e:	fe 4f       	sbci	r31, 0xFE	; 254
    2550:	20 81       	ld	r18, Z
    2552:	21 11       	cpse	r18, r1
    2554:	e1 cf       	rjmp	.-62     	; 0x2518 <verify_senhaD+0xea>
    2556:	80 91 d0 01 	lds	r24, 0x01D0	; 0x8001d0 <cont_b>
    255a:	90 91 d1 01 	lds	r25, 0x01D1	; 0x8001d1 <cont_b+0x1>
    255e:	04 97       	sbiw	r24, 0x04	; 4
    2560:	41 f4       	brne	.+16     	; 0x2572 <verify_senhaD+0x144>
    2562:	81 e0       	ldi	r24, 0x01	; 1
    2564:	80 93 d8 01 	sts	0x01D8, r24	; 0x8001d8 <state>
    2568:	0e 94 14 1b 	call	0x3628	; 0x3628 <clear_Display>
    256c:	0e 94 3f 18 	call	0x307e	; 0x307e <msg_desativado>
    2570:	08 95       	ret
    2572:	10 92 d3 01 	sts	0x01D3, r1	; 0x8001d3 <cont_a+0x1>
    2576:	10 92 d2 01 	sts	0x01D2, r1	; 0x8001d2 <cont_a>
    257a:	10 92 d1 01 	sts	0x01D1, r1	; 0x8001d1 <cont_b+0x1>
    257e:	10 92 d0 01 	sts	0x01D0, r1	; 0x8001d0 <cont_b>
    2582:	15 c0       	rjmp	.+42     	; 0x25ae <verify_senhaD+0x180>
    2584:	fc 01       	movw	r30, r24
    2586:	e3 5d       	subi	r30, 0xD3	; 211
    2588:	fe 4f       	sbci	r31, 0xFE	; 254
    258a:	30 81       	ld	r19, Z
    258c:	23 13       	cpse	r18, r19
    258e:	0a c0       	rjmp	.+20     	; 0x25a4 <verify_senhaD+0x176>
    2590:	20 91 d0 01 	lds	r18, 0x01D0	; 0x8001d0 <cont_b>
    2594:	30 91 d1 01 	lds	r19, 0x01D1	; 0x8001d1 <cont_b+0x1>
    2598:	2f 5f       	subi	r18, 0xFF	; 255
    259a:	3f 4f       	sbci	r19, 0xFF	; 255
    259c:	30 93 d1 01 	sts	0x01D1, r19	; 0x8001d1 <cont_b+0x1>
    25a0:	20 93 d0 01 	sts	0x01D0, r18	; 0x8001d0 <cont_b>
    25a4:	01 96       	adiw	r24, 0x01	; 1
    25a6:	90 93 d3 01 	sts	0x01D3, r25	; 0x8001d3 <cont_a+0x1>
    25aa:	80 93 d2 01 	sts	0x01D2, r24	; 0x8001d2 <cont_a>
    25ae:	80 91 d2 01 	lds	r24, 0x01D2	; 0x8001d2 <cont_a>
    25b2:	90 91 d3 01 	lds	r25, 0x01D3	; 0x8001d3 <cont_a+0x1>
    25b6:	fc 01       	movw	r30, r24
    25b8:	e2 56       	subi	r30, 0x62	; 98
    25ba:	fe 4f       	sbci	r31, 0xFE	; 254
    25bc:	20 81       	ld	r18, Z
    25be:	21 11       	cpse	r18, r1
    25c0:	e1 cf       	rjmp	.-62     	; 0x2584 <verify_senhaD+0x156>
    25c2:	80 91 d0 01 	lds	r24, 0x01D0	; 0x8001d0 <cont_b>
    25c6:	90 91 d1 01 	lds	r25, 0x01D1	; 0x8001d1 <cont_b+0x1>
    25ca:	04 97       	sbiw	r24, 0x04	; 4
    25cc:	41 f4       	brne	.+16     	; 0x25de <verify_senhaD+0x1b0>
    25ce:	81 e0       	ldi	r24, 0x01	; 1
    25d0:	80 93 d8 01 	sts	0x01D8, r24	; 0x8001d8 <state>
    25d4:	0e 94 14 1b 	call	0x3628	; 0x3628 <clear_Display>
    25d8:	0e 94 3f 18 	call	0x307e	; 0x307e <msg_desativado>
    25dc:	08 95       	ret
    25de:	85 e0       	ldi	r24, 0x05	; 5
    25e0:	80 93 d8 01 	sts	0x01D8, r24	; 0x8001d8 <state>
    25e4:	0e 94 14 1b 	call	0x3628	; 0x3628 <clear_Display>
    25e8:	08 95       	ret

Disassembly of section .text.hab_sensor:

00002792 <hab_sensor>:
    2792:	21 e0       	ldi	r18, 0x01	; 1
    2794:	30 e0       	ldi	r19, 0x00	; 0
    2796:	30 93 cf 01 	sts	0x01CF, r19	; 0x8001cf <flag_sensor+0x1>
    279a:	20 93 ce 01 	sts	0x01CE, r18	; 0x8001ce <flag_sensor>
    279e:	20 91 cc 01 	lds	r18, 0x01CC	; 0x8001cc <flag_D_sensor>
    27a2:	30 91 cd 01 	lds	r19, 0x01CD	; 0x8001cd <flag_D_sensor+0x1>
    27a6:	21 15       	cp	r18, r1
    27a8:	31 05       	cpc	r19, r1
    27aa:	09 f0       	breq	.+2      	; 0x27ae <hab_sensor+0x1c>
    27ac:	4f c0       	rjmp	.+158    	; 0x284c <hab_sensor+0xba>
    27ae:	00 97       	sbiw	r24, 0x00	; 0
    27b0:	39 f4       	brne	.+14     	; 0x27c0 <hab_sensor+0x2e>
    27b2:	81 e0       	ldi	r24, 0x01	; 1
    27b4:	90 e0       	ldi	r25, 0x00	; 0
    27b6:	90 93 9b 01 	sts	0x019B, r25	; 0x80019b <sensor0+0x3>
    27ba:	80 93 9a 01 	sts	0x019A, r24	; 0x80019a <sensor0+0x2>
    27be:	08 95       	ret
    27c0:	81 30       	cpi	r24, 0x01	; 1
    27c2:	91 05       	cpc	r25, r1
    27c4:	39 f4       	brne	.+14     	; 0x27d4 <hab_sensor+0x42>
    27c6:	81 e0       	ldi	r24, 0x01	; 1
    27c8:	90 e0       	ldi	r25, 0x00	; 0
    27ca:	90 93 95 01 	sts	0x0195, r25	; 0x800195 <sensor1+0x3>
    27ce:	80 93 94 01 	sts	0x0194, r24	; 0x800194 <sensor1+0x2>
    27d2:	08 95       	ret
    27d4:	82 30       	cpi	r24, 0x02	; 2
    27d6:	91 05       	cpc	r25, r1
    27d8:	39 f4       	brne	.+14     	; 0x27e8 <hab_sensor+0x56>
    27da:	81 e0       	ldi	r24, 0x01	; 1
    27dc:	90 e0       	ldi	r25, 0x00	; 0
    27de:	90 93 8f 01 	sts	0x018F, r25	; 0x80018f <sensor2+0x3>
    27e2:	80 93 8e 01 	sts	0x018E, r24	; 0x80018e <sensor2+0x2>
    27e6:	08 95       	ret
    27e8:	83 30       	cpi	r24, 0x03	; 3
    27ea:	91 05       	cpc	r25, r1
    27ec:	39 f4       	brne	.+14     	; 0x27fc <hab_sensor+0x6a>
    27ee:	81 e0       	ldi	r24, 0x01	; 1
    27f0:	90 e0       	ldi	r25, 0x00	; 0
    27f2:	90 93 89 01 	sts	0x0189, r25	; 0x800189 <sensor3+0x3>
    27f6:	80 93 88 01 	sts	0x0188, r24	; 0x800188 <sensor3+0x2>
    27fa:	08 95       	ret
    27fc:	84 30       	cpi	r24, 0x04	; 4
    27fe:	91 05       	cpc	r25, r1
    2800:	39 f4       	brne	.+14     	; 0x2810 <hab_sensor+0x7e>
    2802:	81 e0       	ldi	r24, 0x01	; 1
    2804:	90 e0       	ldi	r25, 0x00	; 0
    2806:	90 93 83 01 	sts	0x0183, r25	; 0x800183 <sensor4+0x3>
    280a:	80 93 82 01 	sts	0x0182, r24	; 0x800182 <sensor4+0x2>
    280e:	08 95       	ret
    2810:	85 30       	cpi	r24, 0x05	; 5
    2812:	91 05       	cpc	r25, r1
    2814:	39 f4       	brne	.+14     	; 0x2824 <hab_sensor+0x92>
    2816:	81 e0       	ldi	r24, 0x01	; 1
    2818:	90 e0       	ldi	r25, 0x00	; 0
    281a:	90 93 7d 01 	sts	0x017D, r25	; 0x80017d <sensor5+0x3>
    281e:	80 93 7c 01 	sts	0x017C, r24	; 0x80017c <sensor5+0x2>
    2822:	08 95       	ret
    2824:	86 30       	cpi	r24, 0x06	; 6
    2826:	91 05       	cpc	r25, r1
    2828:	39 f4       	brne	.+14     	; 0x2838 <hab_sensor+0xa6>
    282a:	81 e0       	ldi	r24, 0x01	; 1
    282c:	90 e0       	ldi	r25, 0x00	; 0
    282e:	90 93 77 01 	sts	0x0177, r25	; 0x800177 <sensor6+0x3>
    2832:	80 93 76 01 	sts	0x0176, r24	; 0x800176 <sensor6+0x2>
    2836:	08 95       	ret
    2838:	07 97       	sbiw	r24, 0x07	; 7
    283a:	09 f0       	breq	.+2      	; 0x283e <hab_sensor+0xac>
    283c:	4c c0       	rjmp	.+152    	; 0x28d6 <hab_sensor+0x144>
    283e:	81 e0       	ldi	r24, 0x01	; 1
    2840:	90 e0       	ldi	r25, 0x00	; 0
    2842:	90 93 71 01 	sts	0x0171, r25	; 0x800171 <sensor7+0x3>
    2846:	80 93 70 01 	sts	0x0170, r24	; 0x800170 <sensor7+0x2>
    284a:	08 95       	ret
    284c:	21 30       	cpi	r18, 0x01	; 1
    284e:	31 05       	cpc	r19, r1
    2850:	09 f0       	breq	.+2      	; 0x2854 <hab_sensor+0xc2>
    2852:	41 c0       	rjmp	.+130    	; 0x28d6 <hab_sensor+0x144>
    2854:	00 97       	sbiw	r24, 0x00	; 0
    2856:	29 f4       	brne	.+10     	; 0x2862 <hab_sensor+0xd0>
    2858:	10 92 9b 01 	sts	0x019B, r1	; 0x80019b <sensor0+0x3>
    285c:	10 92 9a 01 	sts	0x019A, r1	; 0x80019a <sensor0+0x2>
    2860:	36 c0       	rjmp	.+108    	; 0x28ce <hab_sensor+0x13c>
    2862:	81 30       	cpi	r24, 0x01	; 1
    2864:	91 05       	cpc	r25, r1
    2866:	29 f4       	brne	.+10     	; 0x2872 <hab_sensor+0xe0>
    2868:	10 92 95 01 	sts	0x0195, r1	; 0x800195 <sensor1+0x3>
    286c:	10 92 94 01 	sts	0x0194, r1	; 0x800194 <sensor1+0x2>
    2870:	2e c0       	rjmp	.+92     	; 0x28ce <hab_sensor+0x13c>
    2872:	82 30       	cpi	r24, 0x02	; 2
    2874:	91 05       	cpc	r25, r1
    2876:	29 f4       	brne	.+10     	; 0x2882 <hab_sensor+0xf0>
    2878:	10 92 8f 01 	sts	0x018F, r1	; 0x80018f <sensor2+0x3>
    287c:	10 92 8e 01 	sts	0x018E, r1	; 0x80018e <sensor2+0x2>
    2880:	26 c0       	rjmp	.+76     	; 0x28ce <hab_sensor+0x13c>
    2882:	83 30       	cpi	r24, 0x03	; 3
    2884:	91 05       	cpc	r25, r1
    2886:	29 f4       	brne	.+10     	; 0x2892 <hab_sensor+0x100>
    2888:	10 92 89 01 	sts	0x0189, r1	; 0x800189 <sensor3+0x3>
    288c:	10 92 88 01 	sts	0x0188, r1	; 0x800188 <sensor3+0x2>
    2890:	1e c0       	rjmp	.+60     	; 0x28ce <hab_sensor+0x13c>
    2892:	84 30       	cpi	r24, 0x04	; 4
    2894:	91 05       	cpc	r25, r1
    2896:	29 f4       	brne	.+10     	; 0x28a2 <hab_sensor+0x110>
    2898:	10 92 83 01 	sts	0x0183, r1	; 0x800183 <sensor4+0x3>
    289c:	10 92 82 01 	sts	0x0182, r1	; 0x800182 <sensor4+0x2>
    28a0:	16 c0       	rjmp	.+44     	; 0x28ce <hab_sensor+0x13c>
    28a2:	85 30       	cpi	r24, 0x05	; 5
    28a4:	91 05       	cpc	r25, r1
    28a6:	29 f4       	brne	.+10     	; 0x28b2 <hab_sensor+0x120>
    28a8:	10 92 7d 01 	sts	0x017D, r1	; 0x80017d <sensor5+0x3>
    28ac:	10 92 7c 01 	sts	0x017C, r1	; 0x80017c <sensor5+0x2>
    28b0:	0e c0       	rjmp	.+28     	; 0x28ce <hab_sensor+0x13c>
    28b2:	86 30       	cpi	r24, 0x06	; 6
    28b4:	91 05       	cpc	r25, r1
    28b6:	29 f4       	brne	.+10     	; 0x28c2 <hab_sensor+0x130>
    28b8:	10 92 77 01 	sts	0x0177, r1	; 0x800177 <sensor6+0x3>
    28bc:	10 92 76 01 	sts	0x0176, r1	; 0x800176 <sensor6+0x2>
    28c0:	06 c0       	rjmp	.+12     	; 0x28ce <hab_sensor+0x13c>
    28c2:	07 97       	sbiw	r24, 0x07	; 7
    28c4:	21 f4       	brne	.+8      	; 0x28ce <hab_sensor+0x13c>
    28c6:	10 92 71 01 	sts	0x0171, r1	; 0x800171 <sensor7+0x3>
    28ca:	10 92 70 01 	sts	0x0170, r1	; 0x800170 <sensor7+0x2>
    28ce:	10 92 cd 01 	sts	0x01CD, r1	; 0x8001cd <flag_D_sensor+0x1>
    28d2:	10 92 cc 01 	sts	0x01CC, r1	; 0x8001cc <flag_D_sensor>
    28d6:	08 95       	ret

Disassembly of section .text.hab_zonas:

00002afa <hab_zonas>:
    2afa:	21 e0       	ldi	r18, 0x01	; 1
    2afc:	30 e0       	ldi	r19, 0x00	; 0
    2afe:	30 93 cf 01 	sts	0x01CF, r19	; 0x8001cf <flag_sensor+0x1>
    2b02:	20 93 ce 01 	sts	0x01CE, r18	; 0x8001ce <flag_sensor>
    2b06:	20 91 cc 01 	lds	r18, 0x01CC	; 0x8001cc <flag_D_sensor>
    2b0a:	30 91 cd 01 	lds	r19, 0x01CD	; 0x8001cd <flag_D_sensor+0x1>
    2b0e:	21 15       	cp	r18, r1
    2b10:	31 05       	cpc	r19, r1
    2b12:	e9 f4       	brne	.+58     	; 0x2b4e <hab_zonas+0x54>
    2b14:	81 30       	cpi	r24, 0x01	; 1
    2b16:	91 05       	cpc	r25, r1
    2b18:	39 f4       	brne	.+14     	; 0x2b28 <hab_zonas+0x2e>
    2b1a:	81 e0       	ldi	r24, 0x01	; 1
    2b1c:	90 e0       	ldi	r25, 0x00	; 0
    2b1e:	90 93 5d 01 	sts	0x015D, r25	; 0x80015d <zona1+0x3>
    2b22:	80 93 5c 01 	sts	0x015C, r24	; 0x80015c <zona1+0x2>
    2b26:	08 95       	ret
    2b28:	82 30       	cpi	r24, 0x02	; 2
    2b2a:	91 05       	cpc	r25, r1
    2b2c:	39 f4       	brne	.+14     	; 0x2b3c <hab_zonas+0x42>
    2b2e:	81 e0       	ldi	r24, 0x01	; 1
    2b30:	90 e0       	ldi	r25, 0x00	; 0
    2b32:	90 93 49 01 	sts	0x0149, r25	; 0x800149 <zona2+0x3>
    2b36:	80 93 48 01 	sts	0x0148, r24	; 0x800148 <zona2+0x2>
    2b3a:	08 95       	ret
    2b3c:	03 97       	sbiw	r24, 0x03	; 3
    2b3e:	21 f5       	brne	.+72     	; 0x2b88 <hab_zonas+0x8e>
    2b40:	81 e0       	ldi	r24, 0x01	; 1
    2b42:	90 e0       	ldi	r25, 0x00	; 0
    2b44:	90 93 35 01 	sts	0x0135, r25	; 0x800135 <zona3+0x3>
    2b48:	80 93 34 01 	sts	0x0134, r24	; 0x800134 <zona3+0x2>
    2b4c:	08 95       	ret
    2b4e:	21 30       	cpi	r18, 0x01	; 1
    2b50:	31 05       	cpc	r19, r1
    2b52:	d1 f4       	brne	.+52     	; 0x2b88 <hab_zonas+0x8e>
    2b54:	81 30       	cpi	r24, 0x01	; 1
    2b56:	91 05       	cpc	r25, r1
    2b58:	29 f4       	brne	.+10     	; 0x2b64 <hab_zonas+0x6a>
    2b5a:	10 92 5d 01 	sts	0x015D, r1	; 0x80015d <zona1+0x3>
    2b5e:	10 92 5c 01 	sts	0x015C, r1	; 0x80015c <zona1+0x2>
    2b62:	0e c0       	rjmp	.+28     	; 0x2b80 <hab_zonas+0x86>
    2b64:	82 30       	cpi	r24, 0x02	; 2
    2b66:	91 05       	cpc	r25, r1
    2b68:	29 f4       	brne	.+10     	; 0x2b74 <hab_zonas+0x7a>
    2b6a:	10 92 49 01 	sts	0x0149, r1	; 0x800149 <zona2+0x3>
    2b6e:	10 92 48 01 	sts	0x0148, r1	; 0x800148 <zona2+0x2>
    2b72:	06 c0       	rjmp	.+12     	; 0x2b80 <hab_zonas+0x86>
    2b74:	03 97       	sbiw	r24, 0x03	; 3
    2b76:	21 f4       	brne	.+8      	; 0x2b80 <hab_zonas+0x86>
    2b78:	10 92 35 01 	sts	0x0135, r1	; 0x800135 <zona3+0x3>
    2b7c:	10 92 34 01 	sts	0x0134, r1	; 0x800134 <zona3+0x2>
    2b80:	10 92 cd 01 	sts	0x01CD, r1	; 0x8001cd <flag_D_sensor+0x1>
    2b84:	10 92 cc 01 	sts	0x01CC, r1	; 0x8001cc <flag_D_sensor>
    2b88:	08 95       	ret

Disassembly of section .text.assSensorZona:

000020f0 <assSensorZona>:
    20f0:	20 91 cc 01 	lds	r18, 0x01CC	; 0x8001cc <flag_D_sensor>
    20f4:	30 91 cd 01 	lds	r19, 0x01CD	; 0x8001cd <flag_D_sensor+0x1>
    20f8:	21 15       	cp	r18, r1
    20fa:	31 05       	cpc	r19, r1
    20fc:	09 f0       	breq	.+2      	; 0x2100 <assSensorZona+0x10>
    20fe:	e4 c0       	rjmp	.+456    	; 0x22c8 <assSensorZona+0x1d8>
    2100:	61 30       	cpi	r22, 0x01	; 1
    2102:	71 05       	cpc	r23, r1
    2104:	09 f0       	breq	.+2      	; 0x2108 <assSensorZona+0x18>
    2106:	48 c0       	rjmp	.+144    	; 0x2198 <assSensorZona+0xa8>
    2108:	00 97       	sbiw	r24, 0x00	; 0
    210a:	31 f4       	brne	.+12     	; 0x2118 <assSensorZona+0x28>
    210c:	21 e0       	ldi	r18, 0x01	; 1
    210e:	30 e0       	ldi	r19, 0x00	; 0
    2110:	30 93 5f 01 	sts	0x015F, r19	; 0x80015f <zona1+0x5>
    2114:	20 93 5e 01 	sts	0x015E, r18	; 0x80015e <zona1+0x4>
    2118:	81 30       	cpi	r24, 0x01	; 1
    211a:	91 05       	cpc	r25, r1
    211c:	31 f4       	brne	.+12     	; 0x212a <assSensorZona+0x3a>
    211e:	21 e0       	ldi	r18, 0x01	; 1
    2120:	30 e0       	ldi	r19, 0x00	; 0
    2122:	30 93 61 01 	sts	0x0161, r19	; 0x800161 <zona1+0x7>
    2126:	20 93 60 01 	sts	0x0160, r18	; 0x800160 <zona1+0x6>
    212a:	82 30       	cpi	r24, 0x02	; 2
    212c:	91 05       	cpc	r25, r1
    212e:	31 f4       	brne	.+12     	; 0x213c <assSensorZona+0x4c>
    2130:	21 e0       	ldi	r18, 0x01	; 1
    2132:	30 e0       	ldi	r19, 0x00	; 0
    2134:	30 93 63 01 	sts	0x0163, r19	; 0x800163 <zona1+0x9>
    2138:	20 93 62 01 	sts	0x0162, r18	; 0x800162 <zona1+0x8>
    213c:	83 30       	cpi	r24, 0x03	; 3
    213e:	91 05       	cpc	r25, r1
    2140:	31 f4       	brne	.+12     	; 0x214e <assSensorZona+0x5e>
    2142:	21 e0       	ldi	r18, 0x01	; 1
    2144:	30 e0       	ldi	r19, 0x00	; 0
    2146:	30 93 65 01 	sts	0x0165, r19	; 0x800165 <zona1+0xb>
    214a:	20 93 64 01 	sts	0x0164, r18	; 0x800164 <zona1+0xa>
    214e:	84 30       	cpi	r24, 0x04	; 4
    2150:	91 05       	cpc	r25, r1
    2152:	31 f4       	brne	.+12     	; 0x2160 <assSensorZona+0x70>
    2154:	21 e0       	ldi	r18, 0x01	; 1
    2156:	30 e0       	ldi	r19, 0x00	; 0
    2158:	30 93 67 01 	sts	0x0167, r19	; 0x800167 <zona1+0xd>
    215c:	20 93 66 01 	sts	0x0166, r18	; 0x800166 <zona1+0xc>
    2160:	85 30       	cpi	r24, 0x05	; 5
    2162:	91 05       	cpc	r25, r1
    2164:	31 f4       	brne	.+12     	; 0x2172 <assSensorZona+0x82>
    2166:	21 e0       	ldi	r18, 0x01	; 1
    2168:	30 e0       	ldi	r19, 0x00	; 0
    216a:	30 93 69 01 	sts	0x0169, r19	; 0x800169 <zona1+0xf>
    216e:	20 93 68 01 	sts	0x0168, r18	; 0x800168 <zona1+0xe>
    2172:	86 30       	cpi	r24, 0x06	; 6
    2174:	91 05       	cpc	r25, r1
    2176:	31 f4       	brne	.+12     	; 0x2184 <assSensorZona+0x94>
    2178:	21 e0       	ldi	r18, 0x01	; 1
    217a:	30 e0       	ldi	r19, 0x00	; 0
    217c:	30 93 6b 01 	sts	0x016B, r19	; 0x80016b <zona1+0x11>
    2180:	20 93 6a 01 	sts	0x016A, r18	; 0x80016a <zona1+0x10>
    2184:	07 97       	sbiw	r24, 0x07	; 7
    2186:	09 f0       	breq	.+2      	; 0x218a <assSensorZona+0x9a>
    2188:	51 c1       	rjmp	.+674    	; 0x242c <assSensorZona+0x33c>
    218a:	81 e0       	ldi	r24, 0x01	; 1
    218c:	90 e0       	ldi	r25, 0x00	; 0
    218e:	90 93 6d 01 	sts	0x016D, r25	; 0x80016d <zona1+0x13>
    2192:	80 93 6c 01 	sts	0x016C, r24	; 0x80016c <zona1+0x12>
    2196:	08 95       	ret
    2198:	62 30       	cpi	r22, 0x02	; 2
    219a:	71 05       	cpc	r23, r1
    219c:	09 f0       	breq	.+2      	; 0x21a0 <assSensorZona+0xb0>
    219e:	48 c0       	rjmp	.+144    	; 0x2230 <assSensorZona+0x140>
    21a0:	00 97       	sbiw	r24, 0x00	; 0
    21a2:	31 f4       	brne	.+12     	; 0x21b0 <assSensorZona+0xc0>
    21a4:	21 e0       	ldi	r18, 0x01	; 1
    21a6:	30 e0       	ldi	r19, 0x00	; 0
    21a8:	30 93 5f 01 	sts	0x015F, r19	; 0x80015f <zona1+0x5>
    21ac:	20 93 5e 01 	sts	0x015E, r18	; 0x80015e <zona1+0x4>
    21b0:	81 30       	cpi	r24, 0x01	; 1
    21b2:	91 05       	cpc	r25, r1
    21b4:	31 f4       	brne	.+12     	; 0x21c2 <assSensorZona+0xd2>
    21b6:	21 e0       	ldi	r18, 0x01	; 1
    21b8:	30 e0       	ldi	r19, 0x00	; 0
    21ba:	30 93 61 01 	sts	0x0161, r19	; 0x800161 <zona1+0x7>
    21be:	20 93 60 01 	sts	0x0160, r18	; 0x800160 <zona1+0x6>
    21c2:	82 30       	cpi	r24, 0x02	; 2
    21c4:	91 05       	cpc	r25, r1
    21c6:	31 f4       	brne	.+12     	; 0x21d4 <assSensorZona+0xe4>
    21c8:	21 e0       	ldi	r18, 0x01	; 1
    21ca:	30 e0       	ldi	r19, 0x00	; 0
    21cc:	30 93 63 01 	sts	0x0163, r19	; 0x800163 <zona1+0x9>
    21d0:	20 93 62 01 	sts	0x0162, r18	; 0x800162 <zona1+0x8>
    21d4:	83 30       	cpi	r24, 0x03	; 3
    21d6:	91 05       	cpc	r25, r1
    21d8:	31 f4       	brne	.+12     	; 0x21e6 <assSensorZona+0xf6>
    21da:	21 e0       	ldi	r18, 0x01	; 1
    21dc:	30 e0       	ldi	r19, 0x00	; 0
    21de:	30 93 65 01 	sts	0x0165, r19	; 0x800165 <zona1+0xb>
    21e2:	20 93 64 01 	sts	0x0164, r18	; 0x800164 <zona1+0xa>
    21e6:	84 30       	cpi	r24, 0x04	; 4
    21e8:	91 05       	cpc	r25, r1
    21ea:	31 f4       	brne	.+12     	; 0x21f8 <assSensorZona+0x108>
    21ec:	21 e0       	ldi	r18, 0x01	; 1
    21ee:	30 e0       	ldi	r19, 0x00	; 0
    21f0:	30 93 67 01 	sts	0x0167, r19	; 0x800167 <zona1+0xd>
    21f4:	20 93 66 01 	sts	0x0166, r18	; 0x800166 <zona1+0xc>
    21f8:	85 30       	cpi	r24, 0x05	; 5
    21fa:	91 05       	cpc	r25, r1
    21fc:	31 f4       	brne	.+12     	; 0x220a <assSensorZona+0x11a>
    21fe:	21 e0       	ldi	r18, 0x01	; 1
    2200:	30 e0       	ldi	r19, 0x00	; 0
    2202:	30 93 69 01 	sts	0x0169, r19	; 0x800169 <zona1+0xf>
    2206:	20 93 68 01 	sts	0x0168, r18	; 0x800168 <zona1+0xe>
    220a:	86 30       	cpi	r24, 0x06	; 6
    220c:	91 05       	cpc	r25, r1
    220e:	31 f4       	brne	.+12     	; 0x221c <assSensorZona+0x12c>
    2210:	21 e0       	ldi	r18, 0x01	; 1
    2212:	30 e0       	ldi	r19, 0x00	; 0
    2214:	30 93 6b 01 	sts	0x016B, r19	; 0x80016b <zona1+0x11>
    2218:	20 93 6a 01 	sts	0x016A, r18	; 0x80016a <zona1+0x10>
    221c:	07 97       	sbiw	r24, 0x07	; 7
    221e:	09 f0       	breq	.+2      	; 0x2222 <assSensorZona+0x132>
    2220:	05 c1       	rjmp	.+522    	; 0x242c <assSensorZona+0x33c>
    2222:	81 e0       	ldi	r24, 0x01	; 1
    2224:	90 e0       	ldi	r25, 0x00	; 0
    2226:	90 93 6d 01 	sts	0x016D, r25	; 0x80016d <zona1+0x13>
    222a:	80 93 6c 01 	sts	0x016C, r24	; 0x80016c <zona1+0x12>
    222e:	08 95       	ret
    2230:	63 30       	cpi	r22, 0x03	; 3
    2232:	71 05       	cpc	r23, r1
    2234:	09 f0       	breq	.+2      	; 0x2238 <assSensorZona+0x148>
    2236:	fa c0       	rjmp	.+500    	; 0x242c <assSensorZona+0x33c>
    2238:	00 97       	sbiw	r24, 0x00	; 0
    223a:	31 f4       	brne	.+12     	; 0x2248 <assSensorZona+0x158>
    223c:	21 e0       	ldi	r18, 0x01	; 1
    223e:	30 e0       	ldi	r19, 0x00	; 0
    2240:	30 93 5f 01 	sts	0x015F, r19	; 0x80015f <zona1+0x5>
    2244:	20 93 5e 01 	sts	0x015E, r18	; 0x80015e <zona1+0x4>
    2248:	81 30       	cpi	r24, 0x01	; 1
    224a:	91 05       	cpc	r25, r1
    224c:	31 f4       	brne	.+12     	; 0x225a <assSensorZona+0x16a>
    224e:	21 e0       	ldi	r18, 0x01	; 1
    2250:	30 e0       	ldi	r19, 0x00	; 0
    2252:	30 93 61 01 	sts	0x0161, r19	; 0x800161 <zona1+0x7>
    2256:	20 93 60 01 	sts	0x0160, r18	; 0x800160 <zona1+0x6>
    225a:	82 30       	cpi	r24, 0x02	; 2
    225c:	91 05       	cpc	r25, r1
    225e:	31 f4       	brne	.+12     	; 0x226c <assSensorZona+0x17c>
    2260:	21 e0       	ldi	r18, 0x01	; 1
    2262:	30 e0       	ldi	r19, 0x00	; 0
    2264:	30 93 63 01 	sts	0x0163, r19	; 0x800163 <zona1+0x9>
    2268:	20 93 62 01 	sts	0x0162, r18	; 0x800162 <zona1+0x8>
    226c:	83 30       	cpi	r24, 0x03	; 3
    226e:	91 05       	cpc	r25, r1
    2270:	31 f4       	brne	.+12     	; 0x227e <assSensorZona+0x18e>
    2272:	21 e0       	ldi	r18, 0x01	; 1
    2274:	30 e0       	ldi	r19, 0x00	; 0
    2276:	30 93 65 01 	sts	0x0165, r19	; 0x800165 <zona1+0xb>
    227a:	20 93 64 01 	sts	0x0164, r18	; 0x800164 <zona1+0xa>
    227e:	84 30       	cpi	r24, 0x04	; 4
    2280:	91 05       	cpc	r25, r1
    2282:	31 f4       	brne	.+12     	; 0x2290 <assSensorZona+0x1a0>
    2284:	21 e0       	ldi	r18, 0x01	; 1
    2286:	30 e0       	ldi	r19, 0x00	; 0
    2288:	30 93 67 01 	sts	0x0167, r19	; 0x800167 <zona1+0xd>
    228c:	20 93 66 01 	sts	0x0166, r18	; 0x800166 <zona1+0xc>
    2290:	85 30       	cpi	r24, 0x05	; 5
    2292:	91 05       	cpc	r25, r1
    2294:	31 f4       	brne	.+12     	; 0x22a2 <assSensorZona+0x1b2>
    2296:	21 e0       	ldi	r18, 0x01	; 1
    2298:	30 e0       	ldi	r19, 0x00	; 0
    229a:	30 93 69 01 	sts	0x0169, r19	; 0x800169 <zona1+0xf>
    229e:	20 93 68 01 	sts	0x0168, r18	; 0x800168 <zona1+0xe>
    22a2:	86 30       	cpi	r24, 0x06	; 6
    22a4:	91 05       	cpc	r25, r1
    22a6:	31 f4       	brne	.+12     	; 0x22b4 <assSensorZona+0x1c4>
    22a8:	21 e0       	ldi	r18, 0x01	; 1
    22aa:	30 e0       	ldi	r19, 0x00	; 0
    22ac:	30 93 6b 01 	sts	0x016B, r19	; 0x80016b <zona1+0x11>
    22b0:	20 93 6a 01 	sts	0x016A, r18	; 0x80016a <zona1+0x10>
    22b4:	07 97       	sbiw	r24, 0x07	; 7
    22b6:	09 f0       	breq	.+2      	; 0x22ba <assSensorZona+0x1ca>
    22b8:	b9 c0       	rjmp	.+370    	; 0x242c <assSensorZona+0x33c>
    22ba:	81 e0       	ldi	r24, 0x01	; 1
    22bc:	90 e0       	ldi	r25, 0x00	; 0
    22be:	90 93 6d 01 	sts	0x016D, r25	; 0x80016d <zona1+0x13>
    22c2:	80 93 6c 01 	sts	0x016C, r24	; 0x80016c <zona1+0x12>
    22c6:	08 95       	ret
    22c8:	21 30       	cpi	r18, 0x01	; 1
    22ca:	31 05       	cpc	r19, r1
    22cc:	09 f0       	breq	.+2      	; 0x22d0 <assSensorZona+0x1e0>
    22ce:	ae c0       	rjmp	.+348    	; 0x242c <assSensorZona+0x33c>
    22d0:	61 30       	cpi	r22, 0x01	; 1
    22d2:	71 05       	cpc	r23, r1
    22d4:	c1 f5       	brne	.+112    	; 0x2346 <assSensorZona+0x256>
    22d6:	00 97       	sbiw	r24, 0x00	; 0
    22d8:	21 f4       	brne	.+8      	; 0x22e2 <assSensorZona+0x1f2>
    22da:	10 92 5f 01 	sts	0x015F, r1	; 0x80015f <zona1+0x5>
    22de:	10 92 5e 01 	sts	0x015E, r1	; 0x80015e <zona1+0x4>
    22e2:	81 30       	cpi	r24, 0x01	; 1
    22e4:	91 05       	cpc	r25, r1
    22e6:	21 f4       	brne	.+8      	; 0x22f0 <assSensorZona+0x200>
    22e8:	10 92 61 01 	sts	0x0161, r1	; 0x800161 <zona1+0x7>
    22ec:	10 92 60 01 	sts	0x0160, r1	; 0x800160 <zona1+0x6>
    22f0:	82 30       	cpi	r24, 0x02	; 2
    22f2:	91 05       	cpc	r25, r1
    22f4:	21 f4       	brne	.+8      	; 0x22fe <assSensorZona+0x20e>
    22f6:	10 92 63 01 	sts	0x0163, r1	; 0x800163 <zona1+0x9>
    22fa:	10 92 62 01 	sts	0x0162, r1	; 0x800162 <zona1+0x8>
    22fe:	83 30       	cpi	r24, 0x03	; 3
    2300:	91 05       	cpc	r25, r1
    2302:	21 f4       	brne	.+8      	; 0x230c <assSensorZona+0x21c>
    2304:	10 92 65 01 	sts	0x0165, r1	; 0x800165 <zona1+0xb>
    2308:	10 92 64 01 	sts	0x0164, r1	; 0x800164 <zona1+0xa>
    230c:	84 30       	cpi	r24, 0x04	; 4
    230e:	91 05       	cpc	r25, r1
    2310:	21 f4       	brne	.+8      	; 0x231a <assSensorZona+0x22a>
    2312:	10 92 67 01 	sts	0x0167, r1	; 0x800167 <zona1+0xd>
    2316:	10 92 66 01 	sts	0x0166, r1	; 0x800166 <zona1+0xc>
    231a:	85 30       	cpi	r24, 0x05	; 5
    231c:	91 05       	cpc	r25, r1
    231e:	21 f4       	brne	.+8      	; 0x2328 <assSensorZona+0x238>
    2320:	10 92 69 01 	sts	0x0169, r1	; 0x800169 <zona1+0xf>
    2324:	10 92 68 01 	sts	0x0168, r1	; 0x800168 <zona1+0xe>
    2328:	86 30       	cpi	r24, 0x06	; 6
    232a:	91 05       	cpc	r25, r1
    232c:	21 f4       	brne	.+8      	; 0x2336 <assSensorZona+0x246>
    232e:	10 92 6b 01 	sts	0x016B, r1	; 0x80016b <zona1+0x11>
    2332:	10 92 6a 01 	sts	0x016A, r1	; 0x80016a <zona1+0x10>
    2336:	07 97       	sbiw	r24, 0x07	; 7
    2338:	09 f0       	breq	.+2      	; 0x233c <assSensorZona+0x24c>
    233a:	78 c0       	rjmp	.+240    	; 0x242c <assSensorZona+0x33c>
    233c:	10 92 6d 01 	sts	0x016D, r1	; 0x80016d <zona1+0x13>
    2340:	10 92 6c 01 	sts	0x016C, r1	; 0x80016c <zona1+0x12>
    2344:	08 95       	ret
    2346:	62 30       	cpi	r22, 0x02	; 2
    2348:	71 05       	cpc	r23, r1
    234a:	b9 f5       	brne	.+110    	; 0x23ba <assSensorZona+0x2ca>
    234c:	00 97       	sbiw	r24, 0x00	; 0
    234e:	21 f4       	brne	.+8      	; 0x2358 <assSensorZona+0x268>
    2350:	10 92 5f 01 	sts	0x015F, r1	; 0x80015f <zona1+0x5>
    2354:	10 92 5e 01 	sts	0x015E, r1	; 0x80015e <zona1+0x4>
    2358:	81 30       	cpi	r24, 0x01	; 1
    235a:	91 05       	cpc	r25, r1
    235c:	21 f4       	brne	.+8      	; 0x2366 <assSensorZona+0x276>
    235e:	10 92 61 01 	sts	0x0161, r1	; 0x800161 <zona1+0x7>
    2362:	10 92 60 01 	sts	0x0160, r1	; 0x800160 <zona1+0x6>
    2366:	82 30       	cpi	r24, 0x02	; 2
    2368:	91 05       	cpc	r25, r1
    236a:	21 f4       	brne	.+8      	; 0x2374 <assSensorZona+0x284>
    236c:	10 92 63 01 	sts	0x0163, r1	; 0x800163 <zona1+0x9>
    2370:	10 92 62 01 	sts	0x0162, r1	; 0x800162 <zona1+0x8>
    2374:	83 30       	cpi	r24, 0x03	; 3
    2376:	91 05       	cpc	r25, r1
    2378:	21 f4       	brne	.+8      	; 0x2382 <assSensorZona+0x292>
    237a:	10 92 65 01 	sts	0x0165, r1	; 0x800165 <zona1+0xb>
    237e:	10 92 64 01 	sts	0x0164, r1	; 0x800164 <zona1+0xa>
    2382:	84 30       	cpi	r24, 0x04	; 4
    2384:	91 05       	cpc	r25, r1
    2386:	21 f4       	brne	.+8      	; 0x2390 <assSensorZona+0x2a0>
    2388:	10 92 67 01 	sts	0x0167, r1	; 0x800167 <zona1+0xd>
    238c:	10 92 66 01 	sts	0x0166, r1	; 0x800166 <zona1+0xc>
    2390:	85 30       	cpi	r24, 0x05	; 5
    2392:	91 05       	cpc	r25, r1
    2394:	21 f4       	brne	.+8      	; 0x239e <assSensorZona+0x2ae>
    2396:	10 92 69 01 	sts	0x0169, r1	; 0x800169 <zona1+0xf>
    239a:	10 92 68 01 	sts	0x0168, r1	; 0x800168 <zona1+0xe>
    239e:	86 30       	cpi	r24, 0x06	; 6
    23a0:	91 05       	cpc	r25, r1
    23a2:	21 f4       	brne	.+8      	; 0x23ac <assSensorZona+0x2bc>
    23a4:	10 92 6b 01 	sts	0x016B, r1	; 0x80016b <zona1+0x11>
    23a8:	10 92 6a 01 	sts	0x016A, r1	; 0x80016a <zona1+0x10>
    23ac:	07 97       	sbiw	r24, 0x07	; 7
    23ae:	f1 f5       	brne	.+124    	; 0x242c <assSensorZona+0x33c>
    23b0:	10 92 6d 01 	sts	0x016D, r1	; 0x80016d <zona1+0x13>
    23b4:	10 92 6c 01 	sts	0x016C, r1	; 0x80016c <zona1+0x12>
    23b8:	08 95       	ret
    23ba:	63 30       	cpi	r22, 0x03	; 3
    23bc:	71 05       	cpc	r23, r1
    23be:	b1 f5       	brne	.+108    	; 0x242c <assSensorZona+0x33c>
    23c0:	00 97       	sbiw	r24, 0x00	; 0
    23c2:	21 f4       	brne	.+8      	; 0x23cc <assSensorZona+0x2dc>
    23c4:	10 92 5f 01 	sts	0x015F, r1	; 0x80015f <zona1+0x5>
    23c8:	10 92 5e 01 	sts	0x015E, r1	; 0x80015e <zona1+0x4>
    23cc:	81 30       	cpi	r24, 0x01	; 1
    23ce:	91 05       	cpc	r25, r1
    23d0:	21 f4       	brne	.+8      	; 0x23da <assSensorZona+0x2ea>
    23d2:	10 92 61 01 	sts	0x0161, r1	; 0x800161 <zona1+0x7>
    23d6:	10 92 60 01 	sts	0x0160, r1	; 0x800160 <zona1+0x6>
    23da:	82 30       	cpi	r24, 0x02	; 2
    23dc:	91 05       	cpc	r25, r1
    23de:	21 f4       	brne	.+8      	; 0x23e8 <assSensorZona+0x2f8>
    23e0:	10 92 63 01 	sts	0x0163, r1	; 0x800163 <zona1+0x9>
    23e4:	10 92 62 01 	sts	0x0162, r1	; 0x800162 <zona1+0x8>
    23e8:	83 30       	cpi	r24, 0x03	; 3
    23ea:	91 05       	cpc	r25, r1
    23ec:	21 f4       	brne	.+8      	; 0x23f6 <assSensorZona+0x306>
    23ee:	10 92 65 01 	sts	0x0165, r1	; 0x800165 <zona1+0xb>
    23f2:	10 92 64 01 	sts	0x0164, r1	; 0x800164 <zona1+0xa>
    23f6:	84 30       	cpi	r24, 0x04	; 4
    23f8:	91 05       	cpc	r25, r1
    23fa:	21 f4       	brne	.+8      	; 0x2404 <assSensorZona+0x314>
    23fc:	10 92 67 01 	sts	0x0167, r1	; 0x800167 <zona1+0xd>
    2400:	10 92 66 01 	sts	0x0166, r1	; 0x800166 <zona1+0xc>
    2404:	85 30       	cpi	r24, 0x05	; 5
    2406:	91 05       	cpc	r25, r1
    2408:	21 f4       	brne	.+8      	; 0x2412 <assSensorZona+0x322>
    240a:	10 92 69 01 	sts	0x0169, r1	; 0x800169 <zona1+0xf>
    240e:	10 92 68 01 	sts	0x0168, r1	; 0x800168 <zona1+0xe>
    2412:	86 30       	cpi	r24, 0x06	; 6
    2414:	91 05       	cpc	r25, r1
    2416:	21 f4       	brne	.+8      	; 0x2420 <assSensorZona+0x330>
    2418:	10 92 6b 01 	sts	0x016B, r1	; 0x80016b <zona1+0x11>
    241c:	10 92 6a 01 	sts	0x016A, r1	; 0x80016a <zona1+0x10>
    2420:	07 97       	sbiw	r24, 0x07	; 7
    2422:	21 f4       	brne	.+8      	; 0x242c <assSensorZona+0x33c>
    2424:	10 92 6d 01 	sts	0x016D, r1	; 0x80016d <zona1+0x13>
    2428:	10 92 6c 01 	sts	0x016C, r1	; 0x80016c <zona1+0x12>
    242c:	08 95       	ret

Disassembly of section .text.set_timeout:

00003512 <set_timeout>:
    3512:	ea e0       	ldi	r30, 0x0A	; 10
    3514:	f1 e0       	ldi	r31, 0x01	; 1
    3516:	80 81       	ld	r24, Z
    3518:	91 81       	ldd	r25, Z+1	; 0x01
    351a:	9c 01       	movw	r18, r24
    351c:	22 0f       	add	r18, r18
    351e:	33 1f       	adc	r19, r19
    3520:	88 0f       	add	r24, r24
    3522:	99 1f       	adc	r25, r25
    3524:	88 0f       	add	r24, r24
    3526:	99 1f       	adc	r25, r25
    3528:	88 0f       	add	r24, r24
    352a:	99 1f       	adc	r25, r25
    352c:	82 0f       	add	r24, r18
    352e:	93 1f       	adc	r25, r19
    3530:	22 81       	ldd	r18, Z+2	; 0x02
    3532:	33 81       	ldd	r19, Z+3	; 0x03
    3534:	82 0f       	add	r24, r18
    3536:	93 1f       	adc	r25, r19
    3538:	90 93 0f 01 	sts	0x010F, r25	; 0x80010f <timeout+0x1>
    353c:	80 93 0e 01 	sts	0x010E, r24	; 0x80010e <timeout>
    3540:	08 95       	ret

Disassembly of section .text.set_timeA:

000033fe <set_timeA>:
    33fe:	ef e1       	ldi	r30, 0x1F	; 31
    3400:	f1 e0       	ldi	r31, 0x01	; 1
    3402:	80 81       	ld	r24, Z
    3404:	91 81       	ldd	r25, Z+1	; 0x01
    3406:	24 e6       	ldi	r18, 0x64	; 100
    3408:	28 9f       	mul	r18, r24
    340a:	a0 01       	movw	r20, r0
    340c:	29 9f       	mul	r18, r25
    340e:	50 0d       	add	r21, r0
    3410:	11 24       	eor	r1, r1
    3412:	82 81       	ldd	r24, Z+2	; 0x02
    3414:	93 81       	ldd	r25, Z+3	; 0x03
    3416:	bc 01       	movw	r22, r24
    3418:	66 0f       	add	r22, r22
    341a:	77 1f       	adc	r23, r23
    341c:	9c 01       	movw	r18, r24
    341e:	22 0f       	add	r18, r18
    3420:	33 1f       	adc	r19, r19
    3422:	22 0f       	add	r18, r18
    3424:	33 1f       	adc	r19, r19
    3426:	22 0f       	add	r18, r18
    3428:	33 1f       	adc	r19, r19
    342a:	cb 01       	movw	r24, r22
    342c:	82 0f       	add	r24, r18
    342e:	93 1f       	adc	r25, r19
    3430:	84 0f       	add	r24, r20
    3432:	95 1f       	adc	r25, r21
    3434:	24 81       	ldd	r18, Z+4	; 0x04
    3436:	35 81       	ldd	r19, Z+5	; 0x05
    3438:	82 0f       	add	r24, r18
    343a:	93 1f       	adc	r25, r19
    343c:	90 93 03 01 	sts	0x0103, r25	; 0x800103 <t_ativacao+0x1>
    3440:	80 93 02 01 	sts	0x0102, r24	; 0x800102 <t_ativacao>
    3444:	08 95       	ret

Disassembly of section .text.set_timeS:

00003446 <set_timeS>:
    3446:	e7 e2       	ldi	r30, 0x27	; 39
    3448:	f1 e0       	ldi	r31, 0x01	; 1
    344a:	80 81       	ld	r24, Z
    344c:	91 81       	ldd	r25, Z+1	; 0x01
    344e:	24 e6       	ldi	r18, 0x64	; 100
    3450:	28 9f       	mul	r18, r24
    3452:	a0 01       	movw	r20, r0
    3454:	29 9f       	mul	r18, r25
    3456:	50 0d       	add	r21, r0
    3458:	11 24       	eor	r1, r1
    345a:	82 81       	ldd	r24, Z+2	; 0x02
    345c:	93 81       	ldd	r25, Z+3	; 0x03
    345e:	bc 01       	movw	r22, r24
    3460:	66 0f       	add	r22, r22
    3462:	77 1f       	adc	r23, r23
    3464:	9c 01       	movw	r18, r24
    3466:	22 0f       	add	r18, r18
    3468:	33 1f       	adc	r19, r19
    346a:	22 0f       	add	r18, r18
    346c:	33 1f       	adc	r19, r19
    346e:	22 0f       	add	r18, r18
    3470:	33 1f       	adc	r19, r19
    3472:	cb 01       	movw	r24, r22
    3474:	82 0f       	add	r24, r18
    3476:	93 1f       	adc	r25, r19
    3478:	84 0f       	add	r24, r20
    347a:	95 1f       	adc	r25, r21
    347c:	24 81       	ldd	r18, Z+4	; 0x04
    347e:	35 81       	ldd	r19, Z+5	; 0x05
    3480:	82 0f       	add	r24, r18
    3482:	93 1f       	adc	r25, r19
    3484:	90 93 09 01 	sts	0x0109, r25	; 0x800109 <t_sirene+0x1>
    3488:	80 93 08 01 	sts	0x0108, r24	; 0x800108 <t_sirene>
    348c:	08 95       	ret

Disassembly of section .text.SetupTimer1:

0000356e <SetupTimer1>:
    356e:	e1 e8       	ldi	r30, 0x81	; 129
    3570:	f0 e0       	ldi	r31, 0x00	; 0
    3572:	80 81       	ld	r24, Z
    3574:	88 60       	ori	r24, 0x08	; 8
    3576:	80 83       	st	Z, r24
    3578:	ef e6       	ldi	r30, 0x6F	; 111
    357a:	f0 e0       	ldi	r31, 0x00	; 0
    357c:	80 81       	ld	r24, Z
    357e:	82 60       	ori	r24, 0x02	; 2
    3580:	80 83       	st	Z, r24
    3582:	82 e1       	ldi	r24, 0x12	; 18
    3584:	9a e7       	ldi	r25, 0x7A	; 122
    3586:	90 93 89 00 	sts	0x0089, r25	; 0x800089 <__TEXT_REGION_LENGTH__+0x7f8089>
    358a:	80 93 88 00 	sts	0x0088, r24	; 0x800088 <__TEXT_REGION_LENGTH__+0x7f8088>
    358e:	08 95       	ret

Disassembly of section .text.StartTimer1:

00003694 <StartTimer1>:
}

void StartTimer1()
{
	// para contar 1 segundo o OCR1A deve ter o valor de 31250.. e o prescale 256
	TCCR1B |= (1 << CS12) + (0 << CS11) + (0 << CS10); //setando o prescaler = 256, a contagem começa
    3694:	e1 e8       	ldi	r30, 0x81	; 129
    3696:	f0 e0       	ldi	r31, 0x00	; 0
    3698:	80 81       	ld	r24, Z
    369a:	84 60       	ori	r24, 0x04	; 4
    369c:	80 83       	st	Z, r24
    369e:	08 95       	ret

Disassembly of section .text.verify_senhaA:

000025ea <verify_senhaA>:
}

void StopTimer0()
{
	TCCR0B &= ~((1 << CS02) | (1 << CS01) | (1 << CS00)); // sem prescaler, o timer para
	TCNT0 = 0; // zerado para não atrapalhar a próxima contagem
    25ea:	10 92 d3 01 	sts	0x01D3, r1	; 0x8001d3 <cont_a+0x1>
    25ee:	10 92 d2 01 	sts	0x01D2, r1	; 0x8001d2 <cont_a>
    25f2:	10 92 d1 01 	sts	0x01D1, r1	; 0x8001d1 <cont_b+0x1>
    25f6:	10 92 d0 01 	sts	0x01D0, r1	; 0x8001d0 <cont_b>
    25fa:	15 c0       	rjmp	.+42     	; 0x2626 <verify_senhaA+0x3c>
    25fc:	fc 01       	movw	r30, r24
    25fe:	e3 5d       	subi	r30, 0xD3	; 211
    2600:	fe 4f       	sbci	r31, 0xFE	; 254
    2602:	30 81       	ld	r19, Z
    2604:	23 13       	cpse	r18, r19
    2606:	0a c0       	rjmp	.+20     	; 0x261c <verify_senhaA+0x32>
    2608:	20 91 d0 01 	lds	r18, 0x01D0	; 0x8001d0 <cont_b>
    260c:	30 91 d1 01 	lds	r19, 0x01D1	; 0x8001d1 <cont_b+0x1>
    2610:	2f 5f       	subi	r18, 0xFF	; 255
    2612:	3f 4f       	sbci	r19, 0xFF	; 255
    2614:	30 93 d1 01 	sts	0x01D1, r19	; 0x8001d1 <cont_b+0x1>
    2618:	20 93 d0 01 	sts	0x01D0, r18	; 0x8001d0 <cont_b>
    261c:	01 96       	adiw	r24, 0x01	; 1
    261e:	90 93 d3 01 	sts	0x01D3, r25	; 0x8001d3 <cont_a+0x1>
    2622:	80 93 d2 01 	sts	0x01D2, r24	; 0x8001d2 <cont_a>
    2626:	80 91 d2 01 	lds	r24, 0x01D2	; 0x8001d2 <cont_a>
    262a:	90 91 d3 01 	lds	r25, 0x01D3	; 0x8001d3 <cont_a+0x1>
    262e:	fc 01       	movw	r30, r24
    2630:	e3 55       	subi	r30, 0x53	; 83
    2632:	fe 4f       	sbci	r31, 0xFE	; 254
    2634:	20 81       	ld	r18, Z
    2636:	21 11       	cpse	r18, r1
    2638:	e1 cf       	rjmp	.-62     	; 0x25fc <verify_senhaA+0x12>
    263a:	80 91 d0 01 	lds	r24, 0x01D0	; 0x8001d0 <cont_b>
    263e:	90 91 d1 01 	lds	r25, 0x01D1	; 0x8001d1 <cont_b+0x1>
    2642:	04 97       	sbiw	r24, 0x04	; 4
    2644:	29 f4       	brne	.+10     	; 0x2650 <verify_senhaA+0x66>
    2646:	0e 94 14 1b 	call	0x3628	; 0x3628 <clear_Display>
    264a:	0e 94 4a 1b 	call	0x3694	; 0x3694 <StartTimer1>
    264e:	08 95       	ret
    2650:	10 92 d3 01 	sts	0x01D3, r1	; 0x8001d3 <cont_a+0x1>
    2654:	10 92 d2 01 	sts	0x01D2, r1	; 0x8001d2 <cont_a>
    2658:	10 92 d1 01 	sts	0x01D1, r1	; 0x8001d1 <cont_b+0x1>
    265c:	10 92 d0 01 	sts	0x01D0, r1	; 0x8001d0 <cont_b>
    2660:	15 c0       	rjmp	.+42     	; 0x268c <verify_senhaA+0xa2>
    2662:	fc 01       	movw	r30, r24
    2664:	e3 5d       	subi	r30, 0xD3	; 211
    2666:	fe 4f       	sbci	r31, 0xFE	; 254
    2668:	30 81       	ld	r19, Z
    266a:	23 13       	cpse	r18, r19
    266c:	0a c0       	rjmp	.+20     	; 0x2682 <verify_senhaA+0x98>
    266e:	20 91 d0 01 	lds	r18, 0x01D0	; 0x8001d0 <cont_b>
    2672:	30 91 d1 01 	lds	r19, 0x01D1	; 0x8001d1 <cont_b+0x1>
    2676:	2f 5f       	subi	r18, 0xFF	; 255
    2678:	3f 4f       	sbci	r19, 0xFF	; 255
    267a:	30 93 d1 01 	sts	0x01D1, r19	; 0x8001d1 <cont_b+0x1>
    267e:	20 93 d0 01 	sts	0x01D0, r18	; 0x8001d0 <cont_b>
    2682:	01 96       	adiw	r24, 0x01	; 1
    2684:	90 93 d3 01 	sts	0x01D3, r25	; 0x8001d3 <cont_a+0x1>
    2688:	80 93 d2 01 	sts	0x01D2, r24	; 0x8001d2 <cont_a>
    268c:	80 91 d2 01 	lds	r24, 0x01D2	; 0x8001d2 <cont_a>
    2690:	90 91 d3 01 	lds	r25, 0x01D3	; 0x8001d3 <cont_a+0x1>
    2694:	fc 01       	movw	r30, r24
    2696:	e8 55       	subi	r30, 0x58	; 88
    2698:	fe 4f       	sbci	r31, 0xFE	; 254
    269a:	20 81       	ld	r18, Z
    269c:	21 11       	cpse	r18, r1
    269e:	e1 cf       	rjmp	.-62     	; 0x2662 <verify_senhaA+0x78>
    26a0:	80 91 d0 01 	lds	r24, 0x01D0	; 0x8001d0 <cont_b>
    26a4:	90 91 d1 01 	lds	r25, 0x01D1	; 0x8001d1 <cont_b+0x1>
    26a8:	04 97       	sbiw	r24, 0x04	; 4
    26aa:	29 f4       	brne	.+10     	; 0x26b6 <verify_senhaA+0xcc>
    26ac:	0e 94 14 1b 	call	0x3628	; 0x3628 <clear_Display>
    26b0:	0e 94 4a 1b 	call	0x3694	; 0x3694 <StartTimer1>
    26b4:	08 95       	ret
    26b6:	10 92 d3 01 	sts	0x01D3, r1	; 0x8001d3 <cont_a+0x1>
    26ba:	10 92 d2 01 	sts	0x01D2, r1	; 0x8001d2 <cont_a>
    26be:	10 92 d1 01 	sts	0x01D1, r1	; 0x8001d1 <cont_b+0x1>
    26c2:	10 92 d0 01 	sts	0x01D0, r1	; 0x8001d0 <cont_b>
    26c6:	15 c0       	rjmp	.+42     	; 0x26f2 <verify_senhaA+0x108>
    26c8:	fc 01       	movw	r30, r24
    26ca:	e3 5d       	subi	r30, 0xD3	; 211
    26cc:	fe 4f       	sbci	r31, 0xFE	; 254
    26ce:	30 81       	ld	r19, Z
    26d0:	23 13       	cpse	r18, r19
    26d2:	0a c0       	rjmp	.+20     	; 0x26e8 <verify_senhaA+0xfe>
    26d4:	20 91 d0 01 	lds	r18, 0x01D0	; 0x8001d0 <cont_b>
    26d8:	30 91 d1 01 	lds	r19, 0x01D1	; 0x8001d1 <cont_b+0x1>
    26dc:	2f 5f       	subi	r18, 0xFF	; 255
    26de:	3f 4f       	sbci	r19, 0xFF	; 255
    26e0:	30 93 d1 01 	sts	0x01D1, r19	; 0x8001d1 <cont_b+0x1>
    26e4:	20 93 d0 01 	sts	0x01D0, r18	; 0x8001d0 <cont_b>
    26e8:	01 96       	adiw	r24, 0x01	; 1
    26ea:	90 93 d3 01 	sts	0x01D3, r25	; 0x8001d3 <cont_a+0x1>
    26ee:	80 93 d2 01 	sts	0x01D2, r24	; 0x8001d2 <cont_a>
    26f2:	80 91 d2 01 	lds	r24, 0x01D2	; 0x8001d2 <cont_a>
    26f6:	90 91 d3 01 	lds	r25, 0x01D3	; 0x8001d3 <cont_a+0x1>
    26fa:	fc 01       	movw	r30, r24
    26fc:	ed 55       	subi	r30, 0x5D	; 93
    26fe:	fe 4f       	sbci	r31, 0xFE	; 254
    2700:	20 81       	ld	r18, Z
    2702:	21 11       	cpse	r18, r1
    2704:	e1 cf       	rjmp	.-62     	; 0x26c8 <verify_senhaA+0xde>
    2706:	80 91 d0 01 	lds	r24, 0x01D0	; 0x8001d0 <cont_b>
    270a:	90 91 d1 01 	lds	r25, 0x01D1	; 0x8001d1 <cont_b+0x1>
    270e:	04 97       	sbiw	r24, 0x04	; 4
    2710:	29 f4       	brne	.+10     	; 0x271c <verify_senhaA+0x132>
    2712:	0e 94 14 1b 	call	0x3628	; 0x3628 <clear_Display>
    2716:	0e 94 4a 1b 	call	0x3694	; 0x3694 <StartTimer1>
    271a:	08 95       	ret
    271c:	10 92 d3 01 	sts	0x01D3, r1	; 0x8001d3 <cont_a+0x1>
    2720:	10 92 d2 01 	sts	0x01D2, r1	; 0x8001d2 <cont_a>
    2724:	10 92 d1 01 	sts	0x01D1, r1	; 0x8001d1 <cont_b+0x1>
    2728:	10 92 d0 01 	sts	0x01D0, r1	; 0x8001d0 <cont_b>
    272c:	15 c0       	rjmp	.+42     	; 0x2758 <verify_senhaA+0x16e>
    272e:	fc 01       	movw	r30, r24
    2730:	e3 5d       	subi	r30, 0xD3	; 211
    2732:	fe 4f       	sbci	r31, 0xFE	; 254
    2734:	30 81       	ld	r19, Z
    2736:	23 13       	cpse	r18, r19
    2738:	0a c0       	rjmp	.+20     	; 0x274e <verify_senhaA+0x164>
    273a:	20 91 d0 01 	lds	r18, 0x01D0	; 0x8001d0 <cont_b>
    273e:	30 91 d1 01 	lds	r19, 0x01D1	; 0x8001d1 <cont_b+0x1>
    2742:	2f 5f       	subi	r18, 0xFF	; 255
    2744:	3f 4f       	sbci	r19, 0xFF	; 255
    2746:	30 93 d1 01 	sts	0x01D1, r19	; 0x8001d1 <cont_b+0x1>
    274a:	20 93 d0 01 	sts	0x01D0, r18	; 0x8001d0 <cont_b>
    274e:	01 96       	adiw	r24, 0x01	; 1
    2750:	90 93 d3 01 	sts	0x01D3, r25	; 0x8001d3 <cont_a+0x1>
    2754:	80 93 d2 01 	sts	0x01D2, r24	; 0x8001d2 <cont_a>
    2758:	80 91 d2 01 	lds	r24, 0x01D2	; 0x8001d2 <cont_a>
    275c:	90 91 d3 01 	lds	r25, 0x01D3	; 0x8001d3 <cont_a+0x1>
    2760:	fc 01       	movw	r30, r24
    2762:	e2 56       	subi	r30, 0x62	; 98
    2764:	fe 4f       	sbci	r31, 0xFE	; 254
    2766:	20 81       	ld	r18, Z
    2768:	21 11       	cpse	r18, r1
    276a:	e1 cf       	rjmp	.-62     	; 0x272e <verify_senhaA+0x144>
    276c:	80 91 d0 01 	lds	r24, 0x01D0	; 0x8001d0 <cont_b>
    2770:	90 91 d1 01 	lds	r25, 0x01D1	; 0x8001d1 <cont_b+0x1>
    2774:	04 97       	sbiw	r24, 0x04	; 4
    2776:	29 f4       	brne	.+10     	; 0x2782 <verify_senhaA+0x198>
    2778:	0e 94 14 1b 	call	0x3628	; 0x3628 <clear_Display>
    277c:	0e 94 4a 1b 	call	0x3694	; 0x3694 <StartTimer1>
    2780:	08 95       	ret
    2782:	81 e0       	ldi	r24, 0x01	; 1
    2784:	80 93 d8 01 	sts	0x01D8, r24	; 0x8001d8 <state>
    2788:	0e 94 14 1b 	call	0x3628	; 0x3628 <clear_Display>
    278c:	0e 94 3f 18 	call	0x307e	; 0x307e <msg_desativado>
    2790:	08 95       	ret

Disassembly of section .text.StopTimer1:

00003650 <StopTimer1>:
    3650:	e1 e8       	ldi	r30, 0x81	; 129
    3652:	f0 e0       	ldi	r31, 0x00	; 0
    3654:	80 81       	ld	r24, Z
    3656:	88 7f       	andi	r24, 0xF8	; 248
    3658:	80 83       	st	Z, r24
    365a:	10 92 85 00 	sts	0x0085, r1	; 0x800085 <__TEXT_REGION_LENGTH__+0x7f8085>
    365e:	10 92 84 00 	sts	0x0084, r1	; 0x800084 <__TEXT_REGION_LENGTH__+0x7f8084>
    3662:	08 95       	ret

Disassembly of section .text.SetupTimer0:

00003676 <SetupTimer0>:
	
}

void SetupTimer0()
{
	TCCR0A |= (1<<WGM01); //WGM12-CTC mode | clkIO/1 (no prescaling)
    3676:	84 b5       	in	r24, 0x24	; 36
    3678:	82 60       	ori	r24, 0x02	; 2
    367a:	84 bd       	out	0x24, r24	; 36
	TIMSK0 |= (1<<OCIE0A); // Output Compare A Match Interrupt Enable
    367c:	ee e6       	ldi	r30, 0x6E	; 110
    367e:	f0 e0       	ldi	r31, 0x00	; 0
    3680:	80 81       	ld	r24, Z
    3682:	82 60       	ori	r24, 0x02	; 2
    3684:	80 83       	st	Z, r24
    3686:	08 95       	ret

Disassembly of section .text.main:

00002a68 <main>:
}

void StopTimer0()
{
	TCCR0B &= ~((1 << CS02) | (1 << CS01) | (1 << CS00)); // sem prescaler, o timer para
	TCNT0 = 0; // zerado para não atrapalhar a próxima contagem
    2a68:	8f e3       	ldi	r24, 0x3F	; 63
    2a6a:	87 b9       	out	0x07, r24	; 7
    2a6c:	8e ef       	ldi	r24, 0xFE	; 254
    2a6e:	84 b9       	out	0x04, r24	; 4
    2a70:	87 e0       	ldi	r24, 0x07	; 7
    2a72:	8a b9       	out	0x0a, r24	; 10
    2a74:	80 ef       	ldi	r24, 0xF0	; 240
    2a76:	8b b9       	out	0x0b, r24	; 11
    2a78:	0e 94 b7 1a 	call	0x356e	; 0x356e <SetupTimer1>
    2a7c:	0e 94 3b 1b 	call	0x3676	; 0x3676 <SetupTimer0>
    2a80:	0e 94 44 1b 	call	0x3688	; 0x3688 <init_int1>
    2a84:	0e 94 e5 14 	call	0x29ca	; 0x29ca <inicializa_display>
    2a88:	78 94       	sei
    2a8a:	0e 94 b7 19 	call	0x336e	; 0x336e <shiftOut>
    2a8e:	e0 91 d8 01 	lds	r30, 0x01D8	; 0x8001d8 <state>
    2a92:	8e 2f       	mov	r24, r30
    2a94:	90 e0       	ldi	r25, 0x00	; 0
    2a96:	8f 30       	cpi	r24, 0x0F	; 15
    2a98:	91 05       	cpc	r25, r1
    2a9a:	b8 f7       	brcc	.-18     	; 0x2a8a <main+0x22>
    2a9c:	fc 01       	movw	r30, r24
    2a9e:	ec 5c       	subi	r30, 0xCC	; 204
    2aa0:	ff 4f       	sbci	r31, 0xFF	; 255
    2aa2:	0c 94 50 1b 	jmp	0x36a0	; 0x36a0 <__tablejump2__>
    2aa6:	0e 94 28 1b 	call	0x3650	; 0x3650 <StopTimer1>
    2aaa:	8c e0       	ldi	r24, 0x0C	; 12
    2aac:	90 e0       	ldi	r25, 0x00	; 0
    2aae:	90 93 0f 01 	sts	0x010F, r25	; 0x80010f <timeout+0x1>
    2ab2:	80 93 0e 01 	sts	0x010E, r24	; 0x80010e <timeout>
    2ab6:	85 e0       	ldi	r24, 0x05	; 5
    2ab8:	90 e0       	ldi	r25, 0x00	; 0
    2aba:	90 93 09 01 	sts	0x0109, r25	; 0x800109 <t_sirene+0x1>
    2abe:	80 93 08 01 	sts	0x0108, r24	; 0x800108 <t_sirene>
    2ac2:	90 93 03 01 	sts	0x0103, r25	; 0x800103 <t_ativacao+0x1>
    2ac6:	80 93 02 01 	sts	0x0102, r24	; 0x800102 <t_ativacao>
    2aca:	81 e0       	ldi	r24, 0x01	; 1
    2acc:	80 93 d8 01 	sts	0x01D8, r24	; 0x8001d8 <state>
    2ad0:	0e 94 3f 18 	call	0x307e	; 0x307e <msg_desativado>
    2ad4:	da cf       	rjmp	.-76     	; 0x2a8a <main+0x22>
    2ad6:	0e 94 c5 15 	call	0x2b8a	; 0x2b8a <shiftIn>
    2ada:	d7 cf       	rjmp	.-82     	; 0x2a8a <main+0x22>
    2adc:	0e 94 9b 18 	call	0x3136	; 0x3136 <msg_programacao>
    2ae0:	d4 cf       	rjmp	.-88     	; 0x2a8a <main+0x22>
    2ae2:	0e 94 0e 18 	call	0x301c	; 0x301c <msg_panico>
    2ae6:	d1 cf       	rjmp	.-94     	; 0x2a8a <main+0x22>
    2ae8:	0e 94 07 16 	call	0x2c0e	; 0x2c0e <verify_senhaM>
    2aec:	ce cf       	rjmp	.-100    	; 0x2a8a <main+0x22>
    2aee:	0e 94 f5 12 	call	0x25ea	; 0x25ea <verify_senhaA>
    2af2:	cb cf       	rjmp	.-106    	; 0x2a8a <main+0x22>
    2af4:	0e 94 17 12 	call	0x242e	; 0x242e <verify_senhaD>
    2af8:	c8 cf       	rjmp	.-112    	; 0x2a8a <main+0x22>

Disassembly of section .text.ZerarTemps:

000035e8 <ZerarTemps>:
    35e8:	10 92 d9 01 	sts	0x01D9, r1	; 0x8001d9 <cont_timeout>
    35ec:	10 92 c3 01 	sts	0x01C3, r1	; 0x8001c3 <cont_ativacao+0x1>
    35f0:	10 92 c2 01 	sts	0x01C2, r1	; 0x8001c2 <cont_ativacao>
    35f4:	10 92 c5 01 	sts	0x01C5, r1	; 0x8001c5 <cont_sirene+0x1>
    35f8:	10 92 c4 01 	sts	0x01C4, r1	; 0x8001c4 <cont_sirene>
    35fc:	08 95       	ret

Disassembly of section .text.StartSirene:

000036ac <StartSirene>:
}

/////////////////////////// SIRENE \\\\\\\\\\\\\\\\\\\\\\\\\\\\\\\\\\/
void StartSirene()
{
	PORTD |= (1 << BUZZER); // sirene
    36ac:	8b b1       	in	r24, 0x0b	; 11
    36ae:	81 60       	ori	r24, 0x01	; 1
    36b0:	8b b9       	out	0x0b, r24	; 11
    36b2:	08 95       	ret

Disassembly of section .text.StopSirene:

000036b4 <StopSirene>:
}

void StopSirene()
{
	PORTD &= (0 << BUZZER); // sirene
    36b4:	8b b1       	in	r24, 0x0b	; 11
    36b6:	1b b8       	out	0x0b, r1	; 11
    36b8:	08 95       	ret

Disassembly of section .text.__vector_2:

0000024a <__vector_2>:
}

void StopTimer0()
{
	TCCR0B &= ~((1 << CS02) | (1 << CS01) | (1 << CS00)); // sem prescaler, o timer para
	TCNT0 = 0; // zerado para não atrapalhar a próxima contagem
     24a:	1f 92       	push	r1
     24c:	0f 92       	push	r0
     24e:	0f b6       	in	r0, 0x3f	; 63
     250:	0f 92       	push	r0
     252:	11 24       	eor	r1, r1
     254:	2f 93       	push	r18
     256:	3f 93       	push	r19
     258:	4f 93       	push	r20
     25a:	5f 93       	push	r21
     25c:	6f 93       	push	r22
     25e:	7f 93       	push	r23
     260:	8f 93       	push	r24
     262:	9f 93       	push	r25
     264:	af 93       	push	r26
     266:	bf 93       	push	r27
     268:	ef 93       	push	r30
     26a:	ff 93       	push	r31
     26c:	89 b1       	in	r24, 0x09	; 9
     26e:	80 7f       	andi	r24, 0xF0	; 240
     270:	90 e0       	ldi	r25, 0x00	; 0
     272:	90 93 07 01 	sts	0x0107, r25	; 0x800107 <valor_pinod+0x1>
     276:	80 93 06 01 	sts	0x0106, r24	; 0x800106 <valor_pinod>
     27a:	80 3f       	cpi	r24, 0xF0	; 240
     27c:	91 05       	cpc	r25, r1
     27e:	09 f0       	breq	.+2      	; 0x282 <__vector_2+0x38>
     280:	6b c1       	rjmp	.+726    	; 0x558 <__EEPROM_REGION_LENGTH__+0x158>
     282:	91 e0       	ldi	r25, 0x01	; 1
     284:	80 91 d8 01 	lds	r24, 0x01D8	; 0x8001d8 <state>
     288:	88 30       	cpi	r24, 0x08	; 8
     28a:	09 f0       	breq	.+2      	; 0x28e <__vector_2+0x44>
     28c:	90 e0       	ldi	r25, 0x00	; 0
     28e:	81 e0       	ldi	r24, 0x01	; 1
     290:	20 91 d4 01 	lds	r18, 0x01D4	; 0x8001d4 <count_senha>
     294:	30 91 d5 01 	lds	r19, 0x01D5	; 0x8001d5 <count_senha+0x1>
     298:	24 30       	cpi	r18, 0x04	; 4
     29a:	31 05       	cpc	r19, r1
     29c:	0c f0       	brlt	.+2      	; 0x2a0 <__vector_2+0x56>
     29e:	80 e0       	ldi	r24, 0x00	; 0
     2a0:	89 23       	and	r24, r25
     2a2:	a9 f0       	breq	.+42     	; 0x2ce <__vector_2+0x84>
     2a4:	81 e3       	ldi	r24, 0x31	; 49
     2a6:	0e 94 91 19 	call	0x3322	; 0x3322 <send_word_lcd>
     2aa:	46 e3       	ldi	r20, 0x36	; 54
     2ac:	52 e0       	ldi	r21, 0x02	; 2
     2ae:	60 e0       	ldi	r22, 0x00	; 0
     2b0:	80 91 d4 01 	lds	r24, 0x01D4	; 0x8001d4 <count_senha>
     2b4:	90 91 d5 01 	lds	r25, 0x01D5	; 0x8001d5 <count_senha+0x1>
     2b8:	0e 94 1e 1b 	call	0x363c	; 0x363c <insert_senha>
     2bc:	80 91 d4 01 	lds	r24, 0x01D4	; 0x8001d4 <count_senha>
     2c0:	90 91 d5 01 	lds	r25, 0x01D5	; 0x8001d5 <count_senha+0x1>
     2c4:	01 96       	adiw	r24, 0x01	; 1
     2c6:	90 93 d5 01 	sts	0x01D5, r25	; 0x8001d5 <count_senha+0x1>
     2ca:	80 93 d4 01 	sts	0x01D4, r24	; 0x8001d4 <count_senha>
     2ce:	91 e0       	ldi	r25, 0x01	; 1
     2d0:	80 91 d8 01 	lds	r24, 0x01D8	; 0x8001d8 <state>
     2d4:	89 30       	cpi	r24, 0x09	; 9
     2d6:	09 f0       	breq	.+2      	; 0x2da <__vector_2+0x90>
     2d8:	90 e0       	ldi	r25, 0x00	; 0
     2da:	81 e0       	ldi	r24, 0x01	; 1
     2dc:	20 91 d4 01 	lds	r18, 0x01D4	; 0x8001d4 <count_senha>
     2e0:	30 91 d5 01 	lds	r19, 0x01D5	; 0x8001d5 <count_senha+0x1>
     2e4:	24 30       	cpi	r18, 0x04	; 4
     2e6:	31 05       	cpc	r19, r1
     2e8:	0c f0       	brlt	.+2      	; 0x2ec <__vector_2+0xa2>
     2ea:	80 e0       	ldi	r24, 0x00	; 0
     2ec:	89 23       	and	r24, r25
     2ee:	a9 f0       	breq	.+42     	; 0x31a <__vector_2+0xd0>
     2f0:	81 e3       	ldi	r24, 0x31	; 49
     2f2:	0e 94 91 19 	call	0x3322	; 0x3322 <send_word_lcd>
     2f6:	46 e3       	ldi	r20, 0x36	; 54
     2f8:	52 e0       	ldi	r21, 0x02	; 2
     2fa:	60 e0       	ldi	r22, 0x00	; 0
     2fc:	80 91 d4 01 	lds	r24, 0x01D4	; 0x8001d4 <count_senha>
     300:	90 91 d5 01 	lds	r25, 0x01D5	; 0x8001d5 <count_senha+0x1>
     304:	0e 94 f3 18 	call	0x31e6	; 0x31e6 <senha_arm>
     308:	80 91 d4 01 	lds	r24, 0x01D4	; 0x8001d4 <count_senha>
     30c:	90 91 d5 01 	lds	r25, 0x01D5	; 0x8001d5 <count_senha+0x1>
     310:	01 96       	adiw	r24, 0x01	; 1
     312:	90 93 d5 01 	sts	0x01D5, r25	; 0x8001d5 <count_senha+0x1>
     316:	80 93 d4 01 	sts	0x01D4, r24	; 0x8001d4 <count_senha>
     31a:	91 e0       	ldi	r25, 0x01	; 1
     31c:	80 91 d8 01 	lds	r24, 0x01D8	; 0x8001d8 <state>
     320:	8a 30       	cpi	r24, 0x0A	; 10
     322:	09 f0       	breq	.+2      	; 0x326 <__vector_2+0xdc>
     324:	90 e0       	ldi	r25, 0x00	; 0
     326:	81 e0       	ldi	r24, 0x01	; 1
     328:	20 91 d4 01 	lds	r18, 0x01D4	; 0x8001d4 <count_senha>
     32c:	30 91 d5 01 	lds	r19, 0x01D5	; 0x8001d5 <count_senha+0x1>
     330:	24 30       	cpi	r18, 0x04	; 4
     332:	31 05       	cpc	r19, r1
     334:	0c f0       	brlt	.+2      	; 0x338 <__vector_2+0xee>
     336:	80 e0       	ldi	r24, 0x00	; 0
     338:	89 23       	and	r24, r25
     33a:	a9 f0       	breq	.+42     	; 0x366 <__vector_2+0x11c>
     33c:	81 e3       	ldi	r24, 0x31	; 49
     33e:	0e 94 91 19 	call	0x3322	; 0x3322 <send_word_lcd>
     342:	46 e3       	ldi	r20, 0x36	; 54
     344:	52 e0       	ldi	r21, 0x02	; 2
     346:	60 e0       	ldi	r22, 0x00	; 0
     348:	80 91 d4 01 	lds	r24, 0x01D4	; 0x8001d4 <count_senha>
     34c:	90 91 d5 01 	lds	r25, 0x01D5	; 0x8001d5 <count_senha+0x1>
     350:	0e 94 1e 1b 	call	0x363c	; 0x363c <insert_senha>
     354:	80 91 d4 01 	lds	r24, 0x01D4	; 0x8001d4 <count_senha>
     358:	90 91 d5 01 	lds	r25, 0x01D5	; 0x8001d5 <count_senha+0x1>
     35c:	01 96       	adiw	r24, 0x01	; 1
     35e:	90 93 d5 01 	sts	0x01D5, r25	; 0x8001d5 <count_senha+0x1>
     362:	80 93 d4 01 	sts	0x01D4, r24	; 0x8001d4 <count_senha>
     366:	91 e0       	ldi	r25, 0x01	; 1
     368:	80 91 d8 01 	lds	r24, 0x01D8	; 0x8001d8 <state>
     36c:	8b 30       	cpi	r24, 0x0B	; 11
     36e:	09 f0       	breq	.+2      	; 0x372 <__vector_2+0x128>
     370:	90 e0       	ldi	r25, 0x00	; 0
     372:	81 e0       	ldi	r24, 0x01	; 1
     374:	20 91 d4 01 	lds	r18, 0x01D4	; 0x8001d4 <count_senha>
     378:	30 91 d5 01 	lds	r19, 0x01D5	; 0x8001d5 <count_senha+0x1>
     37c:	24 30       	cpi	r18, 0x04	; 4
     37e:	31 05       	cpc	r19, r1
     380:	0c f0       	brlt	.+2      	; 0x384 <__vector_2+0x13a>
     382:	80 e0       	ldi	r24, 0x00	; 0
     384:	89 23       	and	r24, r25
     386:	a9 f0       	breq	.+42     	; 0x3b2 <__vector_2+0x168>
     388:	81 e3       	ldi	r24, 0x31	; 49
     38a:	0e 94 91 19 	call	0x3322	; 0x3322 <send_word_lcd>
     38e:	46 e3       	ldi	r20, 0x36	; 54
     390:	52 e0       	ldi	r21, 0x02	; 2
     392:	60 e0       	ldi	r22, 0x00	; 0
     394:	80 91 d4 01 	lds	r24, 0x01D4	; 0x8001d4 <count_senha>
     398:	90 91 d5 01 	lds	r25, 0x01D5	; 0x8001d5 <count_senha+0x1>
     39c:	0e 94 1e 1b 	call	0x363c	; 0x363c <insert_senha>
     3a0:	80 91 d4 01 	lds	r24, 0x01D4	; 0x8001d4 <count_senha>
     3a4:	90 91 d5 01 	lds	r25, 0x01D5	; 0x8001d5 <count_senha+0x1>
     3a8:	01 96       	adiw	r24, 0x01	; 1
     3aa:	90 93 d5 01 	sts	0x01D5, r25	; 0x8001d5 <count_senha+0x1>
     3ae:	80 93 d4 01 	sts	0x01D4, r24	; 0x8001d4 <count_senha>
     3b2:	91 e0       	ldi	r25, 0x01	; 1
     3b4:	80 91 d8 01 	lds	r24, 0x01D8	; 0x8001d8 <state>
     3b8:	87 30       	cpi	r24, 0x07	; 7
     3ba:	09 f0       	breq	.+2      	; 0x3be <__vector_2+0x174>
     3bc:	90 e0       	ldi	r25, 0x00	; 0
     3be:	81 e0       	ldi	r24, 0x01	; 1
     3c0:	20 91 d6 01 	lds	r18, 0x01D6	; 0x8001d6 <flag_a_senha>
     3c4:	30 91 d7 01 	lds	r19, 0x01D7	; 0x8001d7 <flag_a_senha+0x1>
     3c8:	21 30       	cpi	r18, 0x01	; 1
     3ca:	31 05       	cpc	r19, r1
     3cc:	09 f0       	breq	.+2      	; 0x3d0 <__vector_2+0x186>
     3ce:	80 e0       	ldi	r24, 0x00	; 0
     3d0:	89 23       	and	r24, r25
     3d2:	79 f0       	breq	.+30     	; 0x3f2 <__vector_2+0x1a8>
     3d4:	89 e0       	ldi	r24, 0x09	; 9
     3d6:	80 93 d8 01 	sts	0x01D8, r24	; 0x8001d8 <state>
     3da:	0e 94 6a 19 	call	0x32d4	; 0x32d4 <msg_altera_senha>
     3de:	81 e0       	ldi	r24, 0x01	; 1
     3e0:	90 e0       	ldi	r25, 0x00	; 0
     3e2:	90 93 26 01 	sts	0x0126, r25	; 0x800126 <addr_senha+0x1>
     3e6:	80 93 25 01 	sts	0x0125, r24	; 0x800125 <addr_senha>
     3ea:	10 92 d7 01 	sts	0x01D7, r1	; 0x8001d7 <flag_a_senha+0x1>
     3ee:	10 92 d6 01 	sts	0x01D6, r1	; 0x8001d6 <flag_a_senha>
     3f2:	91 e0       	ldi	r25, 0x01	; 1
     3f4:	80 91 d8 01 	lds	r24, 0x01D8	; 0x8001d8 <state>
     3f8:	8f 30       	cpi	r24, 0x0F	; 15
     3fa:	09 f0       	breq	.+2      	; 0x3fe <__vector_2+0x1b4>
     3fc:	90 e0       	ldi	r25, 0x00	; 0
     3fe:	81 e0       	ldi	r24, 0x01	; 1
     400:	20 91 ce 01 	lds	r18, 0x01CE	; 0x8001ce <flag_sensor>
     404:	30 91 cf 01 	lds	r19, 0x01CF	; 0x8001cf <flag_sensor+0x1>
     408:	23 2b       	or	r18, r19
     40a:	09 f0       	breq	.+2      	; 0x40e <__EEPROM_REGION_LENGTH__+0xe>
     40c:	80 e0       	ldi	r24, 0x00	; 0
     40e:	89 23       	and	r24, r25
     410:	21 f0       	breq	.+8      	; 0x41a <__EEPROM_REGION_LENGTH__+0x1a>
     412:	81 e0       	ldi	r24, 0x01	; 1
     414:	90 e0       	ldi	r25, 0x00	; 0
     416:	0e 94 c9 13 	call	0x2792	; 0x2792 <hab_sensor>
     41a:	91 e0       	ldi	r25, 0x01	; 1
     41c:	80 91 d8 01 	lds	r24, 0x01D8	; 0x8001d8 <state>
     420:	80 31       	cpi	r24, 0x10	; 16
     422:	09 f0       	breq	.+2      	; 0x426 <__EEPROM_REGION_LENGTH__+0x26>
     424:	90 e0       	ldi	r25, 0x00	; 0
     426:	81 e0       	ldi	r24, 0x01	; 1
     428:	20 91 ce 01 	lds	r18, 0x01CE	; 0x8001ce <flag_sensor>
     42c:	30 91 cf 01 	lds	r19, 0x01CF	; 0x8001cf <flag_sensor+0x1>
     430:	23 2b       	or	r18, r19
     432:	09 f0       	breq	.+2      	; 0x436 <__EEPROM_REGION_LENGTH__+0x36>
     434:	80 e0       	ldi	r24, 0x00	; 0
     436:	89 23       	and	r24, r25
     438:	21 f0       	breq	.+8      	; 0x442 <__EEPROM_REGION_LENGTH__+0x42>
     43a:	81 e0       	ldi	r24, 0x01	; 1
     43c:	90 e0       	ldi	r25, 0x00	; 0
     43e:	0e 94 7d 15 	call	0x2afa	; 0x2afa <hab_zonas>
     442:	90 91 d8 01 	lds	r25, 0x01D8	; 0x8001d8 <state>
     446:	21 e0       	ldi	r18, 0x01	; 1
     448:	40 91 c6 01 	lds	r20, 0x01C6	; 0x8001c6 <flag_z1>
     44c:	50 91 c7 01 	lds	r21, 0x01C7	; 0x8001c7 <flag_z1+0x1>
     450:	45 2b       	or	r20, r21
     452:	09 f0       	breq	.+2      	; 0x456 <__EEPROM_REGION_LENGTH__+0x56>
     454:	20 e0       	ldi	r18, 0x00	; 0
     456:	81 e0       	ldi	r24, 0x01	; 1
     458:	91 31       	cpi	r25, 0x11	; 17
     45a:	09 f0       	breq	.+2      	; 0x45e <__EEPROM_REGION_LENGTH__+0x5e>
     45c:	80 e0       	ldi	r24, 0x00	; 0
     45e:	82 23       	and	r24, r18
     460:	f9 f0       	breq	.+62     	; 0x4a0 <__EEPROM_REGION_LENGTH__+0xa0>
     462:	20 91 c8 01 	lds	r18, 0x01C8	; 0x8001c8 <flag_z>
     466:	30 91 c9 01 	lds	r19, 0x01C9	; 0x8001c9 <flag_z+0x1>
     46a:	21 15       	cp	r18, r1
     46c:	31 05       	cpc	r19, r1
     46e:	59 f4       	brne	.+22     	; 0x486 <__EEPROM_REGION_LENGTH__+0x86>
     470:	21 e0       	ldi	r18, 0x01	; 1
     472:	30 e0       	ldi	r19, 0x00	; 0
     474:	30 93 01 01 	sts	0x0101, r19	; 0x800101 <__DATA_REGION_ORIGIN__+0x1>
     478:	20 93 00 01 	sts	0x0100, r18	; 0x800100 <__DATA_REGION_ORIGIN__>
     47c:	30 93 c9 01 	sts	0x01C9, r19	; 0x8001c9 <flag_z+0x1>
     480:	20 93 c8 01 	sts	0x01C8, r18	; 0x8001c8 <flag_z>
     484:	0d c0       	rjmp	.+26     	; 0x4a0 <__EEPROM_REGION_LENGTH__+0xa0>
     486:	21 30       	cpi	r18, 0x01	; 1
     488:	31 05       	cpc	r19, r1
     48a:	51 f4       	brne	.+20     	; 0x4a0 <__EEPROM_REGION_LENGTH__+0xa0>
     48c:	21 e0       	ldi	r18, 0x01	; 1
     48e:	30 e0       	ldi	r19, 0x00	; 0
     490:	30 93 05 01 	sts	0x0105, r19	; 0x800105 <idzona+0x1>
     494:	20 93 04 01 	sts	0x0104, r18	; 0x800104 <idzona>
     498:	30 93 c7 01 	sts	0x01C7, r19	; 0x8001c7 <flag_z1+0x1>
     49c:	20 93 c6 01 	sts	0x01C6, r18	; 0x8001c6 <flag_z1>
     4a0:	20 91 ba 01 	lds	r18, 0x01BA	; 0x8001ba <cont_t>
     4a4:	30 91 bb 01 	lds	r19, 0x01BB	; 0x8001bb <cont_t+0x1>
     4a8:	41 e0       	ldi	r20, 0x01	; 1
     4aa:	93 31       	cpi	r25, 0x13	; 19
     4ac:	09 f0       	breq	.+2      	; 0x4b0 <__EEPROM_REGION_LENGTH__+0xb0>
     4ae:	40 e0       	ldi	r20, 0x00	; 0
     4b0:	81 e0       	ldi	r24, 0x01	; 1
     4b2:	22 30       	cpi	r18, 0x02	; 2
     4b4:	31 05       	cpc	r19, r1
     4b6:	0c f0       	brlt	.+2      	; 0x4ba <__EEPROM_REGION_LENGTH__+0xba>
     4b8:	80 e0       	ldi	r24, 0x00	; 0
     4ba:	84 23       	and	r24, r20
     4bc:	79 f0       	breq	.+30     	; 0x4dc <__EEPROM_REGION_LENGTH__+0xdc>
     4be:	f9 01       	movw	r30, r18
     4c0:	ee 0f       	add	r30, r30
     4c2:	ff 1f       	adc	r31, r31
     4c4:	e6 5f       	subi	r30, 0xF6	; 246
     4c6:	fe 4f       	sbci	r31, 0xFE	; 254
     4c8:	41 e0       	ldi	r20, 0x01	; 1
     4ca:	50 e0       	ldi	r21, 0x00	; 0
     4cc:	51 83       	std	Z+1, r21	; 0x01
     4ce:	40 83       	st	Z, r20
     4d0:	2f 5f       	subi	r18, 0xFF	; 255
     4d2:	3f 4f       	sbci	r19, 0xFF	; 255
     4d4:	30 93 bb 01 	sts	0x01BB, r19	; 0x8001bb <cont_t+0x1>
     4d8:	20 93 ba 01 	sts	0x01BA, r18	; 0x8001ba <cont_t>
     4dc:	81 e0       	ldi	r24, 0x01	; 1
     4de:	20 91 ba 01 	lds	r18, 0x01BA	; 0x8001ba <cont_t>
     4e2:	30 91 bb 01 	lds	r19, 0x01BB	; 0x8001bb <cont_t+0x1>
     4e6:	23 30       	cpi	r18, 0x03	; 3
     4e8:	31 05       	cpc	r19, r1
     4ea:	0c f0       	brlt	.+2      	; 0x4ee <__EEPROM_REGION_LENGTH__+0xee>
     4ec:	80 e0       	ldi	r24, 0x00	; 0
     4ee:	21 e0       	ldi	r18, 0x01	; 1
     4f0:	94 31       	cpi	r25, 0x14	; 20
     4f2:	09 f0       	breq	.+2      	; 0x4f6 <__EEPROM_REGION_LENGTH__+0xf6>
     4f4:	20 e0       	ldi	r18, 0x00	; 0
     4f6:	28 23       	and	r18, r24
     4f8:	99 f0       	breq	.+38     	; 0x520 <__EEPROM_REGION_LENGTH__+0x120>
     4fa:	20 91 b6 01 	lds	r18, 0x01B6	; 0x8001b6 <cont_s>
     4fe:	30 91 b7 01 	lds	r19, 0x01B7	; 0x8001b7 <cont_s+0x1>
     502:	f9 01       	movw	r30, r18
     504:	ee 0f       	add	r30, r30
     506:	ff 1f       	adc	r31, r31
     508:	e9 5d       	subi	r30, 0xD9	; 217
     50a:	fe 4f       	sbci	r31, 0xFE	; 254
     50c:	41 e0       	ldi	r20, 0x01	; 1
     50e:	50 e0       	ldi	r21, 0x00	; 0
     510:	51 83       	std	Z+1, r21	; 0x01
     512:	40 83       	st	Z, r20
     514:	2f 5f       	subi	r18, 0xFF	; 255
     516:	3f 4f       	sbci	r19, 0xFF	; 255
     518:	30 93 b7 01 	sts	0x01B7, r19	; 0x8001b7 <cont_s+0x1>
     51c:	20 93 b6 01 	sts	0x01B6, r18	; 0x8001b6 <cont_s>
     520:	21 e0       	ldi	r18, 0x01	; 1
     522:	92 31       	cpi	r25, 0x12	; 18
     524:	09 f0       	breq	.+2      	; 0x528 <__EEPROM_REGION_LENGTH__+0x128>
     526:	20 e0       	ldi	r18, 0x00	; 0
     528:	82 23       	and	r24, r18
     52a:	11 f4       	brne	.+4      	; 0x530 <__EEPROM_REGION_LENGTH__+0x130>
     52c:	0c 94 67 10 	jmp	0x20ce	; 0x20ce <__stack+0x17cf>
     530:	80 91 b8 01 	lds	r24, 0x01B8	; 0x8001b8 <cont_aa>
     534:	90 91 b9 01 	lds	r25, 0x01B9	; 0x8001b9 <cont_aa+0x1>
     538:	fc 01       	movw	r30, r24
     53a:	ee 0f       	add	r30, r30
     53c:	ff 1f       	adc	r31, r31
     53e:	e1 5e       	subi	r30, 0xE1	; 225
     540:	fe 4f       	sbci	r31, 0xFE	; 254
     542:	21 e0       	ldi	r18, 0x01	; 1
     544:	30 e0       	ldi	r19, 0x00	; 0
     546:	31 83       	std	Z+1, r19	; 0x01
     548:	20 83       	st	Z, r18
     54a:	01 96       	adiw	r24, 0x01	; 1
     54c:	90 93 b9 01 	sts	0x01B9, r25	; 0x8001b9 <cont_aa+0x1>
     550:	80 93 b8 01 	sts	0x01B8, r24	; 0x8001b8 <cont_aa>
     554:	0c 94 67 10 	jmp	0x20ce	; 0x20ce <__stack+0x17cf>
     558:	80 3e       	cpi	r24, 0xE0	; 224
     55a:	91 05       	cpc	r25, r1
     55c:	09 f0       	breq	.+2      	; 0x560 <__EEPROM_REGION_LENGTH__+0x160>
     55e:	88 c1       	rjmp	.+784    	; 0x870 <__DATA_REGION_LENGTH__+0x70>
     560:	91 e0       	ldi	r25, 0x01	; 1
     562:	80 91 d8 01 	lds	r24, 0x01D8	; 0x8001d8 <state>
     566:	88 30       	cpi	r24, 0x08	; 8
     568:	09 f0       	breq	.+2      	; 0x56c <__EEPROM_REGION_LENGTH__+0x16c>
     56a:	90 e0       	ldi	r25, 0x00	; 0
     56c:	81 e0       	ldi	r24, 0x01	; 1
     56e:	20 91 d4 01 	lds	r18, 0x01D4	; 0x8001d4 <count_senha>
     572:	30 91 d5 01 	lds	r19, 0x01D5	; 0x8001d5 <count_senha+0x1>
     576:	24 30       	cpi	r18, 0x04	; 4
     578:	31 05       	cpc	r19, r1
     57a:	0c f0       	brlt	.+2      	; 0x57e <__EEPROM_REGION_LENGTH__+0x17e>
     57c:	80 e0       	ldi	r24, 0x00	; 0
     57e:	89 23       	and	r24, r25
     580:	a9 f0       	breq	.+42     	; 0x5ac <__EEPROM_REGION_LENGTH__+0x1ac>
     582:	82 e3       	ldi	r24, 0x32	; 50
     584:	0e 94 91 19 	call	0x3322	; 0x3322 <send_word_lcd>
     588:	48 e3       	ldi	r20, 0x38	; 56
     58a:	52 e0       	ldi	r21, 0x02	; 2
     58c:	60 e0       	ldi	r22, 0x00	; 0
     58e:	80 91 d4 01 	lds	r24, 0x01D4	; 0x8001d4 <count_senha>
     592:	90 91 d5 01 	lds	r25, 0x01D5	; 0x8001d5 <count_senha+0x1>
     596:	0e 94 1e 1b 	call	0x363c	; 0x363c <insert_senha>
     59a:	80 91 d4 01 	lds	r24, 0x01D4	; 0x8001d4 <count_senha>
     59e:	90 91 d5 01 	lds	r25, 0x01D5	; 0x8001d5 <count_senha+0x1>
     5a2:	01 96       	adiw	r24, 0x01	; 1
     5a4:	90 93 d5 01 	sts	0x01D5, r25	; 0x8001d5 <count_senha+0x1>
     5a8:	80 93 d4 01 	sts	0x01D4, r24	; 0x8001d4 <count_senha>
     5ac:	91 e0       	ldi	r25, 0x01	; 1
     5ae:	80 91 d8 01 	lds	r24, 0x01D8	; 0x8001d8 <state>
     5b2:	89 30       	cpi	r24, 0x09	; 9
     5b4:	09 f0       	breq	.+2      	; 0x5b8 <__EEPROM_REGION_LENGTH__+0x1b8>
     5b6:	90 e0       	ldi	r25, 0x00	; 0
     5b8:	81 e0       	ldi	r24, 0x01	; 1
     5ba:	20 91 d4 01 	lds	r18, 0x01D4	; 0x8001d4 <count_senha>
     5be:	30 91 d5 01 	lds	r19, 0x01D5	; 0x8001d5 <count_senha+0x1>
     5c2:	24 30       	cpi	r18, 0x04	; 4
     5c4:	31 05       	cpc	r19, r1
     5c6:	0c f0       	brlt	.+2      	; 0x5ca <__EEPROM_REGION_LENGTH__+0x1ca>
     5c8:	80 e0       	ldi	r24, 0x00	; 0
     5ca:	89 23       	and	r24, r25
     5cc:	a9 f0       	breq	.+42     	; 0x5f8 <__EEPROM_REGION_LENGTH__+0x1f8>
     5ce:	82 e3       	ldi	r24, 0x32	; 50
     5d0:	0e 94 91 19 	call	0x3322	; 0x3322 <send_word_lcd>
     5d4:	48 e3       	ldi	r20, 0x38	; 56
     5d6:	52 e0       	ldi	r21, 0x02	; 2
     5d8:	60 e0       	ldi	r22, 0x00	; 0
     5da:	80 91 d4 01 	lds	r24, 0x01D4	; 0x8001d4 <count_senha>
     5de:	90 91 d5 01 	lds	r25, 0x01D5	; 0x8001d5 <count_senha+0x1>
     5e2:	0e 94 f3 18 	call	0x31e6	; 0x31e6 <senha_arm>
     5e6:	80 91 d4 01 	lds	r24, 0x01D4	; 0x8001d4 <count_senha>
     5ea:	90 91 d5 01 	lds	r25, 0x01D5	; 0x8001d5 <count_senha+0x1>
     5ee:	01 96       	adiw	r24, 0x01	; 1
     5f0:	90 93 d5 01 	sts	0x01D5, r25	; 0x8001d5 <count_senha+0x1>
     5f4:	80 93 d4 01 	sts	0x01D4, r24	; 0x8001d4 <count_senha>
     5f8:	91 e0       	ldi	r25, 0x01	; 1
     5fa:	80 91 d8 01 	lds	r24, 0x01D8	; 0x8001d8 <state>
     5fe:	8a 30       	cpi	r24, 0x0A	; 10
     600:	09 f0       	breq	.+2      	; 0x604 <__EEPROM_REGION_LENGTH__+0x204>
     602:	90 e0       	ldi	r25, 0x00	; 0
     604:	81 e0       	ldi	r24, 0x01	; 1
     606:	20 91 d4 01 	lds	r18, 0x01D4	; 0x8001d4 <count_senha>
     60a:	30 91 d5 01 	lds	r19, 0x01D5	; 0x8001d5 <count_senha+0x1>
     60e:	24 30       	cpi	r18, 0x04	; 4
     610:	31 05       	cpc	r19, r1
     612:	0c f0       	brlt	.+2      	; 0x616 <__EEPROM_REGION_LENGTH__+0x216>
     614:	80 e0       	ldi	r24, 0x00	; 0
     616:	89 23       	and	r24, r25
     618:	a9 f0       	breq	.+42     	; 0x644 <__EEPROM_REGION_LENGTH__+0x244>
     61a:	82 e3       	ldi	r24, 0x32	; 50
     61c:	0e 94 91 19 	call	0x3322	; 0x3322 <send_word_lcd>
     620:	48 e3       	ldi	r20, 0x38	; 56
     622:	52 e0       	ldi	r21, 0x02	; 2
     624:	60 e0       	ldi	r22, 0x00	; 0
     626:	80 91 d4 01 	lds	r24, 0x01D4	; 0x8001d4 <count_senha>
     62a:	90 91 d5 01 	lds	r25, 0x01D5	; 0x8001d5 <count_senha+0x1>
     62e:	0e 94 1e 1b 	call	0x363c	; 0x363c <insert_senha>
     632:	80 91 d4 01 	lds	r24, 0x01D4	; 0x8001d4 <count_senha>
     636:	90 91 d5 01 	lds	r25, 0x01D5	; 0x8001d5 <count_senha+0x1>
     63a:	01 96       	adiw	r24, 0x01	; 1
     63c:	90 93 d5 01 	sts	0x01D5, r25	; 0x8001d5 <count_senha+0x1>
     640:	80 93 d4 01 	sts	0x01D4, r24	; 0x8001d4 <count_senha>
     644:	91 e0       	ldi	r25, 0x01	; 1
     646:	80 91 d8 01 	lds	r24, 0x01D8	; 0x8001d8 <state>
     64a:	8b 30       	cpi	r24, 0x0B	; 11
     64c:	09 f0       	breq	.+2      	; 0x650 <__EEPROM_REGION_LENGTH__+0x250>
     64e:	90 e0       	ldi	r25, 0x00	; 0
     650:	81 e0       	ldi	r24, 0x01	; 1
     652:	20 91 d4 01 	lds	r18, 0x01D4	; 0x8001d4 <count_senha>
     656:	30 91 d5 01 	lds	r19, 0x01D5	; 0x8001d5 <count_senha+0x1>
     65a:	24 30       	cpi	r18, 0x04	; 4
     65c:	31 05       	cpc	r19, r1
     65e:	0c f0       	brlt	.+2      	; 0x662 <__EEPROM_REGION_LENGTH__+0x262>
     660:	80 e0       	ldi	r24, 0x00	; 0
     662:	89 23       	and	r24, r25
     664:	a9 f0       	breq	.+42     	; 0x690 <__EEPROM_REGION_LENGTH__+0x290>
     666:	82 e3       	ldi	r24, 0x32	; 50
     668:	0e 94 91 19 	call	0x3322	; 0x3322 <send_word_lcd>
     66c:	48 e3       	ldi	r20, 0x38	; 56
     66e:	52 e0       	ldi	r21, 0x02	; 2
     670:	60 e0       	ldi	r22, 0x00	; 0
     672:	80 91 d4 01 	lds	r24, 0x01D4	; 0x8001d4 <count_senha>
     676:	90 91 d5 01 	lds	r25, 0x01D5	; 0x8001d5 <count_senha+0x1>
     67a:	0e 94 1e 1b 	call	0x363c	; 0x363c <insert_senha>
     67e:	80 91 d4 01 	lds	r24, 0x01D4	; 0x8001d4 <count_senha>
     682:	90 91 d5 01 	lds	r25, 0x01D5	; 0x8001d5 <count_senha+0x1>
     686:	01 96       	adiw	r24, 0x01	; 1
     688:	90 93 d5 01 	sts	0x01D5, r25	; 0x8001d5 <count_senha+0x1>
     68c:	80 93 d4 01 	sts	0x01D4, r24	; 0x8001d4 <count_senha>
     690:	91 e0       	ldi	r25, 0x01	; 1
     692:	80 91 d8 01 	lds	r24, 0x01D8	; 0x8001d8 <state>
     696:	87 30       	cpi	r24, 0x07	; 7
     698:	09 f0       	breq	.+2      	; 0x69c <__EEPROM_REGION_LENGTH__+0x29c>
     69a:	90 e0       	ldi	r25, 0x00	; 0
     69c:	20 91 d6 01 	lds	r18, 0x01D6	; 0x8001d6 <flag_a_senha>
     6a0:	30 91 d7 01 	lds	r19, 0x01D7	; 0x8001d7 <flag_a_senha+0x1>
     6a4:	41 e0       	ldi	r20, 0x01	; 1
     6a6:	60 91 c0 01 	lds	r22, 0x01C0	; 0x8001c0 <flag_timeout>
     6aa:	70 91 c1 01 	lds	r23, 0x01C1	; 0x8001c1 <flag_timeout+0x1>
     6ae:	67 2b       	or	r22, r23
     6b0:	09 f0       	breq	.+2      	; 0x6b4 <__EEPROM_REGION_LENGTH__+0x2b4>
     6b2:	40 e0       	ldi	r20, 0x00	; 0
     6b4:	81 e0       	ldi	r24, 0x01	; 1
     6b6:	21 15       	cp	r18, r1
     6b8:	31 05       	cpc	r19, r1
     6ba:	09 f0       	breq	.+2      	; 0x6be <__EEPROM_REGION_LENGTH__+0x2be>
     6bc:	80 e0       	ldi	r24, 0x00	; 0
     6be:	84 23       	and	r24, r20
     6c0:	99 23       	and	r25, r25
     6c2:	49 f0       	breq	.+18     	; 0x6d6 <__EEPROM_REGION_LENGTH__+0x2d6>
     6c4:	88 23       	and	r24, r24
     6c6:	39 f0       	breq	.+14     	; 0x6d6 <__EEPROM_REGION_LENGTH__+0x2d6>
     6c8:	81 e0       	ldi	r24, 0x01	; 1
     6ca:	90 e0       	ldi	r25, 0x00	; 0
     6cc:	90 93 d7 01 	sts	0x01D7, r25	; 0x8001d7 <flag_a_senha+0x1>
     6d0:	80 93 d6 01 	sts	0x01D6, r24	; 0x8001d6 <flag_a_senha>
     6d4:	16 c0       	rjmp	.+44     	; 0x702 <__EEPROM_REGION_LENGTH__+0x302>
     6d6:	81 e0       	ldi	r24, 0x01	; 1
     6d8:	21 30       	cpi	r18, 0x01	; 1
     6da:	31 05       	cpc	r19, r1
     6dc:	09 f0       	breq	.+2      	; 0x6e0 <__EEPROM_REGION_LENGTH__+0x2e0>
     6de:	80 e0       	ldi	r24, 0x00	; 0
     6e0:	98 23       	and	r25, r24
     6e2:	79 f0       	breq	.+30     	; 0x702 <__EEPROM_REGION_LENGTH__+0x302>
     6e4:	89 e0       	ldi	r24, 0x09	; 9
     6e6:	80 93 d8 01 	sts	0x01D8, r24	; 0x8001d8 <state>
     6ea:	0e 94 6a 19 	call	0x32d4	; 0x32d4 <msg_altera_senha>
     6ee:	82 e0       	ldi	r24, 0x02	; 2
     6f0:	90 e0       	ldi	r25, 0x00	; 0
     6f2:	90 93 26 01 	sts	0x0126, r25	; 0x800126 <addr_senha+0x1>
     6f6:	80 93 25 01 	sts	0x0125, r24	; 0x800125 <addr_senha>
     6fa:	10 92 d7 01 	sts	0x01D7, r1	; 0x8001d7 <flag_a_senha+0x1>
     6fe:	10 92 d6 01 	sts	0x01D6, r1	; 0x8001d6 <flag_a_senha>
     702:	91 e0       	ldi	r25, 0x01	; 1
     704:	80 91 d8 01 	lds	r24, 0x01D8	; 0x8001d8 <state>
     708:	8f 30       	cpi	r24, 0x0F	; 15
     70a:	09 f0       	breq	.+2      	; 0x70e <__EEPROM_REGION_LENGTH__+0x30e>
     70c:	90 e0       	ldi	r25, 0x00	; 0
     70e:	81 e0       	ldi	r24, 0x01	; 1
     710:	20 91 ce 01 	lds	r18, 0x01CE	; 0x8001ce <flag_sensor>
     714:	30 91 cf 01 	lds	r19, 0x01CF	; 0x8001cf <flag_sensor+0x1>
     718:	23 2b       	or	r18, r19
     71a:	09 f0       	breq	.+2      	; 0x71e <__EEPROM_REGION_LENGTH__+0x31e>
     71c:	80 e0       	ldi	r24, 0x00	; 0
     71e:	89 23       	and	r24, r25
     720:	21 f0       	breq	.+8      	; 0x72a <__EEPROM_REGION_LENGTH__+0x32a>
     722:	82 e0       	ldi	r24, 0x02	; 2
     724:	90 e0       	ldi	r25, 0x00	; 0
     726:	0e 94 c9 13 	call	0x2792	; 0x2792 <hab_sensor>
     72a:	91 e0       	ldi	r25, 0x01	; 1
     72c:	80 91 d8 01 	lds	r24, 0x01D8	; 0x8001d8 <state>
     730:	80 31       	cpi	r24, 0x10	; 16
     732:	09 f0       	breq	.+2      	; 0x736 <__EEPROM_REGION_LENGTH__+0x336>
     734:	90 e0       	ldi	r25, 0x00	; 0
     736:	81 e0       	ldi	r24, 0x01	; 1
     738:	20 91 ce 01 	lds	r18, 0x01CE	; 0x8001ce <flag_sensor>
     73c:	30 91 cf 01 	lds	r19, 0x01CF	; 0x8001cf <flag_sensor+0x1>
     740:	23 2b       	or	r18, r19
     742:	09 f0       	breq	.+2      	; 0x746 <__EEPROM_REGION_LENGTH__+0x346>
     744:	80 e0       	ldi	r24, 0x00	; 0
     746:	89 23       	and	r24, r25
     748:	21 f0       	breq	.+8      	; 0x752 <__EEPROM_REGION_LENGTH__+0x352>
     74a:	82 e0       	ldi	r24, 0x02	; 2
     74c:	90 e0       	ldi	r25, 0x00	; 0
     74e:	0e 94 7d 15 	call	0x2afa	; 0x2afa <hab_zonas>
     752:	90 91 d8 01 	lds	r25, 0x01D8	; 0x8001d8 <state>
     756:	21 e0       	ldi	r18, 0x01	; 1
     758:	40 91 c6 01 	lds	r20, 0x01C6	; 0x8001c6 <flag_z1>
     75c:	50 91 c7 01 	lds	r21, 0x01C7	; 0x8001c7 <flag_z1+0x1>
     760:	45 2b       	or	r20, r21
     762:	09 f0       	breq	.+2      	; 0x766 <__EEPROM_REGION_LENGTH__+0x366>
     764:	20 e0       	ldi	r18, 0x00	; 0
     766:	81 e0       	ldi	r24, 0x01	; 1
     768:	91 31       	cpi	r25, 0x11	; 17
     76a:	09 f0       	breq	.+2      	; 0x76e <__EEPROM_REGION_LENGTH__+0x36e>
     76c:	80 e0       	ldi	r24, 0x00	; 0
     76e:	82 23       	and	r24, r18
     770:	19 f1       	breq	.+70     	; 0x7b8 <__EEPROM_REGION_LENGTH__+0x3b8>
     772:	20 91 c8 01 	lds	r18, 0x01C8	; 0x8001c8 <flag_z>
     776:	30 91 c9 01 	lds	r19, 0x01C9	; 0x8001c9 <flag_z+0x1>
     77a:	21 15       	cp	r18, r1
     77c:	31 05       	cpc	r19, r1
     77e:	69 f4       	brne	.+26     	; 0x79a <__EEPROM_REGION_LENGTH__+0x39a>
     780:	22 e0       	ldi	r18, 0x02	; 2
     782:	30 e0       	ldi	r19, 0x00	; 0
     784:	30 93 01 01 	sts	0x0101, r19	; 0x800101 <__DATA_REGION_ORIGIN__+0x1>
     788:	20 93 00 01 	sts	0x0100, r18	; 0x800100 <__DATA_REGION_ORIGIN__>
     78c:	21 e0       	ldi	r18, 0x01	; 1
     78e:	30 e0       	ldi	r19, 0x00	; 0
     790:	30 93 c9 01 	sts	0x01C9, r19	; 0x8001c9 <flag_z+0x1>
     794:	20 93 c8 01 	sts	0x01C8, r18	; 0x8001c8 <flag_z>
     798:	0f c0       	rjmp	.+30     	; 0x7b8 <__EEPROM_REGION_LENGTH__+0x3b8>
     79a:	21 30       	cpi	r18, 0x01	; 1
     79c:	31 05       	cpc	r19, r1
     79e:	61 f4       	brne	.+24     	; 0x7b8 <__EEPROM_REGION_LENGTH__+0x3b8>
     7a0:	22 e0       	ldi	r18, 0x02	; 2
     7a2:	30 e0       	ldi	r19, 0x00	; 0
     7a4:	30 93 05 01 	sts	0x0105, r19	; 0x800105 <idzona+0x1>
     7a8:	20 93 04 01 	sts	0x0104, r18	; 0x800104 <idzona>
     7ac:	21 e0       	ldi	r18, 0x01	; 1
     7ae:	30 e0       	ldi	r19, 0x00	; 0
     7b0:	30 93 c7 01 	sts	0x01C7, r19	; 0x8001c7 <flag_z1+0x1>
     7b4:	20 93 c6 01 	sts	0x01C6, r18	; 0x8001c6 <flag_z1>
     7b8:	20 91 ba 01 	lds	r18, 0x01BA	; 0x8001ba <cont_t>
     7bc:	30 91 bb 01 	lds	r19, 0x01BB	; 0x8001bb <cont_t+0x1>
     7c0:	41 e0       	ldi	r20, 0x01	; 1
     7c2:	93 31       	cpi	r25, 0x13	; 19
     7c4:	09 f0       	breq	.+2      	; 0x7c8 <__EEPROM_REGION_LENGTH__+0x3c8>
     7c6:	40 e0       	ldi	r20, 0x00	; 0
     7c8:	81 e0       	ldi	r24, 0x01	; 1
     7ca:	22 30       	cpi	r18, 0x02	; 2
     7cc:	31 05       	cpc	r19, r1
     7ce:	0c f0       	brlt	.+2      	; 0x7d2 <__EEPROM_REGION_LENGTH__+0x3d2>
     7d0:	80 e0       	ldi	r24, 0x00	; 0
     7d2:	84 23       	and	r24, r20
     7d4:	79 f0       	breq	.+30     	; 0x7f4 <__EEPROM_REGION_LENGTH__+0x3f4>
     7d6:	f9 01       	movw	r30, r18
     7d8:	ee 0f       	add	r30, r30
     7da:	ff 1f       	adc	r31, r31
     7dc:	e6 5f       	subi	r30, 0xF6	; 246
     7de:	fe 4f       	sbci	r31, 0xFE	; 254
     7e0:	42 e0       	ldi	r20, 0x02	; 2
     7e2:	50 e0       	ldi	r21, 0x00	; 0
     7e4:	51 83       	std	Z+1, r21	; 0x01
     7e6:	40 83       	st	Z, r20
     7e8:	2f 5f       	subi	r18, 0xFF	; 255
     7ea:	3f 4f       	sbci	r19, 0xFF	; 255
     7ec:	30 93 bb 01 	sts	0x01BB, r19	; 0x8001bb <cont_t+0x1>
     7f0:	20 93 ba 01 	sts	0x01BA, r18	; 0x8001ba <cont_t>
     7f4:	81 e0       	ldi	r24, 0x01	; 1
     7f6:	20 91 ba 01 	lds	r18, 0x01BA	; 0x8001ba <cont_t>
     7fa:	30 91 bb 01 	lds	r19, 0x01BB	; 0x8001bb <cont_t+0x1>
     7fe:	23 30       	cpi	r18, 0x03	; 3
     800:	31 05       	cpc	r19, r1
     802:	0c f0       	brlt	.+2      	; 0x806 <__DATA_REGION_LENGTH__+0x6>
     804:	80 e0       	ldi	r24, 0x00	; 0
     806:	21 e0       	ldi	r18, 0x01	; 1
     808:	94 31       	cpi	r25, 0x14	; 20
     80a:	09 f0       	breq	.+2      	; 0x80e <__DATA_REGION_LENGTH__+0xe>
     80c:	20 e0       	ldi	r18, 0x00	; 0
     80e:	28 23       	and	r18, r24
     810:	99 f0       	breq	.+38     	; 0x838 <__DATA_REGION_LENGTH__+0x38>
     812:	20 91 b6 01 	lds	r18, 0x01B6	; 0x8001b6 <cont_s>
     816:	30 91 b7 01 	lds	r19, 0x01B7	; 0x8001b7 <cont_s+0x1>
     81a:	f9 01       	movw	r30, r18
     81c:	ee 0f       	add	r30, r30
     81e:	ff 1f       	adc	r31, r31
     820:	e9 5d       	subi	r30, 0xD9	; 217
     822:	fe 4f       	sbci	r31, 0xFE	; 254
     824:	42 e0       	ldi	r20, 0x02	; 2
     826:	50 e0       	ldi	r21, 0x00	; 0
     828:	51 83       	std	Z+1, r21	; 0x01
     82a:	40 83       	st	Z, r20
     82c:	2f 5f       	subi	r18, 0xFF	; 255
     82e:	3f 4f       	sbci	r19, 0xFF	; 255
     830:	30 93 b7 01 	sts	0x01B7, r19	; 0x8001b7 <cont_s+0x1>
     834:	20 93 b6 01 	sts	0x01B6, r18	; 0x8001b6 <cont_s>
     838:	21 e0       	ldi	r18, 0x01	; 1
     83a:	92 31       	cpi	r25, 0x12	; 18
     83c:	09 f0       	breq	.+2      	; 0x840 <__DATA_REGION_LENGTH__+0x40>
     83e:	20 e0       	ldi	r18, 0x00	; 0
     840:	82 23       	and	r24, r18
     842:	11 f4       	brne	.+4      	; 0x848 <__DATA_REGION_LENGTH__+0x48>
     844:	0c 94 67 10 	jmp	0x20ce	; 0x20ce <__stack+0x17cf>
     848:	80 91 b8 01 	lds	r24, 0x01B8	; 0x8001b8 <cont_aa>
     84c:	90 91 b9 01 	lds	r25, 0x01B9	; 0x8001b9 <cont_aa+0x1>
     850:	fc 01       	movw	r30, r24
     852:	ee 0f       	add	r30, r30
     854:	ff 1f       	adc	r31, r31
     856:	e1 5e       	subi	r30, 0xE1	; 225
     858:	fe 4f       	sbci	r31, 0xFE	; 254
     85a:	22 e0       	ldi	r18, 0x02	; 2
     85c:	30 e0       	ldi	r19, 0x00	; 0
     85e:	31 83       	std	Z+1, r19	; 0x01
     860:	20 83       	st	Z, r18
     862:	01 96       	adiw	r24, 0x01	; 1
     864:	90 93 b9 01 	sts	0x01B9, r25	; 0x8001b9 <cont_aa+0x1>
     868:	80 93 b8 01 	sts	0x01B8, r24	; 0x8001b8 <cont_aa>
     86c:	0c 94 67 10 	jmp	0x20ce	; 0x20ce <__stack+0x17cf>
     870:	80 3d       	cpi	r24, 0xD0	; 208
     872:	91 05       	cpc	r25, r1
     874:	09 f0       	breq	.+2      	; 0x878 <__DATA_REGION_LENGTH__+0x78>
     876:	9d c1       	rjmp	.+826    	; 0xbb2 <__stack+0x2b3>
     878:	91 e0       	ldi	r25, 0x01	; 1
     87a:	80 91 d8 01 	lds	r24, 0x01D8	; 0x8001d8 <state>
     87e:	88 30       	cpi	r24, 0x08	; 8
     880:	09 f0       	breq	.+2      	; 0x884 <__DATA_REGION_LENGTH__+0x84>
     882:	90 e0       	ldi	r25, 0x00	; 0
     884:	81 e0       	ldi	r24, 0x01	; 1
     886:	20 91 d4 01 	lds	r18, 0x01D4	; 0x8001d4 <count_senha>
     88a:	30 91 d5 01 	lds	r19, 0x01D5	; 0x8001d5 <count_senha+0x1>
     88e:	24 30       	cpi	r18, 0x04	; 4
     890:	31 05       	cpc	r19, r1
     892:	0c f0       	brlt	.+2      	; 0x896 <__DATA_REGION_LENGTH__+0x96>
     894:	80 e0       	ldi	r24, 0x00	; 0
     896:	89 23       	and	r24, r25
     898:	a9 f0       	breq	.+42     	; 0x8c4 <__DATA_REGION_LENGTH__+0xc4>
     89a:	83 e3       	ldi	r24, 0x33	; 51
     89c:	0e 94 91 19 	call	0x3322	; 0x3322 <send_word_lcd>
     8a0:	4a e3       	ldi	r20, 0x3A	; 58
     8a2:	52 e0       	ldi	r21, 0x02	; 2
     8a4:	60 e0       	ldi	r22, 0x00	; 0
     8a6:	80 91 d4 01 	lds	r24, 0x01D4	; 0x8001d4 <count_senha>
     8aa:	90 91 d5 01 	lds	r25, 0x01D5	; 0x8001d5 <count_senha+0x1>
     8ae:	0e 94 1e 1b 	call	0x363c	; 0x363c <insert_senha>
     8b2:	80 91 d4 01 	lds	r24, 0x01D4	; 0x8001d4 <count_senha>
     8b6:	90 91 d5 01 	lds	r25, 0x01D5	; 0x8001d5 <count_senha+0x1>
     8ba:	01 96       	adiw	r24, 0x01	; 1
     8bc:	90 93 d5 01 	sts	0x01D5, r25	; 0x8001d5 <count_senha+0x1>
     8c0:	80 93 d4 01 	sts	0x01D4, r24	; 0x8001d4 <count_senha>
     8c4:	91 e0       	ldi	r25, 0x01	; 1
     8c6:	80 91 d8 01 	lds	r24, 0x01D8	; 0x8001d8 <state>
     8ca:	89 30       	cpi	r24, 0x09	; 9
     8cc:	09 f0       	breq	.+2      	; 0x8d0 <__DATA_REGION_LENGTH__+0xd0>
     8ce:	90 e0       	ldi	r25, 0x00	; 0
     8d0:	81 e0       	ldi	r24, 0x01	; 1
     8d2:	20 91 d4 01 	lds	r18, 0x01D4	; 0x8001d4 <count_senha>
     8d6:	30 91 d5 01 	lds	r19, 0x01D5	; 0x8001d5 <count_senha+0x1>
     8da:	24 30       	cpi	r18, 0x04	; 4
     8dc:	31 05       	cpc	r19, r1
     8de:	0c f0       	brlt	.+2      	; 0x8e2 <__DATA_REGION_LENGTH__+0xe2>
     8e0:	80 e0       	ldi	r24, 0x00	; 0
     8e2:	89 23       	and	r24, r25
     8e4:	a9 f0       	breq	.+42     	; 0x910 <__stack+0x11>
     8e6:	83 e3       	ldi	r24, 0x33	; 51
     8e8:	0e 94 91 19 	call	0x3322	; 0x3322 <send_word_lcd>
     8ec:	4a e3       	ldi	r20, 0x3A	; 58
     8ee:	52 e0       	ldi	r21, 0x02	; 2
     8f0:	60 e0       	ldi	r22, 0x00	; 0
     8f2:	80 91 d4 01 	lds	r24, 0x01D4	; 0x8001d4 <count_senha>
     8f6:	90 91 d5 01 	lds	r25, 0x01D5	; 0x8001d5 <count_senha+0x1>
     8fa:	0e 94 f3 18 	call	0x31e6	; 0x31e6 <senha_arm>
     8fe:	80 91 d4 01 	lds	r24, 0x01D4	; 0x8001d4 <count_senha>
     902:	90 91 d5 01 	lds	r25, 0x01D5	; 0x8001d5 <count_senha+0x1>
     906:	01 96       	adiw	r24, 0x01	; 1
     908:	90 93 d5 01 	sts	0x01D5, r25	; 0x8001d5 <count_senha+0x1>
     90c:	80 93 d4 01 	sts	0x01D4, r24	; 0x8001d4 <count_senha>
     910:	91 e0       	ldi	r25, 0x01	; 1
     912:	80 91 d8 01 	lds	r24, 0x01D8	; 0x8001d8 <state>
     916:	8a 30       	cpi	r24, 0x0A	; 10
     918:	09 f0       	breq	.+2      	; 0x91c <__stack+0x1d>
     91a:	90 e0       	ldi	r25, 0x00	; 0
     91c:	81 e0       	ldi	r24, 0x01	; 1
     91e:	20 91 d4 01 	lds	r18, 0x01D4	; 0x8001d4 <count_senha>
     922:	30 91 d5 01 	lds	r19, 0x01D5	; 0x8001d5 <count_senha+0x1>
     926:	24 30       	cpi	r18, 0x04	; 4
     928:	31 05       	cpc	r19, r1
     92a:	0c f0       	brlt	.+2      	; 0x92e <__stack+0x2f>
     92c:	80 e0       	ldi	r24, 0x00	; 0
     92e:	89 23       	and	r24, r25
     930:	a9 f0       	breq	.+42     	; 0x95c <__stack+0x5d>
     932:	83 e3       	ldi	r24, 0x33	; 51
     934:	0e 94 91 19 	call	0x3322	; 0x3322 <send_word_lcd>
     938:	4a e3       	ldi	r20, 0x3A	; 58
     93a:	52 e0       	ldi	r21, 0x02	; 2
     93c:	60 e0       	ldi	r22, 0x00	; 0
     93e:	80 91 d4 01 	lds	r24, 0x01D4	; 0x8001d4 <count_senha>
     942:	90 91 d5 01 	lds	r25, 0x01D5	; 0x8001d5 <count_senha+0x1>
     946:	0e 94 1e 1b 	call	0x363c	; 0x363c <insert_senha>
     94a:	80 91 d4 01 	lds	r24, 0x01D4	; 0x8001d4 <count_senha>
     94e:	90 91 d5 01 	lds	r25, 0x01D5	; 0x8001d5 <count_senha+0x1>
     952:	01 96       	adiw	r24, 0x01	; 1
     954:	90 93 d5 01 	sts	0x01D5, r25	; 0x8001d5 <count_senha+0x1>
     958:	80 93 d4 01 	sts	0x01D4, r24	; 0x8001d4 <count_senha>
     95c:	91 e0       	ldi	r25, 0x01	; 1
     95e:	80 91 d8 01 	lds	r24, 0x01D8	; 0x8001d8 <state>
     962:	8b 30       	cpi	r24, 0x0B	; 11
     964:	09 f0       	breq	.+2      	; 0x968 <__stack+0x69>
     966:	90 e0       	ldi	r25, 0x00	; 0
     968:	81 e0       	ldi	r24, 0x01	; 1
     96a:	20 91 d4 01 	lds	r18, 0x01D4	; 0x8001d4 <count_senha>
     96e:	30 91 d5 01 	lds	r19, 0x01D5	; 0x8001d5 <count_senha+0x1>
     972:	24 30       	cpi	r18, 0x04	; 4
     974:	31 05       	cpc	r19, r1
     976:	0c f0       	brlt	.+2      	; 0x97a <__stack+0x7b>
     978:	80 e0       	ldi	r24, 0x00	; 0
     97a:	89 23       	and	r24, r25
     97c:	a9 f0       	breq	.+42     	; 0x9a8 <__stack+0xa9>
     97e:	83 e3       	ldi	r24, 0x33	; 51
     980:	0e 94 91 19 	call	0x3322	; 0x3322 <send_word_lcd>
     984:	4a e3       	ldi	r20, 0x3A	; 58
     986:	52 e0       	ldi	r21, 0x02	; 2
     988:	60 e0       	ldi	r22, 0x00	; 0
     98a:	80 91 d4 01 	lds	r24, 0x01D4	; 0x8001d4 <count_senha>
     98e:	90 91 d5 01 	lds	r25, 0x01D5	; 0x8001d5 <count_senha+0x1>
     992:	0e 94 1e 1b 	call	0x363c	; 0x363c <insert_senha>
     996:	80 91 d4 01 	lds	r24, 0x01D4	; 0x8001d4 <count_senha>
     99a:	90 91 d5 01 	lds	r25, 0x01D5	; 0x8001d5 <count_senha+0x1>
     99e:	01 96       	adiw	r24, 0x01	; 1
     9a0:	90 93 d5 01 	sts	0x01D5, r25	; 0x8001d5 <count_senha+0x1>
     9a4:	80 93 d4 01 	sts	0x01D4, r24	; 0x8001d4 <count_senha>
     9a8:	91 e0       	ldi	r25, 0x01	; 1
     9aa:	80 91 d8 01 	lds	r24, 0x01D8	; 0x8001d8 <state>
     9ae:	87 30       	cpi	r24, 0x07	; 7
     9b0:	09 f0       	breq	.+2      	; 0x9b4 <__stack+0xb5>
     9b2:	90 e0       	ldi	r25, 0x00	; 0
     9b4:	21 e0       	ldi	r18, 0x01	; 1
     9b6:	40 91 d6 01 	lds	r20, 0x01D6	; 0x8001d6 <flag_a_senha>
     9ba:	50 91 d7 01 	lds	r21, 0x01D7	; 0x8001d7 <flag_a_senha+0x1>
     9be:	45 2b       	or	r20, r21
     9c0:	09 f0       	breq	.+2      	; 0x9c4 <__stack+0xc5>
     9c2:	20 e0       	ldi	r18, 0x00	; 0
     9c4:	81 e0       	ldi	r24, 0x01	; 1
     9c6:	40 91 c0 01 	lds	r20, 0x01C0	; 0x8001c0 <flag_timeout>
     9ca:	50 91 c1 01 	lds	r21, 0x01C1	; 0x8001c1 <flag_timeout+0x1>
     9ce:	45 2b       	or	r20, r21
     9d0:	09 f0       	breq	.+2      	; 0x9d4 <__stack+0xd5>
     9d2:	80 e0       	ldi	r24, 0x00	; 0
     9d4:	82 23       	and	r24, r18
     9d6:	99 23       	and	r25, r25
     9d8:	a9 f0       	breq	.+42     	; 0xa04 <__stack+0x105>
     9da:	88 23       	and	r24, r24
     9dc:	99 f0       	breq	.+38     	; 0xa04 <__stack+0x105>
     9de:	8f e0       	ldi	r24, 0x0F	; 15
     9e0:	80 93 d8 01 	sts	0x01D8, r24	; 0x8001d8 <state>
     9e4:	80 91 cc 01 	lds	r24, 0x01CC	; 0x8001cc <flag_D_sensor>
     9e8:	90 91 cd 01 	lds	r25, 0x01CD	; 0x8001cd <flag_D_sensor+0x1>
     9ec:	89 2b       	or	r24, r25
     9ee:	11 f4       	brne	.+4      	; 0x9f4 <__stack+0xf5>
     9f0:	0e 94 43 16 	call	0x2c86	; 0x2c86 <msg_h_sensores>
     9f4:	80 91 cc 01 	lds	r24, 0x01CC	; 0x8001cc <flag_D_sensor>
     9f8:	90 91 cd 01 	lds	r25, 0x01CD	; 0x8001cd <flag_D_sensor+0x1>
     9fc:	01 97       	sbiw	r24, 0x01	; 1
     9fe:	11 f4       	brne	.+4      	; 0xa04 <__stack+0x105>
     a00:	0e 94 76 16 	call	0x2cec	; 0x2cec <msg_d_sensores>
     a04:	91 e0       	ldi	r25, 0x01	; 1
     a06:	80 91 d8 01 	lds	r24, 0x01D8	; 0x8001d8 <state>
     a0a:	87 30       	cpi	r24, 0x07	; 7
     a0c:	09 f0       	breq	.+2      	; 0xa10 <__stack+0x111>
     a0e:	90 e0       	ldi	r25, 0x00	; 0
     a10:	81 e0       	ldi	r24, 0x01	; 1
     a12:	20 91 d6 01 	lds	r18, 0x01D6	; 0x8001d6 <flag_a_senha>
     a16:	30 91 d7 01 	lds	r19, 0x01D7	; 0x8001d7 <flag_a_senha+0x1>
     a1a:	21 30       	cpi	r18, 0x01	; 1
     a1c:	31 05       	cpc	r19, r1
     a1e:	09 f0       	breq	.+2      	; 0xa22 <__stack+0x123>
     a20:	80 e0       	ldi	r24, 0x00	; 0
     a22:	89 23       	and	r24, r25
     a24:	79 f0       	breq	.+30     	; 0xa44 <__stack+0x145>
     a26:	89 e0       	ldi	r24, 0x09	; 9
     a28:	80 93 d8 01 	sts	0x01D8, r24	; 0x8001d8 <state>
     a2c:	0e 94 6a 19 	call	0x32d4	; 0x32d4 <msg_altera_senha>
     a30:	83 e0       	ldi	r24, 0x03	; 3
     a32:	90 e0       	ldi	r25, 0x00	; 0
     a34:	90 93 26 01 	sts	0x0126, r25	; 0x800126 <addr_senha+0x1>
     a38:	80 93 25 01 	sts	0x0125, r24	; 0x800125 <addr_senha>
     a3c:	10 92 d7 01 	sts	0x01D7, r1	; 0x8001d7 <flag_a_senha+0x1>
     a40:	10 92 d6 01 	sts	0x01D6, r1	; 0x8001d6 <flag_a_senha>
     a44:	91 e0       	ldi	r25, 0x01	; 1
     a46:	80 91 d8 01 	lds	r24, 0x01D8	; 0x8001d8 <state>
     a4a:	8f 30       	cpi	r24, 0x0F	; 15
     a4c:	09 f0       	breq	.+2      	; 0xa50 <__stack+0x151>
     a4e:	90 e0       	ldi	r25, 0x00	; 0
     a50:	81 e0       	ldi	r24, 0x01	; 1
     a52:	20 91 ce 01 	lds	r18, 0x01CE	; 0x8001ce <flag_sensor>
     a56:	30 91 cf 01 	lds	r19, 0x01CF	; 0x8001cf <flag_sensor+0x1>
     a5a:	23 2b       	or	r18, r19
     a5c:	09 f0       	breq	.+2      	; 0xa60 <__stack+0x161>
     a5e:	80 e0       	ldi	r24, 0x00	; 0
     a60:	89 23       	and	r24, r25
     a62:	21 f0       	breq	.+8      	; 0xa6c <__stack+0x16d>
     a64:	83 e0       	ldi	r24, 0x03	; 3
     a66:	90 e0       	ldi	r25, 0x00	; 0
     a68:	0e 94 c9 13 	call	0x2792	; 0x2792 <hab_sensor>
     a6c:	91 e0       	ldi	r25, 0x01	; 1
     a6e:	80 91 d8 01 	lds	r24, 0x01D8	; 0x8001d8 <state>
     a72:	80 31       	cpi	r24, 0x10	; 16
     a74:	09 f0       	breq	.+2      	; 0xa78 <__stack+0x179>
     a76:	90 e0       	ldi	r25, 0x00	; 0
     a78:	81 e0       	ldi	r24, 0x01	; 1
     a7a:	20 91 ce 01 	lds	r18, 0x01CE	; 0x8001ce <flag_sensor>
     a7e:	30 91 cf 01 	lds	r19, 0x01CF	; 0x8001cf <flag_sensor+0x1>
     a82:	23 2b       	or	r18, r19
     a84:	09 f0       	breq	.+2      	; 0xa88 <__stack+0x189>
     a86:	80 e0       	ldi	r24, 0x00	; 0
     a88:	89 23       	and	r24, r25
     a8a:	21 f0       	breq	.+8      	; 0xa94 <__stack+0x195>
     a8c:	83 e0       	ldi	r24, 0x03	; 3
     a8e:	90 e0       	ldi	r25, 0x00	; 0
     a90:	0e 94 7d 15 	call	0x2afa	; 0x2afa <hab_zonas>
     a94:	90 91 d8 01 	lds	r25, 0x01D8	; 0x8001d8 <state>
     a98:	21 e0       	ldi	r18, 0x01	; 1
     a9a:	40 91 c6 01 	lds	r20, 0x01C6	; 0x8001c6 <flag_z1>
     a9e:	50 91 c7 01 	lds	r21, 0x01C7	; 0x8001c7 <flag_z1+0x1>
     aa2:	45 2b       	or	r20, r21
     aa4:	09 f0       	breq	.+2      	; 0xaa8 <__stack+0x1a9>
     aa6:	20 e0       	ldi	r18, 0x00	; 0
     aa8:	81 e0       	ldi	r24, 0x01	; 1
     aaa:	91 31       	cpi	r25, 0x11	; 17
     aac:	09 f0       	breq	.+2      	; 0xab0 <__stack+0x1b1>
     aae:	80 e0       	ldi	r24, 0x00	; 0
     ab0:	82 23       	and	r24, r18
     ab2:	19 f1       	breq	.+70     	; 0xafa <__stack+0x1fb>
     ab4:	20 91 c8 01 	lds	r18, 0x01C8	; 0x8001c8 <flag_z>
     ab8:	30 91 c9 01 	lds	r19, 0x01C9	; 0x8001c9 <flag_z+0x1>
     abc:	21 15       	cp	r18, r1
     abe:	31 05       	cpc	r19, r1
     ac0:	69 f4       	brne	.+26     	; 0xadc <__stack+0x1dd>
     ac2:	23 e0       	ldi	r18, 0x03	; 3
     ac4:	30 e0       	ldi	r19, 0x00	; 0
     ac6:	30 93 01 01 	sts	0x0101, r19	; 0x800101 <__DATA_REGION_ORIGIN__+0x1>
     aca:	20 93 00 01 	sts	0x0100, r18	; 0x800100 <__DATA_REGION_ORIGIN__>
     ace:	21 e0       	ldi	r18, 0x01	; 1
     ad0:	30 e0       	ldi	r19, 0x00	; 0
     ad2:	30 93 c9 01 	sts	0x01C9, r19	; 0x8001c9 <flag_z+0x1>
     ad6:	20 93 c8 01 	sts	0x01C8, r18	; 0x8001c8 <flag_z>
     ada:	0f c0       	rjmp	.+30     	; 0xafa <__stack+0x1fb>
     adc:	21 30       	cpi	r18, 0x01	; 1
     ade:	31 05       	cpc	r19, r1
     ae0:	61 f4       	brne	.+24     	; 0xafa <__stack+0x1fb>
     ae2:	23 e0       	ldi	r18, 0x03	; 3
     ae4:	30 e0       	ldi	r19, 0x00	; 0
     ae6:	30 93 05 01 	sts	0x0105, r19	; 0x800105 <idzona+0x1>
     aea:	20 93 04 01 	sts	0x0104, r18	; 0x800104 <idzona>
     aee:	21 e0       	ldi	r18, 0x01	; 1
     af0:	30 e0       	ldi	r19, 0x00	; 0
     af2:	30 93 c7 01 	sts	0x01C7, r19	; 0x8001c7 <flag_z1+0x1>
     af6:	20 93 c6 01 	sts	0x01C6, r18	; 0x8001c6 <flag_z1>
     afa:	20 91 ba 01 	lds	r18, 0x01BA	; 0x8001ba <cont_t>
     afe:	30 91 bb 01 	lds	r19, 0x01BB	; 0x8001bb <cont_t+0x1>
     b02:	41 e0       	ldi	r20, 0x01	; 1
     b04:	93 31       	cpi	r25, 0x13	; 19
     b06:	09 f0       	breq	.+2      	; 0xb0a <__stack+0x20b>
     b08:	40 e0       	ldi	r20, 0x00	; 0
     b0a:	81 e0       	ldi	r24, 0x01	; 1
     b0c:	22 30       	cpi	r18, 0x02	; 2
     b0e:	31 05       	cpc	r19, r1
     b10:	0c f0       	brlt	.+2      	; 0xb14 <__stack+0x215>
     b12:	80 e0       	ldi	r24, 0x00	; 0
     b14:	84 23       	and	r24, r20
     b16:	79 f0       	breq	.+30     	; 0xb36 <__stack+0x237>
     b18:	f9 01       	movw	r30, r18
     b1a:	ee 0f       	add	r30, r30
     b1c:	ff 1f       	adc	r31, r31
     b1e:	e6 5f       	subi	r30, 0xF6	; 246
     b20:	fe 4f       	sbci	r31, 0xFE	; 254
     b22:	43 e0       	ldi	r20, 0x03	; 3
     b24:	50 e0       	ldi	r21, 0x00	; 0
     b26:	51 83       	std	Z+1, r21	; 0x01
     b28:	40 83       	st	Z, r20
     b2a:	2f 5f       	subi	r18, 0xFF	; 255
     b2c:	3f 4f       	sbci	r19, 0xFF	; 255
     b2e:	30 93 bb 01 	sts	0x01BB, r19	; 0x8001bb <cont_t+0x1>
     b32:	20 93 ba 01 	sts	0x01BA, r18	; 0x8001ba <cont_t>
     b36:	81 e0       	ldi	r24, 0x01	; 1
     b38:	20 91 ba 01 	lds	r18, 0x01BA	; 0x8001ba <cont_t>
     b3c:	30 91 bb 01 	lds	r19, 0x01BB	; 0x8001bb <cont_t+0x1>
     b40:	23 30       	cpi	r18, 0x03	; 3
     b42:	31 05       	cpc	r19, r1
     b44:	0c f0       	brlt	.+2      	; 0xb48 <__stack+0x249>
     b46:	80 e0       	ldi	r24, 0x00	; 0
     b48:	21 e0       	ldi	r18, 0x01	; 1
     b4a:	94 31       	cpi	r25, 0x14	; 20
     b4c:	09 f0       	breq	.+2      	; 0xb50 <__stack+0x251>
     b4e:	20 e0       	ldi	r18, 0x00	; 0
     b50:	28 23       	and	r18, r24
     b52:	99 f0       	breq	.+38     	; 0xb7a <__stack+0x27b>
     b54:	20 91 b6 01 	lds	r18, 0x01B6	; 0x8001b6 <cont_s>
     b58:	30 91 b7 01 	lds	r19, 0x01B7	; 0x8001b7 <cont_s+0x1>
     b5c:	f9 01       	movw	r30, r18
     b5e:	ee 0f       	add	r30, r30
     b60:	ff 1f       	adc	r31, r31
     b62:	e9 5d       	subi	r30, 0xD9	; 217
     b64:	fe 4f       	sbci	r31, 0xFE	; 254
     b66:	43 e0       	ldi	r20, 0x03	; 3
     b68:	50 e0       	ldi	r21, 0x00	; 0
     b6a:	51 83       	std	Z+1, r21	; 0x01
     b6c:	40 83       	st	Z, r20
     b6e:	2f 5f       	subi	r18, 0xFF	; 255
     b70:	3f 4f       	sbci	r19, 0xFF	; 255
     b72:	30 93 b7 01 	sts	0x01B7, r19	; 0x8001b7 <cont_s+0x1>
     b76:	20 93 b6 01 	sts	0x01B6, r18	; 0x8001b6 <cont_s>
     b7a:	21 e0       	ldi	r18, 0x01	; 1
     b7c:	92 31       	cpi	r25, 0x12	; 18
     b7e:	09 f0       	breq	.+2      	; 0xb82 <__stack+0x283>
     b80:	20 e0       	ldi	r18, 0x00	; 0
     b82:	82 23       	and	r24, r18
     b84:	11 f4       	brne	.+4      	; 0xb8a <__stack+0x28b>
     b86:	0c 94 67 10 	jmp	0x20ce	; 0x20ce <__stack+0x17cf>
     b8a:	80 91 b8 01 	lds	r24, 0x01B8	; 0x8001b8 <cont_aa>
     b8e:	90 91 b9 01 	lds	r25, 0x01B9	; 0x8001b9 <cont_aa+0x1>
     b92:	fc 01       	movw	r30, r24
     b94:	ee 0f       	add	r30, r30
     b96:	ff 1f       	adc	r31, r31
     b98:	e1 5e       	subi	r30, 0xE1	; 225
     b9a:	fe 4f       	sbci	r31, 0xFE	; 254
     b9c:	23 e0       	ldi	r18, 0x03	; 3
     b9e:	30 e0       	ldi	r19, 0x00	; 0
     ba0:	31 83       	std	Z+1, r19	; 0x01
     ba2:	20 83       	st	Z, r18
     ba4:	01 96       	adiw	r24, 0x01	; 1
     ba6:	90 93 b9 01 	sts	0x01B9, r25	; 0x8001b9 <cont_aa+0x1>
     baa:	80 93 b8 01 	sts	0x01B8, r24	; 0x8001b8 <cont_aa>
     bae:	0c 94 67 10 	jmp	0x20ce	; 0x20ce <__stack+0x17cf>
     bb2:	80 3c       	cpi	r24, 0xC0	; 192
     bb4:	91 05       	cpc	r25, r1
     bb6:	79 f4       	brne	.+30     	; 0xbd6 <__stack+0x2d7>
     bb8:	80 91 d8 01 	lds	r24, 0x01D8	; 0x8001d8 <state>
     bbc:	81 30       	cpi	r24, 0x01	; 1
     bbe:	11 f0       	breq	.+4      	; 0xbc4 <__stack+0x2c5>
     bc0:	0c 94 67 10 	jmp	0x20ce	; 0x20ce <__stack+0x17cf>
     bc4:	88 e0       	ldi	r24, 0x08	; 8
     bc6:	80 93 d8 01 	sts	0x01D8, r24	; 0x8001d8 <state>
     bca:	0e 94 43 19 	call	0x3286	; 0x3286 <msg_inserir_senha>
     bce:	0e 94 4a 1b 	call	0x3694	; 0x3694 <StartTimer1>
     bd2:	0c 94 67 10 	jmp	0x20ce	; 0x20ce <__stack+0x17cf>
     bd6:	80 3b       	cpi	r24, 0xB0	; 176
     bd8:	91 05       	cpc	r25, r1
     bda:	09 f0       	breq	.+2      	; 0xbde <__stack+0x2df>
     bdc:	5d c1       	rjmp	.+698    	; 0xe98 <__stack+0x599>
     bde:	91 e0       	ldi	r25, 0x01	; 1
     be0:	80 91 d8 01 	lds	r24, 0x01D8	; 0x8001d8 <state>
     be4:	88 30       	cpi	r24, 0x08	; 8
     be6:	09 f0       	breq	.+2      	; 0xbea <__stack+0x2eb>
     be8:	90 e0       	ldi	r25, 0x00	; 0
     bea:	81 e0       	ldi	r24, 0x01	; 1
     bec:	20 91 d4 01 	lds	r18, 0x01D4	; 0x8001d4 <count_senha>
     bf0:	30 91 d5 01 	lds	r19, 0x01D5	; 0x8001d5 <count_senha+0x1>
     bf4:	24 30       	cpi	r18, 0x04	; 4
     bf6:	31 05       	cpc	r19, r1
     bf8:	0c f0       	brlt	.+2      	; 0xbfc <__stack+0x2fd>
     bfa:	80 e0       	ldi	r24, 0x00	; 0
     bfc:	89 23       	and	r24, r25
     bfe:	a9 f0       	breq	.+42     	; 0xc2a <__stack+0x32b>
     c00:	84 e3       	ldi	r24, 0x34	; 52
     c02:	0e 94 91 19 	call	0x3322	; 0x3322 <send_word_lcd>
     c06:	4c e3       	ldi	r20, 0x3C	; 60
     c08:	52 e0       	ldi	r21, 0x02	; 2
     c0a:	60 e0       	ldi	r22, 0x00	; 0
     c0c:	80 91 d4 01 	lds	r24, 0x01D4	; 0x8001d4 <count_senha>
     c10:	90 91 d5 01 	lds	r25, 0x01D5	; 0x8001d5 <count_senha+0x1>
     c14:	0e 94 1e 1b 	call	0x363c	; 0x363c <insert_senha>
     c18:	80 91 d4 01 	lds	r24, 0x01D4	; 0x8001d4 <count_senha>
     c1c:	90 91 d5 01 	lds	r25, 0x01D5	; 0x8001d5 <count_senha+0x1>
     c20:	01 96       	adiw	r24, 0x01	; 1
     c22:	90 93 d5 01 	sts	0x01D5, r25	; 0x8001d5 <count_senha+0x1>
     c26:	80 93 d4 01 	sts	0x01D4, r24	; 0x8001d4 <count_senha>
     c2a:	91 e0       	ldi	r25, 0x01	; 1
     c2c:	80 91 d8 01 	lds	r24, 0x01D8	; 0x8001d8 <state>
     c30:	89 30       	cpi	r24, 0x09	; 9
     c32:	09 f0       	breq	.+2      	; 0xc36 <__stack+0x337>
     c34:	90 e0       	ldi	r25, 0x00	; 0
     c36:	81 e0       	ldi	r24, 0x01	; 1
     c38:	20 91 d4 01 	lds	r18, 0x01D4	; 0x8001d4 <count_senha>
     c3c:	30 91 d5 01 	lds	r19, 0x01D5	; 0x8001d5 <count_senha+0x1>
     c40:	24 30       	cpi	r18, 0x04	; 4
     c42:	31 05       	cpc	r19, r1
     c44:	0c f0       	brlt	.+2      	; 0xc48 <__stack+0x349>
     c46:	80 e0       	ldi	r24, 0x00	; 0
     c48:	89 23       	and	r24, r25
     c4a:	a9 f0       	breq	.+42     	; 0xc76 <__stack+0x377>
     c4c:	84 e3       	ldi	r24, 0x34	; 52
     c4e:	0e 94 91 19 	call	0x3322	; 0x3322 <send_word_lcd>
     c52:	4c e3       	ldi	r20, 0x3C	; 60
     c54:	52 e0       	ldi	r21, 0x02	; 2
     c56:	60 e0       	ldi	r22, 0x00	; 0
     c58:	80 91 d4 01 	lds	r24, 0x01D4	; 0x8001d4 <count_senha>
     c5c:	90 91 d5 01 	lds	r25, 0x01D5	; 0x8001d5 <count_senha+0x1>
     c60:	0e 94 f3 18 	call	0x31e6	; 0x31e6 <senha_arm>
     c64:	80 91 d4 01 	lds	r24, 0x01D4	; 0x8001d4 <count_senha>
     c68:	90 91 d5 01 	lds	r25, 0x01D5	; 0x8001d5 <count_senha+0x1>
     c6c:	01 96       	adiw	r24, 0x01	; 1
     c6e:	90 93 d5 01 	sts	0x01D5, r25	; 0x8001d5 <count_senha+0x1>
     c72:	80 93 d4 01 	sts	0x01D4, r24	; 0x8001d4 <count_senha>
     c76:	91 e0       	ldi	r25, 0x01	; 1
     c78:	80 91 d8 01 	lds	r24, 0x01D8	; 0x8001d8 <state>
     c7c:	8a 30       	cpi	r24, 0x0A	; 10
     c7e:	09 f0       	breq	.+2      	; 0xc82 <__stack+0x383>
     c80:	90 e0       	ldi	r25, 0x00	; 0
     c82:	81 e0       	ldi	r24, 0x01	; 1
     c84:	20 91 d4 01 	lds	r18, 0x01D4	; 0x8001d4 <count_senha>
     c88:	30 91 d5 01 	lds	r19, 0x01D5	; 0x8001d5 <count_senha+0x1>
     c8c:	24 30       	cpi	r18, 0x04	; 4
     c8e:	31 05       	cpc	r19, r1
     c90:	0c f0       	brlt	.+2      	; 0xc94 <__stack+0x395>
     c92:	80 e0       	ldi	r24, 0x00	; 0
     c94:	89 23       	and	r24, r25
     c96:	a9 f0       	breq	.+42     	; 0xcc2 <__stack+0x3c3>
     c98:	84 e3       	ldi	r24, 0x34	; 52
     c9a:	0e 94 91 19 	call	0x3322	; 0x3322 <send_word_lcd>
     c9e:	4c e3       	ldi	r20, 0x3C	; 60
     ca0:	52 e0       	ldi	r21, 0x02	; 2
     ca2:	60 e0       	ldi	r22, 0x00	; 0
     ca4:	80 91 d4 01 	lds	r24, 0x01D4	; 0x8001d4 <count_senha>
     ca8:	90 91 d5 01 	lds	r25, 0x01D5	; 0x8001d5 <count_senha+0x1>
     cac:	0e 94 1e 1b 	call	0x363c	; 0x363c <insert_senha>
     cb0:	80 91 d4 01 	lds	r24, 0x01D4	; 0x8001d4 <count_senha>
     cb4:	90 91 d5 01 	lds	r25, 0x01D5	; 0x8001d5 <count_senha+0x1>
     cb8:	01 96       	adiw	r24, 0x01	; 1
     cba:	90 93 d5 01 	sts	0x01D5, r25	; 0x8001d5 <count_senha+0x1>
     cbe:	80 93 d4 01 	sts	0x01D4, r24	; 0x8001d4 <count_senha>
     cc2:	91 e0       	ldi	r25, 0x01	; 1
     cc4:	80 91 d8 01 	lds	r24, 0x01D8	; 0x8001d8 <state>
     cc8:	8b 30       	cpi	r24, 0x0B	; 11
     cca:	09 f0       	breq	.+2      	; 0xcce <__stack+0x3cf>
     ccc:	90 e0       	ldi	r25, 0x00	; 0
     cce:	81 e0       	ldi	r24, 0x01	; 1
     cd0:	20 91 d4 01 	lds	r18, 0x01D4	; 0x8001d4 <count_senha>
     cd4:	30 91 d5 01 	lds	r19, 0x01D5	; 0x8001d5 <count_senha+0x1>
     cd8:	24 30       	cpi	r18, 0x04	; 4
     cda:	31 05       	cpc	r19, r1
     cdc:	0c f0       	brlt	.+2      	; 0xce0 <__stack+0x3e1>
     cde:	80 e0       	ldi	r24, 0x00	; 0
     ce0:	89 23       	and	r24, r25
     ce2:	a9 f0       	breq	.+42     	; 0xd0e <__stack+0x40f>
     ce4:	84 e3       	ldi	r24, 0x34	; 52
     ce6:	0e 94 91 19 	call	0x3322	; 0x3322 <send_word_lcd>
     cea:	4c e3       	ldi	r20, 0x3C	; 60
     cec:	52 e0       	ldi	r21, 0x02	; 2
     cee:	60 e0       	ldi	r22, 0x00	; 0
     cf0:	80 91 d4 01 	lds	r24, 0x01D4	; 0x8001d4 <count_senha>
     cf4:	90 91 d5 01 	lds	r25, 0x01D5	; 0x8001d5 <count_senha+0x1>
     cf8:	0e 94 1e 1b 	call	0x363c	; 0x363c <insert_senha>
     cfc:	80 91 d4 01 	lds	r24, 0x01D4	; 0x8001d4 <count_senha>
     d00:	90 91 d5 01 	lds	r25, 0x01D5	; 0x8001d5 <count_senha+0x1>
     d04:	01 96       	adiw	r24, 0x01	; 1
     d06:	90 93 d5 01 	sts	0x01D5, r25	; 0x8001d5 <count_senha+0x1>
     d0a:	80 93 d4 01 	sts	0x01D4, r24	; 0x8001d4 <count_senha>
     d0e:	91 e0       	ldi	r25, 0x01	; 1
     d10:	80 91 d8 01 	lds	r24, 0x01D8	; 0x8001d8 <state>
     d14:	8f 30       	cpi	r24, 0x0F	; 15
     d16:	09 f0       	breq	.+2      	; 0xd1a <__stack+0x41b>
     d18:	90 e0       	ldi	r25, 0x00	; 0
     d1a:	81 e0       	ldi	r24, 0x01	; 1
     d1c:	20 91 ce 01 	lds	r18, 0x01CE	; 0x8001ce <flag_sensor>
     d20:	30 91 cf 01 	lds	r19, 0x01CF	; 0x8001cf <flag_sensor+0x1>
     d24:	23 2b       	or	r18, r19
     d26:	09 f0       	breq	.+2      	; 0xd2a <__stack+0x42b>
     d28:	80 e0       	ldi	r24, 0x00	; 0
     d2a:	89 23       	and	r24, r25
     d2c:	21 f0       	breq	.+8      	; 0xd36 <__stack+0x437>
     d2e:	84 e0       	ldi	r24, 0x04	; 4
     d30:	90 e0       	ldi	r25, 0x00	; 0
     d32:	0e 94 c9 13 	call	0x2792	; 0x2792 <hab_sensor>
     d36:	91 e0       	ldi	r25, 0x01	; 1
     d38:	80 91 d8 01 	lds	r24, 0x01D8	; 0x8001d8 <state>
     d3c:	87 30       	cpi	r24, 0x07	; 7
     d3e:	09 f0       	breq	.+2      	; 0xd42 <__stack+0x443>
     d40:	90 e0       	ldi	r25, 0x00	; 0
     d42:	21 e0       	ldi	r18, 0x01	; 1
     d44:	40 91 d6 01 	lds	r20, 0x01D6	; 0x8001d6 <flag_a_senha>
     d48:	50 91 d7 01 	lds	r21, 0x01D7	; 0x8001d7 <flag_a_senha+0x1>
     d4c:	45 2b       	or	r20, r21
     d4e:	09 f0       	breq	.+2      	; 0xd52 <__stack+0x453>
     d50:	20 e0       	ldi	r18, 0x00	; 0
     d52:	81 e0       	ldi	r24, 0x01	; 1
     d54:	40 91 c0 01 	lds	r20, 0x01C0	; 0x8001c0 <flag_timeout>
     d58:	50 91 c1 01 	lds	r21, 0x01C1	; 0x8001c1 <flag_timeout+0x1>
     d5c:	45 2b       	or	r20, r21
     d5e:	09 f0       	breq	.+2      	; 0xd62 <__stack+0x463>
     d60:	80 e0       	ldi	r24, 0x00	; 0
     d62:	82 23       	and	r24, r18
     d64:	99 23       	and	r25, r25
     d66:	a9 f0       	breq	.+42     	; 0xd92 <__stack+0x493>
     d68:	88 23       	and	r24, r24
     d6a:	99 f0       	breq	.+38     	; 0xd92 <__stack+0x493>
     d6c:	81 e1       	ldi	r24, 0x11	; 17
     d6e:	80 93 d8 01 	sts	0x01D8, r24	; 0x8001d8 <state>
     d72:	80 91 cc 01 	lds	r24, 0x01CC	; 0x8001cc <flag_D_sensor>
     d76:	90 91 cd 01 	lds	r25, 0x01CD	; 0x8001cd <flag_D_sensor+0x1>
     d7a:	89 2b       	or	r24, r25
     d7c:	11 f4       	brne	.+4      	; 0xd82 <__stack+0x483>
     d7e:	0e 94 0f 17 	call	0x2e1e	; 0x2e1e <msg_h_ass>
     d82:	80 91 cc 01 	lds	r24, 0x01CC	; 0x8001cc <flag_D_sensor>
     d86:	90 91 cd 01 	lds	r25, 0x01CD	; 0x8001cd <flag_D_sensor+0x1>
     d8a:	01 97       	sbiw	r24, 0x01	; 1
     d8c:	11 f4       	brne	.+4      	; 0xd92 <__stack+0x493>
     d8e:	0e 94 42 17 	call	0x2e84	; 0x2e84 <msg_d_ass>
     d92:	90 91 d8 01 	lds	r25, 0x01D8	; 0x8001d8 <state>
     d96:	21 e0       	ldi	r18, 0x01	; 1
     d98:	91 31       	cpi	r25, 0x11	; 17
     d9a:	09 f0       	breq	.+2      	; 0xd9e <__stack+0x49f>
     d9c:	20 e0       	ldi	r18, 0x00	; 0
     d9e:	31 e0       	ldi	r19, 0x01	; 1
     da0:	40 91 c6 01 	lds	r20, 0x01C6	; 0x8001c6 <flag_z1>
     da4:	50 91 c7 01 	lds	r21, 0x01C7	; 0x8001c7 <flag_z1+0x1>
     da8:	45 2b       	or	r20, r21
     daa:	09 f0       	breq	.+2      	; 0xdae <__stack+0x4af>
     dac:	30 e0       	ldi	r19, 0x00	; 0
     dae:	81 e0       	ldi	r24, 0x01	; 1
     db0:	40 91 c8 01 	lds	r20, 0x01C8	; 0x8001c8 <flag_z>
     db4:	50 91 c9 01 	lds	r21, 0x01C9	; 0x8001c9 <flag_z+0x1>
     db8:	45 2b       	or	r20, r21
     dba:	09 f0       	breq	.+2      	; 0xdbe <__stack+0x4bf>
     dbc:	80 e0       	ldi	r24, 0x00	; 0
     dbe:	83 23       	and	r24, r19
     dc0:	22 23       	and	r18, r18
     dc2:	71 f0       	breq	.+28     	; 0xde0 <__stack+0x4e1>
     dc4:	88 23       	and	r24, r24
     dc6:	61 f0       	breq	.+24     	; 0xde0 <__stack+0x4e1>
     dc8:	24 e0       	ldi	r18, 0x04	; 4
     dca:	30 e0       	ldi	r19, 0x00	; 0
     dcc:	30 93 01 01 	sts	0x0101, r19	; 0x800101 <__DATA_REGION_ORIGIN__+0x1>
     dd0:	20 93 00 01 	sts	0x0100, r18	; 0x800100 <__DATA_REGION_ORIGIN__>
     dd4:	21 e0       	ldi	r18, 0x01	; 1
     dd6:	30 e0       	ldi	r19, 0x00	; 0
     dd8:	30 93 c7 01 	sts	0x01C7, r19	; 0x8001c7 <flag_z1+0x1>
     ddc:	20 93 c6 01 	sts	0x01C6, r18	; 0x8001c6 <flag_z1>
     de0:	20 91 ba 01 	lds	r18, 0x01BA	; 0x8001ba <cont_t>
     de4:	30 91 bb 01 	lds	r19, 0x01BB	; 0x8001bb <cont_t+0x1>
     de8:	41 e0       	ldi	r20, 0x01	; 1
     dea:	93 31       	cpi	r25, 0x13	; 19
     dec:	09 f0       	breq	.+2      	; 0xdf0 <__stack+0x4f1>
     dee:	40 e0       	ldi	r20, 0x00	; 0
     df0:	81 e0       	ldi	r24, 0x01	; 1
     df2:	22 30       	cpi	r18, 0x02	; 2
     df4:	31 05       	cpc	r19, r1
     df6:	0c f0       	brlt	.+2      	; 0xdfa <__stack+0x4fb>
     df8:	80 e0       	ldi	r24, 0x00	; 0
     dfa:	84 23       	and	r24, r20
     dfc:	79 f0       	breq	.+30     	; 0xe1c <__stack+0x51d>
     dfe:	f9 01       	movw	r30, r18
     e00:	ee 0f       	add	r30, r30
     e02:	ff 1f       	adc	r31, r31
     e04:	e6 5f       	subi	r30, 0xF6	; 246
     e06:	fe 4f       	sbci	r31, 0xFE	; 254
     e08:	44 e0       	ldi	r20, 0x04	; 4
     e0a:	50 e0       	ldi	r21, 0x00	; 0
     e0c:	51 83       	std	Z+1, r21	; 0x01
     e0e:	40 83       	st	Z, r20
     e10:	2f 5f       	subi	r18, 0xFF	; 255
     e12:	3f 4f       	sbci	r19, 0xFF	; 255
     e14:	30 93 bb 01 	sts	0x01BB, r19	; 0x8001bb <cont_t+0x1>
     e18:	20 93 ba 01 	sts	0x01BA, r18	; 0x8001ba <cont_t>
     e1c:	81 e0       	ldi	r24, 0x01	; 1
     e1e:	20 91 ba 01 	lds	r18, 0x01BA	; 0x8001ba <cont_t>
     e22:	30 91 bb 01 	lds	r19, 0x01BB	; 0x8001bb <cont_t+0x1>
     e26:	23 30       	cpi	r18, 0x03	; 3
     e28:	31 05       	cpc	r19, r1
     e2a:	0c f0       	brlt	.+2      	; 0xe2e <__stack+0x52f>
     e2c:	80 e0       	ldi	r24, 0x00	; 0
     e2e:	21 e0       	ldi	r18, 0x01	; 1
     e30:	94 31       	cpi	r25, 0x14	; 20
     e32:	09 f0       	breq	.+2      	; 0xe36 <__stack+0x537>
     e34:	20 e0       	ldi	r18, 0x00	; 0
     e36:	28 23       	and	r18, r24
     e38:	99 f0       	breq	.+38     	; 0xe60 <__stack+0x561>
     e3a:	20 91 b6 01 	lds	r18, 0x01B6	; 0x8001b6 <cont_s>
     e3e:	30 91 b7 01 	lds	r19, 0x01B7	; 0x8001b7 <cont_s+0x1>
     e42:	f9 01       	movw	r30, r18
     e44:	ee 0f       	add	r30, r30
     e46:	ff 1f       	adc	r31, r31
     e48:	e9 5d       	subi	r30, 0xD9	; 217
     e4a:	fe 4f       	sbci	r31, 0xFE	; 254
     e4c:	44 e0       	ldi	r20, 0x04	; 4
     e4e:	50 e0       	ldi	r21, 0x00	; 0
     e50:	51 83       	std	Z+1, r21	; 0x01
     e52:	40 83       	st	Z, r20
     e54:	2f 5f       	subi	r18, 0xFF	; 255
     e56:	3f 4f       	sbci	r19, 0xFF	; 255
     e58:	30 93 b7 01 	sts	0x01B7, r19	; 0x8001b7 <cont_s+0x1>
     e5c:	20 93 b6 01 	sts	0x01B6, r18	; 0x8001b6 <cont_s>
     e60:	21 e0       	ldi	r18, 0x01	; 1
     e62:	92 31       	cpi	r25, 0x12	; 18
     e64:	09 f0       	breq	.+2      	; 0xe68 <__stack+0x569>
     e66:	20 e0       	ldi	r18, 0x00	; 0
     e68:	82 23       	and	r24, r18
     e6a:	11 f4       	brne	.+4      	; 0xe70 <__stack+0x571>
     e6c:	0c 94 67 10 	jmp	0x20ce	; 0x20ce <__stack+0x17cf>
     e70:	80 91 b8 01 	lds	r24, 0x01B8	; 0x8001b8 <cont_aa>
     e74:	90 91 b9 01 	lds	r25, 0x01B9	; 0x8001b9 <cont_aa+0x1>
     e78:	fc 01       	movw	r30, r24
     e7a:	ee 0f       	add	r30, r30
     e7c:	ff 1f       	adc	r31, r31
     e7e:	e1 5e       	subi	r30, 0xE1	; 225
     e80:	fe 4f       	sbci	r31, 0xFE	; 254
     e82:	24 e0       	ldi	r18, 0x04	; 4
     e84:	30 e0       	ldi	r19, 0x00	; 0
     e86:	31 83       	std	Z+1, r19	; 0x01
     e88:	20 83       	st	Z, r18
     e8a:	01 96       	adiw	r24, 0x01	; 1
     e8c:	90 93 b9 01 	sts	0x01B9, r25	; 0x8001b9 <cont_aa+0x1>
     e90:	80 93 b8 01 	sts	0x01B8, r24	; 0x8001b8 <cont_aa>
     e94:	0c 94 67 10 	jmp	0x20ce	; 0x20ce <__stack+0x17cf>
     e98:	80 3a       	cpi	r24, 0xA0	; 160
     e9a:	91 05       	cpc	r25, r1
     e9c:	09 f0       	breq	.+2      	; 0xea0 <__stack+0x5a1>
     e9e:	5c c1       	rjmp	.+696    	; 0x1158 <__stack+0x859>
     ea0:	91 e0       	ldi	r25, 0x01	; 1
     ea2:	80 91 d8 01 	lds	r24, 0x01D8	; 0x8001d8 <state>
     ea6:	88 30       	cpi	r24, 0x08	; 8
     ea8:	09 f0       	breq	.+2      	; 0xeac <__stack+0x5ad>
     eaa:	90 e0       	ldi	r25, 0x00	; 0
     eac:	81 e0       	ldi	r24, 0x01	; 1
     eae:	20 91 d4 01 	lds	r18, 0x01D4	; 0x8001d4 <count_senha>
     eb2:	30 91 d5 01 	lds	r19, 0x01D5	; 0x8001d5 <count_senha+0x1>
     eb6:	24 30       	cpi	r18, 0x04	; 4
     eb8:	31 05       	cpc	r19, r1
     eba:	0c f0       	brlt	.+2      	; 0xebe <__stack+0x5bf>
     ebc:	80 e0       	ldi	r24, 0x00	; 0
     ebe:	89 23       	and	r24, r25
     ec0:	a9 f0       	breq	.+42     	; 0xeec <__stack+0x5ed>
     ec2:	85 e3       	ldi	r24, 0x35	; 53
     ec4:	0e 94 91 19 	call	0x3322	; 0x3322 <send_word_lcd>
     ec8:	4e e3       	ldi	r20, 0x3E	; 62
     eca:	52 e0       	ldi	r21, 0x02	; 2
     ecc:	60 e0       	ldi	r22, 0x00	; 0
     ece:	80 91 d4 01 	lds	r24, 0x01D4	; 0x8001d4 <count_senha>
     ed2:	90 91 d5 01 	lds	r25, 0x01D5	; 0x8001d5 <count_senha+0x1>
     ed6:	0e 94 1e 1b 	call	0x363c	; 0x363c <insert_senha>
     eda:	80 91 d4 01 	lds	r24, 0x01D4	; 0x8001d4 <count_senha>
     ede:	90 91 d5 01 	lds	r25, 0x01D5	; 0x8001d5 <count_senha+0x1>
     ee2:	01 96       	adiw	r24, 0x01	; 1
     ee4:	90 93 d5 01 	sts	0x01D5, r25	; 0x8001d5 <count_senha+0x1>
     ee8:	80 93 d4 01 	sts	0x01D4, r24	; 0x8001d4 <count_senha>
     eec:	91 e0       	ldi	r25, 0x01	; 1
     eee:	80 91 d8 01 	lds	r24, 0x01D8	; 0x8001d8 <state>
     ef2:	89 30       	cpi	r24, 0x09	; 9
     ef4:	09 f0       	breq	.+2      	; 0xef8 <__stack+0x5f9>
     ef6:	90 e0       	ldi	r25, 0x00	; 0
     ef8:	81 e0       	ldi	r24, 0x01	; 1
     efa:	20 91 d4 01 	lds	r18, 0x01D4	; 0x8001d4 <count_senha>
     efe:	30 91 d5 01 	lds	r19, 0x01D5	; 0x8001d5 <count_senha+0x1>
     f02:	24 30       	cpi	r18, 0x04	; 4
     f04:	31 05       	cpc	r19, r1
     f06:	0c f0       	brlt	.+2      	; 0xf0a <__stack+0x60b>
     f08:	80 e0       	ldi	r24, 0x00	; 0
     f0a:	89 23       	and	r24, r25
     f0c:	a9 f0       	breq	.+42     	; 0xf38 <__stack+0x639>
     f0e:	85 e3       	ldi	r24, 0x35	; 53
     f10:	0e 94 91 19 	call	0x3322	; 0x3322 <send_word_lcd>
     f14:	4e e3       	ldi	r20, 0x3E	; 62
     f16:	52 e0       	ldi	r21, 0x02	; 2
     f18:	60 e0       	ldi	r22, 0x00	; 0
     f1a:	80 91 d4 01 	lds	r24, 0x01D4	; 0x8001d4 <count_senha>
     f1e:	90 91 d5 01 	lds	r25, 0x01D5	; 0x8001d5 <count_senha+0x1>
     f22:	0e 94 f3 18 	call	0x31e6	; 0x31e6 <senha_arm>
     f26:	80 91 d4 01 	lds	r24, 0x01D4	; 0x8001d4 <count_senha>
     f2a:	90 91 d5 01 	lds	r25, 0x01D5	; 0x8001d5 <count_senha+0x1>
     f2e:	01 96       	adiw	r24, 0x01	; 1
     f30:	90 93 d5 01 	sts	0x01D5, r25	; 0x8001d5 <count_senha+0x1>
     f34:	80 93 d4 01 	sts	0x01D4, r24	; 0x8001d4 <count_senha>
     f38:	91 e0       	ldi	r25, 0x01	; 1
     f3a:	80 91 d8 01 	lds	r24, 0x01D8	; 0x8001d8 <state>
     f3e:	8a 30       	cpi	r24, 0x0A	; 10
     f40:	09 f0       	breq	.+2      	; 0xf44 <__stack+0x645>
     f42:	90 e0       	ldi	r25, 0x00	; 0
     f44:	81 e0       	ldi	r24, 0x01	; 1
     f46:	20 91 d4 01 	lds	r18, 0x01D4	; 0x8001d4 <count_senha>
     f4a:	30 91 d5 01 	lds	r19, 0x01D5	; 0x8001d5 <count_senha+0x1>
     f4e:	24 30       	cpi	r18, 0x04	; 4
     f50:	31 05       	cpc	r19, r1
     f52:	0c f0       	brlt	.+2      	; 0xf56 <__stack+0x657>
     f54:	80 e0       	ldi	r24, 0x00	; 0
     f56:	89 23       	and	r24, r25
     f58:	a9 f0       	breq	.+42     	; 0xf84 <__stack+0x685>
     f5a:	85 e3       	ldi	r24, 0x35	; 53
     f5c:	0e 94 91 19 	call	0x3322	; 0x3322 <send_word_lcd>
     f60:	4e e3       	ldi	r20, 0x3E	; 62
     f62:	52 e0       	ldi	r21, 0x02	; 2
     f64:	60 e0       	ldi	r22, 0x00	; 0
     f66:	80 91 d4 01 	lds	r24, 0x01D4	; 0x8001d4 <count_senha>
     f6a:	90 91 d5 01 	lds	r25, 0x01D5	; 0x8001d5 <count_senha+0x1>
     f6e:	0e 94 1e 1b 	call	0x363c	; 0x363c <insert_senha>
     f72:	80 91 d4 01 	lds	r24, 0x01D4	; 0x8001d4 <count_senha>
     f76:	90 91 d5 01 	lds	r25, 0x01D5	; 0x8001d5 <count_senha+0x1>
     f7a:	01 96       	adiw	r24, 0x01	; 1
     f7c:	90 93 d5 01 	sts	0x01D5, r25	; 0x8001d5 <count_senha+0x1>
     f80:	80 93 d4 01 	sts	0x01D4, r24	; 0x8001d4 <count_senha>
     f84:	91 e0       	ldi	r25, 0x01	; 1
     f86:	80 91 d8 01 	lds	r24, 0x01D8	; 0x8001d8 <state>
     f8a:	8b 30       	cpi	r24, 0x0B	; 11
     f8c:	09 f0       	breq	.+2      	; 0xf90 <__stack+0x691>
     f8e:	90 e0       	ldi	r25, 0x00	; 0
     f90:	81 e0       	ldi	r24, 0x01	; 1
     f92:	20 91 d4 01 	lds	r18, 0x01D4	; 0x8001d4 <count_senha>
     f96:	30 91 d5 01 	lds	r19, 0x01D5	; 0x8001d5 <count_senha+0x1>
     f9a:	24 30       	cpi	r18, 0x04	; 4
     f9c:	31 05       	cpc	r19, r1
     f9e:	0c f0       	brlt	.+2      	; 0xfa2 <__stack+0x6a3>
     fa0:	80 e0       	ldi	r24, 0x00	; 0
     fa2:	89 23       	and	r24, r25
     fa4:	a9 f0       	breq	.+42     	; 0xfd0 <__stack+0x6d1>
     fa6:	85 e3       	ldi	r24, 0x35	; 53
     fa8:	0e 94 91 19 	call	0x3322	; 0x3322 <send_word_lcd>
     fac:	4e e3       	ldi	r20, 0x3E	; 62
     fae:	52 e0       	ldi	r21, 0x02	; 2
     fb0:	60 e0       	ldi	r22, 0x00	; 0
     fb2:	80 91 d4 01 	lds	r24, 0x01D4	; 0x8001d4 <count_senha>
     fb6:	90 91 d5 01 	lds	r25, 0x01D5	; 0x8001d5 <count_senha+0x1>
     fba:	0e 94 1e 1b 	call	0x363c	; 0x363c <insert_senha>
     fbe:	80 91 d4 01 	lds	r24, 0x01D4	; 0x8001d4 <count_senha>
     fc2:	90 91 d5 01 	lds	r25, 0x01D5	; 0x8001d5 <count_senha+0x1>
     fc6:	01 96       	adiw	r24, 0x01	; 1
     fc8:	90 93 d5 01 	sts	0x01D5, r25	; 0x8001d5 <count_senha+0x1>
     fcc:	80 93 d4 01 	sts	0x01D4, r24	; 0x8001d4 <count_senha>
     fd0:	91 e0       	ldi	r25, 0x01	; 1
     fd2:	80 91 d8 01 	lds	r24, 0x01D8	; 0x8001d8 <state>
     fd6:	8f 30       	cpi	r24, 0x0F	; 15
     fd8:	09 f0       	breq	.+2      	; 0xfdc <__stack+0x6dd>
     fda:	90 e0       	ldi	r25, 0x00	; 0
     fdc:	81 e0       	ldi	r24, 0x01	; 1
     fde:	20 91 ce 01 	lds	r18, 0x01CE	; 0x8001ce <flag_sensor>
     fe2:	30 91 cf 01 	lds	r19, 0x01CF	; 0x8001cf <flag_sensor+0x1>
     fe6:	23 2b       	or	r18, r19
     fe8:	09 f0       	breq	.+2      	; 0xfec <__stack+0x6ed>
     fea:	80 e0       	ldi	r24, 0x00	; 0
     fec:	89 23       	and	r24, r25
     fee:	21 f0       	breq	.+8      	; 0xff8 <__stack+0x6f9>
     ff0:	85 e0       	ldi	r24, 0x05	; 5
     ff2:	90 e0       	ldi	r25, 0x00	; 0
     ff4:	0e 94 c9 13 	call	0x2792	; 0x2792 <hab_sensor>
     ff8:	91 e0       	ldi	r25, 0x01	; 1
     ffa:	80 91 d8 01 	lds	r24, 0x01D8	; 0x8001d8 <state>
     ffe:	87 30       	cpi	r24, 0x07	; 7
    1000:	09 f0       	breq	.+2      	; 0x1004 <__stack+0x705>
    1002:	90 e0       	ldi	r25, 0x00	; 0
    1004:	21 e0       	ldi	r18, 0x01	; 1
    1006:	40 91 d6 01 	lds	r20, 0x01D6	; 0x8001d6 <flag_a_senha>
    100a:	50 91 d7 01 	lds	r21, 0x01D7	; 0x8001d7 <flag_a_senha+0x1>
    100e:	45 2b       	or	r20, r21
    1010:	09 f0       	breq	.+2      	; 0x1014 <__stack+0x715>
    1012:	20 e0       	ldi	r18, 0x00	; 0
    1014:	81 e0       	ldi	r24, 0x01	; 1
    1016:	40 91 c0 01 	lds	r20, 0x01C0	; 0x8001c0 <flag_timeout>
    101a:	50 91 c1 01 	lds	r21, 0x01C1	; 0x8001c1 <flag_timeout+0x1>
    101e:	45 2b       	or	r20, r21
    1020:	09 f0       	breq	.+2      	; 0x1024 <__stack+0x725>
    1022:	80 e0       	ldi	r24, 0x00	; 0
    1024:	82 23       	and	r24, r18
    1026:	99 23       	and	r25, r25
    1028:	a9 f0       	breq	.+42     	; 0x1054 <__stack+0x755>
    102a:	88 23       	and	r24, r24
    102c:	99 f0       	breq	.+38     	; 0x1054 <__stack+0x755>
    102e:	80 e1       	ldi	r24, 0x10	; 16
    1030:	80 93 d8 01 	sts	0x01D8, r24	; 0x8001d8 <state>
    1034:	80 91 cc 01 	lds	r24, 0x01CC	; 0x8001cc <flag_D_sensor>
    1038:	90 91 cd 01 	lds	r25, 0x01CD	; 0x8001cd <flag_D_sensor+0x1>
    103c:	89 2b       	or	r24, r25
    103e:	11 f4       	brne	.+4      	; 0x1044 <__stack+0x745>
    1040:	0e 94 a9 16 	call	0x2d52	; 0x2d52 <msg_h_zona>
    1044:	80 91 cc 01 	lds	r24, 0x01CC	; 0x8001cc <flag_D_sensor>
    1048:	90 91 cd 01 	lds	r25, 0x01CD	; 0x8001cd <flag_D_sensor+0x1>
    104c:	01 97       	sbiw	r24, 0x01	; 1
    104e:	11 f4       	brne	.+4      	; 0x1054 <__stack+0x755>
    1050:	0e 94 dc 16 	call	0x2db8	; 0x2db8 <msg_d_zona>
    1054:	90 91 d8 01 	lds	r25, 0x01D8	; 0x8001d8 <state>
    1058:	21 e0       	ldi	r18, 0x01	; 1
    105a:	91 31       	cpi	r25, 0x11	; 17
    105c:	09 f0       	breq	.+2      	; 0x1060 <__stack+0x761>
    105e:	20 e0       	ldi	r18, 0x00	; 0
    1060:	31 e0       	ldi	r19, 0x01	; 1
    1062:	40 91 c6 01 	lds	r20, 0x01C6	; 0x8001c6 <flag_z1>
    1066:	50 91 c7 01 	lds	r21, 0x01C7	; 0x8001c7 <flag_z1+0x1>
    106a:	45 2b       	or	r20, r21
    106c:	09 f0       	breq	.+2      	; 0x1070 <__stack+0x771>
    106e:	30 e0       	ldi	r19, 0x00	; 0
    1070:	81 e0       	ldi	r24, 0x01	; 1
    1072:	40 91 c8 01 	lds	r20, 0x01C8	; 0x8001c8 <flag_z>
    1076:	50 91 c9 01 	lds	r21, 0x01C9	; 0x8001c9 <flag_z+0x1>
    107a:	45 2b       	or	r20, r21
    107c:	09 f0       	breq	.+2      	; 0x1080 <__stack+0x781>
    107e:	80 e0       	ldi	r24, 0x00	; 0
    1080:	83 23       	and	r24, r19
    1082:	22 23       	and	r18, r18
    1084:	71 f0       	breq	.+28     	; 0x10a2 <__stack+0x7a3>
    1086:	88 23       	and	r24, r24
    1088:	61 f0       	breq	.+24     	; 0x10a2 <__stack+0x7a3>
    108a:	25 e0       	ldi	r18, 0x05	; 5
    108c:	30 e0       	ldi	r19, 0x00	; 0
    108e:	30 93 01 01 	sts	0x0101, r19	; 0x800101 <__DATA_REGION_ORIGIN__+0x1>
    1092:	20 93 00 01 	sts	0x0100, r18	; 0x800100 <__DATA_REGION_ORIGIN__>
    1096:	21 e0       	ldi	r18, 0x01	; 1
    1098:	30 e0       	ldi	r19, 0x00	; 0
    109a:	30 93 c7 01 	sts	0x01C7, r19	; 0x8001c7 <flag_z1+0x1>
    109e:	20 93 c6 01 	sts	0x01C6, r18	; 0x8001c6 <flag_z1>
    10a2:	20 91 ba 01 	lds	r18, 0x01BA	; 0x8001ba <cont_t>
    10a6:	30 91 bb 01 	lds	r19, 0x01BB	; 0x8001bb <cont_t+0x1>
    10aa:	41 e0       	ldi	r20, 0x01	; 1
    10ac:	93 31       	cpi	r25, 0x13	; 19
    10ae:	09 f0       	breq	.+2      	; 0x10b2 <__stack+0x7b3>
    10b0:	40 e0       	ldi	r20, 0x00	; 0
    10b2:	81 e0       	ldi	r24, 0x01	; 1
    10b4:	22 30       	cpi	r18, 0x02	; 2
    10b6:	31 05       	cpc	r19, r1
    10b8:	0c f0       	brlt	.+2      	; 0x10bc <__stack+0x7bd>
    10ba:	80 e0       	ldi	r24, 0x00	; 0
    10bc:	84 23       	and	r24, r20
    10be:	79 f0       	breq	.+30     	; 0x10de <__stack+0x7df>
    10c0:	f9 01       	movw	r30, r18
    10c2:	ee 0f       	add	r30, r30
    10c4:	ff 1f       	adc	r31, r31
    10c6:	e6 5f       	subi	r30, 0xF6	; 246
    10c8:	fe 4f       	sbci	r31, 0xFE	; 254
    10ca:	45 e0       	ldi	r20, 0x05	; 5
    10cc:	50 e0       	ldi	r21, 0x00	; 0
    10ce:	51 83       	std	Z+1, r21	; 0x01
    10d0:	40 83       	st	Z, r20
    10d2:	2f 5f       	subi	r18, 0xFF	; 255
    10d4:	3f 4f       	sbci	r19, 0xFF	; 255
    10d6:	30 93 bb 01 	sts	0x01BB, r19	; 0x8001bb <cont_t+0x1>
    10da:	20 93 ba 01 	sts	0x01BA, r18	; 0x8001ba <cont_t>
    10de:	81 e0       	ldi	r24, 0x01	; 1
    10e0:	20 91 ba 01 	lds	r18, 0x01BA	; 0x8001ba <cont_t>
    10e4:	30 91 bb 01 	lds	r19, 0x01BB	; 0x8001bb <cont_t+0x1>
    10e8:	23 30       	cpi	r18, 0x03	; 3
    10ea:	31 05       	cpc	r19, r1
    10ec:	0c f0       	brlt	.+2      	; 0x10f0 <__stack+0x7f1>
    10ee:	80 e0       	ldi	r24, 0x00	; 0
    10f0:	21 e0       	ldi	r18, 0x01	; 1
    10f2:	94 31       	cpi	r25, 0x14	; 20
    10f4:	09 f0       	breq	.+2      	; 0x10f8 <__stack+0x7f9>
    10f6:	20 e0       	ldi	r18, 0x00	; 0
    10f8:	28 23       	and	r18, r24
    10fa:	99 f0       	breq	.+38     	; 0x1122 <__stack+0x823>
    10fc:	20 91 b6 01 	lds	r18, 0x01B6	; 0x8001b6 <cont_s>
    1100:	30 91 b7 01 	lds	r19, 0x01B7	; 0x8001b7 <cont_s+0x1>
    1104:	f9 01       	movw	r30, r18
    1106:	ee 0f       	add	r30, r30
    1108:	ff 1f       	adc	r31, r31
    110a:	e9 5d       	subi	r30, 0xD9	; 217
    110c:	fe 4f       	sbci	r31, 0xFE	; 254
    110e:	45 e0       	ldi	r20, 0x05	; 5
    1110:	50 e0       	ldi	r21, 0x00	; 0
    1112:	51 83       	std	Z+1, r21	; 0x01
    1114:	40 83       	st	Z, r20
    1116:	2f 5f       	subi	r18, 0xFF	; 255
    1118:	3f 4f       	sbci	r19, 0xFF	; 255
    111a:	30 93 b7 01 	sts	0x01B7, r19	; 0x8001b7 <cont_s+0x1>
    111e:	20 93 b6 01 	sts	0x01B6, r18	; 0x8001b6 <cont_s>
    1122:	21 e0       	ldi	r18, 0x01	; 1
    1124:	92 31       	cpi	r25, 0x12	; 18
    1126:	09 f0       	breq	.+2      	; 0x112a <__stack+0x82b>
    1128:	20 e0       	ldi	r18, 0x00	; 0
    112a:	82 23       	and	r24, r18
    112c:	11 f4       	brne	.+4      	; 0x1132 <__stack+0x833>
    112e:	0c 94 67 10 	jmp	0x20ce	; 0x20ce <__stack+0x17cf>
    1132:	80 91 b8 01 	lds	r24, 0x01B8	; 0x8001b8 <cont_aa>
    1136:	90 91 b9 01 	lds	r25, 0x01B9	; 0x8001b9 <cont_aa+0x1>
    113a:	fc 01       	movw	r30, r24
    113c:	ee 0f       	add	r30, r30
    113e:	ff 1f       	adc	r31, r31
    1140:	e1 5e       	subi	r30, 0xE1	; 225
    1142:	fe 4f       	sbci	r31, 0xFE	; 254
    1144:	25 e0       	ldi	r18, 0x05	; 5
    1146:	30 e0       	ldi	r19, 0x00	; 0
    1148:	31 83       	std	Z+1, r19	; 0x01
    114a:	20 83       	st	Z, r18
    114c:	01 96       	adiw	r24, 0x01	; 1
    114e:	90 93 b9 01 	sts	0x01B9, r25	; 0x8001b9 <cont_aa+0x1>
    1152:	80 93 b8 01 	sts	0x01B8, r24	; 0x8001b8 <cont_aa>
    1156:	bb c7       	rjmp	.+3958   	; 0x20ce <__stack+0x17cf>
    1158:	80 39       	cpi	r24, 0x90	; 144
    115a:	91 05       	cpc	r25, r1
    115c:	09 f0       	breq	.+2      	; 0x1160 <__stack+0x861>
    115e:	5c c1       	rjmp	.+696    	; 0x1418 <__stack+0xb19>
    1160:	91 e0       	ldi	r25, 0x01	; 1
    1162:	80 91 d8 01 	lds	r24, 0x01D8	; 0x8001d8 <state>
    1166:	88 30       	cpi	r24, 0x08	; 8
    1168:	09 f0       	breq	.+2      	; 0x116c <__stack+0x86d>
    116a:	90 e0       	ldi	r25, 0x00	; 0
    116c:	81 e0       	ldi	r24, 0x01	; 1
    116e:	20 91 d4 01 	lds	r18, 0x01D4	; 0x8001d4 <count_senha>
    1172:	30 91 d5 01 	lds	r19, 0x01D5	; 0x8001d5 <count_senha+0x1>
    1176:	24 30       	cpi	r18, 0x04	; 4
    1178:	31 05       	cpc	r19, r1
    117a:	0c f0       	brlt	.+2      	; 0x117e <__stack+0x87f>
    117c:	80 e0       	ldi	r24, 0x00	; 0
    117e:	89 23       	and	r24, r25
    1180:	a9 f0       	breq	.+42     	; 0x11ac <__stack+0x8ad>
    1182:	86 e3       	ldi	r24, 0x36	; 54
    1184:	0e 94 91 19 	call	0x3322	; 0x3322 <send_word_lcd>
    1188:	40 e4       	ldi	r20, 0x40	; 64
    118a:	52 e0       	ldi	r21, 0x02	; 2
    118c:	60 e0       	ldi	r22, 0x00	; 0
    118e:	80 91 d4 01 	lds	r24, 0x01D4	; 0x8001d4 <count_senha>
    1192:	90 91 d5 01 	lds	r25, 0x01D5	; 0x8001d5 <count_senha+0x1>
    1196:	0e 94 1e 1b 	call	0x363c	; 0x363c <insert_senha>
    119a:	80 91 d4 01 	lds	r24, 0x01D4	; 0x8001d4 <count_senha>
    119e:	90 91 d5 01 	lds	r25, 0x01D5	; 0x8001d5 <count_senha+0x1>
    11a2:	01 96       	adiw	r24, 0x01	; 1
    11a4:	90 93 d5 01 	sts	0x01D5, r25	; 0x8001d5 <count_senha+0x1>
    11a8:	80 93 d4 01 	sts	0x01D4, r24	; 0x8001d4 <count_senha>
    11ac:	91 e0       	ldi	r25, 0x01	; 1
    11ae:	80 91 d8 01 	lds	r24, 0x01D8	; 0x8001d8 <state>
    11b2:	89 30       	cpi	r24, 0x09	; 9
    11b4:	09 f0       	breq	.+2      	; 0x11b8 <__stack+0x8b9>
    11b6:	90 e0       	ldi	r25, 0x00	; 0
    11b8:	81 e0       	ldi	r24, 0x01	; 1
    11ba:	20 91 d4 01 	lds	r18, 0x01D4	; 0x8001d4 <count_senha>
    11be:	30 91 d5 01 	lds	r19, 0x01D5	; 0x8001d5 <count_senha+0x1>
    11c2:	24 30       	cpi	r18, 0x04	; 4
    11c4:	31 05       	cpc	r19, r1
    11c6:	0c f0       	brlt	.+2      	; 0x11ca <__stack+0x8cb>
    11c8:	80 e0       	ldi	r24, 0x00	; 0
    11ca:	89 23       	and	r24, r25
    11cc:	a9 f0       	breq	.+42     	; 0x11f8 <__stack+0x8f9>
    11ce:	86 e3       	ldi	r24, 0x36	; 54
    11d0:	0e 94 91 19 	call	0x3322	; 0x3322 <send_word_lcd>
    11d4:	40 e4       	ldi	r20, 0x40	; 64
    11d6:	52 e0       	ldi	r21, 0x02	; 2
    11d8:	60 e0       	ldi	r22, 0x00	; 0
    11da:	80 91 d4 01 	lds	r24, 0x01D4	; 0x8001d4 <count_senha>
    11de:	90 91 d5 01 	lds	r25, 0x01D5	; 0x8001d5 <count_senha+0x1>
    11e2:	0e 94 f3 18 	call	0x31e6	; 0x31e6 <senha_arm>
    11e6:	80 91 d4 01 	lds	r24, 0x01D4	; 0x8001d4 <count_senha>
    11ea:	90 91 d5 01 	lds	r25, 0x01D5	; 0x8001d5 <count_senha+0x1>
    11ee:	01 96       	adiw	r24, 0x01	; 1
    11f0:	90 93 d5 01 	sts	0x01D5, r25	; 0x8001d5 <count_senha+0x1>
    11f4:	80 93 d4 01 	sts	0x01D4, r24	; 0x8001d4 <count_senha>
    11f8:	91 e0       	ldi	r25, 0x01	; 1
    11fa:	80 91 d8 01 	lds	r24, 0x01D8	; 0x8001d8 <state>
    11fe:	8a 30       	cpi	r24, 0x0A	; 10
    1200:	09 f0       	breq	.+2      	; 0x1204 <__stack+0x905>
    1202:	90 e0       	ldi	r25, 0x00	; 0
    1204:	81 e0       	ldi	r24, 0x01	; 1
    1206:	20 91 d4 01 	lds	r18, 0x01D4	; 0x8001d4 <count_senha>
    120a:	30 91 d5 01 	lds	r19, 0x01D5	; 0x8001d5 <count_senha+0x1>
    120e:	24 30       	cpi	r18, 0x04	; 4
    1210:	31 05       	cpc	r19, r1
    1212:	0c f0       	brlt	.+2      	; 0x1216 <__stack+0x917>
    1214:	80 e0       	ldi	r24, 0x00	; 0
    1216:	89 23       	and	r24, r25
    1218:	a9 f0       	breq	.+42     	; 0x1244 <__stack+0x945>
    121a:	86 e3       	ldi	r24, 0x36	; 54
    121c:	0e 94 91 19 	call	0x3322	; 0x3322 <send_word_lcd>
    1220:	40 e4       	ldi	r20, 0x40	; 64
    1222:	52 e0       	ldi	r21, 0x02	; 2
    1224:	60 e0       	ldi	r22, 0x00	; 0
    1226:	80 91 d4 01 	lds	r24, 0x01D4	; 0x8001d4 <count_senha>
    122a:	90 91 d5 01 	lds	r25, 0x01D5	; 0x8001d5 <count_senha+0x1>
    122e:	0e 94 1e 1b 	call	0x363c	; 0x363c <insert_senha>
    1232:	80 91 d4 01 	lds	r24, 0x01D4	; 0x8001d4 <count_senha>
    1236:	90 91 d5 01 	lds	r25, 0x01D5	; 0x8001d5 <count_senha+0x1>
    123a:	01 96       	adiw	r24, 0x01	; 1
    123c:	90 93 d5 01 	sts	0x01D5, r25	; 0x8001d5 <count_senha+0x1>
    1240:	80 93 d4 01 	sts	0x01D4, r24	; 0x8001d4 <count_senha>
    1244:	91 e0       	ldi	r25, 0x01	; 1
    1246:	80 91 d8 01 	lds	r24, 0x01D8	; 0x8001d8 <state>
    124a:	8b 30       	cpi	r24, 0x0B	; 11
    124c:	09 f0       	breq	.+2      	; 0x1250 <__stack+0x951>
    124e:	90 e0       	ldi	r25, 0x00	; 0
    1250:	81 e0       	ldi	r24, 0x01	; 1
    1252:	20 91 d4 01 	lds	r18, 0x01D4	; 0x8001d4 <count_senha>
    1256:	30 91 d5 01 	lds	r19, 0x01D5	; 0x8001d5 <count_senha+0x1>
    125a:	24 30       	cpi	r18, 0x04	; 4
    125c:	31 05       	cpc	r19, r1
    125e:	0c f0       	brlt	.+2      	; 0x1262 <__stack+0x963>
    1260:	80 e0       	ldi	r24, 0x00	; 0
    1262:	89 23       	and	r24, r25
    1264:	a9 f0       	breq	.+42     	; 0x1290 <__stack+0x991>
    1266:	86 e3       	ldi	r24, 0x36	; 54
    1268:	0e 94 91 19 	call	0x3322	; 0x3322 <send_word_lcd>
    126c:	40 e4       	ldi	r20, 0x40	; 64
    126e:	52 e0       	ldi	r21, 0x02	; 2
    1270:	60 e0       	ldi	r22, 0x00	; 0
    1272:	80 91 d4 01 	lds	r24, 0x01D4	; 0x8001d4 <count_senha>
    1276:	90 91 d5 01 	lds	r25, 0x01D5	; 0x8001d5 <count_senha+0x1>
    127a:	0e 94 1e 1b 	call	0x363c	; 0x363c <insert_senha>
    127e:	80 91 d4 01 	lds	r24, 0x01D4	; 0x8001d4 <count_senha>
    1282:	90 91 d5 01 	lds	r25, 0x01D5	; 0x8001d5 <count_senha+0x1>
    1286:	01 96       	adiw	r24, 0x01	; 1
    1288:	90 93 d5 01 	sts	0x01D5, r25	; 0x8001d5 <count_senha+0x1>
    128c:	80 93 d4 01 	sts	0x01D4, r24	; 0x8001d4 <count_senha>
    1290:	91 e0       	ldi	r25, 0x01	; 1
    1292:	80 91 d8 01 	lds	r24, 0x01D8	; 0x8001d8 <state>
    1296:	8f 30       	cpi	r24, 0x0F	; 15
    1298:	09 f0       	breq	.+2      	; 0x129c <__stack+0x99d>
    129a:	90 e0       	ldi	r25, 0x00	; 0
    129c:	81 e0       	ldi	r24, 0x01	; 1
    129e:	20 91 ce 01 	lds	r18, 0x01CE	; 0x8001ce <flag_sensor>
    12a2:	30 91 cf 01 	lds	r19, 0x01CF	; 0x8001cf <flag_sensor+0x1>
    12a6:	23 2b       	or	r18, r19
    12a8:	09 f0       	breq	.+2      	; 0x12ac <__stack+0x9ad>
    12aa:	80 e0       	ldi	r24, 0x00	; 0
    12ac:	89 23       	and	r24, r25
    12ae:	21 f0       	breq	.+8      	; 0x12b8 <__stack+0x9b9>
    12b0:	86 e0       	ldi	r24, 0x06	; 6
    12b2:	90 e0       	ldi	r25, 0x00	; 0
    12b4:	0e 94 c9 13 	call	0x2792	; 0x2792 <hab_sensor>
    12b8:	80 91 d8 01 	lds	r24, 0x01D8	; 0x8001d8 <state>
    12bc:	21 e0       	ldi	r18, 0x01	; 1
    12be:	81 31       	cpi	r24, 0x11	; 17
    12c0:	09 f0       	breq	.+2      	; 0x12c4 <__stack+0x9c5>
    12c2:	20 e0       	ldi	r18, 0x00	; 0
    12c4:	31 e0       	ldi	r19, 0x01	; 1
    12c6:	40 91 c6 01 	lds	r20, 0x01C6	; 0x8001c6 <flag_z1>
    12ca:	50 91 c7 01 	lds	r21, 0x01C7	; 0x8001c7 <flag_z1+0x1>
    12ce:	45 2b       	or	r20, r21
    12d0:	09 f0       	breq	.+2      	; 0x12d4 <__stack+0x9d5>
    12d2:	30 e0       	ldi	r19, 0x00	; 0
    12d4:	91 e0       	ldi	r25, 0x01	; 1
    12d6:	40 91 c8 01 	lds	r20, 0x01C8	; 0x8001c8 <flag_z>
    12da:	50 91 c9 01 	lds	r21, 0x01C9	; 0x8001c9 <flag_z+0x1>
    12de:	45 2b       	or	r20, r21
    12e0:	09 f0       	breq	.+2      	; 0x12e4 <__stack+0x9e5>
    12e2:	90 e0       	ldi	r25, 0x00	; 0
    12e4:	93 23       	and	r25, r19
    12e6:	22 23       	and	r18, r18
    12e8:	71 f0       	breq	.+28     	; 0x1306 <__stack+0xa07>
    12ea:	99 23       	and	r25, r25
    12ec:	61 f0       	breq	.+24     	; 0x1306 <__stack+0xa07>
    12ee:	26 e0       	ldi	r18, 0x06	; 6
    12f0:	30 e0       	ldi	r19, 0x00	; 0
    12f2:	30 93 01 01 	sts	0x0101, r19	; 0x800101 <__DATA_REGION_ORIGIN__+0x1>
    12f6:	20 93 00 01 	sts	0x0100, r18	; 0x800100 <__DATA_REGION_ORIGIN__>
    12fa:	21 e0       	ldi	r18, 0x01	; 1
    12fc:	30 e0       	ldi	r19, 0x00	; 0
    12fe:	30 93 c7 01 	sts	0x01C7, r19	; 0x8001c7 <flag_z1+0x1>
    1302:	20 93 c6 01 	sts	0x01C6, r18	; 0x8001c6 <flag_z1>
    1306:	20 91 ba 01 	lds	r18, 0x01BA	; 0x8001ba <cont_t>
    130a:	30 91 bb 01 	lds	r19, 0x01BB	; 0x8001bb <cont_t+0x1>
    130e:	41 e0       	ldi	r20, 0x01	; 1
    1310:	83 31       	cpi	r24, 0x13	; 19
    1312:	09 f0       	breq	.+2      	; 0x1316 <__stack+0xa17>
    1314:	40 e0       	ldi	r20, 0x00	; 0
    1316:	91 e0       	ldi	r25, 0x01	; 1
    1318:	22 30       	cpi	r18, 0x02	; 2
    131a:	31 05       	cpc	r19, r1
    131c:	0c f0       	brlt	.+2      	; 0x1320 <__stack+0xa21>
    131e:	90 e0       	ldi	r25, 0x00	; 0
    1320:	94 23       	and	r25, r20
    1322:	79 f0       	breq	.+30     	; 0x1342 <__stack+0xa43>
    1324:	f9 01       	movw	r30, r18
    1326:	ee 0f       	add	r30, r30
    1328:	ff 1f       	adc	r31, r31
    132a:	e6 5f       	subi	r30, 0xF6	; 246
    132c:	fe 4f       	sbci	r31, 0xFE	; 254
    132e:	46 e0       	ldi	r20, 0x06	; 6
    1330:	50 e0       	ldi	r21, 0x00	; 0
    1332:	51 83       	std	Z+1, r21	; 0x01
    1334:	40 83       	st	Z, r20
    1336:	2f 5f       	subi	r18, 0xFF	; 255
    1338:	3f 4f       	sbci	r19, 0xFF	; 255
    133a:	30 93 bb 01 	sts	0x01BB, r19	; 0x8001bb <cont_t+0x1>
    133e:	20 93 ba 01 	sts	0x01BA, r18	; 0x8001ba <cont_t>
    1342:	21 e0       	ldi	r18, 0x01	; 1
    1344:	40 91 ba 01 	lds	r20, 0x01BA	; 0x8001ba <cont_t>
    1348:	50 91 bb 01 	lds	r21, 0x01BB	; 0x8001bb <cont_t+0x1>
    134c:	43 30       	cpi	r20, 0x03	; 3
    134e:	51 05       	cpc	r21, r1
    1350:	0c f0       	brlt	.+2      	; 0x1354 <__stack+0xa55>
    1352:	20 e0       	ldi	r18, 0x00	; 0
    1354:	91 e0       	ldi	r25, 0x01	; 1
    1356:	84 31       	cpi	r24, 0x14	; 20
    1358:	09 f0       	breq	.+2      	; 0x135c <__stack+0xa5d>
    135a:	90 e0       	ldi	r25, 0x00	; 0
    135c:	92 23       	and	r25, r18
    135e:	99 f0       	breq	.+38     	; 0x1386 <__stack+0xa87>
    1360:	20 91 b6 01 	lds	r18, 0x01B6	; 0x8001b6 <cont_s>
    1364:	30 91 b7 01 	lds	r19, 0x01B7	; 0x8001b7 <cont_s+0x1>
    1368:	f9 01       	movw	r30, r18
    136a:	ee 0f       	add	r30, r30
    136c:	ff 1f       	adc	r31, r31
    136e:	e9 5d       	subi	r30, 0xD9	; 217
    1370:	fe 4f       	sbci	r31, 0xFE	; 254
    1372:	46 e0       	ldi	r20, 0x06	; 6
    1374:	50 e0       	ldi	r21, 0x00	; 0
    1376:	51 83       	std	Z+1, r21	; 0x01
    1378:	40 83       	st	Z, r20
    137a:	2f 5f       	subi	r18, 0xFF	; 255
    137c:	3f 4f       	sbci	r19, 0xFF	; 255
    137e:	30 93 b7 01 	sts	0x01B7, r19	; 0x8001b7 <cont_s+0x1>
    1382:	20 93 b6 01 	sts	0x01B6, r18	; 0x8001b6 <cont_s>
    1386:	91 e0       	ldi	r25, 0x01	; 1
    1388:	87 30       	cpi	r24, 0x07	; 7
    138a:	09 f0       	breq	.+2      	; 0x138e <__stack+0xa8f>
    138c:	90 e0       	ldi	r25, 0x00	; 0
    138e:	21 e0       	ldi	r18, 0x01	; 1
    1390:	40 91 d6 01 	lds	r20, 0x01D6	; 0x8001d6 <flag_a_senha>
    1394:	50 91 d7 01 	lds	r21, 0x01D7	; 0x8001d7 <flag_a_senha+0x1>
    1398:	45 2b       	or	r20, r21
    139a:	09 f0       	breq	.+2      	; 0x139e <__stack+0xa9f>
    139c:	20 e0       	ldi	r18, 0x00	; 0
    139e:	81 e0       	ldi	r24, 0x01	; 1
    13a0:	40 91 c0 01 	lds	r20, 0x01C0	; 0x8001c0 <flag_timeout>
    13a4:	50 91 c1 01 	lds	r21, 0x01C1	; 0x8001c1 <flag_timeout+0x1>
    13a8:	45 2b       	or	r20, r21
    13aa:	09 f0       	breq	.+2      	; 0x13ae <__stack+0xaaf>
    13ac:	80 e0       	ldi	r24, 0x00	; 0
    13ae:	82 23       	and	r24, r18
    13b0:	99 23       	and	r25, r25
    13b2:	69 f0       	breq	.+26     	; 0x13ce <__stack+0xacf>
    13b4:	88 23       	and	r24, r24
    13b6:	59 f0       	breq	.+22     	; 0x13ce <__stack+0xacf>
    13b8:	82 e1       	ldi	r24, 0x12	; 18
    13ba:	80 93 d8 01 	sts	0x01D8, r24	; 0x8001d8 <state>
    13be:	81 e0       	ldi	r24, 0x01	; 1
    13c0:	90 e0       	ldi	r25, 0x00	; 0
    13c2:	90 93 bd 01 	sts	0x01BD, r25	; 0x8001bd <flag_tat+0x1>
    13c6:	80 93 bc 01 	sts	0x01BC, r24	; 0x8001bc <flag_tat>
    13ca:	0e 94 db 17 	call	0x2fb6	; 0x2fb6 <msg_temp_ativ>
    13ce:	91 e0       	ldi	r25, 0x01	; 1
    13d0:	80 91 d8 01 	lds	r24, 0x01D8	; 0x8001d8 <state>
    13d4:	82 31       	cpi	r24, 0x12	; 18
    13d6:	09 f0       	breq	.+2      	; 0x13da <__stack+0xadb>
    13d8:	90 e0       	ldi	r25, 0x00	; 0
    13da:	81 e0       	ldi	r24, 0x01	; 1
    13dc:	20 91 ba 01 	lds	r18, 0x01BA	; 0x8001ba <cont_t>
    13e0:	30 91 bb 01 	lds	r19, 0x01BB	; 0x8001bb <cont_t+0x1>
    13e4:	23 30       	cpi	r18, 0x03	; 3
    13e6:	31 05       	cpc	r19, r1
    13e8:	0c f0       	brlt	.+2      	; 0x13ec <__stack+0xaed>
    13ea:	80 e0       	ldi	r24, 0x00	; 0
    13ec:	89 23       	and	r24, r25
    13ee:	09 f4       	brne	.+2      	; 0x13f2 <__stack+0xaf3>
    13f0:	6e c6       	rjmp	.+3292   	; 0x20ce <__stack+0x17cf>
    13f2:	80 91 b8 01 	lds	r24, 0x01B8	; 0x8001b8 <cont_aa>
    13f6:	90 91 b9 01 	lds	r25, 0x01B9	; 0x8001b9 <cont_aa+0x1>
    13fa:	fc 01       	movw	r30, r24
    13fc:	ee 0f       	add	r30, r30
    13fe:	ff 1f       	adc	r31, r31
    1400:	e1 5e       	subi	r30, 0xE1	; 225
    1402:	fe 4f       	sbci	r31, 0xFE	; 254
    1404:	26 e0       	ldi	r18, 0x06	; 6
    1406:	30 e0       	ldi	r19, 0x00	; 0
    1408:	31 83       	std	Z+1, r19	; 0x01
    140a:	20 83       	st	Z, r18
    140c:	01 96       	adiw	r24, 0x01	; 1
    140e:	90 93 b9 01 	sts	0x01B9, r25	; 0x8001b9 <cont_aa+0x1>
    1412:	80 93 b8 01 	sts	0x01B8, r24	; 0x8001b8 <cont_aa>
    1416:	5b c6       	rjmp	.+3254   	; 0x20ce <__stack+0x17cf>
    1418:	80 38       	cpi	r24, 0x80	; 128
    141a:	91 05       	cpc	r25, r1
    141c:	19 f5       	brne	.+70     	; 0x1464 <__stack+0xb65>
    141e:	91 e0       	ldi	r25, 0x01	; 1
    1420:	80 91 d8 01 	lds	r24, 0x01D8	; 0x8001d8 <state>
    1424:	88 30       	cpi	r24, 0x08	; 8
    1426:	09 f0       	breq	.+2      	; 0x142a <__stack+0xb2b>
    1428:	90 e0       	ldi	r25, 0x00	; 0
    142a:	81 e0       	ldi	r24, 0x01	; 1
    142c:	20 91 d4 01 	lds	r18, 0x01D4	; 0x8001d4 <count_senha>
    1430:	30 91 d5 01 	lds	r19, 0x01D5	; 0x8001d5 <count_senha+0x1>
    1434:	24 30       	cpi	r18, 0x04	; 4
    1436:	31 05       	cpc	r19, r1
    1438:	09 f0       	breq	.+2      	; 0x143c <__stack+0xb3d>
    143a:	80 e0       	ldi	r24, 0x00	; 0
    143c:	89 23       	and	r24, r25
    143e:	39 f0       	breq	.+14     	; 0x144e <__stack+0xb4f>
    1440:	8c e0       	ldi	r24, 0x0C	; 12
    1442:	80 93 d8 01 	sts	0x01D8, r24	; 0x8001d8 <state>
    1446:	10 92 d5 01 	sts	0x01D5, r1	; 0x8001d5 <count_senha+0x1>
    144a:	10 92 d4 01 	sts	0x01D4, r1	; 0x8001d4 <count_senha>
    144e:	80 91 d8 01 	lds	r24, 0x01D8	; 0x8001d8 <state>
    1452:	81 30       	cpi	r24, 0x01	; 1
    1454:	09 f0       	breq	.+2      	; 0x1458 <__stack+0xb59>
    1456:	3b c6       	rjmp	.+3190   	; 0x20ce <__stack+0x17cf>
    1458:	8a e0       	ldi	r24, 0x0A	; 10
    145a:	80 93 d8 01 	sts	0x01D8, r24	; 0x8001d8 <state>
    145e:	0e 94 43 19 	call	0x3286	; 0x3286 <msg_inserir_senha>
    1462:	35 c6       	rjmp	.+3178   	; 0x20ce <__stack+0x17cf>
    1464:	80 37       	cpi	r24, 0x70	; 112
    1466:	91 05       	cpc	r25, r1
    1468:	09 f0       	breq	.+2      	; 0x146c <__stack+0xb6d>
    146a:	53 c1       	rjmp	.+678    	; 0x1712 <__stack+0xe13>
    146c:	91 e0       	ldi	r25, 0x01	; 1
    146e:	80 91 d8 01 	lds	r24, 0x01D8	; 0x8001d8 <state>
    1472:	88 30       	cpi	r24, 0x08	; 8
    1474:	09 f0       	breq	.+2      	; 0x1478 <__stack+0xb79>
    1476:	90 e0       	ldi	r25, 0x00	; 0
    1478:	81 e0       	ldi	r24, 0x01	; 1
    147a:	20 91 d4 01 	lds	r18, 0x01D4	; 0x8001d4 <count_senha>
    147e:	30 91 d5 01 	lds	r19, 0x01D5	; 0x8001d5 <count_senha+0x1>
    1482:	24 30       	cpi	r18, 0x04	; 4
    1484:	31 05       	cpc	r19, r1
    1486:	0c f0       	brlt	.+2      	; 0x148a <__stack+0xb8b>
    1488:	80 e0       	ldi	r24, 0x00	; 0
    148a:	89 23       	and	r24, r25
    148c:	a9 f0       	breq	.+42     	; 0x14b8 <__stack+0xbb9>
    148e:	87 e3       	ldi	r24, 0x37	; 55
    1490:	0e 94 91 19 	call	0x3322	; 0x3322 <send_word_lcd>
    1494:	42 e4       	ldi	r20, 0x42	; 66
    1496:	52 e0       	ldi	r21, 0x02	; 2
    1498:	60 e0       	ldi	r22, 0x00	; 0
    149a:	80 91 d4 01 	lds	r24, 0x01D4	; 0x8001d4 <count_senha>
    149e:	90 91 d5 01 	lds	r25, 0x01D5	; 0x8001d5 <count_senha+0x1>
    14a2:	0e 94 1e 1b 	call	0x363c	; 0x363c <insert_senha>
    14a6:	80 91 d4 01 	lds	r24, 0x01D4	; 0x8001d4 <count_senha>
    14aa:	90 91 d5 01 	lds	r25, 0x01D5	; 0x8001d5 <count_senha+0x1>
    14ae:	01 96       	adiw	r24, 0x01	; 1
    14b0:	90 93 d5 01 	sts	0x01D5, r25	; 0x8001d5 <count_senha+0x1>
    14b4:	80 93 d4 01 	sts	0x01D4, r24	; 0x8001d4 <count_senha>
    14b8:	91 e0       	ldi	r25, 0x01	; 1
    14ba:	80 91 d8 01 	lds	r24, 0x01D8	; 0x8001d8 <state>
    14be:	89 30       	cpi	r24, 0x09	; 9
    14c0:	09 f0       	breq	.+2      	; 0x14c4 <__stack+0xbc5>
    14c2:	90 e0       	ldi	r25, 0x00	; 0
    14c4:	81 e0       	ldi	r24, 0x01	; 1
    14c6:	20 91 d4 01 	lds	r18, 0x01D4	; 0x8001d4 <count_senha>
    14ca:	30 91 d5 01 	lds	r19, 0x01D5	; 0x8001d5 <count_senha+0x1>
    14ce:	24 30       	cpi	r18, 0x04	; 4
    14d0:	31 05       	cpc	r19, r1
    14d2:	0c f0       	brlt	.+2      	; 0x14d6 <__stack+0xbd7>
    14d4:	80 e0       	ldi	r24, 0x00	; 0
    14d6:	89 23       	and	r24, r25
    14d8:	a9 f0       	breq	.+42     	; 0x1504 <__stack+0xc05>
    14da:	87 e3       	ldi	r24, 0x37	; 55
    14dc:	0e 94 91 19 	call	0x3322	; 0x3322 <send_word_lcd>
    14e0:	42 e4       	ldi	r20, 0x42	; 66
    14e2:	52 e0       	ldi	r21, 0x02	; 2
    14e4:	60 e0       	ldi	r22, 0x00	; 0
    14e6:	80 91 d4 01 	lds	r24, 0x01D4	; 0x8001d4 <count_senha>
    14ea:	90 91 d5 01 	lds	r25, 0x01D5	; 0x8001d5 <count_senha+0x1>
    14ee:	0e 94 f3 18 	call	0x31e6	; 0x31e6 <senha_arm>
    14f2:	80 91 d4 01 	lds	r24, 0x01D4	; 0x8001d4 <count_senha>
    14f6:	90 91 d5 01 	lds	r25, 0x01D5	; 0x8001d5 <count_senha+0x1>
    14fa:	01 96       	adiw	r24, 0x01	; 1
    14fc:	90 93 d5 01 	sts	0x01D5, r25	; 0x8001d5 <count_senha+0x1>
    1500:	80 93 d4 01 	sts	0x01D4, r24	; 0x8001d4 <count_senha>
    1504:	91 e0       	ldi	r25, 0x01	; 1
    1506:	80 91 d8 01 	lds	r24, 0x01D8	; 0x8001d8 <state>
    150a:	8a 30       	cpi	r24, 0x0A	; 10
    150c:	09 f0       	breq	.+2      	; 0x1510 <__stack+0xc11>
    150e:	90 e0       	ldi	r25, 0x00	; 0
    1510:	81 e0       	ldi	r24, 0x01	; 1
    1512:	20 91 d4 01 	lds	r18, 0x01D4	; 0x8001d4 <count_senha>
    1516:	30 91 d5 01 	lds	r19, 0x01D5	; 0x8001d5 <count_senha+0x1>
    151a:	24 30       	cpi	r18, 0x04	; 4
    151c:	31 05       	cpc	r19, r1
    151e:	0c f0       	brlt	.+2      	; 0x1522 <__stack+0xc23>
    1520:	80 e0       	ldi	r24, 0x00	; 0
    1522:	89 23       	and	r24, r25
    1524:	a9 f0       	breq	.+42     	; 0x1550 <__stack+0xc51>
    1526:	87 e3       	ldi	r24, 0x37	; 55
    1528:	0e 94 91 19 	call	0x3322	; 0x3322 <send_word_lcd>
    152c:	42 e4       	ldi	r20, 0x42	; 66
    152e:	52 e0       	ldi	r21, 0x02	; 2
    1530:	60 e0       	ldi	r22, 0x00	; 0
    1532:	80 91 d4 01 	lds	r24, 0x01D4	; 0x8001d4 <count_senha>
    1536:	90 91 d5 01 	lds	r25, 0x01D5	; 0x8001d5 <count_senha+0x1>
    153a:	0e 94 1e 1b 	call	0x363c	; 0x363c <insert_senha>
    153e:	80 91 d4 01 	lds	r24, 0x01D4	; 0x8001d4 <count_senha>
    1542:	90 91 d5 01 	lds	r25, 0x01D5	; 0x8001d5 <count_senha+0x1>
    1546:	01 96       	adiw	r24, 0x01	; 1
    1548:	90 93 d5 01 	sts	0x01D5, r25	; 0x8001d5 <count_senha+0x1>
    154c:	80 93 d4 01 	sts	0x01D4, r24	; 0x8001d4 <count_senha>
    1550:	91 e0       	ldi	r25, 0x01	; 1
    1552:	80 91 d8 01 	lds	r24, 0x01D8	; 0x8001d8 <state>
    1556:	8b 30       	cpi	r24, 0x0B	; 11
    1558:	09 f0       	breq	.+2      	; 0x155c <__stack+0xc5d>
    155a:	90 e0       	ldi	r25, 0x00	; 0
    155c:	81 e0       	ldi	r24, 0x01	; 1
    155e:	20 91 d4 01 	lds	r18, 0x01D4	; 0x8001d4 <count_senha>
    1562:	30 91 d5 01 	lds	r19, 0x01D5	; 0x8001d5 <count_senha+0x1>
    1566:	24 30       	cpi	r18, 0x04	; 4
    1568:	31 05       	cpc	r19, r1
    156a:	0c f0       	brlt	.+2      	; 0x156e <__stack+0xc6f>
    156c:	80 e0       	ldi	r24, 0x00	; 0
    156e:	89 23       	and	r24, r25
    1570:	a9 f0       	breq	.+42     	; 0x159c <__stack+0xc9d>
    1572:	87 e3       	ldi	r24, 0x37	; 55
    1574:	0e 94 91 19 	call	0x3322	; 0x3322 <send_word_lcd>
    1578:	40 e4       	ldi	r20, 0x40	; 64
    157a:	52 e0       	ldi	r21, 0x02	; 2
    157c:	60 e0       	ldi	r22, 0x00	; 0
    157e:	80 91 d4 01 	lds	r24, 0x01D4	; 0x8001d4 <count_senha>
    1582:	90 91 d5 01 	lds	r25, 0x01D5	; 0x8001d5 <count_senha+0x1>
    1586:	0e 94 1e 1b 	call	0x363c	; 0x363c <insert_senha>
    158a:	80 91 d4 01 	lds	r24, 0x01D4	; 0x8001d4 <count_senha>
    158e:	90 91 d5 01 	lds	r25, 0x01D5	; 0x8001d5 <count_senha+0x1>
    1592:	01 96       	adiw	r24, 0x01	; 1
    1594:	90 93 d5 01 	sts	0x01D5, r25	; 0x8001d5 <count_senha+0x1>
    1598:	80 93 d4 01 	sts	0x01D4, r24	; 0x8001d4 <count_senha>
    159c:	91 e0       	ldi	r25, 0x01	; 1
    159e:	80 91 d8 01 	lds	r24, 0x01D8	; 0x8001d8 <state>
    15a2:	8f 30       	cpi	r24, 0x0F	; 15
    15a4:	09 f0       	breq	.+2      	; 0x15a8 <__stack+0xca9>
    15a6:	90 e0       	ldi	r25, 0x00	; 0
    15a8:	81 e0       	ldi	r24, 0x01	; 1
    15aa:	20 91 ce 01 	lds	r18, 0x01CE	; 0x8001ce <flag_sensor>
    15ae:	30 91 cf 01 	lds	r19, 0x01CF	; 0x8001cf <flag_sensor+0x1>
    15b2:	23 2b       	or	r18, r19
    15b4:	09 f0       	breq	.+2      	; 0x15b8 <__stack+0xcb9>
    15b6:	80 e0       	ldi	r24, 0x00	; 0
    15b8:	89 23       	and	r24, r25
    15ba:	21 f0       	breq	.+8      	; 0x15c4 <__stack+0xcc5>
    15bc:	87 e0       	ldi	r24, 0x07	; 7
    15be:	90 e0       	ldi	r25, 0x00	; 0
    15c0:	0e 94 c9 13 	call	0x2792	; 0x2792 <hab_sensor>
    15c4:	90 91 d8 01 	lds	r25, 0x01D8	; 0x8001d8 <state>
    15c8:	21 e0       	ldi	r18, 0x01	; 1
    15ca:	91 31       	cpi	r25, 0x11	; 17
    15cc:	09 f0       	breq	.+2      	; 0x15d0 <__stack+0xcd1>
    15ce:	20 e0       	ldi	r18, 0x00	; 0
    15d0:	31 e0       	ldi	r19, 0x01	; 1
    15d2:	40 91 c6 01 	lds	r20, 0x01C6	; 0x8001c6 <flag_z1>
    15d6:	50 91 c7 01 	lds	r21, 0x01C7	; 0x8001c7 <flag_z1+0x1>
    15da:	45 2b       	or	r20, r21
    15dc:	09 f0       	breq	.+2      	; 0x15e0 <__stack+0xce1>
    15de:	30 e0       	ldi	r19, 0x00	; 0
    15e0:	81 e0       	ldi	r24, 0x01	; 1
    15e2:	40 91 c8 01 	lds	r20, 0x01C8	; 0x8001c8 <flag_z>
    15e6:	50 91 c9 01 	lds	r21, 0x01C9	; 0x8001c9 <flag_z+0x1>
    15ea:	45 2b       	or	r20, r21
    15ec:	09 f0       	breq	.+2      	; 0x15f0 <__stack+0xcf1>
    15ee:	80 e0       	ldi	r24, 0x00	; 0
    15f0:	83 23       	and	r24, r19
    15f2:	22 23       	and	r18, r18
    15f4:	71 f0       	breq	.+28     	; 0x1612 <__stack+0xd13>
    15f6:	88 23       	and	r24, r24
    15f8:	61 f0       	breq	.+24     	; 0x1612 <__stack+0xd13>
    15fa:	27 e0       	ldi	r18, 0x07	; 7
    15fc:	30 e0       	ldi	r19, 0x00	; 0
    15fe:	30 93 01 01 	sts	0x0101, r19	; 0x800101 <__DATA_REGION_ORIGIN__+0x1>
    1602:	20 93 00 01 	sts	0x0100, r18	; 0x800100 <__DATA_REGION_ORIGIN__>
    1606:	21 e0       	ldi	r18, 0x01	; 1
    1608:	30 e0       	ldi	r19, 0x00	; 0
    160a:	30 93 c7 01 	sts	0x01C7, r19	; 0x8001c7 <flag_z1+0x1>
    160e:	20 93 c6 01 	sts	0x01C6, r18	; 0x8001c6 <flag_z1>
    1612:	20 91 ba 01 	lds	r18, 0x01BA	; 0x8001ba <cont_t>
    1616:	30 91 bb 01 	lds	r19, 0x01BB	; 0x8001bb <cont_t+0x1>
    161a:	41 e0       	ldi	r20, 0x01	; 1
    161c:	93 31       	cpi	r25, 0x13	; 19
    161e:	09 f0       	breq	.+2      	; 0x1622 <__stack+0xd23>
    1620:	40 e0       	ldi	r20, 0x00	; 0
    1622:	81 e0       	ldi	r24, 0x01	; 1
    1624:	22 30       	cpi	r18, 0x02	; 2
    1626:	31 05       	cpc	r19, r1
    1628:	0c f0       	brlt	.+2      	; 0x162c <__stack+0xd2d>
    162a:	80 e0       	ldi	r24, 0x00	; 0
    162c:	84 23       	and	r24, r20
    162e:	79 f0       	breq	.+30     	; 0x164e <__stack+0xd4f>
    1630:	f9 01       	movw	r30, r18
    1632:	ee 0f       	add	r30, r30
    1634:	ff 1f       	adc	r31, r31
    1636:	e6 5f       	subi	r30, 0xF6	; 246
    1638:	fe 4f       	sbci	r31, 0xFE	; 254
    163a:	47 e0       	ldi	r20, 0x07	; 7
    163c:	50 e0       	ldi	r21, 0x00	; 0
    163e:	51 83       	std	Z+1, r21	; 0x01
    1640:	40 83       	st	Z, r20
    1642:	2f 5f       	subi	r18, 0xFF	; 255
    1644:	3f 4f       	sbci	r19, 0xFF	; 255
    1646:	30 93 bb 01 	sts	0x01BB, r19	; 0x8001bb <cont_t+0x1>
    164a:	20 93 ba 01 	sts	0x01BA, r18	; 0x8001ba <cont_t>
    164e:	21 e0       	ldi	r18, 0x01	; 1
    1650:	97 30       	cpi	r25, 0x07	; 7
    1652:	09 f0       	breq	.+2      	; 0x1656 <__stack+0xd57>
    1654:	20 e0       	ldi	r18, 0x00	; 0
    1656:	91 e0       	ldi	r25, 0x01	; 1
    1658:	40 91 d6 01 	lds	r20, 0x01D6	; 0x8001d6 <flag_a_senha>
    165c:	50 91 d7 01 	lds	r21, 0x01D7	; 0x8001d7 <flag_a_senha+0x1>
    1660:	45 2b       	or	r20, r21
    1662:	09 f0       	breq	.+2      	; 0x1666 <__stack+0xd67>
    1664:	90 e0       	ldi	r25, 0x00	; 0
    1666:	81 e0       	ldi	r24, 0x01	; 1
    1668:	40 91 c0 01 	lds	r20, 0x01C0	; 0x8001c0 <flag_timeout>
    166c:	50 91 c1 01 	lds	r21, 0x01C1	; 0x8001c1 <flag_timeout+0x1>
    1670:	45 2b       	or	r20, r21
    1672:	09 f0       	breq	.+2      	; 0x1676 <__stack+0xd77>
    1674:	80 e0       	ldi	r24, 0x00	; 0
    1676:	89 23       	and	r24, r25
    1678:	22 23       	and	r18, r18
    167a:	69 f0       	breq	.+26     	; 0x1696 <__stack+0xd97>
    167c:	88 23       	and	r24, r24
    167e:	59 f0       	breq	.+22     	; 0x1696 <__stack+0xd97>
    1680:	83 e1       	ldi	r24, 0x13	; 19
    1682:	80 93 d8 01 	sts	0x01D8, r24	; 0x8001d8 <state>
    1686:	81 e0       	ldi	r24, 0x01	; 1
    1688:	90 e0       	ldi	r25, 0x00	; 0
    168a:	90 93 c1 01 	sts	0x01C1, r25	; 0x8001c1 <flag_timeout+0x1>
    168e:	80 93 c0 01 	sts	0x01C0, r24	; 0x8001c0 <flag_timeout>
    1692:	0e 94 75 17 	call	0x2eea	; 0x2eea <msg_ajusteTout>
    1696:	20 91 d8 01 	lds	r18, 0x01D8	; 0x8001d8 <state>
    169a:	81 e0       	ldi	r24, 0x01	; 1
    169c:	40 91 ba 01 	lds	r20, 0x01BA	; 0x8001ba <cont_t>
    16a0:	50 91 bb 01 	lds	r21, 0x01BB	; 0x8001bb <cont_t+0x1>
    16a4:	43 30       	cpi	r20, 0x03	; 3
    16a6:	51 05       	cpc	r21, r1
    16a8:	0c f0       	brlt	.+2      	; 0x16ac <__stack+0xdad>
    16aa:	80 e0       	ldi	r24, 0x00	; 0
    16ac:	91 e0       	ldi	r25, 0x01	; 1
    16ae:	24 31       	cpi	r18, 0x14	; 20
    16b0:	09 f0       	breq	.+2      	; 0x16b4 <__stack+0xdb5>
    16b2:	90 e0       	ldi	r25, 0x00	; 0
    16b4:	98 23       	and	r25, r24
    16b6:	99 f0       	breq	.+38     	; 0x16de <__stack+0xddf>
    16b8:	40 91 b6 01 	lds	r20, 0x01B6	; 0x8001b6 <cont_s>
    16bc:	50 91 b7 01 	lds	r21, 0x01B7	; 0x8001b7 <cont_s+0x1>
    16c0:	fa 01       	movw	r30, r20
    16c2:	ee 0f       	add	r30, r30
    16c4:	ff 1f       	adc	r31, r31
    16c6:	e9 5d       	subi	r30, 0xD9	; 217
    16c8:	fe 4f       	sbci	r31, 0xFE	; 254
    16ca:	67 e0       	ldi	r22, 0x07	; 7
    16cc:	70 e0       	ldi	r23, 0x00	; 0
    16ce:	71 83       	std	Z+1, r23	; 0x01
    16d0:	60 83       	st	Z, r22
    16d2:	4f 5f       	subi	r20, 0xFF	; 255
    16d4:	5f 4f       	sbci	r21, 0xFF	; 255
    16d6:	50 93 b7 01 	sts	0x01B7, r21	; 0x8001b7 <cont_s+0x1>
    16da:	40 93 b6 01 	sts	0x01B6, r20	; 0x8001b6 <cont_s>
    16de:	91 e0       	ldi	r25, 0x01	; 1
    16e0:	22 31       	cpi	r18, 0x12	; 18
    16e2:	09 f0       	breq	.+2      	; 0x16e6 <__stack+0xde7>
    16e4:	90 e0       	ldi	r25, 0x00	; 0
    16e6:	89 23       	and	r24, r25
    16e8:	09 f4       	brne	.+2      	; 0x16ec <__stack+0xded>
    16ea:	f1 c4       	rjmp	.+2530   	; 0x20ce <__stack+0x17cf>
    16ec:	80 91 b8 01 	lds	r24, 0x01B8	; 0x8001b8 <cont_aa>
    16f0:	90 91 b9 01 	lds	r25, 0x01B9	; 0x8001b9 <cont_aa+0x1>
    16f4:	fc 01       	movw	r30, r24
    16f6:	ee 0f       	add	r30, r30
    16f8:	ff 1f       	adc	r31, r31
    16fa:	e1 5e       	subi	r30, 0xE1	; 225
    16fc:	fe 4f       	sbci	r31, 0xFE	; 254
    16fe:	27 e0       	ldi	r18, 0x07	; 7
    1700:	30 e0       	ldi	r19, 0x00	; 0
    1702:	31 83       	std	Z+1, r19	; 0x01
    1704:	20 83       	st	Z, r18
    1706:	01 96       	adiw	r24, 0x01	; 1
    1708:	90 93 b9 01 	sts	0x01B9, r25	; 0x8001b9 <cont_aa+0x1>
    170c:	80 93 b8 01 	sts	0x01B8, r24	; 0x8001b8 <cont_aa>
    1710:	de c4       	rjmp	.+2492   	; 0x20ce <__stack+0x17cf>
    1712:	80 36       	cpi	r24, 0x60	; 96
    1714:	91 05       	cpc	r25, r1
    1716:	09 f0       	breq	.+2      	; 0x171a <__stack+0xe1b>
    1718:	23 c1       	rjmp	.+582    	; 0x1960 <__stack+0x1061>
    171a:	91 e0       	ldi	r25, 0x01	; 1
    171c:	80 91 d8 01 	lds	r24, 0x01D8	; 0x8001d8 <state>
    1720:	88 30       	cpi	r24, 0x08	; 8
    1722:	09 f0       	breq	.+2      	; 0x1726 <__stack+0xe27>
    1724:	90 e0       	ldi	r25, 0x00	; 0
    1726:	81 e0       	ldi	r24, 0x01	; 1
    1728:	20 91 d4 01 	lds	r18, 0x01D4	; 0x8001d4 <count_senha>
    172c:	30 91 d5 01 	lds	r19, 0x01D5	; 0x8001d5 <count_senha+0x1>
    1730:	24 30       	cpi	r18, 0x04	; 4
    1732:	31 05       	cpc	r19, r1
    1734:	0c f0       	brlt	.+2      	; 0x1738 <__stack+0xe39>
    1736:	80 e0       	ldi	r24, 0x00	; 0
    1738:	89 23       	and	r24, r25
    173a:	a9 f0       	breq	.+42     	; 0x1766 <__stack+0xe67>
    173c:	88 e3       	ldi	r24, 0x38	; 56
    173e:	0e 94 91 19 	call	0x3322	; 0x3322 <send_word_lcd>
    1742:	44 e4       	ldi	r20, 0x44	; 68
    1744:	52 e0       	ldi	r21, 0x02	; 2
    1746:	60 e0       	ldi	r22, 0x00	; 0
    1748:	80 91 d4 01 	lds	r24, 0x01D4	; 0x8001d4 <count_senha>
    174c:	90 91 d5 01 	lds	r25, 0x01D5	; 0x8001d5 <count_senha+0x1>
    1750:	0e 94 1e 1b 	call	0x363c	; 0x363c <insert_senha>
    1754:	80 91 d4 01 	lds	r24, 0x01D4	; 0x8001d4 <count_senha>
    1758:	90 91 d5 01 	lds	r25, 0x01D5	; 0x8001d5 <count_senha+0x1>
    175c:	01 96       	adiw	r24, 0x01	; 1
    175e:	90 93 d5 01 	sts	0x01D5, r25	; 0x8001d5 <count_senha+0x1>
    1762:	80 93 d4 01 	sts	0x01D4, r24	; 0x8001d4 <count_senha>
    1766:	91 e0       	ldi	r25, 0x01	; 1
    1768:	80 91 d8 01 	lds	r24, 0x01D8	; 0x8001d8 <state>
    176c:	89 30       	cpi	r24, 0x09	; 9
    176e:	09 f0       	breq	.+2      	; 0x1772 <__stack+0xe73>
    1770:	90 e0       	ldi	r25, 0x00	; 0
    1772:	81 e0       	ldi	r24, 0x01	; 1
    1774:	20 91 d4 01 	lds	r18, 0x01D4	; 0x8001d4 <count_senha>
    1778:	30 91 d5 01 	lds	r19, 0x01D5	; 0x8001d5 <count_senha+0x1>
    177c:	24 30       	cpi	r18, 0x04	; 4
    177e:	31 05       	cpc	r19, r1
    1780:	0c f0       	brlt	.+2      	; 0x1784 <__stack+0xe85>
    1782:	80 e0       	ldi	r24, 0x00	; 0
    1784:	89 23       	and	r24, r25
    1786:	a9 f0       	breq	.+42     	; 0x17b2 <__stack+0xeb3>
    1788:	88 e3       	ldi	r24, 0x38	; 56
    178a:	0e 94 91 19 	call	0x3322	; 0x3322 <send_word_lcd>
    178e:	44 e4       	ldi	r20, 0x44	; 68
    1790:	52 e0       	ldi	r21, 0x02	; 2
    1792:	60 e0       	ldi	r22, 0x00	; 0
    1794:	80 91 d4 01 	lds	r24, 0x01D4	; 0x8001d4 <count_senha>
    1798:	90 91 d5 01 	lds	r25, 0x01D5	; 0x8001d5 <count_senha+0x1>
    179c:	0e 94 f3 18 	call	0x31e6	; 0x31e6 <senha_arm>
    17a0:	80 91 d4 01 	lds	r24, 0x01D4	; 0x8001d4 <count_senha>
    17a4:	90 91 d5 01 	lds	r25, 0x01D5	; 0x8001d5 <count_senha+0x1>
    17a8:	01 96       	adiw	r24, 0x01	; 1
    17aa:	90 93 d5 01 	sts	0x01D5, r25	; 0x8001d5 <count_senha+0x1>
    17ae:	80 93 d4 01 	sts	0x01D4, r24	; 0x8001d4 <count_senha>
    17b2:	91 e0       	ldi	r25, 0x01	; 1
    17b4:	80 91 d8 01 	lds	r24, 0x01D8	; 0x8001d8 <state>
    17b8:	8a 30       	cpi	r24, 0x0A	; 10
    17ba:	09 f0       	breq	.+2      	; 0x17be <__stack+0xebf>
    17bc:	90 e0       	ldi	r25, 0x00	; 0
    17be:	81 e0       	ldi	r24, 0x01	; 1
    17c0:	20 91 d4 01 	lds	r18, 0x01D4	; 0x8001d4 <count_senha>
    17c4:	30 91 d5 01 	lds	r19, 0x01D5	; 0x8001d5 <count_senha+0x1>
    17c8:	24 30       	cpi	r18, 0x04	; 4
    17ca:	31 05       	cpc	r19, r1
    17cc:	0c f0       	brlt	.+2      	; 0x17d0 <__stack+0xed1>
    17ce:	80 e0       	ldi	r24, 0x00	; 0
    17d0:	89 23       	and	r24, r25
    17d2:	a9 f0       	breq	.+42     	; 0x17fe <__stack+0xeff>
    17d4:	88 e3       	ldi	r24, 0x38	; 56
    17d6:	0e 94 91 19 	call	0x3322	; 0x3322 <send_word_lcd>
    17da:	44 e4       	ldi	r20, 0x44	; 68
    17dc:	52 e0       	ldi	r21, 0x02	; 2
    17de:	60 e0       	ldi	r22, 0x00	; 0
    17e0:	80 91 d4 01 	lds	r24, 0x01D4	; 0x8001d4 <count_senha>
    17e4:	90 91 d5 01 	lds	r25, 0x01D5	; 0x8001d5 <count_senha+0x1>
    17e8:	0e 94 1e 1b 	call	0x363c	; 0x363c <insert_senha>
    17ec:	80 91 d4 01 	lds	r24, 0x01D4	; 0x8001d4 <count_senha>
    17f0:	90 91 d5 01 	lds	r25, 0x01D5	; 0x8001d5 <count_senha+0x1>
    17f4:	01 96       	adiw	r24, 0x01	; 1
    17f6:	90 93 d5 01 	sts	0x01D5, r25	; 0x8001d5 <count_senha+0x1>
    17fa:	80 93 d4 01 	sts	0x01D4, r24	; 0x8001d4 <count_senha>
    17fe:	91 e0       	ldi	r25, 0x01	; 1
    1800:	80 91 d8 01 	lds	r24, 0x01D8	; 0x8001d8 <state>
    1804:	8b 30       	cpi	r24, 0x0B	; 11
    1806:	09 f0       	breq	.+2      	; 0x180a <__stack+0xf0b>
    1808:	90 e0       	ldi	r25, 0x00	; 0
    180a:	81 e0       	ldi	r24, 0x01	; 1
    180c:	20 91 d4 01 	lds	r18, 0x01D4	; 0x8001d4 <count_senha>
    1810:	30 91 d5 01 	lds	r19, 0x01D5	; 0x8001d5 <count_senha+0x1>
    1814:	24 30       	cpi	r18, 0x04	; 4
    1816:	31 05       	cpc	r19, r1
    1818:	0c f0       	brlt	.+2      	; 0x181c <__stack+0xf1d>
    181a:	80 e0       	ldi	r24, 0x00	; 0
    181c:	89 23       	and	r24, r25
    181e:	a9 f0       	breq	.+42     	; 0x184a <__stack+0xf4b>
    1820:	88 e3       	ldi	r24, 0x38	; 56
    1822:	0e 94 91 19 	call	0x3322	; 0x3322 <send_word_lcd>
    1826:	40 e4       	ldi	r20, 0x40	; 64
    1828:	52 e0       	ldi	r21, 0x02	; 2
    182a:	60 e0       	ldi	r22, 0x00	; 0
    182c:	80 91 d4 01 	lds	r24, 0x01D4	; 0x8001d4 <count_senha>
    1830:	90 91 d5 01 	lds	r25, 0x01D5	; 0x8001d5 <count_senha+0x1>
    1834:	0e 94 1e 1b 	call	0x363c	; 0x363c <insert_senha>
    1838:	80 91 d4 01 	lds	r24, 0x01D4	; 0x8001d4 <count_senha>
    183c:	90 91 d5 01 	lds	r25, 0x01D5	; 0x8001d5 <count_senha+0x1>
    1840:	01 96       	adiw	r24, 0x01	; 1
    1842:	90 93 d5 01 	sts	0x01D5, r25	; 0x8001d5 <count_senha+0x1>
    1846:	80 93 d4 01 	sts	0x01D4, r24	; 0x8001d4 <count_senha>
    184a:	90 91 d8 01 	lds	r25, 0x01D8	; 0x8001d8 <state>
    184e:	20 91 ba 01 	lds	r18, 0x01BA	; 0x8001ba <cont_t>
    1852:	30 91 bb 01 	lds	r19, 0x01BB	; 0x8001bb <cont_t+0x1>
    1856:	41 e0       	ldi	r20, 0x01	; 1
    1858:	93 31       	cpi	r25, 0x13	; 19
    185a:	09 f0       	breq	.+2      	; 0x185e <__stack+0xf5f>
    185c:	40 e0       	ldi	r20, 0x00	; 0
    185e:	81 e0       	ldi	r24, 0x01	; 1
    1860:	22 30       	cpi	r18, 0x02	; 2
    1862:	31 05       	cpc	r19, r1
    1864:	0c f0       	brlt	.+2      	; 0x1868 <__stack+0xf69>
    1866:	80 e0       	ldi	r24, 0x00	; 0
    1868:	84 23       	and	r24, r20
    186a:	79 f0       	breq	.+30     	; 0x188a <__stack+0xf8b>
    186c:	f9 01       	movw	r30, r18
    186e:	ee 0f       	add	r30, r30
    1870:	ff 1f       	adc	r31, r31
    1872:	e6 5f       	subi	r30, 0xF6	; 246
    1874:	fe 4f       	sbci	r31, 0xFE	; 254
    1876:	48 e0       	ldi	r20, 0x08	; 8
    1878:	50 e0       	ldi	r21, 0x00	; 0
    187a:	51 83       	std	Z+1, r21	; 0x01
    187c:	40 83       	st	Z, r20
    187e:	2f 5f       	subi	r18, 0xFF	; 255
    1880:	3f 4f       	sbci	r19, 0xFF	; 255
    1882:	30 93 bb 01 	sts	0x01BB, r19	; 0x8001bb <cont_t+0x1>
    1886:	20 93 ba 01 	sts	0x01BA, r18	; 0x8001ba <cont_t>
    188a:	21 e0       	ldi	r18, 0x01	; 1
    188c:	40 91 ba 01 	lds	r20, 0x01BA	; 0x8001ba <cont_t>
    1890:	50 91 bb 01 	lds	r21, 0x01BB	; 0x8001bb <cont_t+0x1>
    1894:	43 30       	cpi	r20, 0x03	; 3
    1896:	51 05       	cpc	r21, r1
    1898:	0c f0       	brlt	.+2      	; 0x189c <__stack+0xf9d>
    189a:	20 e0       	ldi	r18, 0x00	; 0
    189c:	81 e0       	ldi	r24, 0x01	; 1
    189e:	94 31       	cpi	r25, 0x14	; 20
    18a0:	09 f0       	breq	.+2      	; 0x18a4 <__stack+0xfa5>
    18a2:	80 e0       	ldi	r24, 0x00	; 0
    18a4:	82 23       	and	r24, r18
    18a6:	99 f0       	breq	.+38     	; 0x18ce <__stack+0xfcf>
    18a8:	20 91 b6 01 	lds	r18, 0x01B6	; 0x8001b6 <cont_s>
    18ac:	30 91 b7 01 	lds	r19, 0x01B7	; 0x8001b7 <cont_s+0x1>
    18b0:	f9 01       	movw	r30, r18
    18b2:	ee 0f       	add	r30, r30
    18b4:	ff 1f       	adc	r31, r31
    18b6:	e9 5d       	subi	r30, 0xD9	; 217
    18b8:	fe 4f       	sbci	r31, 0xFE	; 254
    18ba:	48 e0       	ldi	r20, 0x08	; 8
    18bc:	50 e0       	ldi	r21, 0x00	; 0
    18be:	51 83       	std	Z+1, r21	; 0x01
    18c0:	40 83       	st	Z, r20
    18c2:	2f 5f       	subi	r18, 0xFF	; 255
    18c4:	3f 4f       	sbci	r19, 0xFF	; 255
    18c6:	30 93 b7 01 	sts	0x01B7, r19	; 0x8001b7 <cont_s+0x1>
    18ca:	20 93 b6 01 	sts	0x01B6, r18	; 0x8001b6 <cont_s>
    18ce:	21 e0       	ldi	r18, 0x01	; 1
    18d0:	97 30       	cpi	r25, 0x07	; 7
    18d2:	09 f0       	breq	.+2      	; 0x18d6 <__stack+0xfd7>
    18d4:	20 e0       	ldi	r18, 0x00	; 0
    18d6:	91 e0       	ldi	r25, 0x01	; 1
    18d8:	40 91 d6 01 	lds	r20, 0x01D6	; 0x8001d6 <flag_a_senha>
    18dc:	50 91 d7 01 	lds	r21, 0x01D7	; 0x8001d7 <flag_a_senha+0x1>
    18e0:	45 2b       	or	r20, r21
    18e2:	09 f0       	breq	.+2      	; 0x18e6 <__stack+0xfe7>
    18e4:	90 e0       	ldi	r25, 0x00	; 0
    18e6:	81 e0       	ldi	r24, 0x01	; 1
    18e8:	40 91 c0 01 	lds	r20, 0x01C0	; 0x8001c0 <flag_timeout>
    18ec:	50 91 c1 01 	lds	r21, 0x01C1	; 0x8001c1 <flag_timeout+0x1>
    18f0:	45 2b       	or	r20, r21
    18f2:	09 f0       	breq	.+2      	; 0x18f6 <__stack+0xff7>
    18f4:	80 e0       	ldi	r24, 0x00	; 0
    18f6:	89 23       	and	r24, r25
    18f8:	22 23       	and	r18, r18
    18fa:	69 f0       	breq	.+26     	; 0x1916 <__stack+0x1017>
    18fc:	88 23       	and	r24, r24
    18fe:	59 f0       	breq	.+22     	; 0x1916 <__stack+0x1017>
    1900:	84 e1       	ldi	r24, 0x14	; 20
    1902:	80 93 d8 01 	sts	0x01D8, r24	; 0x8001d8 <state>
    1906:	81 e0       	ldi	r24, 0x01	; 1
    1908:	90 e0       	ldi	r25, 0x00	; 0
    190a:	90 93 bf 01 	sts	0x01BF, r25	; 0x8001bf <flag_tsirene+0x1>
    190e:	80 93 be 01 	sts	0x01BE, r24	; 0x8001be <flag_tsirene>
    1912:	0e 94 a8 17 	call	0x2f50	; 0x2f50 <msg_time_sirene>
    1916:	91 e0       	ldi	r25, 0x01	; 1
    1918:	80 91 d8 01 	lds	r24, 0x01D8	; 0x8001d8 <state>
    191c:	82 31       	cpi	r24, 0x12	; 18
    191e:	09 f0       	breq	.+2      	; 0x1922 <__stack+0x1023>
    1920:	90 e0       	ldi	r25, 0x00	; 0
    1922:	81 e0       	ldi	r24, 0x01	; 1
    1924:	20 91 ba 01 	lds	r18, 0x01BA	; 0x8001ba <cont_t>
    1928:	30 91 bb 01 	lds	r19, 0x01BB	; 0x8001bb <cont_t+0x1>
    192c:	23 30       	cpi	r18, 0x03	; 3
    192e:	31 05       	cpc	r19, r1
    1930:	0c f0       	brlt	.+2      	; 0x1934 <__stack+0x1035>
    1932:	80 e0       	ldi	r24, 0x00	; 0
    1934:	89 23       	and	r24, r25
    1936:	09 f4       	brne	.+2      	; 0x193a <__stack+0x103b>
    1938:	ca c3       	rjmp	.+1940   	; 0x20ce <__stack+0x17cf>
    193a:	80 91 b8 01 	lds	r24, 0x01B8	; 0x8001b8 <cont_aa>
    193e:	90 91 b9 01 	lds	r25, 0x01B9	; 0x8001b9 <cont_aa+0x1>
    1942:	fc 01       	movw	r30, r24
    1944:	ee 0f       	add	r30, r30
    1946:	ff 1f       	adc	r31, r31
    1948:	e1 5e       	subi	r30, 0xE1	; 225
    194a:	fe 4f       	sbci	r31, 0xFE	; 254
    194c:	28 e0       	ldi	r18, 0x08	; 8
    194e:	30 e0       	ldi	r19, 0x00	; 0
    1950:	31 83       	std	Z+1, r19	; 0x01
    1952:	20 83       	st	Z, r18
    1954:	01 96       	adiw	r24, 0x01	; 1
    1956:	90 93 b9 01 	sts	0x01B9, r25	; 0x8001b9 <cont_aa+0x1>
    195a:	80 93 b8 01 	sts	0x01B8, r24	; 0x8001b8 <cont_aa>
    195e:	b7 c3       	rjmp	.+1902   	; 0x20ce <__stack+0x17cf>
    1960:	80 35       	cpi	r24, 0x50	; 80
    1962:	91 05       	cpc	r25, r1
    1964:	09 f0       	breq	.+2      	; 0x1968 <__stack+0x1069>
    1966:	f4 c0       	rjmp	.+488    	; 0x1b50 <__stack+0x1251>
    1968:	91 e0       	ldi	r25, 0x01	; 1
    196a:	80 91 d8 01 	lds	r24, 0x01D8	; 0x8001d8 <state>
    196e:	88 30       	cpi	r24, 0x08	; 8
    1970:	09 f0       	breq	.+2      	; 0x1974 <__stack+0x1075>
    1972:	90 e0       	ldi	r25, 0x00	; 0
    1974:	81 e0       	ldi	r24, 0x01	; 1
    1976:	20 91 d4 01 	lds	r18, 0x01D4	; 0x8001d4 <count_senha>
    197a:	30 91 d5 01 	lds	r19, 0x01D5	; 0x8001d5 <count_senha+0x1>
    197e:	24 30       	cpi	r18, 0x04	; 4
    1980:	31 05       	cpc	r19, r1
    1982:	0c f0       	brlt	.+2      	; 0x1986 <__stack+0x1087>
    1984:	80 e0       	ldi	r24, 0x00	; 0
    1986:	89 23       	and	r24, r25
    1988:	a9 f0       	breq	.+42     	; 0x19b4 <__stack+0x10b5>
    198a:	89 e3       	ldi	r24, 0x39	; 57
    198c:	0e 94 91 19 	call	0x3322	; 0x3322 <send_word_lcd>
    1990:	46 e4       	ldi	r20, 0x46	; 70
    1992:	52 e0       	ldi	r21, 0x02	; 2
    1994:	60 e0       	ldi	r22, 0x00	; 0
    1996:	80 91 d4 01 	lds	r24, 0x01D4	; 0x8001d4 <count_senha>
    199a:	90 91 d5 01 	lds	r25, 0x01D5	; 0x8001d5 <count_senha+0x1>
    199e:	0e 94 1e 1b 	call	0x363c	; 0x363c <insert_senha>
    19a2:	80 91 d4 01 	lds	r24, 0x01D4	; 0x8001d4 <count_senha>
    19a6:	90 91 d5 01 	lds	r25, 0x01D5	; 0x8001d5 <count_senha+0x1>
    19aa:	01 96       	adiw	r24, 0x01	; 1
    19ac:	90 93 d5 01 	sts	0x01D5, r25	; 0x8001d5 <count_senha+0x1>
    19b0:	80 93 d4 01 	sts	0x01D4, r24	; 0x8001d4 <count_senha>
    19b4:	91 e0       	ldi	r25, 0x01	; 1
    19b6:	80 91 d8 01 	lds	r24, 0x01D8	; 0x8001d8 <state>
    19ba:	89 30       	cpi	r24, 0x09	; 9
    19bc:	09 f0       	breq	.+2      	; 0x19c0 <__stack+0x10c1>
    19be:	90 e0       	ldi	r25, 0x00	; 0
    19c0:	81 e0       	ldi	r24, 0x01	; 1
    19c2:	20 91 d4 01 	lds	r18, 0x01D4	; 0x8001d4 <count_senha>
    19c6:	30 91 d5 01 	lds	r19, 0x01D5	; 0x8001d5 <count_senha+0x1>
    19ca:	24 30       	cpi	r18, 0x04	; 4
    19cc:	31 05       	cpc	r19, r1
    19ce:	0c f0       	brlt	.+2      	; 0x19d2 <__stack+0x10d3>
    19d0:	80 e0       	ldi	r24, 0x00	; 0
    19d2:	89 23       	and	r24, r25
    19d4:	a9 f0       	breq	.+42     	; 0x1a00 <__stack+0x1101>
    19d6:	89 e3       	ldi	r24, 0x39	; 57
    19d8:	0e 94 91 19 	call	0x3322	; 0x3322 <send_word_lcd>
    19dc:	46 e4       	ldi	r20, 0x46	; 70
    19de:	52 e0       	ldi	r21, 0x02	; 2
    19e0:	60 e0       	ldi	r22, 0x00	; 0
    19e2:	80 91 d4 01 	lds	r24, 0x01D4	; 0x8001d4 <count_senha>
    19e6:	90 91 d5 01 	lds	r25, 0x01D5	; 0x8001d5 <count_senha+0x1>
    19ea:	0e 94 f3 18 	call	0x31e6	; 0x31e6 <senha_arm>
    19ee:	80 91 d4 01 	lds	r24, 0x01D4	; 0x8001d4 <count_senha>
    19f2:	90 91 d5 01 	lds	r25, 0x01D5	; 0x8001d5 <count_senha+0x1>
    19f6:	01 96       	adiw	r24, 0x01	; 1
    19f8:	90 93 d5 01 	sts	0x01D5, r25	; 0x8001d5 <count_senha+0x1>
    19fc:	80 93 d4 01 	sts	0x01D4, r24	; 0x8001d4 <count_senha>
    1a00:	91 e0       	ldi	r25, 0x01	; 1
    1a02:	80 91 d8 01 	lds	r24, 0x01D8	; 0x8001d8 <state>
    1a06:	8a 30       	cpi	r24, 0x0A	; 10
    1a08:	09 f0       	breq	.+2      	; 0x1a0c <__stack+0x110d>
    1a0a:	90 e0       	ldi	r25, 0x00	; 0
    1a0c:	81 e0       	ldi	r24, 0x01	; 1
    1a0e:	20 91 d4 01 	lds	r18, 0x01D4	; 0x8001d4 <count_senha>
    1a12:	30 91 d5 01 	lds	r19, 0x01D5	; 0x8001d5 <count_senha+0x1>
    1a16:	24 30       	cpi	r18, 0x04	; 4
    1a18:	31 05       	cpc	r19, r1
    1a1a:	0c f0       	brlt	.+2      	; 0x1a1e <__stack+0x111f>
    1a1c:	80 e0       	ldi	r24, 0x00	; 0
    1a1e:	89 23       	and	r24, r25
    1a20:	a9 f0       	breq	.+42     	; 0x1a4c <__stack+0x114d>
    1a22:	89 e3       	ldi	r24, 0x39	; 57
    1a24:	0e 94 91 19 	call	0x3322	; 0x3322 <send_word_lcd>
    1a28:	46 e4       	ldi	r20, 0x46	; 70
    1a2a:	52 e0       	ldi	r21, 0x02	; 2
    1a2c:	60 e0       	ldi	r22, 0x00	; 0
    1a2e:	80 91 d4 01 	lds	r24, 0x01D4	; 0x8001d4 <count_senha>
    1a32:	90 91 d5 01 	lds	r25, 0x01D5	; 0x8001d5 <count_senha+0x1>
    1a36:	0e 94 1e 1b 	call	0x363c	; 0x363c <insert_senha>
    1a3a:	80 91 d4 01 	lds	r24, 0x01D4	; 0x8001d4 <count_senha>
    1a3e:	90 91 d5 01 	lds	r25, 0x01D5	; 0x8001d5 <count_senha+0x1>
    1a42:	01 96       	adiw	r24, 0x01	; 1
    1a44:	90 93 d5 01 	sts	0x01D5, r25	; 0x8001d5 <count_senha+0x1>
    1a48:	80 93 d4 01 	sts	0x01D4, r24	; 0x8001d4 <count_senha>
    1a4c:	91 e0       	ldi	r25, 0x01	; 1
    1a4e:	80 91 d8 01 	lds	r24, 0x01D8	; 0x8001d8 <state>
    1a52:	8b 30       	cpi	r24, 0x0B	; 11
    1a54:	09 f0       	breq	.+2      	; 0x1a58 <__stack+0x1159>
    1a56:	90 e0       	ldi	r25, 0x00	; 0
    1a58:	81 e0       	ldi	r24, 0x01	; 1
    1a5a:	20 91 d4 01 	lds	r18, 0x01D4	; 0x8001d4 <count_senha>
    1a5e:	30 91 d5 01 	lds	r19, 0x01D5	; 0x8001d5 <count_senha+0x1>
    1a62:	24 30       	cpi	r18, 0x04	; 4
    1a64:	31 05       	cpc	r19, r1
    1a66:	0c f0       	brlt	.+2      	; 0x1a6a <__stack+0x116b>
    1a68:	80 e0       	ldi	r24, 0x00	; 0
    1a6a:	89 23       	and	r24, r25
    1a6c:	a9 f0       	breq	.+42     	; 0x1a98 <__stack+0x1199>
    1a6e:	89 e3       	ldi	r24, 0x39	; 57
    1a70:	0e 94 91 19 	call	0x3322	; 0x3322 <send_word_lcd>
    1a74:	46 e4       	ldi	r20, 0x46	; 70
    1a76:	52 e0       	ldi	r21, 0x02	; 2
    1a78:	60 e0       	ldi	r22, 0x00	; 0
    1a7a:	80 91 d4 01 	lds	r24, 0x01D4	; 0x8001d4 <count_senha>
    1a7e:	90 91 d5 01 	lds	r25, 0x01D5	; 0x8001d5 <count_senha+0x1>
    1a82:	0e 94 1e 1b 	call	0x363c	; 0x363c <insert_senha>
    1a86:	80 91 d4 01 	lds	r24, 0x01D4	; 0x8001d4 <count_senha>
    1a8a:	90 91 d5 01 	lds	r25, 0x01D5	; 0x8001d5 <count_senha+0x1>
    1a8e:	01 96       	adiw	r24, 0x01	; 1
    1a90:	90 93 d5 01 	sts	0x01D5, r25	; 0x8001d5 <count_senha+0x1>
    1a94:	80 93 d4 01 	sts	0x01D4, r24	; 0x8001d4 <count_senha>
    1a98:	20 91 d8 01 	lds	r18, 0x01D8	; 0x8001d8 <state>
    1a9c:	40 91 ba 01 	lds	r20, 0x01BA	; 0x8001ba <cont_t>
    1aa0:	50 91 bb 01 	lds	r21, 0x01BB	; 0x8001bb <cont_t+0x1>
    1aa4:	91 e0       	ldi	r25, 0x01	; 1
    1aa6:	23 31       	cpi	r18, 0x13	; 19
    1aa8:	09 f0       	breq	.+2      	; 0x1aac <__stack+0x11ad>
    1aaa:	90 e0       	ldi	r25, 0x00	; 0
    1aac:	81 e0       	ldi	r24, 0x01	; 1
    1aae:	42 30       	cpi	r20, 0x02	; 2
    1ab0:	51 05       	cpc	r21, r1
    1ab2:	0c f0       	brlt	.+2      	; 0x1ab6 <__stack+0x11b7>
    1ab4:	80 e0       	ldi	r24, 0x00	; 0
    1ab6:	89 23       	and	r24, r25
    1ab8:	79 f0       	breq	.+30     	; 0x1ad8 <__stack+0x11d9>
    1aba:	fa 01       	movw	r30, r20
    1abc:	ee 0f       	add	r30, r30
    1abe:	ff 1f       	adc	r31, r31
    1ac0:	e6 5f       	subi	r30, 0xF6	; 246
    1ac2:	fe 4f       	sbci	r31, 0xFE	; 254
    1ac4:	89 e0       	ldi	r24, 0x09	; 9
    1ac6:	90 e0       	ldi	r25, 0x00	; 0
    1ac8:	91 83       	std	Z+1, r25	; 0x01
    1aca:	80 83       	st	Z, r24
    1acc:	4f 5f       	subi	r20, 0xFF	; 255
    1ace:	5f 4f       	sbci	r21, 0xFF	; 255
    1ad0:	50 93 bb 01 	sts	0x01BB, r21	; 0x8001bb <cont_t+0x1>
    1ad4:	40 93 ba 01 	sts	0x01BA, r20	; 0x8001ba <cont_t>
    1ad8:	81 e0       	ldi	r24, 0x01	; 1
    1ada:	40 91 ba 01 	lds	r20, 0x01BA	; 0x8001ba <cont_t>
    1ade:	50 91 bb 01 	lds	r21, 0x01BB	; 0x8001bb <cont_t+0x1>
    1ae2:	43 30       	cpi	r20, 0x03	; 3
    1ae4:	51 05       	cpc	r21, r1
    1ae6:	0c f0       	brlt	.+2      	; 0x1aea <__stack+0x11eb>
    1ae8:	80 e0       	ldi	r24, 0x00	; 0
    1aea:	91 e0       	ldi	r25, 0x01	; 1
    1aec:	24 31       	cpi	r18, 0x14	; 20
    1aee:	09 f0       	breq	.+2      	; 0x1af2 <__stack+0x11f3>
    1af0:	90 e0       	ldi	r25, 0x00	; 0
    1af2:	98 23       	and	r25, r24
    1af4:	99 f0       	breq	.+38     	; 0x1b1c <__stack+0x121d>
    1af6:	40 91 b6 01 	lds	r20, 0x01B6	; 0x8001b6 <cont_s>
    1afa:	50 91 b7 01 	lds	r21, 0x01B7	; 0x8001b7 <cont_s+0x1>
    1afe:	fa 01       	movw	r30, r20
    1b00:	ee 0f       	add	r30, r30
    1b02:	ff 1f       	adc	r31, r31
    1b04:	e9 5d       	subi	r30, 0xD9	; 217
    1b06:	fe 4f       	sbci	r31, 0xFE	; 254
    1b08:	69 e0       	ldi	r22, 0x09	; 9
    1b0a:	70 e0       	ldi	r23, 0x00	; 0
    1b0c:	71 83       	std	Z+1, r23	; 0x01
    1b0e:	60 83       	st	Z, r22
    1b10:	4f 5f       	subi	r20, 0xFF	; 255
    1b12:	5f 4f       	sbci	r21, 0xFF	; 255
    1b14:	50 93 b7 01 	sts	0x01B7, r21	; 0x8001b7 <cont_s+0x1>
    1b18:	40 93 b6 01 	sts	0x01B6, r20	; 0x8001b6 <cont_s>
    1b1c:	91 e0       	ldi	r25, 0x01	; 1
    1b1e:	22 31       	cpi	r18, 0x12	; 18
    1b20:	09 f0       	breq	.+2      	; 0x1b24 <__stack+0x1225>
    1b22:	90 e0       	ldi	r25, 0x00	; 0
    1b24:	89 23       	and	r24, r25
    1b26:	09 f4       	brne	.+2      	; 0x1b2a <__stack+0x122b>
    1b28:	d2 c2       	rjmp	.+1444   	; 0x20ce <__stack+0x17cf>
    1b2a:	80 91 b8 01 	lds	r24, 0x01B8	; 0x8001b8 <cont_aa>
    1b2e:	90 91 b9 01 	lds	r25, 0x01B9	; 0x8001b9 <cont_aa+0x1>
    1b32:	fc 01       	movw	r30, r24
    1b34:	ee 0f       	add	r30, r30
    1b36:	ff 1f       	adc	r31, r31
    1b38:	e1 5e       	subi	r30, 0xE1	; 225
    1b3a:	fe 4f       	sbci	r31, 0xFE	; 254
    1b3c:	29 e0       	ldi	r18, 0x09	; 9
    1b3e:	30 e0       	ldi	r19, 0x00	; 0
    1b40:	31 83       	std	Z+1, r19	; 0x01
    1b42:	20 83       	st	Z, r18
    1b44:	01 96       	adiw	r24, 0x01	; 1
    1b46:	90 93 b9 01 	sts	0x01B9, r25	; 0x8001b9 <cont_aa+0x1>
    1b4a:	80 93 b8 01 	sts	0x01B8, r24	; 0x8001b8 <cont_aa>
    1b4e:	bf c2       	rjmp	.+1406   	; 0x20ce <__stack+0x17cf>
    1b50:	80 34       	cpi	r24, 0x40	; 64
    1b52:	91 05       	cpc	r25, r1
    1b54:	49 f5       	brne	.+82     	; 0x1ba8 <__stack+0x12a9>
    1b56:	80 91 d8 01 	lds	r24, 0x01D8	; 0x8001d8 <state>
    1b5a:	85 30       	cpi	r24, 0x05	; 5
    1b5c:	29 f4       	brne	.+10     	; 0x1b68 <__stack+0x1269>
    1b5e:	8b e0       	ldi	r24, 0x0B	; 11
    1b60:	80 93 d8 01 	sts	0x01D8, r24	; 0x8001d8 <state>
    1b64:	0e 94 43 19 	call	0x3286	; 0x3286 <msg_inserir_senha>
    1b68:	91 e0       	ldi	r25, 0x01	; 1
    1b6a:	80 91 d8 01 	lds	r24, 0x01D8	; 0x8001d8 <state>
    1b6e:	88 30       	cpi	r24, 0x08	; 8
    1b70:	09 f0       	breq	.+2      	; 0x1b74 <__stack+0x1275>
    1b72:	90 e0       	ldi	r25, 0x00	; 0
    1b74:	81 e0       	ldi	r24, 0x01	; 1
    1b76:	20 91 d4 01 	lds	r18, 0x01D4	; 0x8001d4 <count_senha>
    1b7a:	30 91 d5 01 	lds	r19, 0x01D5	; 0x8001d5 <count_senha+0x1>
    1b7e:	24 30       	cpi	r18, 0x04	; 4
    1b80:	31 05       	cpc	r19, r1
    1b82:	09 f0       	breq	.+2      	; 0x1b86 <__stack+0x1287>
    1b84:	80 e0       	ldi	r24, 0x00	; 0
    1b86:	89 23       	and	r24, r25
    1b88:	09 f4       	brne	.+2      	; 0x1b8c <__stack+0x128d>
    1b8a:	a1 c2       	rjmp	.+1346   	; 0x20ce <__stack+0x17cf>
    1b8c:	8c e0       	ldi	r24, 0x0C	; 12
    1b8e:	80 93 d8 01 	sts	0x01D8, r24	; 0x8001d8 <state>
    1b92:	81 e0       	ldi	r24, 0x01	; 1
    1b94:	90 e0       	ldi	r25, 0x00	; 0
    1b96:	90 93 cd 01 	sts	0x01CD, r25	; 0x8001cd <flag_D_sensor+0x1>
    1b9a:	80 93 cc 01 	sts	0x01CC, r24	; 0x8001cc <flag_D_sensor>
    1b9e:	10 92 d5 01 	sts	0x01D5, r1	; 0x8001d5 <count_senha+0x1>
    1ba2:	10 92 d4 01 	sts	0x01D4, r1	; 0x8001d4 <count_senha>
    1ba6:	93 c2       	rjmp	.+1318   	; 0x20ce <__stack+0x17cf>
    1ba8:	80 33       	cpi	r24, 0x30	; 48
    1baa:	91 05       	cpc	r25, r1
    1bac:	11 f5       	brne	.+68     	; 0x1bf2 <__stack+0x12f3>
    1bae:	10 92 d8 01 	sts	0x01D8, r1	; 0x8001d8 <state>
    1bb2:	0e 94 14 1b 	call	0x3628	; 0x3628 <clear_Display>
    1bb6:	0e 94 47 1a 	call	0x348e	; 0x348e <msg_restauracao>
    1bba:	10 92 cb 01 	sts	0x01CB, r1	; 0x8001cb <flag_p+0x1>
    1bbe:	10 92 ca 01 	sts	0x01CA, r1	; 0x8001ca <flag_p>
    1bc2:	10 92 cf 01 	sts	0x01CF, r1	; 0x8001cf <flag_sensor+0x1>
    1bc6:	10 92 ce 01 	sts	0x01CE, r1	; 0x8001ce <flag_sensor>
    1bca:	10 92 cd 01 	sts	0x01CD, r1	; 0x8001cd <flag_D_sensor+0x1>
    1bce:	10 92 cc 01 	sts	0x01CC, r1	; 0x8001cc <flag_D_sensor>
    1bd2:	10 92 d7 01 	sts	0x01D7, r1	; 0x8001d7 <flag_a_senha+0x1>
    1bd6:	10 92 d6 01 	sts	0x01D6, r1	; 0x8001d6 <flag_a_senha>
    1bda:	10 92 69 00 	sts	0x0069, r1	; 0x800069 <__TEXT_REGION_LENGTH__+0x7f8069>
    1bde:	1d ba       	out	0x1d, r1	; 29
    1be0:	62 e3       	ldi	r22, 0x32	; 50
    1be2:	70 e0       	ldi	r23, 0x00	; 0
    1be4:	80 e0       	ldi	r24, 0x00	; 0
    1be6:	90 e0       	ldi	r25, 0x00	; 0
    1be8:	0e 94 c9 18 	call	0x3192	; 0x3192 <delay_ms>
    1bec:	0e 94 44 1b 	call	0x3688	; 0x3688 <init_int1>
    1bf0:	6e c2       	rjmp	.+1244   	; 0x20ce <__stack+0x17cf>
    1bf2:	80 32       	cpi	r24, 0x20	; 32
    1bf4:	91 05       	cpc	r25, r1
    1bf6:	09 f0       	breq	.+2      	; 0x1bfa <__stack+0x12fb>
    1bf8:	25 c1       	rjmp	.+586    	; 0x1e44 <__stack+0x1545>
    1bfa:	91 e0       	ldi	r25, 0x01	; 1
    1bfc:	80 91 d8 01 	lds	r24, 0x01D8	; 0x8001d8 <state>
    1c00:	88 30       	cpi	r24, 0x08	; 8
    1c02:	09 f0       	breq	.+2      	; 0x1c06 <__stack+0x1307>
    1c04:	90 e0       	ldi	r25, 0x00	; 0
    1c06:	81 e0       	ldi	r24, 0x01	; 1
    1c08:	20 91 d4 01 	lds	r18, 0x01D4	; 0x8001d4 <count_senha>
    1c0c:	30 91 d5 01 	lds	r19, 0x01D5	; 0x8001d5 <count_senha+0x1>
    1c10:	24 30       	cpi	r18, 0x04	; 4
    1c12:	31 05       	cpc	r19, r1
    1c14:	0c f0       	brlt	.+2      	; 0x1c18 <__stack+0x1319>
    1c16:	80 e0       	ldi	r24, 0x00	; 0
    1c18:	89 23       	and	r24, r25
    1c1a:	a9 f0       	breq	.+42     	; 0x1c46 <__stack+0x1347>
    1c1c:	80 e3       	ldi	r24, 0x30	; 48
    1c1e:	0e 94 91 19 	call	0x3322	; 0x3322 <send_word_lcd>
    1c22:	48 e4       	ldi	r20, 0x48	; 72
    1c24:	52 e0       	ldi	r21, 0x02	; 2
    1c26:	60 e0       	ldi	r22, 0x00	; 0
    1c28:	80 91 d4 01 	lds	r24, 0x01D4	; 0x8001d4 <count_senha>
    1c2c:	90 91 d5 01 	lds	r25, 0x01D5	; 0x8001d5 <count_senha+0x1>
    1c30:	0e 94 1e 1b 	call	0x363c	; 0x363c <insert_senha>
    1c34:	80 91 d4 01 	lds	r24, 0x01D4	; 0x8001d4 <count_senha>
    1c38:	90 91 d5 01 	lds	r25, 0x01D5	; 0x8001d5 <count_senha+0x1>
    1c3c:	01 96       	adiw	r24, 0x01	; 1
    1c3e:	90 93 d5 01 	sts	0x01D5, r25	; 0x8001d5 <count_senha+0x1>
    1c42:	80 93 d4 01 	sts	0x01D4, r24	; 0x8001d4 <count_senha>
    1c46:	91 e0       	ldi	r25, 0x01	; 1
    1c48:	80 91 d8 01 	lds	r24, 0x01D8	; 0x8001d8 <state>
    1c4c:	89 30       	cpi	r24, 0x09	; 9
    1c4e:	09 f0       	breq	.+2      	; 0x1c52 <__stack+0x1353>
    1c50:	90 e0       	ldi	r25, 0x00	; 0
    1c52:	81 e0       	ldi	r24, 0x01	; 1
    1c54:	20 91 d4 01 	lds	r18, 0x01D4	; 0x8001d4 <count_senha>
    1c58:	30 91 d5 01 	lds	r19, 0x01D5	; 0x8001d5 <count_senha+0x1>
    1c5c:	24 30       	cpi	r18, 0x04	; 4
    1c5e:	31 05       	cpc	r19, r1
    1c60:	0c f0       	brlt	.+2      	; 0x1c64 <__stack+0x1365>
    1c62:	80 e0       	ldi	r24, 0x00	; 0
    1c64:	89 23       	and	r24, r25
    1c66:	a9 f0       	breq	.+42     	; 0x1c92 <__stack+0x1393>
    1c68:	80 e3       	ldi	r24, 0x30	; 48
    1c6a:	0e 94 91 19 	call	0x3322	; 0x3322 <send_word_lcd>
    1c6e:	48 e4       	ldi	r20, 0x48	; 72
    1c70:	52 e0       	ldi	r21, 0x02	; 2
    1c72:	60 e0       	ldi	r22, 0x00	; 0
    1c74:	80 91 d4 01 	lds	r24, 0x01D4	; 0x8001d4 <count_senha>
    1c78:	90 91 d5 01 	lds	r25, 0x01D5	; 0x8001d5 <count_senha+0x1>
    1c7c:	0e 94 f3 18 	call	0x31e6	; 0x31e6 <senha_arm>
    1c80:	80 91 d4 01 	lds	r24, 0x01D4	; 0x8001d4 <count_senha>
    1c84:	90 91 d5 01 	lds	r25, 0x01D5	; 0x8001d5 <count_senha+0x1>
    1c88:	01 96       	adiw	r24, 0x01	; 1
    1c8a:	90 93 d5 01 	sts	0x01D5, r25	; 0x8001d5 <count_senha+0x1>
    1c8e:	80 93 d4 01 	sts	0x01D4, r24	; 0x8001d4 <count_senha>
    1c92:	91 e0       	ldi	r25, 0x01	; 1
    1c94:	80 91 d8 01 	lds	r24, 0x01D8	; 0x8001d8 <state>
    1c98:	8a 30       	cpi	r24, 0x0A	; 10
    1c9a:	09 f0       	breq	.+2      	; 0x1c9e <__stack+0x139f>
    1c9c:	90 e0       	ldi	r25, 0x00	; 0
    1c9e:	81 e0       	ldi	r24, 0x01	; 1
    1ca0:	20 91 d4 01 	lds	r18, 0x01D4	; 0x8001d4 <count_senha>
    1ca4:	30 91 d5 01 	lds	r19, 0x01D5	; 0x8001d5 <count_senha+0x1>
    1ca8:	24 30       	cpi	r18, 0x04	; 4
    1caa:	31 05       	cpc	r19, r1
    1cac:	0c f0       	brlt	.+2      	; 0x1cb0 <__stack+0x13b1>
    1cae:	80 e0       	ldi	r24, 0x00	; 0
    1cb0:	89 23       	and	r24, r25
    1cb2:	a9 f0       	breq	.+42     	; 0x1cde <__stack+0x13df>
    1cb4:	80 e3       	ldi	r24, 0x30	; 48
    1cb6:	0e 94 91 19 	call	0x3322	; 0x3322 <send_word_lcd>
    1cba:	48 e4       	ldi	r20, 0x48	; 72
    1cbc:	52 e0       	ldi	r21, 0x02	; 2
    1cbe:	60 e0       	ldi	r22, 0x00	; 0
    1cc0:	80 91 d4 01 	lds	r24, 0x01D4	; 0x8001d4 <count_senha>
    1cc4:	90 91 d5 01 	lds	r25, 0x01D5	; 0x8001d5 <count_senha+0x1>
    1cc8:	0e 94 1e 1b 	call	0x363c	; 0x363c <insert_senha>
    1ccc:	80 91 d4 01 	lds	r24, 0x01D4	; 0x8001d4 <count_senha>
    1cd0:	90 91 d5 01 	lds	r25, 0x01D5	; 0x8001d5 <count_senha+0x1>
    1cd4:	01 96       	adiw	r24, 0x01	; 1
    1cd6:	90 93 d5 01 	sts	0x01D5, r25	; 0x8001d5 <count_senha+0x1>
    1cda:	80 93 d4 01 	sts	0x01D4, r24	; 0x8001d4 <count_senha>
    1cde:	91 e0       	ldi	r25, 0x01	; 1
    1ce0:	80 91 d8 01 	lds	r24, 0x01D8	; 0x8001d8 <state>
    1ce4:	8b 30       	cpi	r24, 0x0B	; 11
    1ce6:	09 f0       	breq	.+2      	; 0x1cea <__stack+0x13eb>
    1ce8:	90 e0       	ldi	r25, 0x00	; 0
    1cea:	81 e0       	ldi	r24, 0x01	; 1
    1cec:	20 91 d4 01 	lds	r18, 0x01D4	; 0x8001d4 <count_senha>
    1cf0:	30 91 d5 01 	lds	r19, 0x01D5	; 0x8001d5 <count_senha+0x1>
    1cf4:	24 30       	cpi	r18, 0x04	; 4
    1cf6:	31 05       	cpc	r19, r1
    1cf8:	0c f0       	brlt	.+2      	; 0x1cfc <__stack+0x13fd>
    1cfa:	80 e0       	ldi	r24, 0x00	; 0
    1cfc:	89 23       	and	r24, r25
    1cfe:	a9 f0       	breq	.+42     	; 0x1d2a <__stack+0x142b>
    1d00:	80 e3       	ldi	r24, 0x30	; 48
    1d02:	0e 94 91 19 	call	0x3322	; 0x3322 <send_word_lcd>
    1d06:	48 e4       	ldi	r20, 0x48	; 72
    1d08:	52 e0       	ldi	r21, 0x02	; 2
    1d0a:	60 e0       	ldi	r22, 0x00	; 0
    1d0c:	80 91 d4 01 	lds	r24, 0x01D4	; 0x8001d4 <count_senha>
    1d10:	90 91 d5 01 	lds	r25, 0x01D5	; 0x8001d5 <count_senha+0x1>
    1d14:	0e 94 1e 1b 	call	0x363c	; 0x363c <insert_senha>
    1d18:	80 91 d4 01 	lds	r24, 0x01D4	; 0x8001d4 <count_senha>
    1d1c:	90 91 d5 01 	lds	r25, 0x01D5	; 0x8001d5 <count_senha+0x1>
    1d20:	01 96       	adiw	r24, 0x01	; 1
    1d22:	90 93 d5 01 	sts	0x01D5, r25	; 0x8001d5 <count_senha+0x1>
    1d26:	80 93 d4 01 	sts	0x01D4, r24	; 0x8001d4 <count_senha>
    1d2a:	91 e0       	ldi	r25, 0x01	; 1
    1d2c:	80 91 d8 01 	lds	r24, 0x01D8	; 0x8001d8 <state>
    1d30:	8f 30       	cpi	r24, 0x0F	; 15
    1d32:	09 f0       	breq	.+2      	; 0x1d36 <__stack+0x1437>
    1d34:	90 e0       	ldi	r25, 0x00	; 0
    1d36:	81 e0       	ldi	r24, 0x01	; 1
    1d38:	20 91 ce 01 	lds	r18, 0x01CE	; 0x8001ce <flag_sensor>
    1d3c:	30 91 cf 01 	lds	r19, 0x01CF	; 0x8001cf <flag_sensor+0x1>
    1d40:	23 2b       	or	r18, r19
    1d42:	09 f0       	breq	.+2      	; 0x1d46 <__stack+0x1447>
    1d44:	80 e0       	ldi	r24, 0x00	; 0
    1d46:	89 23       	and	r24, r25
    1d48:	21 f0       	breq	.+8      	; 0x1d52 <__stack+0x1453>
    1d4a:	80 e0       	ldi	r24, 0x00	; 0
    1d4c:	90 e0       	ldi	r25, 0x00	; 0
    1d4e:	0e 94 c9 13 	call	0x2792	; 0x2792 <hab_sensor>
    1d52:	20 91 d8 01 	lds	r18, 0x01D8	; 0x8001d8 <state>
    1d56:	91 e0       	ldi	r25, 0x01	; 1
    1d58:	21 31       	cpi	r18, 0x11	; 17
    1d5a:	09 f0       	breq	.+2      	; 0x1d5e <__stack+0x145f>
    1d5c:	90 e0       	ldi	r25, 0x00	; 0
    1d5e:	31 e0       	ldi	r19, 0x01	; 1
    1d60:	40 91 c6 01 	lds	r20, 0x01C6	; 0x8001c6 <flag_z1>
    1d64:	50 91 c7 01 	lds	r21, 0x01C7	; 0x8001c7 <flag_z1+0x1>
    1d68:	45 2b       	or	r20, r21
    1d6a:	09 f0       	breq	.+2      	; 0x1d6e <__stack+0x146f>
    1d6c:	30 e0       	ldi	r19, 0x00	; 0
    1d6e:	81 e0       	ldi	r24, 0x01	; 1
    1d70:	40 91 c8 01 	lds	r20, 0x01C8	; 0x8001c8 <flag_z>
    1d74:	50 91 c9 01 	lds	r21, 0x01C9	; 0x8001c9 <flag_z+0x1>
    1d78:	45 2b       	or	r20, r21
    1d7a:	09 f0       	breq	.+2      	; 0x1d7e <__stack+0x147f>
    1d7c:	80 e0       	ldi	r24, 0x00	; 0
    1d7e:	83 23       	and	r24, r19
    1d80:	99 23       	and	r25, r25
    1d82:	61 f0       	breq	.+24     	; 0x1d9c <__stack+0x149d>
    1d84:	88 23       	and	r24, r24
    1d86:	51 f0       	breq	.+20     	; 0x1d9c <__stack+0x149d>
    1d88:	10 92 01 01 	sts	0x0101, r1	; 0x800101 <__DATA_REGION_ORIGIN__+0x1>
    1d8c:	10 92 00 01 	sts	0x0100, r1	; 0x800100 <__DATA_REGION_ORIGIN__>
    1d90:	81 e0       	ldi	r24, 0x01	; 1
    1d92:	90 e0       	ldi	r25, 0x00	; 0
    1d94:	90 93 c7 01 	sts	0x01C7, r25	; 0x8001c7 <flag_z1+0x1>
    1d98:	80 93 c6 01 	sts	0x01C6, r24	; 0x8001c6 <flag_z1>
    1d9c:	40 91 ba 01 	lds	r20, 0x01BA	; 0x8001ba <cont_t>
    1da0:	50 91 bb 01 	lds	r21, 0x01BB	; 0x8001bb <cont_t+0x1>
    1da4:	91 e0       	ldi	r25, 0x01	; 1
    1da6:	23 31       	cpi	r18, 0x13	; 19
    1da8:	09 f0       	breq	.+2      	; 0x1dac <__stack+0x14ad>
    1daa:	90 e0       	ldi	r25, 0x00	; 0
    1dac:	81 e0       	ldi	r24, 0x01	; 1
    1dae:	42 30       	cpi	r20, 0x02	; 2
    1db0:	51 05       	cpc	r21, r1
    1db2:	0c f0       	brlt	.+2      	; 0x1db6 <__stack+0x14b7>
    1db4:	80 e0       	ldi	r24, 0x00	; 0
    1db6:	89 23       	and	r24, r25
    1db8:	69 f0       	breq	.+26     	; 0x1dd4 <__stack+0x14d5>
    1dba:	fa 01       	movw	r30, r20
    1dbc:	ee 0f       	add	r30, r30
    1dbe:	ff 1f       	adc	r31, r31
    1dc0:	e6 5f       	subi	r30, 0xF6	; 246
    1dc2:	fe 4f       	sbci	r31, 0xFE	; 254
    1dc4:	11 82       	std	Z+1, r1	; 0x01
    1dc6:	10 82       	st	Z, r1
    1dc8:	4f 5f       	subi	r20, 0xFF	; 255
    1dca:	5f 4f       	sbci	r21, 0xFF	; 255
    1dcc:	50 93 bb 01 	sts	0x01BB, r21	; 0x8001bb <cont_t+0x1>
    1dd0:	40 93 ba 01 	sts	0x01BA, r20	; 0x8001ba <cont_t>
    1dd4:	81 e0       	ldi	r24, 0x01	; 1
    1dd6:	40 91 ba 01 	lds	r20, 0x01BA	; 0x8001ba <cont_t>
    1dda:	50 91 bb 01 	lds	r21, 0x01BB	; 0x8001bb <cont_t+0x1>
    1dde:	43 30       	cpi	r20, 0x03	; 3
    1de0:	51 05       	cpc	r21, r1
    1de2:	0c f0       	brlt	.+2      	; 0x1de6 <__stack+0x14e7>
    1de4:	80 e0       	ldi	r24, 0x00	; 0
    1de6:	91 e0       	ldi	r25, 0x01	; 1
    1de8:	24 31       	cpi	r18, 0x14	; 20
    1dea:	09 f0       	breq	.+2      	; 0x1dee <__stack+0x14ef>
    1dec:	90 e0       	ldi	r25, 0x00	; 0
    1dee:	98 23       	and	r25, r24
    1df0:	89 f0       	breq	.+34     	; 0x1e14 <__stack+0x1515>
    1df2:	40 91 b6 01 	lds	r20, 0x01B6	; 0x8001b6 <cont_s>
    1df6:	50 91 b7 01 	lds	r21, 0x01B7	; 0x8001b7 <cont_s+0x1>
    1dfa:	fa 01       	movw	r30, r20
    1dfc:	ee 0f       	add	r30, r30
    1dfe:	ff 1f       	adc	r31, r31
    1e00:	e9 5d       	subi	r30, 0xD9	; 217
    1e02:	fe 4f       	sbci	r31, 0xFE	; 254
    1e04:	11 82       	std	Z+1, r1	; 0x01
    1e06:	10 82       	st	Z, r1
    1e08:	4f 5f       	subi	r20, 0xFF	; 255
    1e0a:	5f 4f       	sbci	r21, 0xFF	; 255
    1e0c:	50 93 b7 01 	sts	0x01B7, r21	; 0x8001b7 <cont_s+0x1>
    1e10:	40 93 b6 01 	sts	0x01B6, r20	; 0x8001b6 <cont_s>
    1e14:	91 e0       	ldi	r25, 0x01	; 1
    1e16:	22 31       	cpi	r18, 0x12	; 18
    1e18:	09 f0       	breq	.+2      	; 0x1e1c <__stack+0x151d>
    1e1a:	90 e0       	ldi	r25, 0x00	; 0
    1e1c:	89 23       	and	r24, r25
    1e1e:	09 f4       	brne	.+2      	; 0x1e22 <__stack+0x1523>
    1e20:	56 c1       	rjmp	.+684    	; 0x20ce <__stack+0x17cf>
    1e22:	80 91 b8 01 	lds	r24, 0x01B8	; 0x8001b8 <cont_aa>
    1e26:	90 91 b9 01 	lds	r25, 0x01B9	; 0x8001b9 <cont_aa+0x1>
    1e2a:	fc 01       	movw	r30, r24
    1e2c:	ee 0f       	add	r30, r30
    1e2e:	ff 1f       	adc	r31, r31
    1e30:	e1 5e       	subi	r30, 0xE1	; 225
    1e32:	fe 4f       	sbci	r31, 0xFE	; 254
    1e34:	11 82       	std	Z+1, r1	; 0x01
    1e36:	10 82       	st	Z, r1
    1e38:	01 96       	adiw	r24, 0x01	; 1
    1e3a:	90 93 b9 01 	sts	0x01B9, r25	; 0x8001b9 <cont_aa+0x1>
    1e3e:	80 93 b8 01 	sts	0x01B8, r24	; 0x8001b8 <cont_aa>
    1e42:	45 c1       	rjmp	.+650    	; 0x20ce <__stack+0x17cf>
    1e44:	80 31       	cpi	r24, 0x10	; 16
    1e46:	91 05       	cpc	r25, r1
    1e48:	39 f5       	brne	.+78     	; 0x1e98 <__stack+0x1599>
    1e4a:	80 91 ca 01 	lds	r24, 0x01CA	; 0x8001ca <flag_p>
    1e4e:	90 91 cb 01 	lds	r25, 0x01CB	; 0x8001cb <flag_p+0x1>
    1e52:	00 97       	sbiw	r24, 0x00	; 0
    1e54:	b1 f4       	brne	.+44     	; 0x1e82 <__stack+0x1583>
    1e56:	80 91 d8 01 	lds	r24, 0x01D8	; 0x8001d8 <state>
    1e5a:	87 30       	cpi	r24, 0x07	; 7
    1e5c:	11 f0       	breq	.+4      	; 0x1e62 <__stack+0x1563>
    1e5e:	85 30       	cpi	r24, 0x05	; 5
    1e60:	21 f4       	brne	.+8      	; 0x1e6a <__stack+0x156b>
    1e62:	0e 94 28 1b 	call	0x3650	; 0x3650 <StopTimer1>
    1e66:	0e 94 f4 1a 	call	0x35e8	; 0x35e8 <ZerarTemps>
    1e6a:	0e 94 56 1b 	call	0x36ac	; 0x36ac <StartSirene>
    1e6e:	86 e0       	ldi	r24, 0x06	; 6
    1e70:	80 93 d8 01 	sts	0x01D8, r24	; 0x8001d8 <state>
    1e74:	81 e0       	ldi	r24, 0x01	; 1
    1e76:	90 e0       	ldi	r25, 0x00	; 0
    1e78:	90 93 cb 01 	sts	0x01CB, r25	; 0x8001cb <flag_p+0x1>
    1e7c:	80 93 ca 01 	sts	0x01CA, r24	; 0x8001ca <flag_p>
    1e80:	26 c1       	rjmp	.+588    	; 0x20ce <__stack+0x17cf>
    1e82:	01 97       	sbiw	r24, 0x01	; 1
    1e84:	09 f0       	breq	.+2      	; 0x1e88 <__stack+0x1589>
    1e86:	23 c1       	rjmp	.+582    	; 0x20ce <__stack+0x17cf>
    1e88:	0e 94 5a 1b 	call	0x36b4	; 0x36b4 <StopSirene>
    1e8c:	81 e0       	ldi	r24, 0x01	; 1
    1e8e:	80 93 d8 01 	sts	0x01D8, r24	; 0x8001d8 <state>
    1e92:	0e 94 3f 18 	call	0x307e	; 0x307e <msg_desativado>
    1e96:	1b c1       	rjmp	.+566    	; 0x20ce <__stack+0x17cf>
    1e98:	89 2b       	or	r24, r25
    1e9a:	09 f0       	breq	.+2      	; 0x1e9e <__stack+0x159f>
    1e9c:	18 c1       	rjmp	.+560    	; 0x20ce <__stack+0x17cf>
    1e9e:	91 e0       	ldi	r25, 0x01	; 1
    1ea0:	80 91 d8 01 	lds	r24, 0x01D8	; 0x8001d8 <state>
    1ea4:	89 30       	cpi	r24, 0x09	; 9
    1ea6:	09 f0       	breq	.+2      	; 0x1eaa <__stack+0x15ab>
    1ea8:	90 e0       	ldi	r25, 0x00	; 0
    1eaa:	81 e0       	ldi	r24, 0x01	; 1
    1eac:	20 91 d4 01 	lds	r18, 0x01D4	; 0x8001d4 <count_senha>
    1eb0:	30 91 d5 01 	lds	r19, 0x01D5	; 0x8001d5 <count_senha+0x1>
    1eb4:	24 30       	cpi	r18, 0x04	; 4
    1eb6:	31 05       	cpc	r19, r1
    1eb8:	09 f0       	breq	.+2      	; 0x1ebc <__stack+0x15bd>
    1eba:	80 e0       	ldi	r24, 0x00	; 0
    1ebc:	89 23       	and	r24, r25
    1ebe:	59 f0       	breq	.+22     	; 0x1ed6 <__stack+0x15d7>
    1ec0:	81 e0       	ldi	r24, 0x01	; 1
    1ec2:	80 93 d8 01 	sts	0x01D8, r24	; 0x8001d8 <state>
    1ec6:	0e 94 14 1b 	call	0x3628	; 0x3628 <clear_Display>
    1eca:	0e 94 3f 18 	call	0x307e	; 0x307e <msg_desativado>
    1ece:	10 92 d5 01 	sts	0x01D5, r1	; 0x8001d5 <count_senha+0x1>
    1ed2:	10 92 d4 01 	sts	0x01D4, r1	; 0x8001d4 <count_senha>
    1ed6:	91 e0       	ldi	r25, 0x01	; 1
    1ed8:	80 91 d8 01 	lds	r24, 0x01D8	; 0x8001d8 <state>
    1edc:	8a 30       	cpi	r24, 0x0A	; 10
    1ede:	09 f0       	breq	.+2      	; 0x1ee2 <__stack+0x15e3>
    1ee0:	90 e0       	ldi	r25, 0x00	; 0
    1ee2:	81 e0       	ldi	r24, 0x01	; 1
    1ee4:	20 91 d4 01 	lds	r18, 0x01D4	; 0x8001d4 <count_senha>
    1ee8:	30 91 d5 01 	lds	r19, 0x01D5	; 0x8001d5 <count_senha+0x1>
    1eec:	24 30       	cpi	r18, 0x04	; 4
    1eee:	31 05       	cpc	r19, r1
    1ef0:	09 f0       	breq	.+2      	; 0x1ef4 <__stack+0x15f5>
    1ef2:	80 e0       	ldi	r24, 0x00	; 0
    1ef4:	89 23       	and	r24, r25
    1ef6:	49 f0       	breq	.+18     	; 0x1f0a <__stack+0x160b>
    1ef8:	8d e0       	ldi	r24, 0x0D	; 13
    1efa:	80 93 d8 01 	sts	0x01D8, r24	; 0x8001d8 <state>
    1efe:	0e 94 14 1b 	call	0x3628	; 0x3628 <clear_Display>
    1f02:	10 92 d5 01 	sts	0x01D5, r1	; 0x8001d5 <count_senha+0x1>
    1f06:	10 92 d4 01 	sts	0x01D4, r1	; 0x8001d4 <count_senha>
    1f0a:	91 e0       	ldi	r25, 0x01	; 1
    1f0c:	80 91 d8 01 	lds	r24, 0x01D8	; 0x8001d8 <state>
    1f10:	8b 30       	cpi	r24, 0x0B	; 11
    1f12:	09 f0       	breq	.+2      	; 0x1f16 <__stack+0x1617>
    1f14:	90 e0       	ldi	r25, 0x00	; 0
    1f16:	81 e0       	ldi	r24, 0x01	; 1
    1f18:	20 91 d4 01 	lds	r18, 0x01D4	; 0x8001d4 <count_senha>
    1f1c:	30 91 d5 01 	lds	r19, 0x01D5	; 0x8001d5 <count_senha+0x1>
    1f20:	24 30       	cpi	r18, 0x04	; 4
    1f22:	31 05       	cpc	r19, r1
    1f24:	09 f0       	breq	.+2      	; 0x1f28 <__stack+0x1629>
    1f26:	80 e0       	ldi	r24, 0x00	; 0
    1f28:	89 23       	and	r24, r25
    1f2a:	49 f0       	breq	.+18     	; 0x1f3e <__stack+0x163f>
    1f2c:	8e e0       	ldi	r24, 0x0E	; 14
    1f2e:	80 93 d8 01 	sts	0x01D8, r24	; 0x8001d8 <state>
    1f32:	0e 94 14 1b 	call	0x3628	; 0x3628 <clear_Display>
    1f36:	10 92 d5 01 	sts	0x01D5, r1	; 0x8001d5 <count_senha+0x1>
    1f3a:	10 92 d4 01 	sts	0x01D4, r1	; 0x8001d4 <count_senha>
    1f3e:	91 e0       	ldi	r25, 0x01	; 1
    1f40:	80 91 d8 01 	lds	r24, 0x01D8	; 0x8001d8 <state>
    1f44:	8f 30       	cpi	r24, 0x0F	; 15
    1f46:	09 f0       	breq	.+2      	; 0x1f4a <__stack+0x164b>
    1f48:	90 e0       	ldi	r25, 0x00	; 0
    1f4a:	81 e0       	ldi	r24, 0x01	; 1
    1f4c:	20 91 ce 01 	lds	r18, 0x01CE	; 0x8001ce <flag_sensor>
    1f50:	30 91 cf 01 	lds	r19, 0x01CF	; 0x8001cf <flag_sensor+0x1>
    1f54:	21 30       	cpi	r18, 0x01	; 1
    1f56:	31 05       	cpc	r19, r1
    1f58:	09 f0       	breq	.+2      	; 0x1f5c <__stack+0x165d>
    1f5a:	80 e0       	ldi	r24, 0x00	; 0
    1f5c:	89 23       	and	r24, r25
    1f5e:	49 f0       	breq	.+18     	; 0x1f72 <__stack+0x1673>
    1f60:	81 e0       	ldi	r24, 0x01	; 1
    1f62:	80 93 d8 01 	sts	0x01D8, r24	; 0x8001d8 <state>
    1f66:	0e 94 3f 18 	call	0x307e	; 0x307e <msg_desativado>
    1f6a:	10 92 cf 01 	sts	0x01CF, r1	; 0x8001cf <flag_sensor+0x1>
    1f6e:	10 92 ce 01 	sts	0x01CE, r1	; 0x8001ce <flag_sensor>
    1f72:	91 e0       	ldi	r25, 0x01	; 1
    1f74:	80 91 d8 01 	lds	r24, 0x01D8	; 0x8001d8 <state>
    1f78:	80 31       	cpi	r24, 0x10	; 16
    1f7a:	09 f0       	breq	.+2      	; 0x1f7e <__stack+0x167f>
    1f7c:	90 e0       	ldi	r25, 0x00	; 0
    1f7e:	81 e0       	ldi	r24, 0x01	; 1
    1f80:	20 91 ce 01 	lds	r18, 0x01CE	; 0x8001ce <flag_sensor>
    1f84:	30 91 cf 01 	lds	r19, 0x01CF	; 0x8001cf <flag_sensor+0x1>
    1f88:	21 30       	cpi	r18, 0x01	; 1
    1f8a:	31 05       	cpc	r19, r1
    1f8c:	09 f0       	breq	.+2      	; 0x1f90 <__stack+0x1691>
    1f8e:	80 e0       	ldi	r24, 0x00	; 0
    1f90:	89 23       	and	r24, r25
    1f92:	49 f0       	breq	.+18     	; 0x1fa6 <__stack+0x16a7>
    1f94:	81 e0       	ldi	r24, 0x01	; 1
    1f96:	80 93 d8 01 	sts	0x01D8, r24	; 0x8001d8 <state>
    1f9a:	0e 94 3f 18 	call	0x307e	; 0x307e <msg_desativado>
    1f9e:	10 92 cf 01 	sts	0x01CF, r1	; 0x8001cf <flag_sensor+0x1>
    1fa2:	10 92 ce 01 	sts	0x01CE, r1	; 0x8001ce <flag_sensor>
    1fa6:	91 e0       	ldi	r25, 0x01	; 1
    1fa8:	80 91 d8 01 	lds	r24, 0x01D8	; 0x8001d8 <state>
    1fac:	81 31       	cpi	r24, 0x11	; 17
    1fae:	09 f0       	breq	.+2      	; 0x1fb2 <__stack+0x16b3>
    1fb0:	90 e0       	ldi	r25, 0x00	; 0
    1fb2:	21 e0       	ldi	r18, 0x01	; 1
    1fb4:	40 91 c6 01 	lds	r20, 0x01C6	; 0x8001c6 <flag_z1>
    1fb8:	50 91 c7 01 	lds	r21, 0x01C7	; 0x8001c7 <flag_z1+0x1>
    1fbc:	41 30       	cpi	r20, 0x01	; 1
    1fbe:	51 05       	cpc	r21, r1
    1fc0:	09 f0       	breq	.+2      	; 0x1fc4 <__stack+0x16c5>
    1fc2:	20 e0       	ldi	r18, 0x00	; 0
    1fc4:	81 e0       	ldi	r24, 0x01	; 1
    1fc6:	40 91 c8 01 	lds	r20, 0x01C8	; 0x8001c8 <flag_z>
    1fca:	50 91 c9 01 	lds	r21, 0x01C9	; 0x8001c9 <flag_z+0x1>
    1fce:	41 30       	cpi	r20, 0x01	; 1
    1fd0:	51 05       	cpc	r21, r1
    1fd2:	09 f0       	breq	.+2      	; 0x1fd6 <__stack+0x16d7>
    1fd4:	80 e0       	ldi	r24, 0x00	; 0
    1fd6:	82 23       	and	r24, r18
    1fd8:	99 23       	and	r25, r25
    1fda:	c9 f0       	breq	.+50     	; 0x200e <__stack+0x170f>
    1fdc:	88 23       	and	r24, r24
    1fde:	b9 f0       	breq	.+46     	; 0x200e <__stack+0x170f>
    1fe0:	81 e0       	ldi	r24, 0x01	; 1
    1fe2:	80 93 d8 01 	sts	0x01D8, r24	; 0x8001d8 <state>
    1fe6:	60 91 04 01 	lds	r22, 0x0104	; 0x800104 <idzona>
    1fea:	70 91 05 01 	lds	r23, 0x0105	; 0x800105 <idzona+0x1>
    1fee:	80 91 00 01 	lds	r24, 0x0100	; 0x800100 <__DATA_REGION_ORIGIN__>
    1ff2:	90 91 01 01 	lds	r25, 0x0101	; 0x800101 <__DATA_REGION_ORIGIN__+0x1>
    1ff6:	0e 94 78 10 	call	0x20f0	; 0x20f0 <assSensorZona>
    1ffa:	10 92 c9 01 	sts	0x01C9, r1	; 0x8001c9 <flag_z+0x1>
    1ffe:	10 92 c8 01 	sts	0x01C8, r1	; 0x8001c8 <flag_z>
    2002:	10 92 c7 01 	sts	0x01C7, r1	; 0x8001c7 <flag_z1+0x1>
    2006:	10 92 c6 01 	sts	0x01C6, r1	; 0x8001c6 <flag_z1>
    200a:	0e 94 3f 18 	call	0x307e	; 0x307e <msg_desativado>
    200e:	91 e0       	ldi	r25, 0x01	; 1
    2010:	80 91 d8 01 	lds	r24, 0x01D8	; 0x8001d8 <state>
    2014:	83 31       	cpi	r24, 0x13	; 19
    2016:	09 f0       	breq	.+2      	; 0x201a <__stack+0x171b>
    2018:	90 e0       	ldi	r25, 0x00	; 0
    201a:	21 e0       	ldi	r18, 0x01	; 1
    201c:	40 91 ba 01 	lds	r20, 0x01BA	; 0x8001ba <cont_t>
    2020:	50 91 bb 01 	lds	r21, 0x01BB	; 0x8001bb <cont_t+0x1>
    2024:	42 30       	cpi	r20, 0x02	; 2
    2026:	51 05       	cpc	r21, r1
    2028:	0c f4       	brge	.+2      	; 0x202c <__stack+0x172d>
    202a:	20 e0       	ldi	r18, 0x00	; 0
    202c:	81 e0       	ldi	r24, 0x01	; 1
    202e:	40 91 c0 01 	lds	r20, 0x01C0	; 0x8001c0 <flag_timeout>
    2032:	50 91 c1 01 	lds	r21, 0x01C1	; 0x8001c1 <flag_timeout+0x1>
    2036:	41 30       	cpi	r20, 0x01	; 1
    2038:	51 05       	cpc	r21, r1
    203a:	09 f0       	breq	.+2      	; 0x203e <__stack+0x173f>
    203c:	80 e0       	ldi	r24, 0x00	; 0
    203e:	82 23       	and	r24, r18
    2040:	99 23       	and	r25, r25
    2042:	69 f0       	breq	.+26     	; 0x205e <__stack+0x175f>
    2044:	88 23       	and	r24, r24
    2046:	59 f0       	breq	.+22     	; 0x205e <__stack+0x175f>
    2048:	81 e0       	ldi	r24, 0x01	; 1
    204a:	80 93 d8 01 	sts	0x01D8, r24	; 0x8001d8 <state>
    204e:	0e 94 89 1a 	call	0x3512	; 0x3512 <set_timeout>
    2052:	10 92 bb 01 	sts	0x01BB, r1	; 0x8001bb <cont_t+0x1>
    2056:	10 92 ba 01 	sts	0x01BA, r1	; 0x8001ba <cont_t>
    205a:	0e 94 3f 18 	call	0x307e	; 0x307e <msg_desativado>
    205e:	91 e0       	ldi	r25, 0x01	; 1
    2060:	80 91 d8 01 	lds	r24, 0x01D8	; 0x8001d8 <state>
    2064:	84 31       	cpi	r24, 0x14	; 20
    2066:	09 f0       	breq	.+2      	; 0x206a <__stack+0x176b>
    2068:	90 e0       	ldi	r25, 0x00	; 0
    206a:	81 e0       	ldi	r24, 0x01	; 1
    206c:	20 91 b6 01 	lds	r18, 0x01B6	; 0x8001b6 <cont_s>
    2070:	30 91 b7 01 	lds	r19, 0x01B7	; 0x8001b7 <cont_s+0x1>
    2074:	23 30       	cpi	r18, 0x03	; 3
    2076:	31 05       	cpc	r19, r1
    2078:	0c f4       	brge	.+2      	; 0x207c <__stack+0x177d>
    207a:	80 e0       	ldi	r24, 0x00	; 0
    207c:	89 23       	and	r24, r25
    207e:	59 f0       	breq	.+22     	; 0x2096 <__stack+0x1797>
    2080:	81 e0       	ldi	r24, 0x01	; 1
    2082:	80 93 d8 01 	sts	0x01D8, r24	; 0x8001d8 <state>
    2086:	0e 94 23 1a 	call	0x3446	; 0x3446 <set_timeS>
    208a:	10 92 b7 01 	sts	0x01B7, r1	; 0x8001b7 <cont_s+0x1>
    208e:	10 92 b6 01 	sts	0x01B6, r1	; 0x8001b6 <cont_s>
    2092:	0e 94 3f 18 	call	0x307e	; 0x307e <msg_desativado>
    2096:	91 e0       	ldi	r25, 0x01	; 1
    2098:	80 91 d8 01 	lds	r24, 0x01D8	; 0x8001d8 <state>
    209c:	82 31       	cpi	r24, 0x12	; 18
    209e:	09 f0       	breq	.+2      	; 0x20a2 <__stack+0x17a3>
    20a0:	90 e0       	ldi	r25, 0x00	; 0
    20a2:	81 e0       	ldi	r24, 0x01	; 1
    20a4:	20 91 b8 01 	lds	r18, 0x01B8	; 0x8001b8 <cont_aa>
    20a8:	30 91 b9 01 	lds	r19, 0x01B9	; 0x8001b9 <cont_aa+0x1>
    20ac:	23 30       	cpi	r18, 0x03	; 3
    20ae:	31 05       	cpc	r19, r1
    20b0:	0c f4       	brge	.+2      	; 0x20b4 <__stack+0x17b5>
    20b2:	80 e0       	ldi	r24, 0x00	; 0
    20b4:	89 23       	and	r24, r25
    20b6:	59 f0       	breq	.+22     	; 0x20ce <__stack+0x17cf>
    20b8:	81 e0       	ldi	r24, 0x01	; 1
    20ba:	80 93 d8 01 	sts	0x01D8, r24	; 0x8001d8 <state>
    20be:	0e 94 ff 19 	call	0x33fe	; 0x33fe <set_timeA>
    20c2:	10 92 b9 01 	sts	0x01B9, r1	; 0x8001b9 <cont_aa+0x1>
    20c6:	10 92 b8 01 	sts	0x01B8, r1	; 0x8001b8 <cont_aa>
    20ca:	0e 94 3f 18 	call	0x307e	; 0x307e <msg_desativado>
    20ce:	ff 91       	pop	r31
    20d0:	ef 91       	pop	r30
    20d2:	bf 91       	pop	r27
    20d4:	af 91       	pop	r26
    20d6:	9f 91       	pop	r25
    20d8:	8f 91       	pop	r24
    20da:	7f 91       	pop	r23
    20dc:	6f 91       	pop	r22
    20de:	5f 91       	pop	r21
    20e0:	4f 91       	pop	r20
    20e2:	3f 91       	pop	r19
    20e4:	2f 91       	pop	r18
    20e6:	0f 90       	pop	r0
    20e8:	0f be       	out	0x3f, r0	; 63
    20ea:	0f 90       	pop	r0
    20ec:	1f 90       	pop	r1
    20ee:	18 95       	reti

Disassembly of section .text.__vector_11:

000028d8 <__vector_11>:
    28d8:	1f 92       	push	r1
    28da:	0f 92       	push	r0
    28dc:	0f b6       	in	r0, 0x3f	; 63
    28de:	0f 92       	push	r0
    28e0:	11 24       	eor	r1, r1
    28e2:	2f 93       	push	r18
    28e4:	3f 93       	push	r19
    28e6:	4f 93       	push	r20
    28e8:	5f 93       	push	r21
    28ea:	6f 93       	push	r22
    28ec:	7f 93       	push	r23
    28ee:	8f 93       	push	r24
    28f0:	9f 93       	push	r25
    28f2:	af 93       	push	r26
    28f4:	bf 93       	push	r27
    28f6:	ef 93       	push	r30
    28f8:	ff 93       	push	r31
    28fa:	80 91 d8 01 	lds	r24, 0x01D8	; 0x8001d8 <state>
    28fe:	87 30       	cpi	r24, 0x07	; 7
    2900:	c9 f4       	brne	.+50     	; 0x2934 <__vector_11+0x5c>
    2902:	80 91 d9 01 	lds	r24, 0x01D9	; 0x8001d9 <cont_timeout>
    2906:	48 2f       	mov	r20, r24
    2908:	50 e0       	ldi	r21, 0x00	; 0
    290a:	20 91 0e 01 	lds	r18, 0x010E	; 0x80010e <timeout>
    290e:	30 91 0f 01 	lds	r19, 0x010F	; 0x80010f <timeout+0x1>
    2912:	42 17       	cp	r20, r18
    2914:	53 07       	cpc	r21, r19
    2916:	51 f4       	brne	.+20     	; 0x292c <__vector_11+0x54>
    2918:	81 e0       	ldi	r24, 0x01	; 1
    291a:	80 93 d8 01 	sts	0x01D8, r24	; 0x8001d8 <state>
    291e:	10 92 d9 01 	sts	0x01D9, r1	; 0x8001d9 <cont_timeout>
    2922:	0e 94 3f 18 	call	0x307e	; 0x307e <msg_desativado>
    2926:	0e 94 28 1b 	call	0x3650	; 0x3650 <StopTimer1>
    292a:	3e c0       	rjmp	.+124    	; 0x29a8 <__vector_11+0xd0>
    292c:	8f 5f       	subi	r24, 0xFF	; 255
    292e:	80 93 d9 01 	sts	0x01D9, r24	; 0x8001d9 <cont_timeout>
    2932:	3a c0       	rjmp	.+116    	; 0x29a8 <__vector_11+0xd0>
    2934:	85 30       	cpi	r24, 0x05	; 5
    2936:	d1 f4       	brne	.+52     	; 0x296c <__vector_11+0x94>
    2938:	80 91 c4 01 	lds	r24, 0x01C4	; 0x8001c4 <cont_sirene>
    293c:	90 91 c5 01 	lds	r25, 0x01C5	; 0x8001c5 <cont_sirene+0x1>
    2940:	20 91 08 01 	lds	r18, 0x0108	; 0x800108 <t_sirene>
    2944:	30 91 09 01 	lds	r19, 0x0109	; 0x800109 <t_sirene+0x1>
    2948:	82 17       	cp	r24, r18
    294a:	93 07       	cpc	r25, r19
    294c:	49 f4       	brne	.+18     	; 0x2960 <__vector_11+0x88>
    294e:	0e 94 5a 1b 	call	0x36b4	; 0x36b4 <StopSirene>
    2952:	10 92 c5 01 	sts	0x01C5, r1	; 0x8001c5 <cont_sirene+0x1>
    2956:	10 92 c4 01 	sts	0x01C4, r1	; 0x8001c4 <cont_sirene>
    295a:	0e 94 28 1b 	call	0x3650	; 0x3650 <StopTimer1>
    295e:	24 c0       	rjmp	.+72     	; 0x29a8 <__vector_11+0xd0>
    2960:	01 96       	adiw	r24, 0x01	; 1
    2962:	90 93 c5 01 	sts	0x01C5, r25	; 0x8001c5 <cont_sirene+0x1>
    2966:	80 93 c4 01 	sts	0x01C4, r24	; 0x8001c4 <cont_sirene>
    296a:	1e c0       	rjmp	.+60     	; 0x29a8 <__vector_11+0xd0>
    296c:	8d 30       	cpi	r24, 0x0D	; 13
    296e:	e1 f4       	brne	.+56     	; 0x29a8 <__vector_11+0xd0>
    2970:	80 91 c2 01 	lds	r24, 0x01C2	; 0x8001c2 <cont_ativacao>
    2974:	90 91 c3 01 	lds	r25, 0x01C3	; 0x8001c3 <cont_ativacao+0x1>
    2978:	20 91 02 01 	lds	r18, 0x0102	; 0x800102 <t_ativacao>
    297c:	30 91 03 01 	lds	r19, 0x0103	; 0x800103 <t_ativacao+0x1>
    2980:	82 17       	cp	r24, r18
    2982:	93 07       	cpc	r25, r19
    2984:	61 f4       	brne	.+24     	; 0x299e <__vector_11+0xc6>
    2986:	85 e0       	ldi	r24, 0x05	; 5
    2988:	80 93 d8 01 	sts	0x01D8, r24	; 0x8001d8 <state>
    298c:	0e 94 6d 18 	call	0x30da	; 0x30da <msg_ativado>
    2990:	10 92 c3 01 	sts	0x01C3, r1	; 0x8001c3 <cont_ativacao+0x1>
    2994:	10 92 c2 01 	sts	0x01C2, r1	; 0x8001c2 <cont_ativacao>
    2998:	0e 94 28 1b 	call	0x3650	; 0x3650 <StopTimer1>
    299c:	05 c0       	rjmp	.+10     	; 0x29a8 <__vector_11+0xd0>
    299e:	01 96       	adiw	r24, 0x01	; 1
    29a0:	90 93 c3 01 	sts	0x01C3, r25	; 0x8001c3 <cont_ativacao+0x1>
    29a4:	80 93 c2 01 	sts	0x01C2, r24	; 0x8001c2 <cont_ativacao>
    29a8:	ff 91       	pop	r31
    29aa:	ef 91       	pop	r30
    29ac:	bf 91       	pop	r27
    29ae:	af 91       	pop	r26
    29b0:	9f 91       	pop	r25
    29b2:	8f 91       	pop	r24
    29b4:	7f 91       	pop	r23
    29b6:	6f 91       	pop	r22
    29b8:	5f 91       	pop	r21
    29ba:	4f 91       	pop	r20
    29bc:	3f 91       	pop	r19
    29be:	2f 91       	pop	r18
    29c0:	0f 90       	pop	r0
    29c2:	0f be       	out	0x3f, r0	; 63
    29c4:	0f 90       	pop	r0
    29c6:	1f 90       	pop	r1
    29c8:	18 95       	reti

Disassembly of section .text.libgcc:

000036a0 <__tablejump2__>:
    36a0:	ee 0f       	add	r30, r30
    36a2:	ff 1f       	adc	r31, r31
    36a4:	05 90       	lpm	r0, Z+
    36a6:	f4 91       	lpm	r31, Z
    36a8:	e0 2d       	mov	r30, r0
    36aa:	09 94       	ijmp

Disassembly of section .text.libgcc.mul:

000035fe <__muluhisi3>:
    35fe:	0e 94 d8 1a 	call	0x35b0	; 0x35b0 <__umulhisi3>
    3602:	a5 9f       	mul	r26, r21
    3604:	90 0d       	add	r25, r0
    3606:	b4 9f       	mul	r27, r20
    3608:	90 0d       	add	r25, r0
    360a:	a4 9f       	mul	r26, r20
    360c:	80 0d       	add	r24, r0
    360e:	91 1d       	adc	r25, r1
    3610:	11 24       	eor	r1, r1
    3612:	08 95       	ret

Disassembly of section .text.libgcc:

000035ce <__movmemx_qi>:
    35ce:	99 27       	eor	r25, r25

000035d0 <__movmemx_hi>:
    35d0:	77 fd       	sbrc	r23, 7
    35d2:	05 c0       	rjmp	.+10     	; 0x35de <__movmemx_hi+0xe>
    35d4:	05 90       	lpm	r0, Z+
    35d6:	0d 92       	st	X+, r0
    35d8:	01 97       	sbiw	r24, 0x01	; 1
    35da:	e1 f7       	brne	.-8      	; 0x35d4 <__movmemx_hi+0x4>
    35dc:	08 95       	ret
    35de:	01 90       	ld	r0, Z+
    35e0:	0d 92       	st	X+, r0
    35e2:	01 97       	sbiw	r24, 0x01	; 1
    35e4:	e1 f7       	brne	.-8      	; 0x35de <__movmemx_hi+0xe>
    35e6:	08 95       	ret

Disassembly of section .text.libgcc.mul:

000035b0 <__umulhisi3>:
    35b0:	a2 9f       	mul	r26, r18
    35b2:	b0 01       	movw	r22, r0
    35b4:	b3 9f       	mul	r27, r19
    35b6:	c0 01       	movw	r24, r0
    35b8:	a3 9f       	mul	r26, r19
    35ba:	70 0d       	add	r23, r0
    35bc:	81 1d       	adc	r24, r1
    35be:	11 24       	eor	r1, r1
    35c0:	91 1d       	adc	r25, r1
    35c2:	b2 9f       	mul	r27, r18
    35c4:	70 0d       	add	r23, r0
    35c6:	81 1d       	adc	r24, r1
    35c8:	11 24       	eor	r1, r1
    35ca:	91 1d       	adc	r25, r1
    35cc:	08 95       	ret
