
LCD_matrix.elf:     file format elf32-avr

Sections:
Idx Name          Size      VMA       LMA       File off  Algn
  0 .data         00000000  00800100  00800100  00002058  2**0
                  ALLOC, LOAD, DATA
  1 .text         000000f4  00000000  00000000  000000b4  2**1
                  CONTENTS, ALLOC, LOAD, READONLY, CODE
  2 .bss          00000018  00800100  00800100  00002058  2**0
                  ALLOC
  3 .comment      0000002f  00000000  00000000  00002058  2**0
                  CONTENTS, READONLY
  4 .debug_aranges 00000110  00000000  00000000  00002087  2**0
                  CONTENTS, READONLY, DEBUGGING
  5 .debug_info   0000236d  00000000  00000000  00002197  2**0
                  CONTENTS, READONLY, DEBUGGING
  6 .debug_abbrev 0000073b  00000000  00000000  00004504  2**0
                  CONTENTS, READONLY, DEBUGGING
  7 .debug_line   00001105  00000000  00000000  00004c3f  2**0
                  CONTENTS, READONLY, DEBUGGING
  8 .debug_frame  0000031c  00000000  00000000  00005d44  2**2
                  CONTENTS, READONLY, DEBUGGING
  9 .debug_str    00000218  00000000  00000000  00006060  2**0
                  CONTENTS, READONLY, DEBUGGING
 10 .debug_loc    00000679  00000000  00000000  00006278  2**0
                  CONTENTS, READONLY, DEBUGGING
 11 .debug_ranges 00000100  00000000  00000000  000068f1  2**0
                  CONTENTS, READONLY, DEBUGGING
 12 .text         00000004  00001f8c  00001f8c  00002040  2**1
                  CONTENTS, ALLOC, LOAD, READONLY, CODE
 13 .note.gnu.avr.deviceinfo 00000040  00000000  00000000  000069f4  2**2
                  CONTENTS, READONLY, DEBUGGING
 14 .text.init_int1 0000000c  00001f74  00001f74  00002028  2**1
                  CONTENTS, ALLOC, LOAD, READONLY, CODE
 15 .text.delay_ms 00000054  00001bbe  00001bbe  00001c72  2**1
                  CONTENTS, ALLOC, LOAD, READONLY, CODE
 16 .text.delay_ns 00000048  00001d9a  00001d9a  00001e4e  2**1
                  CONTENTS, ALLOC, LOAD, READONLY, CODE
 17 .text.send_instruction_lcd 00000040  00001e26  00001e26  00001eda  2**1
                  CONTENTS, ALLOC, LOAD, READONLY, CODE
 18 .text.send_instruction_lcd_nibble 00000020  00001ede  00001ede  00001f92  2**1
                  CONTENTS, ALLOC, LOAD, READONLY, CODE
 19 .text.inicializa_display 0000009e  00001740  00001740  000017f4  2**1
                  CONTENTS, ALLOC, LOAD, READONLY, CODE
 20 .text.send_word_lcd 0000004c  00001d4e  00001d4e  00001e02  2**1
                  CONTENTS, ALLOC, LOAD, READONLY, CODE
 21 .text.set_DDRAM_ADDR 0000004e  00001c64  00001c64  00001d18  2**1
                  CONTENTS, ALLOC, LOAD, READONLY, CODE
 22 .text.envia_frase 0000002c  00001e66  00001e66  00001f1a  2**1
                  CONTENTS, ALLOC, LOAD, READONLY, CODE
 23 .text.clear_Display 00000014  00001f4c  00001f4c  00002000  2**1
                  CONTENTS, ALLOC, LOAD, READONLY, CODE
 24 .progmemx.data 000000e4  000000f4  000000f4  000001a8  2**0
                  CONTENTS, ALLOC, LOAD, READONLY, PROGMEMX
 25 .text.msg_inserir_senha 0000004e  00001cb2  00001cb2  00001d66  2**1
                  CONTENTS, ALLOC, LOAD, READONLY, CODE
 26 .text.msg_desativado 0000005c  00001aaa  00001aaa  00001b5e  2**1
                  CONTENTS, ALLOC, LOAD, READONLY, CODE
 27 .text.msg_ativado 0000005c  00001b06  00001b06  00001bba  2**1
                  CONTENTS, ALLOC, LOAD, READONLY, CODE
 28 .text.msg_programacao 0000005c  00001b62  00001b62  00001c16  2**1
                  CONTENTS, ALLOC, LOAD, READONLY, CODE
 29 .text.msg_altera_senha 0000004e  00001d00  00001d00  00001db4  2**1
                  CONTENTS, ALLOC, LOAD, READONLY, CODE
 30 .text.msg_h_sensores 00000066  00001852  00001852  00001906  2**1
                  CONTENTS, ALLOC, LOAD, READONLY, CODE
 31 .text.msg_d_sensores 00000066  000018b8  000018b8  0000196c  2**1
                  CONTENTS, ALLOC, LOAD, READONLY, CODE
 32 .text.msg_panico 00000062  000019ea  000019ea  00001a9e  2**1
                  CONTENTS, ALLOC, LOAD, READONLY, CODE
 33 .text.msg_restauracao 00000044  00001de2  00001de2  00001e96  2**1
                  CONTENTS, ALLOC, LOAD, READONLY, CODE
 34 .text.msg_h_zona 00000066  0000191e  0000191e  000019d2  2**1
                  CONTENTS, ALLOC, LOAD, READONLY, CODE
 35 .text.msg_d_zona 00000066  00001984  00001984  00001a38  2**1
                  CONTENTS, ALLOC, LOAD, READONLY, CODE
 36 .text.insert_senha 00000014  00001f60  00001f60  00002014  2**1
                  CONTENTS, ALLOC, LOAD, READONLY, CODE
 37 .text.senha_arm 00000052  00001c12  00001c12  00001cc6  2**1
                  CONTENTS, ALLOC, LOAD, READONLY, CODE
 38 .text.verify_senhaM 00000074  000017de  000017de  00001892  2**1
                  CONTENTS, ALLOC, LOAD, READONLY, CODE
 39 .text.verify_senhaA 000001ac  000013e8  000013e8  0000149c  2**1
                  CONTENTS, ALLOC, LOAD, READONLY, CODE
 40 .text.verify_senhaD 000001ac  00001594  00001594  00001648  2**1
                  CONTENTS, ALLOC, LOAD, READONLY, CODE
 41 .text.main    0000005e  00001a4c  00001a4c  00001b00  2**1
                  CONTENTS, ALLOC, LOAD, READONLY, CODE
 42 .text.hab_sensor 00000026  00001e92  00001e92  00001f46  2**1
                  CONTENTS, ALLOC, LOAD, READONLY, CODE
 43 .text.hab_zonas 00000026  00001eb8  00001eb8  00001f6c  2**1
                  CONTENTS, ALLOC, LOAD, READONLY, CODE
 44 .text.__vector_2 00001210  000001d8  000001d8  0000028c  2**1
                  CONTENTS, ALLOC, LOAD, READONLY, CODE
 45 .bss.state    00000001  0080013e  0080013e  00002058  2**0
                  ALLOC
 46 .bss.flag_p   00000002  00800130  00800130  00002058  2**0
                  ALLOC
 47 .bss.flag_D_sensor 00000002  00800132  00800132  00002058  2**0
                  ALLOC
 48 .bss.flag_sensor 00000002  00800134  00800134  00002058  2**0
                  ALLOC
 49 .bss.cont_b   00000002  00800136  00800136  00002058  2**0
                  ALLOC
 50 .bss.cont_a   00000002  00800138  00800138  00002058  2**0
                  ALLOC
 51 .bss.count_senha 00000002  0080013a  0080013a  00002058  2**0
                  ALLOC
 52 .bss.flag_a_senha 00000002  0080013c  0080013c  00002058  2**0
                  ALLOC
 53 .data.senha3  00000005  00800118  00001f90  00002044  2**0
                  CONTENTS, ALLOC, LOAD, DATA
 54 .data.senha2  00000005  0080011d  00001f95  00002049  2**0
                  CONTENTS, ALLOC, LOAD, DATA
 55 .data.senha1  00000005  00800122  00001f9a  0000204e  2**0
                  CONTENTS, ALLOC, LOAD, DATA
 56 .data.mestre  00000005  00800127  00001f9f  00002053  2**0
                  CONTENTS, ALLOC, LOAD, DATA
 57 .bss.x        00000004  0080012c  0080012c  00002058  2**0
                  ALLOC
 58 .text.libgcc  0000000c  00001f80  00001f80  00002034  2**1
                  CONTENTS, ALLOC, LOAD, READONLY, CODE
 59 .text.libgcc.mul 00000016  00001f36  00001f36  00001fea  2**1
                  CONTENTS, ALLOC, LOAD, READONLY, CODE
 60 .text.libgcc  0000001a  00001f1c  00001f1c  00001fd0  2**1
                  CONTENTS, ALLOC, LOAD, READONLY, CODE
 61 .text.libgcc.mul 0000001e  00001efe  00001efe  00001fb2  2**1
                  CONTENTS, ALLOC, LOAD, READONLY, CODE

Disassembly of section .text:

00000000 <__vectors>:
   0:	0c 94 50 00 	jmp	0xa0	; 0xa0 <__ctors_end>
   4:	0c 94 c6 0f 	jmp	0x1f8c	; 0x1f8c <__bad_interrupt>
   8:	0c 94 ec 00 	jmp	0x1d8	; 0x1d8 <__vector_2>
   c:	0c 94 c6 0f 	jmp	0x1f8c	; 0x1f8c <__bad_interrupt>
  10:	0c 94 c6 0f 	jmp	0x1f8c	; 0x1f8c <__bad_interrupt>
  14:	0c 94 c6 0f 	jmp	0x1f8c	; 0x1f8c <__bad_interrupt>
  18:	0c 94 c6 0f 	jmp	0x1f8c	; 0x1f8c <__bad_interrupt>
  1c:	0c 94 c6 0f 	jmp	0x1f8c	; 0x1f8c <__bad_interrupt>
  20:	0c 94 c6 0f 	jmp	0x1f8c	; 0x1f8c <__bad_interrupt>
  24:	0c 94 c6 0f 	jmp	0x1f8c	; 0x1f8c <__bad_interrupt>
  28:	0c 94 c6 0f 	jmp	0x1f8c	; 0x1f8c <__bad_interrupt>
  2c:	0c 94 c6 0f 	jmp	0x1f8c	; 0x1f8c <__bad_interrupt>
  30:	0c 94 c6 0f 	jmp	0x1f8c	; 0x1f8c <__bad_interrupt>
  34:	0c 94 c6 0f 	jmp	0x1f8c	; 0x1f8c <__bad_interrupt>
  38:	0c 94 c6 0f 	jmp	0x1f8c	; 0x1f8c <__bad_interrupt>
  3c:	0c 94 c6 0f 	jmp	0x1f8c	; 0x1f8c <__bad_interrupt>
  40:	0c 94 c6 0f 	jmp	0x1f8c	; 0x1f8c <__bad_interrupt>
  44:	0c 94 c6 0f 	jmp	0x1f8c	; 0x1f8c <__bad_interrupt>
  48:	0c 94 c6 0f 	jmp	0x1f8c	; 0x1f8c <__bad_interrupt>
  4c:	0c 94 c6 0f 	jmp	0x1f8c	; 0x1f8c <__bad_interrupt>
  50:	0c 94 c6 0f 	jmp	0x1f8c	; 0x1f8c <__bad_interrupt>
  54:	0c 94 c6 0f 	jmp	0x1f8c	; 0x1f8c <__bad_interrupt>
  58:	0c 94 c6 0f 	jmp	0x1f8c	; 0x1f8c <__bad_interrupt>
  5c:	0c 94 c6 0f 	jmp	0x1f8c	; 0x1f8c <__bad_interrupt>
  60:	0c 94 c6 0f 	jmp	0x1f8c	; 0x1f8c <__bad_interrupt>
  64:	0c 94 c6 0f 	jmp	0x1f8c	; 0x1f8c <__bad_interrupt>
  68:	3c 0d       	add	r19, r12
  6a:	40 0d       	add	r20, r0
  6c:	30 0d       	add	r19, r0
  6e:	30 0d       	add	r19, r0
  70:	30 0d       	add	r19, r0
  72:	30 0d       	add	r19, r0
  74:	43 0d       	add	r20, r3
  76:	49 0d       	add	r20, r9
  78:	46 0d       	add	r20, r6
  7a:	30 0d       	add	r19, r0
  7c:	30 0d       	add	r19, r0
  7e:	30 0d       	add	r19, r0
  80:	30 0d       	add	r19, r0
  82:	30 0d       	add	r19, r0
  84:	30 0d       	add	r19, r0
  86:	30 0d       	add	r19, r0
  88:	4c 0d       	add	r20, r12
  8a:	4f 0d       	add	r20, r15
  8c:	52 0d       	add	r21, r2

0000008e <.dinit>:
  8e:	01 00       	.word	0x0001	; ????
  90:	01 18       	sub	r0, r1
  92:	80 01       	movw	r16, r0
  94:	18 01       	movw	r2, r16
  96:	2c 00       	.word	0x002c	; ????
  98:	1f 90       	pop	r1
  9a:	01 2c       	mov	r0, r1
  9c:	01 3f       	cpi	r16, 0xF1	; 241
  9e:	80 00       	.word	0x0080	; ????

000000a0 <__ctors_end>:
  a0:	11 24       	eor	r1, r1
  a2:	1f be       	out	0x3f, r1	; 63
  a4:	cf ef       	ldi	r28, 0xFF	; 255
  a6:	d8 e0       	ldi	r29, 0x08	; 8
  a8:	de bf       	out	0x3e, r29	; 62
  aa:	cd bf       	out	0x3d, r28	; 61

000000ac <__do_copy_data>:
  ac:	ee e8       	ldi	r30, 0x8E	; 142
  ae:	f0 e0       	ldi	r31, 0x00	; 0
  b0:	40 e0       	ldi	r20, 0x00	; 0
  b2:	17 c0       	rjmp	.+46     	; 0xe2 <__do_clear_bss+0x8>
  b4:	b5 91       	lpm	r27, Z+
  b6:	a5 91       	lpm	r26, Z+
  b8:	35 91       	lpm	r19, Z+
  ba:	25 91       	lpm	r18, Z+
  bc:	05 91       	lpm	r16, Z+
  be:	07 fd       	sbrc	r16, 7
  c0:	0c c0       	rjmp	.+24     	; 0xda <__do_clear_bss>
  c2:	95 91       	lpm	r25, Z+
  c4:	85 91       	lpm	r24, Z+
  c6:	ef 01       	movw	r28, r30
  c8:	f9 2f       	mov	r31, r25
  ca:	e8 2f       	mov	r30, r24
  cc:	05 90       	lpm	r0, Z+
  ce:	0d 92       	st	X+, r0
  d0:	a2 17       	cp	r26, r18
  d2:	b3 07       	cpc	r27, r19
  d4:	d9 f7       	brne	.-10     	; 0xcc <__do_copy_data+0x20>
  d6:	fe 01       	movw	r30, r28
  d8:	04 c0       	rjmp	.+8      	; 0xe2 <__do_clear_bss+0x8>

000000da <__do_clear_bss>:
  da:	1d 92       	st	X+, r1
  dc:	a2 17       	cp	r26, r18
  de:	b3 07       	cpc	r27, r19
  e0:	e1 f7       	brne	.-8      	; 0xda <__do_clear_bss>
  e2:	ef 39       	cpi	r30, 0x9F	; 159
  e4:	f4 07       	cpc	r31, r20
  e6:	31 f7       	brne	.-52     	; 0xb4 <__do_copy_data+0x8>
  e8:	0e 94 26 0d 	call	0x1a4c	; 0x1a4c <main>
  ec:	0c 94 78 00 	jmp	0xf0	; 0xf0 <_exit>

000000f0 <_exit>:
  f0:	f8 94       	cli

000000f2 <__stop_program>:
  f2:	ff cf       	rjmp	.-2      	; 0xf2 <__stop_program>

Disassembly of section .text:

00001f8c <__bad_interrupt>:
    1f8c:	0c 94 00 00 	jmp	0	; 0x0 <__vectors>

Disassembly of section .text.init_int1:

00001f74 <init_int1>:

// INTERRUPÇÃO EXTERNA //

void init_int1(){
	
	EICRA = (1<<ISC11) | (1<<ISC10);
    1f74:	8c e0       	ldi	r24, 0x0C	; 12
    1f76:	80 93 69 00 	sts	0x0069, r24	; 0x800069 <__TEXT_REGION_LENGTH__+0x7f8069>
	EIMSK = (1<<INT1);
    1f7a:	82 e0       	ldi	r24, 0x02	; 2
    1f7c:	8d bb       	out	0x1d, r24	; 29
    1f7e:	08 95       	ret

Disassembly of section .text.delay_ms:

00001bbe <delay_ms>:
	while(data[cont] != '\0'){
		auxChar[cont] = data[cont];
		cont++;
	}
	auxChar[cont] = '\0';
}
    1bbe:	9b 01       	movw	r18, r22
    1bc0:	ac 01       	movw	r20, r24
    1bc2:	10 92 2c 01 	sts	0x012C, r1	; 0x80012c <x>
    1bc6:	10 92 2d 01 	sts	0x012D, r1	; 0x80012d <x+0x1>
    1bca:	10 92 2e 01 	sts	0x012E, r1	; 0x80012e <x+0x2>
    1bce:	10 92 2f 01 	sts	0x012F, r1	; 0x80012f <x+0x3>
    1bd2:	a8 ee       	ldi	r26, 0xE8	; 232
    1bd4:	b3 e0       	ldi	r27, 0x03	; 3
    1bd6:	0e 94 9b 0f 	call	0x1f36	; 0x1f36 <__muluhisi3>
    1bda:	ab 01       	movw	r20, r22
    1bdc:	bc 01       	movw	r22, r24
    1bde:	0b c0       	rjmp	.+22     	; 0x1bf6 <delay_ms+0x38>
    1be0:	01 96       	adiw	r24, 0x01	; 1
    1be2:	a1 1d       	adc	r26, r1
    1be4:	b1 1d       	adc	r27, r1
    1be6:	80 93 2c 01 	sts	0x012C, r24	; 0x80012c <x>
    1bea:	90 93 2d 01 	sts	0x012D, r25	; 0x80012d <x+0x1>
    1bee:	a0 93 2e 01 	sts	0x012E, r26	; 0x80012e <x+0x2>
    1bf2:	b0 93 2f 01 	sts	0x012F, r27	; 0x80012f <x+0x3>
    1bf6:	80 91 2c 01 	lds	r24, 0x012C	; 0x80012c <x>
    1bfa:	90 91 2d 01 	lds	r25, 0x012D	; 0x80012d <x+0x1>
    1bfe:	a0 91 2e 01 	lds	r26, 0x012E	; 0x80012e <x+0x2>
    1c02:	b0 91 2f 01 	lds	r27, 0x012F	; 0x80012f <x+0x3>
    1c06:	48 17       	cp	r20, r24
    1c08:	59 07       	cpc	r21, r25
    1c0a:	6a 07       	cpc	r22, r26
    1c0c:	7b 07       	cpc	r23, r27
    1c0e:	44 f7       	brge	.-48     	; 0x1be0 <delay_ms+0x22>
    1c10:	08 95       	ret

Disassembly of section .text.delay_ns:

00001d9a <delay_ns>:
    1d9a:	ab 01       	movw	r20, r22
    1d9c:	bc 01       	movw	r22, r24
    1d9e:	10 92 2c 01 	sts	0x012C, r1	; 0x80012c <x>
    1da2:	10 92 2d 01 	sts	0x012D, r1	; 0x80012d <x+0x1>
    1da6:	10 92 2e 01 	sts	0x012E, r1	; 0x80012e <x+0x2>
    1daa:	10 92 2f 01 	sts	0x012F, r1	; 0x80012f <x+0x3>
    1dae:	0b c0       	rjmp	.+22     	; 0x1dc6 <delay_ns+0x2c>
    1db0:	01 96       	adiw	r24, 0x01	; 1
    1db2:	a1 1d       	adc	r26, r1
    1db4:	b1 1d       	adc	r27, r1
    1db6:	80 93 2c 01 	sts	0x012C, r24	; 0x80012c <x>
    1dba:	90 93 2d 01 	sts	0x012D, r25	; 0x80012d <x+0x1>
    1dbe:	a0 93 2e 01 	sts	0x012E, r26	; 0x80012e <x+0x2>
    1dc2:	b0 93 2f 01 	sts	0x012F, r27	; 0x80012f <x+0x3>
    1dc6:	80 91 2c 01 	lds	r24, 0x012C	; 0x80012c <x>
    1dca:	90 91 2d 01 	lds	r25, 0x012D	; 0x80012d <x+0x1>
    1dce:	a0 91 2e 01 	lds	r26, 0x012E	; 0x80012e <x+0x2>
    1dd2:	b0 91 2f 01 	lds	r27, 0x012F	; 0x80012f <x+0x3>
    1dd6:	48 17       	cp	r20, r24
    1dd8:	59 07       	cpc	r21, r25
    1dda:	6a 07       	cpc	r22, r26
    1ddc:	7b 07       	cpc	r23, r27
    1dde:	44 f7       	brge	.-48     	; 0x1db0 <delay_ns+0x16>
    1de0:	08 95       	ret

Disassembly of section .text.send_instruction_lcd:

00001e26 <send_instruction_lcd>:
    1e26:	95 b1       	in	r25, 0x05	; 5
    1e28:	90 7c       	andi	r25, 0xC0	; 192
    1e2a:	95 b9       	out	0x05, r25	; 5
    1e2c:	95 b1       	in	r25, 0x05	; 5
    1e2e:	9f 7e       	andi	r25, 0xEF	; 239
    1e30:	95 b9       	out	0x05, r25	; 5
    1e32:	95 b1       	in	r25, 0x05	; 5
    1e34:	90 62       	ori	r25, 0x20	; 32
    1e36:	95 b9       	out	0x05, r25	; 5
    1e38:	95 b1       	in	r25, 0x05	; 5
    1e3a:	28 2f       	mov	r18, r24
    1e3c:	22 95       	swap	r18
    1e3e:	2f 70       	andi	r18, 0x0F	; 15
    1e40:	92 2b       	or	r25, r18
    1e42:	95 b9       	out	0x05, r25	; 5
    1e44:	95 b1       	in	r25, 0x05	; 5
    1e46:	9f 7d       	andi	r25, 0xDF	; 223
    1e48:	95 b9       	out	0x05, r25	; 5
    1e4a:	95 b1       	in	r25, 0x05	; 5
    1e4c:	90 7c       	andi	r25, 0xC0	; 192
    1e4e:	95 b9       	out	0x05, r25	; 5
    1e50:	95 b1       	in	r25, 0x05	; 5
    1e52:	90 62       	ori	r25, 0x20	; 32
    1e54:	95 b9       	out	0x05, r25	; 5
    1e56:	95 b1       	in	r25, 0x05	; 5
    1e58:	8f 70       	andi	r24, 0x0F	; 15
    1e5a:	89 2b       	or	r24, r25
    1e5c:	85 b9       	out	0x05, r24	; 5
    1e5e:	85 b1       	in	r24, 0x05	; 5
    1e60:	8f 7d       	andi	r24, 0xDF	; 223
    1e62:	85 b9       	out	0x05, r24	; 5
    1e64:	08 95       	ret

Disassembly of section .text.send_instruction_lcd_nibble:

00001ede <send_instruction_lcd_nibble>:
    1ede:	95 b1       	in	r25, 0x05	; 5
    1ee0:	90 7c       	andi	r25, 0xC0	; 192
    1ee2:	95 b9       	out	0x05, r25	; 5
    1ee4:	95 b1       	in	r25, 0x05	; 5
    1ee6:	9f 7e       	andi	r25, 0xEF	; 239
    1ee8:	95 b9       	out	0x05, r25	; 5
    1eea:	95 b1       	in	r25, 0x05	; 5
    1eec:	90 62       	ori	r25, 0x20	; 32
    1eee:	95 b9       	out	0x05, r25	; 5
    1ef0:	95 b1       	in	r25, 0x05	; 5
    1ef2:	89 2b       	or	r24, r25
    1ef4:	85 b9       	out	0x05, r24	; 5
    1ef6:	85 b1       	in	r24, 0x05	; 5
    1ef8:	8f 7d       	andi	r24, 0xDF	; 223
    1efa:	85 b9       	out	0x05, r24	; 5
    1efc:	08 95       	ret

Disassembly of section .text.inicializa_display:

00001740 <inicializa_display>:
    1740:	6f e0       	ldi	r22, 0x0F	; 15
    1742:	70 e0       	ldi	r23, 0x00	; 0
    1744:	80 e0       	ldi	r24, 0x00	; 0
    1746:	90 e0       	ldi	r25, 0x00	; 0
    1748:	0e 94 df 0d 	call	0x1bbe	; 0x1bbe <delay_ms>
    174c:	83 e0       	ldi	r24, 0x03	; 3
    174e:	0e 94 6f 0f 	call	0x1ede	; 0x1ede <send_instruction_lcd_nibble>
    1752:	65 e0       	ldi	r22, 0x05	; 5
    1754:	70 e0       	ldi	r23, 0x00	; 0
    1756:	80 e0       	ldi	r24, 0x00	; 0
    1758:	90 e0       	ldi	r25, 0x00	; 0
    175a:	0e 94 df 0d 	call	0x1bbe	; 0x1bbe <delay_ms>
    175e:	83 e0       	ldi	r24, 0x03	; 3
    1760:	0e 94 6f 0f 	call	0x1ede	; 0x1ede <send_instruction_lcd_nibble>
    1764:	64 e6       	ldi	r22, 0x64	; 100
    1766:	70 e0       	ldi	r23, 0x00	; 0
    1768:	80 e0       	ldi	r24, 0x00	; 0
    176a:	90 e0       	ldi	r25, 0x00	; 0
    176c:	0e 94 cd 0e 	call	0x1d9a	; 0x1d9a <delay_ns>
    1770:	83 e0       	ldi	r24, 0x03	; 3
    1772:	0e 94 6f 0f 	call	0x1ede	; 0x1ede <send_instruction_lcd_nibble>
    1776:	68 e2       	ldi	r22, 0x28	; 40
    1778:	70 e0       	ldi	r23, 0x00	; 0
    177a:	80 e0       	ldi	r24, 0x00	; 0
    177c:	90 e0       	ldi	r25, 0x00	; 0
    177e:	0e 94 cd 0e 	call	0x1d9a	; 0x1d9a <delay_ns>
    1782:	82 e0       	ldi	r24, 0x02	; 2
    1784:	0e 94 6f 0f 	call	0x1ede	; 0x1ede <send_instruction_lcd_nibble>
    1788:	68 e2       	ldi	r22, 0x28	; 40
    178a:	70 e0       	ldi	r23, 0x00	; 0
    178c:	80 e0       	ldi	r24, 0x00	; 0
    178e:	90 e0       	ldi	r25, 0x00	; 0
    1790:	0e 94 cd 0e 	call	0x1d9a	; 0x1d9a <delay_ns>
    1794:	88 e2       	ldi	r24, 0x28	; 40
    1796:	0e 94 13 0f 	call	0x1e26	; 0x1e26 <send_instruction_lcd>
    179a:	68 e2       	ldi	r22, 0x28	; 40
    179c:	70 e0       	ldi	r23, 0x00	; 0
    179e:	80 e0       	ldi	r24, 0x00	; 0
    17a0:	90 e0       	ldi	r25, 0x00	; 0
    17a2:	0e 94 cd 0e 	call	0x1d9a	; 0x1d9a <delay_ns>
    17a6:	81 e0       	ldi	r24, 0x01	; 1
    17a8:	0e 94 13 0f 	call	0x1e26	; 0x1e26 <send_instruction_lcd>
    17ac:	62 e0       	ldi	r22, 0x02	; 2
    17ae:	70 e0       	ldi	r23, 0x00	; 0
    17b0:	80 e0       	ldi	r24, 0x00	; 0
    17b2:	90 e0       	ldi	r25, 0x00	; 0
    17b4:	0e 94 df 0d 	call	0x1bbe	; 0x1bbe <delay_ms>
    17b8:	86 e0       	ldi	r24, 0x06	; 6
    17ba:	0e 94 13 0f 	call	0x1e26	; 0x1e26 <send_instruction_lcd>
    17be:	68 e2       	ldi	r22, 0x28	; 40
    17c0:	70 e0       	ldi	r23, 0x00	; 0
    17c2:	80 e0       	ldi	r24, 0x00	; 0
    17c4:	90 e0       	ldi	r25, 0x00	; 0
    17c6:	0e 94 cd 0e 	call	0x1d9a	; 0x1d9a <delay_ns>
    17ca:	8c e0       	ldi	r24, 0x0C	; 12
    17cc:	0e 94 13 0f 	call	0x1e26	; 0x1e26 <send_instruction_lcd>
    17d0:	68 e2       	ldi	r22, 0x28	; 40
    17d2:	70 e0       	ldi	r23, 0x00	; 0
    17d4:	80 e0       	ldi	r24, 0x00	; 0
    17d6:	90 e0       	ldi	r25, 0x00	; 0
    17d8:	0e 94 cd 0e 	call	0x1d9a	; 0x1d9a <delay_ns>
    17dc:	08 95       	ret

Disassembly of section .text.send_word_lcd:

00001d4e <send_word_lcd>:
    1d4e:	95 b1       	in	r25, 0x05	; 5
    1d50:	90 7f       	andi	r25, 0xF0	; 240
    1d52:	95 b9       	out	0x05, r25	; 5
    1d54:	95 b1       	in	r25, 0x05	; 5
    1d56:	90 61       	ori	r25, 0x10	; 16
    1d58:	95 b9       	out	0x05, r25	; 5
    1d5a:	95 b1       	in	r25, 0x05	; 5
    1d5c:	90 62       	ori	r25, 0x20	; 32
    1d5e:	95 b9       	out	0x05, r25	; 5
    1d60:	95 b1       	in	r25, 0x05	; 5
    1d62:	28 2f       	mov	r18, r24
    1d64:	22 95       	swap	r18
    1d66:	2f 70       	andi	r18, 0x0F	; 15
    1d68:	92 2b       	or	r25, r18
    1d6a:	95 b9       	out	0x05, r25	; 5
    1d6c:	95 b1       	in	r25, 0x05	; 5
    1d6e:	9f 7d       	andi	r25, 0xDF	; 223
    1d70:	95 b9       	out	0x05, r25	; 5
    1d72:	95 b1       	in	r25, 0x05	; 5
    1d74:	90 7f       	andi	r25, 0xF0	; 240
    1d76:	95 b9       	out	0x05, r25	; 5
    1d78:	95 b1       	in	r25, 0x05	; 5
    1d7a:	90 62       	ori	r25, 0x20	; 32
    1d7c:	95 b9       	out	0x05, r25	; 5
    1d7e:	95 b1       	in	r25, 0x05	; 5
    1d80:	8f 70       	andi	r24, 0x0F	; 15
    1d82:	89 2b       	or	r24, r25
    1d84:	85 b9       	out	0x05, r24	; 5
    1d86:	85 b1       	in	r24, 0x05	; 5
    1d88:	8f 7d       	andi	r24, 0xDF	; 223
    1d8a:	85 b9       	out	0x05, r24	; 5
    1d8c:	6b e2       	ldi	r22, 0x2B	; 43
    1d8e:	70 e0       	ldi	r23, 0x00	; 0
    1d90:	80 e0       	ldi	r24, 0x00	; 0
    1d92:	90 e0       	ldi	r25, 0x00	; 0
    1d94:	0e 94 cd 0e 	call	0x1d9a	; 0x1d9a <delay_ns>
    1d98:	08 95       	ret

Disassembly of section .text.set_DDRAM_ADDR:

00001c64 <set_DDRAM_ADDR>:
    1c64:	80 68       	ori	r24, 0x80	; 128
    1c66:	95 b1       	in	r25, 0x05	; 5
    1c68:	90 7c       	andi	r25, 0xC0	; 192
    1c6a:	95 b9       	out	0x05, r25	; 5
    1c6c:	95 b1       	in	r25, 0x05	; 5
    1c6e:	9f 7e       	andi	r25, 0xEF	; 239
    1c70:	95 b9       	out	0x05, r25	; 5
    1c72:	95 b1       	in	r25, 0x05	; 5
    1c74:	90 62       	ori	r25, 0x20	; 32
    1c76:	95 b9       	out	0x05, r25	; 5
    1c78:	95 b1       	in	r25, 0x05	; 5
    1c7a:	28 2f       	mov	r18, r24
    1c7c:	22 95       	swap	r18
    1c7e:	2f 70       	andi	r18, 0x0F	; 15
    1c80:	92 2b       	or	r25, r18
    1c82:	95 b9       	out	0x05, r25	; 5
    1c84:	95 b1       	in	r25, 0x05	; 5
    1c86:	9f 7d       	andi	r25, 0xDF	; 223
    1c88:	95 b9       	out	0x05, r25	; 5
    1c8a:	95 b1       	in	r25, 0x05	; 5
    1c8c:	90 7c       	andi	r25, 0xC0	; 192
    1c8e:	95 b9       	out	0x05, r25	; 5
    1c90:	95 b1       	in	r25, 0x05	; 5
    1c92:	90 62       	ori	r25, 0x20	; 32
    1c94:	95 b9       	out	0x05, r25	; 5
    1c96:	95 b1       	in	r25, 0x05	; 5
    1c98:	8f 70       	andi	r24, 0x0F	; 15
    1c9a:	89 2b       	or	r24, r25
    1c9c:	85 b9       	out	0x05, r24	; 5
    1c9e:	85 b1       	in	r24, 0x05	; 5
    1ca0:	8f 7d       	andi	r24, 0xDF	; 223
    1ca2:	85 b9       	out	0x05, r24	; 5
    1ca4:	6b e2       	ldi	r22, 0x2B	; 43
    1ca6:	70 e0       	ldi	r23, 0x00	; 0
    1ca8:	80 e0       	ldi	r24, 0x00	; 0
    1caa:	90 e0       	ldi	r25, 0x00	; 0
    1cac:	0e 94 cd 0e 	call	0x1d9a	; 0x1d9a <delay_ns>
    1cb0:	08 95       	ret

Disassembly of section .text.envia_frase:

00001e66 <envia_frase>:
    1e66:	0f 93       	push	r16
    1e68:	1f 93       	push	r17
    1e6a:	cf 93       	push	r28
    1e6c:	8c 01       	movw	r16, r24
    1e6e:	86 2f       	mov	r24, r22
    1e70:	0e 94 32 0e 	call	0x1c64	; 0x1c64 <set_DDRAM_ADDR>
    1e74:	c0 e0       	ldi	r28, 0x00	; 0
    1e76:	03 c0       	rjmp	.+6      	; 0x1e7e <envia_frase+0x18>
    1e78:	0e 94 a7 0e 	call	0x1d4e	; 0x1d4e <send_word_lcd>
    1e7c:	cf 5f       	subi	r28, 0xFF	; 255
    1e7e:	f8 01       	movw	r30, r16
    1e80:	ec 0f       	add	r30, r28
    1e82:	f1 1d       	adc	r31, r1
    1e84:	80 81       	ld	r24, Z
    1e86:	81 11       	cpse	r24, r1
    1e88:	f7 cf       	rjmp	.-18     	; 0x1e78 <envia_frase+0x12>
    1e8a:	cf 91       	pop	r28
    1e8c:	1f 91       	pop	r17
    1e8e:	0f 91       	pop	r16
    1e90:	08 95       	ret

Disassembly of section .text.clear_Display:

00001f4c <clear_Display>:

void clear_Display(){
	
	send_instruction_lcd(0x01);
    1f4c:	81 e0       	ldi	r24, 0x01	; 1
    1f4e:	0e 94 13 0f 	call	0x1e26	; 0x1e26 <send_instruction_lcd>
	delay_ms(15);
    1f52:	6f e0       	ldi	r22, 0x0F	; 15
    1f54:	70 e0       	ldi	r23, 0x00	; 0
    1f56:	80 e0       	ldi	r24, 0x00	; 0
    1f58:	90 e0       	ldi	r25, 0x00	; 0
    1f5a:	0e 94 df 0d 	call	0x1bbe	; 0x1bbe <delay_ms>
    1f5e:	08 95       	ret

Disassembly of section .text.msg_inserir_senha:

00001cb2 <msg_inserir_senha>:
	while(data[cont] != '\0'){
		auxChar[cont] = data[cont];
		cont++;
	}
	auxChar[cont] = '\0';
}
    1cb2:	cf 93       	push	r28
    1cb4:	df 93       	push	r29
    1cb6:	cd b7       	in	r28, 0x3d	; 61
    1cb8:	de b7       	in	r29, 0x3e	; 62
    1cba:	61 97       	sbiw	r28, 0x11	; 17
    1cbc:	0f b6       	in	r0, 0x3f	; 63
    1cbe:	f8 94       	cli
    1cc0:	de bf       	out	0x3e, r29	; 62
    1cc2:	0f be       	out	0x3f, r0	; 63
    1cc4:	cd bf       	out	0x3d, r28	; 61
    1cc6:	0e 94 a6 0f 	call	0x1f4c	; 0x1f4c <clear_Display>
    1cca:	24 ef       	ldi	r18, 0xF4	; 244
    1ccc:	30 e0       	ldi	r19, 0x00	; 0
    1cce:	40 e0       	ldi	r20, 0x00	; 0
    1cd0:	81 e1       	ldi	r24, 0x11	; 17
    1cd2:	f9 01       	movw	r30, r18
    1cd4:	de 01       	movw	r26, r28
    1cd6:	11 96       	adiw	r26, 0x01	; 1
    1cd8:	74 2f       	mov	r23, r20
    1cda:	0e 94 8e 0f 	call	0x1f1c	; 0x1f1c <__movmemx_qi>
    1cde:	60 e0       	ldi	r22, 0x00	; 0
    1ce0:	ce 01       	movw	r24, r28
    1ce2:	01 96       	adiw	r24, 0x01	; 1
    1ce4:	0e 94 33 0f 	call	0x1e66	; 0x1e66 <envia_frase>
    1ce8:	80 ec       	ldi	r24, 0xC0	; 192
    1cea:	0e 94 13 0f 	call	0x1e26	; 0x1e26 <send_instruction_lcd>
    1cee:	61 96       	adiw	r28, 0x11	; 17
    1cf0:	0f b6       	in	r0, 0x3f	; 63
    1cf2:	f8 94       	cli
    1cf4:	de bf       	out	0x3e, r29	; 62
    1cf6:	0f be       	out	0x3f, r0	; 63
    1cf8:	cd bf       	out	0x3d, r28	; 61
    1cfa:	df 91       	pop	r29
    1cfc:	cf 91       	pop	r28
    1cfe:	08 95       	ret

Disassembly of section .text.msg_desativado:

00001aaa <msg_desativado>:
    1aaa:	cf 93       	push	r28
    1aac:	df 93       	push	r29
    1aae:	cd b7       	in	r28, 0x3d	; 61
    1ab0:	de b7       	in	r29, 0x3e	; 62
    1ab2:	62 97       	sbiw	r28, 0x12	; 18
    1ab4:	0f b6       	in	r0, 0x3f	; 63
    1ab6:	f8 94       	cli
    1ab8:	de bf       	out	0x3e, r29	; 62
    1aba:	0f be       	out	0x3f, r0	; 63
    1abc:	cd bf       	out	0x3d, r28	; 61
    1abe:	25 e0       	ldi	r18, 0x05	; 5
    1ac0:	31 e0       	ldi	r19, 0x01	; 1
    1ac2:	40 e0       	ldi	r20, 0x00	; 0
    1ac4:	81 e1       	ldi	r24, 0x11	; 17
    1ac6:	f9 01       	movw	r30, r18
    1ac8:	de 01       	movw	r26, r28
    1aca:	11 96       	adiw	r26, 0x01	; 1
    1acc:	74 2f       	mov	r23, r20
    1ace:	0e 94 8e 0f 	call	0x1f1c	; 0x1f1c <__movmemx_qi>
    1ad2:	60 e0       	ldi	r22, 0x00	; 0
    1ad4:	ce 01       	movw	r24, r28
    1ad6:	01 96       	adiw	r24, 0x01	; 1
    1ad8:	0e 94 33 0f 	call	0x1e66	; 0x1e66 <envia_frase>
    1adc:	1a 8a       	std	Y+18, r1	; 0x12
    1ade:	60 e4       	ldi	r22, 0x40	; 64
    1ae0:	ce 01       	movw	r24, r28
    1ae2:	42 96       	adiw	r24, 0x12	; 18
    1ae4:	0e 94 33 0f 	call	0x1e66	; 0x1e66 <envia_frase>
    1ae8:	63 e0       	ldi	r22, 0x03	; 3
    1aea:	70 e0       	ldi	r23, 0x00	; 0
    1aec:	80 e0       	ldi	r24, 0x00	; 0
    1aee:	90 e0       	ldi	r25, 0x00	; 0
    1af0:	0e 94 df 0d 	call	0x1bbe	; 0x1bbe <delay_ms>
    1af4:	62 96       	adiw	r28, 0x12	; 18
    1af6:	0f b6       	in	r0, 0x3f	; 63
    1af8:	f8 94       	cli
    1afa:	de bf       	out	0x3e, r29	; 62
    1afc:	0f be       	out	0x3f, r0	; 63
    1afe:	cd bf       	out	0x3d, r28	; 61
    1b00:	df 91       	pop	r29
    1b02:	cf 91       	pop	r28
    1b04:	08 95       	ret

Disassembly of section .text.msg_ativado:

00001b06 <msg_ativado>:
    1b06:	cf 93       	push	r28
    1b08:	df 93       	push	r29
    1b0a:	cd b7       	in	r28, 0x3d	; 61
    1b0c:	de b7       	in	r29, 0x3e	; 62
    1b0e:	2f 97       	sbiw	r28, 0x0f	; 15
    1b10:	0f b6       	in	r0, 0x3f	; 63
    1b12:	f8 94       	cli
    1b14:	de bf       	out	0x3e, r29	; 62
    1b16:	0f be       	out	0x3f, r0	; 63
    1b18:	cd bf       	out	0x3d, r28	; 61
    1b1a:	26 e1       	ldi	r18, 0x16	; 22
    1b1c:	31 e0       	ldi	r19, 0x01	; 1
    1b1e:	40 e0       	ldi	r20, 0x00	; 0
    1b20:	8e e0       	ldi	r24, 0x0E	; 14
    1b22:	f9 01       	movw	r30, r18
    1b24:	de 01       	movw	r26, r28
    1b26:	11 96       	adiw	r26, 0x01	; 1
    1b28:	74 2f       	mov	r23, r20
    1b2a:	0e 94 8e 0f 	call	0x1f1c	; 0x1f1c <__movmemx_qi>
    1b2e:	60 e0       	ldi	r22, 0x00	; 0
    1b30:	ce 01       	movw	r24, r28
    1b32:	01 96       	adiw	r24, 0x01	; 1
    1b34:	0e 94 33 0f 	call	0x1e66	; 0x1e66 <envia_frase>
    1b38:	1f 86       	std	Y+15, r1	; 0x0f
    1b3a:	60 e4       	ldi	r22, 0x40	; 64
    1b3c:	ce 01       	movw	r24, r28
    1b3e:	0f 96       	adiw	r24, 0x0f	; 15
    1b40:	0e 94 33 0f 	call	0x1e66	; 0x1e66 <envia_frase>
    1b44:	63 e0       	ldi	r22, 0x03	; 3
    1b46:	70 e0       	ldi	r23, 0x00	; 0
    1b48:	80 e0       	ldi	r24, 0x00	; 0
    1b4a:	90 e0       	ldi	r25, 0x00	; 0
    1b4c:	0e 94 df 0d 	call	0x1bbe	; 0x1bbe <delay_ms>
    1b50:	2f 96       	adiw	r28, 0x0f	; 15
    1b52:	0f b6       	in	r0, 0x3f	; 63
    1b54:	f8 94       	cli
    1b56:	de bf       	out	0x3e, r29	; 62
    1b58:	0f be       	out	0x3f, r0	; 63
    1b5a:	cd bf       	out	0x3d, r28	; 61
    1b5c:	df 91       	pop	r29
    1b5e:	cf 91       	pop	r28
    1b60:	08 95       	ret

Disassembly of section .text.msg_programacao:

00001b62 <msg_programacao>:
    1b62:	cf 93       	push	r28
    1b64:	df 93       	push	r29
    1b66:	cd b7       	in	r28, 0x3d	; 61
    1b68:	de b7       	in	r29, 0x3e	; 62
    1b6a:	62 97       	sbiw	r28, 0x12	; 18
    1b6c:	0f b6       	in	r0, 0x3f	; 63
    1b6e:	f8 94       	cli
    1b70:	de bf       	out	0x3e, r29	; 62
    1b72:	0f be       	out	0x3f, r0	; 63
    1b74:	cd bf       	out	0x3d, r28	; 61
    1b76:	24 e2       	ldi	r18, 0x24	; 36
    1b78:	31 e0       	ldi	r19, 0x01	; 1
    1b7a:	40 e0       	ldi	r20, 0x00	; 0
    1b7c:	81 e1       	ldi	r24, 0x11	; 17
    1b7e:	f9 01       	movw	r30, r18
    1b80:	de 01       	movw	r26, r28
    1b82:	11 96       	adiw	r26, 0x01	; 1
    1b84:	74 2f       	mov	r23, r20
    1b86:	0e 94 8e 0f 	call	0x1f1c	; 0x1f1c <__movmemx_qi>
    1b8a:	60 e0       	ldi	r22, 0x00	; 0
    1b8c:	ce 01       	movw	r24, r28
    1b8e:	01 96       	adiw	r24, 0x01	; 1
    1b90:	0e 94 33 0f 	call	0x1e66	; 0x1e66 <envia_frase>
    1b94:	1a 8a       	std	Y+18, r1	; 0x12
    1b96:	60 e4       	ldi	r22, 0x40	; 64
    1b98:	ce 01       	movw	r24, r28
    1b9a:	42 96       	adiw	r24, 0x12	; 18
    1b9c:	0e 94 33 0f 	call	0x1e66	; 0x1e66 <envia_frase>
    1ba0:	63 e0       	ldi	r22, 0x03	; 3
    1ba2:	70 e0       	ldi	r23, 0x00	; 0
    1ba4:	80 e0       	ldi	r24, 0x00	; 0
    1ba6:	90 e0       	ldi	r25, 0x00	; 0
    1ba8:	0e 94 df 0d 	call	0x1bbe	; 0x1bbe <delay_ms>
    1bac:	62 96       	adiw	r28, 0x12	; 18
    1bae:	0f b6       	in	r0, 0x3f	; 63
    1bb0:	f8 94       	cli
    1bb2:	de bf       	out	0x3e, r29	; 62
    1bb4:	0f be       	out	0x3f, r0	; 63
    1bb6:	cd bf       	out	0x3d, r28	; 61
    1bb8:	df 91       	pop	r29
    1bba:	cf 91       	pop	r28
    1bbc:	08 95       	ret

Disassembly of section .text.msg_altera_senha:

00001d00 <msg_altera_senha>:
    1d00:	cf 93       	push	r28
    1d02:	df 93       	push	r29
    1d04:	cd b7       	in	r28, 0x3d	; 61
    1d06:	de b7       	in	r29, 0x3e	; 62
    1d08:	60 97       	sbiw	r28, 0x10	; 16
    1d0a:	0f b6       	in	r0, 0x3f	; 63
    1d0c:	f8 94       	cli
    1d0e:	de bf       	out	0x3e, r29	; 62
    1d10:	0f be       	out	0x3f, r0	; 63
    1d12:	cd bf       	out	0x3d, r28	; 61
    1d14:	0e 94 a6 0f 	call	0x1f4c	; 0x1f4c <clear_Display>
    1d18:	25 e3       	ldi	r18, 0x35	; 53
    1d1a:	31 e0       	ldi	r19, 0x01	; 1
    1d1c:	40 e0       	ldi	r20, 0x00	; 0
    1d1e:	80 e1       	ldi	r24, 0x10	; 16
    1d20:	f9 01       	movw	r30, r18
    1d22:	de 01       	movw	r26, r28
    1d24:	11 96       	adiw	r26, 0x01	; 1
    1d26:	74 2f       	mov	r23, r20
    1d28:	0e 94 8e 0f 	call	0x1f1c	; 0x1f1c <__movmemx_qi>
    1d2c:	60 e0       	ldi	r22, 0x00	; 0
    1d2e:	ce 01       	movw	r24, r28
    1d30:	01 96       	adiw	r24, 0x01	; 1
    1d32:	0e 94 33 0f 	call	0x1e66	; 0x1e66 <envia_frase>
    1d36:	80 ec       	ldi	r24, 0xC0	; 192
    1d38:	0e 94 13 0f 	call	0x1e26	; 0x1e26 <send_instruction_lcd>
    1d3c:	60 96       	adiw	r28, 0x10	; 16
    1d3e:	0f b6       	in	r0, 0x3f	; 63
    1d40:	f8 94       	cli
    1d42:	de bf       	out	0x3e, r29	; 62
    1d44:	0f be       	out	0x3f, r0	; 63
    1d46:	cd bf       	out	0x3d, r28	; 61
    1d48:	df 91       	pop	r29
    1d4a:	cf 91       	pop	r28
    1d4c:	08 95       	ret

Disassembly of section .text.msg_h_sensores:

00001852 <msg_h_sensores>:
    1852:	cf 93       	push	r28
    1854:	df 93       	push	r29
    1856:	cd b7       	in	r28, 0x3d	; 61
    1858:	de b7       	in	r29, 0x3e	; 62
    185a:	6d 97       	sbiw	r28, 0x1d	; 29
    185c:	0f b6       	in	r0, 0x3f	; 63
    185e:	f8 94       	cli
    1860:	de bf       	out	0x3e, r29	; 62
    1862:	0f be       	out	0x3f, r0	; 63
    1864:	cd bf       	out	0x3d, r28	; 61
    1866:	0e 94 a6 0f 	call	0x1f4c	; 0x1f4c <clear_Display>
    186a:	25 e4       	ldi	r18, 0x45	; 69
    186c:	31 e0       	ldi	r19, 0x01	; 1
    186e:	40 e0       	ldi	r20, 0x00	; 0
    1870:	8f e0       	ldi	r24, 0x0F	; 15
    1872:	f9 01       	movw	r30, r18
    1874:	de 01       	movw	r26, r28
    1876:	11 96       	adiw	r26, 0x01	; 1
    1878:	74 2f       	mov	r23, r20
    187a:	0e 94 8e 0f 	call	0x1f1c	; 0x1f1c <__movmemx_qi>
    187e:	60 e0       	ldi	r22, 0x00	; 0
    1880:	ce 01       	movw	r24, r28
    1882:	01 96       	adiw	r24, 0x01	; 1
    1884:	0e 94 33 0f 	call	0x1e66	; 0x1e66 <envia_frase>
    1888:	24 e5       	ldi	r18, 0x54	; 84
    188a:	31 e0       	ldi	r19, 0x01	; 1
    188c:	40 e0       	ldi	r20, 0x00	; 0
    188e:	8e e0       	ldi	r24, 0x0E	; 14
    1890:	f9 01       	movw	r30, r18
    1892:	de 01       	movw	r26, r28
    1894:	50 96       	adiw	r26, 0x10	; 16
    1896:	74 2f       	mov	r23, r20
    1898:	0e 94 8e 0f 	call	0x1f1c	; 0x1f1c <__movmemx_qi>
    189c:	60 e4       	ldi	r22, 0x40	; 64
    189e:	ce 01       	movw	r24, r28
    18a0:	40 96       	adiw	r24, 0x10	; 16
    18a2:	0e 94 33 0f 	call	0x1e66	; 0x1e66 <envia_frase>
    18a6:	6d 96       	adiw	r28, 0x1d	; 29
    18a8:	0f b6       	in	r0, 0x3f	; 63
    18aa:	f8 94       	cli
    18ac:	de bf       	out	0x3e, r29	; 62
    18ae:	0f be       	out	0x3f, r0	; 63
    18b0:	cd bf       	out	0x3d, r28	; 61
    18b2:	df 91       	pop	r29
    18b4:	cf 91       	pop	r28
    18b6:	08 95       	ret

Disassembly of section .text.msg_d_sensores:

000018b8 <msg_d_sensores>:
    18b8:	cf 93       	push	r28
    18ba:	df 93       	push	r29
    18bc:	cd b7       	in	r28, 0x3d	; 61
    18be:	de b7       	in	r29, 0x3e	; 62
    18c0:	6e 97       	sbiw	r28, 0x1e	; 30
    18c2:	0f b6       	in	r0, 0x3f	; 63
    18c4:	f8 94       	cli
    18c6:	de bf       	out	0x3e, r29	; 62
    18c8:	0f be       	out	0x3f, r0	; 63
    18ca:	cd bf       	out	0x3d, r28	; 61
    18cc:	0e 94 a6 0f 	call	0x1f4c	; 0x1f4c <clear_Display>
    18d0:	25 e4       	ldi	r18, 0x45	; 69
    18d2:	31 e0       	ldi	r19, 0x01	; 1
    18d4:	40 e0       	ldi	r20, 0x00	; 0
    18d6:	8f e0       	ldi	r24, 0x0F	; 15
    18d8:	f9 01       	movw	r30, r18
    18da:	de 01       	movw	r26, r28
    18dc:	11 96       	adiw	r26, 0x01	; 1
    18de:	74 2f       	mov	r23, r20
    18e0:	0e 94 8e 0f 	call	0x1f1c	; 0x1f1c <__movmemx_qi>
    18e4:	60 e0       	ldi	r22, 0x00	; 0
    18e6:	ce 01       	movw	r24, r28
    18e8:	01 96       	adiw	r24, 0x01	; 1
    18ea:	0e 94 33 0f 	call	0x1e66	; 0x1e66 <envia_frase>
    18ee:	22 e6       	ldi	r18, 0x62	; 98
    18f0:	31 e0       	ldi	r19, 0x01	; 1
    18f2:	40 e0       	ldi	r20, 0x00	; 0
    18f4:	8f e0       	ldi	r24, 0x0F	; 15
    18f6:	f9 01       	movw	r30, r18
    18f8:	de 01       	movw	r26, r28
    18fa:	50 96       	adiw	r26, 0x10	; 16
    18fc:	74 2f       	mov	r23, r20
    18fe:	0e 94 8e 0f 	call	0x1f1c	; 0x1f1c <__movmemx_qi>
    1902:	60 e4       	ldi	r22, 0x40	; 64
    1904:	ce 01       	movw	r24, r28
    1906:	40 96       	adiw	r24, 0x10	; 16
    1908:	0e 94 33 0f 	call	0x1e66	; 0x1e66 <envia_frase>
    190c:	6e 96       	adiw	r28, 0x1e	; 30
    190e:	0f b6       	in	r0, 0x3f	; 63
    1910:	f8 94       	cli
    1912:	de bf       	out	0x3e, r29	; 62
    1914:	0f be       	out	0x3f, r0	; 63
    1916:	cd bf       	out	0x3d, r28	; 61
    1918:	df 91       	pop	r29
    191a:	cf 91       	pop	r28
    191c:	08 95       	ret

Disassembly of section .text.msg_panico:

000019ea <msg_panico>:
    19ea:	cf 93       	push	r28
    19ec:	df 93       	push	r29
    19ee:	cd b7       	in	r28, 0x3d	; 61
    19f0:	de b7       	in	r29, 0x3e	; 62
    19f2:	6e 97       	sbiw	r28, 0x1e	; 30
    19f4:	0f b6       	in	r0, 0x3f	; 63
    19f6:	f8 94       	cli
    19f8:	de bf       	out	0x3e, r29	; 62
    19fa:	0f be       	out	0x3f, r0	; 63
    19fc:	cd bf       	out	0x3d, r28	; 61
    19fe:	21 e7       	ldi	r18, 0x71	; 113
    1a00:	31 e0       	ldi	r19, 0x01	; 1
    1a02:	40 e0       	ldi	r20, 0x00	; 0
    1a04:	8e e0       	ldi	r24, 0x0E	; 14
    1a06:	f9 01       	movw	r30, r18
    1a08:	de 01       	movw	r26, r28
    1a0a:	11 96       	adiw	r26, 0x01	; 1
    1a0c:	74 2f       	mov	r23, r20
    1a0e:	0e 94 8e 0f 	call	0x1f1c	; 0x1f1c <__movmemx_qi>
    1a12:	60 e0       	ldi	r22, 0x00	; 0
    1a14:	ce 01       	movw	r24, r28
    1a16:	01 96       	adiw	r24, 0x01	; 1
    1a18:	0e 94 33 0f 	call	0x1e66	; 0x1e66 <envia_frase>
    1a1c:	2f e7       	ldi	r18, 0x7F	; 127
    1a1e:	31 e0       	ldi	r19, 0x01	; 1
    1a20:	40 e0       	ldi	r20, 0x00	; 0
    1a22:	80 e1       	ldi	r24, 0x10	; 16
    1a24:	f9 01       	movw	r30, r18
    1a26:	de 01       	movw	r26, r28
    1a28:	1f 96       	adiw	r26, 0x0f	; 15
    1a2a:	74 2f       	mov	r23, r20
    1a2c:	0e 94 8e 0f 	call	0x1f1c	; 0x1f1c <__movmemx_qi>
    1a30:	60 e4       	ldi	r22, 0x40	; 64
    1a32:	ce 01       	movw	r24, r28
    1a34:	0f 96       	adiw	r24, 0x0f	; 15
    1a36:	0e 94 33 0f 	call	0x1e66	; 0x1e66 <envia_frase>
    1a3a:	6e 96       	adiw	r28, 0x1e	; 30
    1a3c:	0f b6       	in	r0, 0x3f	; 63
    1a3e:	f8 94       	cli
    1a40:	de bf       	out	0x3e, r29	; 62
    1a42:	0f be       	out	0x3f, r0	; 63
    1a44:	cd bf       	out	0x3d, r28	; 61
    1a46:	df 91       	pop	r29
    1a48:	cf 91       	pop	r28
    1a4a:	08 95       	ret

Disassembly of section .text.msg_restauracao:

00001de2 <msg_restauracao>:
    1de2:	cf 93       	push	r28
    1de4:	df 93       	push	r29
    1de6:	cd b7       	in	r28, 0x3d	; 61
    1de8:	de b7       	in	r29, 0x3e	; 62
    1dea:	2d 97       	sbiw	r28, 0x0d	; 13
    1dec:	0f b6       	in	r0, 0x3f	; 63
    1dee:	f8 94       	cli
    1df0:	de bf       	out	0x3e, r29	; 62
    1df2:	0f be       	out	0x3f, r0	; 63
    1df4:	cd bf       	out	0x3d, r28	; 61
    1df6:	2f e8       	ldi	r18, 0x8F	; 143
    1df8:	31 e0       	ldi	r19, 0x01	; 1
    1dfa:	40 e0       	ldi	r20, 0x00	; 0
    1dfc:	8d e0       	ldi	r24, 0x0D	; 13
    1dfe:	f9 01       	movw	r30, r18
    1e00:	de 01       	movw	r26, r28
    1e02:	11 96       	adiw	r26, 0x01	; 1
    1e04:	74 2f       	mov	r23, r20
    1e06:	0e 94 8e 0f 	call	0x1f1c	; 0x1f1c <__movmemx_qi>
    1e0a:	60 e0       	ldi	r22, 0x00	; 0
    1e0c:	ce 01       	movw	r24, r28
    1e0e:	01 96       	adiw	r24, 0x01	; 1
    1e10:	0e 94 33 0f 	call	0x1e66	; 0x1e66 <envia_frase>
    1e14:	2d 96       	adiw	r28, 0x0d	; 13
    1e16:	0f b6       	in	r0, 0x3f	; 63
    1e18:	f8 94       	cli
    1e1a:	de bf       	out	0x3e, r29	; 62
    1e1c:	0f be       	out	0x3f, r0	; 63
    1e1e:	cd bf       	out	0x3d, r28	; 61
    1e20:	df 91       	pop	r29
    1e22:	cf 91       	pop	r28
    1e24:	08 95       	ret

Disassembly of section .text.msg_h_zona:

0000191e <msg_h_zona>:
    191e:	cf 93       	push	r28
    1920:	df 93       	push	r29
    1922:	cd b7       	in	r28, 0x3d	; 61
    1924:	de b7       	in	r29, 0x3e	; 62
    1926:	6a 97       	sbiw	r28, 0x1a	; 26
    1928:	0f b6       	in	r0, 0x3f	; 63
    192a:	f8 94       	cli
    192c:	de bf       	out	0x3e, r29	; 62
    192e:	0f be       	out	0x3f, r0	; 63
    1930:	cd bf       	out	0x3d, r28	; 61
    1932:	0e 94 a6 0f 	call	0x1f4c	; 0x1f4c <clear_Display>
    1936:	2c e9       	ldi	r18, 0x9C	; 156
    1938:	31 e0       	ldi	r19, 0x01	; 1
    193a:	40 e0       	ldi	r20, 0x00	; 0
    193c:	8d e0       	ldi	r24, 0x0D	; 13
    193e:	f9 01       	movw	r30, r18
    1940:	de 01       	movw	r26, r28
    1942:	11 96       	adiw	r26, 0x01	; 1
    1944:	74 2f       	mov	r23, r20
    1946:	0e 94 8e 0f 	call	0x1f1c	; 0x1f1c <__movmemx_qi>
    194a:	60 e0       	ldi	r22, 0x00	; 0
    194c:	ce 01       	movw	r24, r28
    194e:	01 96       	adiw	r24, 0x01	; 1
    1950:	0e 94 33 0f 	call	0x1e66	; 0x1e66 <envia_frase>
    1954:	29 ea       	ldi	r18, 0xA9	; 169
    1956:	31 e0       	ldi	r19, 0x01	; 1
    1958:	40 e0       	ldi	r20, 0x00	; 0
    195a:	8d e0       	ldi	r24, 0x0D	; 13
    195c:	f9 01       	movw	r30, r18
    195e:	de 01       	movw	r26, r28
    1960:	1e 96       	adiw	r26, 0x0e	; 14
    1962:	74 2f       	mov	r23, r20
    1964:	0e 94 8e 0f 	call	0x1f1c	; 0x1f1c <__movmemx_qi>
    1968:	60 e4       	ldi	r22, 0x40	; 64
    196a:	ce 01       	movw	r24, r28
    196c:	0e 96       	adiw	r24, 0x0e	; 14
    196e:	0e 94 33 0f 	call	0x1e66	; 0x1e66 <envia_frase>
    1972:	6a 96       	adiw	r28, 0x1a	; 26
    1974:	0f b6       	in	r0, 0x3f	; 63
    1976:	f8 94       	cli
    1978:	de bf       	out	0x3e, r29	; 62
    197a:	0f be       	out	0x3f, r0	; 63
    197c:	cd bf       	out	0x3d, r28	; 61
    197e:	df 91       	pop	r29
    1980:	cf 91       	pop	r28
    1982:	08 95       	ret

Disassembly of section .text.msg_d_zona:

00001984 <msg_d_zona>:
    1984:	cf 93       	push	r28
    1986:	df 93       	push	r29
    1988:	cd b7       	in	r28, 0x3d	; 61
    198a:	de b7       	in	r29, 0x3e	; 62
    198c:	6b 97       	sbiw	r28, 0x1b	; 27
    198e:	0f b6       	in	r0, 0x3f	; 63
    1990:	f8 94       	cli
    1992:	de bf       	out	0x3e, r29	; 62
    1994:	0f be       	out	0x3f, r0	; 63
    1996:	cd bf       	out	0x3d, r28	; 61
    1998:	0e 94 a6 0f 	call	0x1f4c	; 0x1f4c <clear_Display>
    199c:	2c e9       	ldi	r18, 0x9C	; 156
    199e:	31 e0       	ldi	r19, 0x01	; 1
    19a0:	40 e0       	ldi	r20, 0x00	; 0
    19a2:	8d e0       	ldi	r24, 0x0D	; 13
    19a4:	f9 01       	movw	r30, r18
    19a6:	de 01       	movw	r26, r28
    19a8:	11 96       	adiw	r26, 0x01	; 1
    19aa:	74 2f       	mov	r23, r20
    19ac:	0e 94 8e 0f 	call	0x1f1c	; 0x1f1c <__movmemx_qi>
    19b0:	60 e0       	ldi	r22, 0x00	; 0
    19b2:	ce 01       	movw	r24, r28
    19b4:	01 96       	adiw	r24, 0x01	; 1
    19b6:	0e 94 33 0f 	call	0x1e66	; 0x1e66 <envia_frase>
    19ba:	26 eb       	ldi	r18, 0xB6	; 182
    19bc:	31 e0       	ldi	r19, 0x01	; 1
    19be:	40 e0       	ldi	r20, 0x00	; 0
    19c0:	8e e0       	ldi	r24, 0x0E	; 14
    19c2:	f9 01       	movw	r30, r18
    19c4:	de 01       	movw	r26, r28
    19c6:	1e 96       	adiw	r26, 0x0e	; 14
    19c8:	74 2f       	mov	r23, r20
    19ca:	0e 94 8e 0f 	call	0x1f1c	; 0x1f1c <__movmemx_qi>
    19ce:	60 e4       	ldi	r22, 0x40	; 64
    19d0:	ce 01       	movw	r24, r28
    19d2:	0e 96       	adiw	r24, 0x0e	; 14
    19d4:	0e 94 33 0f 	call	0x1e66	; 0x1e66 <envia_frase>
    19d8:	6b 96       	adiw	r28, 0x1b	; 27
    19da:	0f b6       	in	r0, 0x3f	; 63
    19dc:	f8 94       	cli
    19de:	de bf       	out	0x3e, r29	; 62
    19e0:	0f be       	out	0x3f, r0	; 63
    19e2:	cd bf       	out	0x3d, r28	; 61
    19e4:	df 91       	pop	r29
    19e6:	cf 91       	pop	r28
    19e8:	08 95       	ret

Disassembly of section .text.insert_senha:

00001f60 <insert_senha>:

// INSERIR SENHA //

void insert_senha(int n,const char *digito){
	
	senha_inserida[n] = digito[0];
    1f60:	e4 2f       	mov	r30, r20
    1f62:	f5 2f       	mov	r31, r21
    1f64:	24 91       	lpm	r18, Z
    1f66:	67 fd       	sbrc	r22, 7
    1f68:	20 81       	ld	r18, Z
    1f6a:	8d 5e       	subi	r24, 0xED	; 237
    1f6c:	9e 4f       	sbci	r25, 0xFE	; 254
    1f6e:	fc 01       	movw	r30, r24
    1f70:	20 83       	st	Z, r18
    1f72:	08 95       	ret

Disassembly of section .text.senha_arm:

00001c12 <senha_arm>:
	while(data[cont] != '\0'){
		auxChar[cont] = data[cont];
		cont++;
	}
	auxChar[cont] = '\0';
}
    1c12:	20 91 11 01 	lds	r18, 0x0111	; 0x800111 <addr_senha>
    1c16:	30 91 12 01 	lds	r19, 0x0112	; 0x800112 <addr_senha+0x1>
    1c1a:	21 30       	cpi	r18, 0x01	; 1
    1c1c:	31 05       	cpc	r19, r1
    1c1e:	49 f4       	brne	.+18     	; 0x1c32 <senha_arm+0x20>
    1c20:	e4 2f       	mov	r30, r20
    1c22:	f5 2f       	mov	r31, r21
    1c24:	74 91       	lpm	r23, Z
    1c26:	67 fd       	sbrc	r22, 7
    1c28:	70 81       	ld	r23, Z
    1c2a:	fc 01       	movw	r30, r24
    1c2c:	ee 5d       	subi	r30, 0xDE	; 222
    1c2e:	fe 4f       	sbci	r31, 0xFE	; 254
    1c30:	70 83       	st	Z, r23
    1c32:	22 30       	cpi	r18, 0x02	; 2
    1c34:	31 05       	cpc	r19, r1
    1c36:	49 f4       	brne	.+18     	; 0x1c4a <senha_arm+0x38>
    1c38:	e4 2f       	mov	r30, r20
    1c3a:	f5 2f       	mov	r31, r21
    1c3c:	74 91       	lpm	r23, Z
    1c3e:	67 fd       	sbrc	r22, 7
    1c40:	70 81       	ld	r23, Z
    1c42:	fc 01       	movw	r30, r24
    1c44:	e3 5e       	subi	r30, 0xE3	; 227
    1c46:	fe 4f       	sbci	r31, 0xFE	; 254
    1c48:	70 83       	st	Z, r23
    1c4a:	23 30       	cpi	r18, 0x03	; 3
    1c4c:	31 05       	cpc	r19, r1
    1c4e:	49 f4       	brne	.+18     	; 0x1c62 <senha_arm+0x50>
    1c50:	e4 2f       	mov	r30, r20
    1c52:	f5 2f       	mov	r31, r21
    1c54:	24 91       	lpm	r18, Z
    1c56:	67 fd       	sbrc	r22, 7
    1c58:	20 81       	ld	r18, Z
    1c5a:	fc 01       	movw	r30, r24
    1c5c:	e8 5e       	subi	r30, 0xE8	; 232
    1c5e:	fe 4f       	sbci	r31, 0xFE	; 254
    1c60:	20 83       	st	Z, r18
    1c62:	08 95       	ret

Disassembly of section .text.verify_senhaM:

000017de <verify_senhaM>:
    17de:	10 92 39 01 	sts	0x0139, r1	; 0x800139 <cont_a+0x1>
    17e2:	10 92 38 01 	sts	0x0138, r1	; 0x800138 <cont_a>
    17e6:	10 92 37 01 	sts	0x0137, r1	; 0x800137 <cont_b+0x1>
    17ea:	10 92 36 01 	sts	0x0136, r1	; 0x800136 <cont_b>
    17ee:	15 c0       	rjmp	.+42     	; 0x181a <verify_senhaM+0x3c>
    17f0:	fc 01       	movw	r30, r24
    17f2:	ed 5e       	subi	r30, 0xED	; 237
    17f4:	fe 4f       	sbci	r31, 0xFE	; 254
    17f6:	30 81       	ld	r19, Z
    17f8:	23 13       	cpse	r18, r19
    17fa:	0a c0       	rjmp	.+20     	; 0x1810 <verify_senhaM+0x32>
    17fc:	20 91 36 01 	lds	r18, 0x0136	; 0x800136 <cont_b>
    1800:	30 91 37 01 	lds	r19, 0x0137	; 0x800137 <cont_b+0x1>
    1804:	2f 5f       	subi	r18, 0xFF	; 255
    1806:	3f 4f       	sbci	r19, 0xFF	; 255
    1808:	30 93 37 01 	sts	0x0137, r19	; 0x800137 <cont_b+0x1>
    180c:	20 93 36 01 	sts	0x0136, r18	; 0x800136 <cont_b>
    1810:	01 96       	adiw	r24, 0x01	; 1
    1812:	90 93 39 01 	sts	0x0139, r25	; 0x800139 <cont_a+0x1>
    1816:	80 93 38 01 	sts	0x0138, r24	; 0x800138 <cont_a>
    181a:	80 91 38 01 	lds	r24, 0x0138	; 0x800138 <cont_a>
    181e:	90 91 39 01 	lds	r25, 0x0139	; 0x800139 <cont_a+0x1>
    1822:	fc 01       	movw	r30, r24
    1824:	e9 5d       	subi	r30, 0xD9	; 217
    1826:	fe 4f       	sbci	r31, 0xFE	; 254
    1828:	20 81       	ld	r18, Z
    182a:	21 11       	cpse	r18, r1
    182c:	e1 cf       	rjmp	.-62     	; 0x17f0 <verify_senhaM+0x12>
    182e:	80 91 36 01 	lds	r24, 0x0136	; 0x800136 <cont_b>
    1832:	90 91 37 01 	lds	r25, 0x0137	; 0x800137 <cont_b+0x1>
    1836:	04 97       	sbiw	r24, 0x04	; 4
    1838:	31 f4       	brne	.+12     	; 0x1846 <verify_senhaM+0x68>
    183a:	88 e0       	ldi	r24, 0x08	; 8
    183c:	80 93 3e 01 	sts	0x013E, r24	; 0x80013e <state>
    1840:	0e 94 a6 0f 	call	0x1f4c	; 0x1f4c <clear_Display>
    1844:	08 95       	ret
    1846:	81 e0       	ldi	r24, 0x01	; 1
    1848:	80 93 3e 01 	sts	0x013E, r24	; 0x80013e <state>
    184c:	0e 94 a6 0f 	call	0x1f4c	; 0x1f4c <clear_Display>
    1850:	08 95       	ret

Disassembly of section .text.verify_senhaA:

000013e8 <verify_senhaA>:
    13e8:	10 92 39 01 	sts	0x0139, r1	; 0x800139 <cont_a+0x1>
    13ec:	10 92 38 01 	sts	0x0138, r1	; 0x800138 <cont_a>
    13f0:	10 92 37 01 	sts	0x0137, r1	; 0x800137 <cont_b+0x1>
    13f4:	10 92 36 01 	sts	0x0136, r1	; 0x800136 <cont_b>
    13f8:	15 c0       	rjmp	.+42     	; 0x1424 <verify_senhaA+0x3c>
    13fa:	fc 01       	movw	r30, r24
    13fc:	ed 5e       	subi	r30, 0xED	; 237
    13fe:	fe 4f       	sbci	r31, 0xFE	; 254
    1400:	30 81       	ld	r19, Z
    1402:	23 13       	cpse	r18, r19
    1404:	0a c0       	rjmp	.+20     	; 0x141a <verify_senhaA+0x32>
    1406:	20 91 36 01 	lds	r18, 0x0136	; 0x800136 <cont_b>
    140a:	30 91 37 01 	lds	r19, 0x0137	; 0x800137 <cont_b+0x1>
    140e:	2f 5f       	subi	r18, 0xFF	; 255
    1410:	3f 4f       	sbci	r19, 0xFF	; 255
    1412:	30 93 37 01 	sts	0x0137, r19	; 0x800137 <cont_b+0x1>
    1416:	20 93 36 01 	sts	0x0136, r18	; 0x800136 <cont_b>
    141a:	01 96       	adiw	r24, 0x01	; 1
    141c:	90 93 39 01 	sts	0x0139, r25	; 0x800139 <cont_a+0x1>
    1420:	80 93 38 01 	sts	0x0138, r24	; 0x800138 <cont_a>
    1424:	80 91 38 01 	lds	r24, 0x0138	; 0x800138 <cont_a>
    1428:	90 91 39 01 	lds	r25, 0x0139	; 0x800139 <cont_a+0x1>
    142c:	fc 01       	movw	r30, r24
    142e:	e9 5d       	subi	r30, 0xD9	; 217
    1430:	fe 4f       	sbci	r31, 0xFE	; 254
    1432:	20 81       	ld	r18, Z
    1434:	21 11       	cpse	r18, r1
    1436:	e1 cf       	rjmp	.-62     	; 0x13fa <verify_senhaA+0x12>
    1438:	80 91 36 01 	lds	r24, 0x0136	; 0x800136 <cont_b>
    143c:	90 91 37 01 	lds	r25, 0x0137	; 0x800137 <cont_b+0x1>
    1440:	04 97       	sbiw	r24, 0x04	; 4
    1442:	31 f4       	brne	.+12     	; 0x1450 <verify_senhaA+0x68>
    1444:	86 e0       	ldi	r24, 0x06	; 6
    1446:	80 93 3e 01 	sts	0x013E, r24	; 0x80013e <state>
    144a:	0e 94 a6 0f 	call	0x1f4c	; 0x1f4c <clear_Display>
    144e:	08 95       	ret
    1450:	10 92 39 01 	sts	0x0139, r1	; 0x800139 <cont_a+0x1>
    1454:	10 92 38 01 	sts	0x0138, r1	; 0x800138 <cont_a>
    1458:	10 92 37 01 	sts	0x0137, r1	; 0x800137 <cont_b+0x1>
    145c:	10 92 36 01 	sts	0x0136, r1	; 0x800136 <cont_b>
    1460:	15 c0       	rjmp	.+42     	; 0x148c <verify_senhaA+0xa4>
    1462:	fc 01       	movw	r30, r24
    1464:	ed 5e       	subi	r30, 0xED	; 237
    1466:	fe 4f       	sbci	r31, 0xFE	; 254
    1468:	30 81       	ld	r19, Z
    146a:	23 13       	cpse	r18, r19
    146c:	0a c0       	rjmp	.+20     	; 0x1482 <verify_senhaA+0x9a>
    146e:	20 91 36 01 	lds	r18, 0x0136	; 0x800136 <cont_b>
    1472:	30 91 37 01 	lds	r19, 0x0137	; 0x800137 <cont_b+0x1>
    1476:	2f 5f       	subi	r18, 0xFF	; 255
    1478:	3f 4f       	sbci	r19, 0xFF	; 255
    147a:	30 93 37 01 	sts	0x0137, r19	; 0x800137 <cont_b+0x1>
    147e:	20 93 36 01 	sts	0x0136, r18	; 0x800136 <cont_b>
    1482:	01 96       	adiw	r24, 0x01	; 1
    1484:	90 93 39 01 	sts	0x0139, r25	; 0x800139 <cont_a+0x1>
    1488:	80 93 38 01 	sts	0x0138, r24	; 0x800138 <cont_a>
    148c:	80 91 38 01 	lds	r24, 0x0138	; 0x800138 <cont_a>
    1490:	90 91 39 01 	lds	r25, 0x0139	; 0x800139 <cont_a+0x1>
    1494:	fc 01       	movw	r30, r24
    1496:	ee 5d       	subi	r30, 0xDE	; 222
    1498:	fe 4f       	sbci	r31, 0xFE	; 254
    149a:	20 81       	ld	r18, Z
    149c:	21 11       	cpse	r18, r1
    149e:	e1 cf       	rjmp	.-62     	; 0x1462 <verify_senhaA+0x7a>
    14a0:	80 91 36 01 	lds	r24, 0x0136	; 0x800136 <cont_b>
    14a4:	90 91 37 01 	lds	r25, 0x0137	; 0x800137 <cont_b+0x1>
    14a8:	04 97       	sbiw	r24, 0x04	; 4
    14aa:	31 f4       	brne	.+12     	; 0x14b8 <verify_senhaA+0xd0>
    14ac:	86 e0       	ldi	r24, 0x06	; 6
    14ae:	80 93 3e 01 	sts	0x013E, r24	; 0x80013e <state>
    14b2:	0e 94 a6 0f 	call	0x1f4c	; 0x1f4c <clear_Display>
    14b6:	08 95       	ret
    14b8:	10 92 39 01 	sts	0x0139, r1	; 0x800139 <cont_a+0x1>
    14bc:	10 92 38 01 	sts	0x0138, r1	; 0x800138 <cont_a>
    14c0:	10 92 37 01 	sts	0x0137, r1	; 0x800137 <cont_b+0x1>
    14c4:	10 92 36 01 	sts	0x0136, r1	; 0x800136 <cont_b>
    14c8:	15 c0       	rjmp	.+42     	; 0x14f4 <verify_senhaA+0x10c>
    14ca:	fc 01       	movw	r30, r24
    14cc:	ed 5e       	subi	r30, 0xED	; 237
    14ce:	fe 4f       	sbci	r31, 0xFE	; 254
    14d0:	30 81       	ld	r19, Z
    14d2:	23 13       	cpse	r18, r19
    14d4:	0a c0       	rjmp	.+20     	; 0x14ea <verify_senhaA+0x102>
    14d6:	20 91 36 01 	lds	r18, 0x0136	; 0x800136 <cont_b>
    14da:	30 91 37 01 	lds	r19, 0x0137	; 0x800137 <cont_b+0x1>
    14de:	2f 5f       	subi	r18, 0xFF	; 255
    14e0:	3f 4f       	sbci	r19, 0xFF	; 255
    14e2:	30 93 37 01 	sts	0x0137, r19	; 0x800137 <cont_b+0x1>
    14e6:	20 93 36 01 	sts	0x0136, r18	; 0x800136 <cont_b>
    14ea:	01 96       	adiw	r24, 0x01	; 1
    14ec:	90 93 39 01 	sts	0x0139, r25	; 0x800139 <cont_a+0x1>
    14f0:	80 93 38 01 	sts	0x0138, r24	; 0x800138 <cont_a>
    14f4:	80 91 38 01 	lds	r24, 0x0138	; 0x800138 <cont_a>
    14f8:	90 91 39 01 	lds	r25, 0x0139	; 0x800139 <cont_a+0x1>
    14fc:	fc 01       	movw	r30, r24
    14fe:	e3 5e       	subi	r30, 0xE3	; 227
    1500:	fe 4f       	sbci	r31, 0xFE	; 254
    1502:	20 81       	ld	r18, Z
    1504:	21 11       	cpse	r18, r1
    1506:	e1 cf       	rjmp	.-62     	; 0x14ca <verify_senhaA+0xe2>
    1508:	80 91 36 01 	lds	r24, 0x0136	; 0x800136 <cont_b>
    150c:	90 91 37 01 	lds	r25, 0x0137	; 0x800137 <cont_b+0x1>
    1510:	04 97       	sbiw	r24, 0x04	; 4
    1512:	31 f4       	brne	.+12     	; 0x1520 <verify_senhaA+0x138>
    1514:	86 e0       	ldi	r24, 0x06	; 6
    1516:	80 93 3e 01 	sts	0x013E, r24	; 0x80013e <state>
    151a:	0e 94 a6 0f 	call	0x1f4c	; 0x1f4c <clear_Display>
    151e:	08 95       	ret
    1520:	10 92 39 01 	sts	0x0139, r1	; 0x800139 <cont_a+0x1>
    1524:	10 92 38 01 	sts	0x0138, r1	; 0x800138 <cont_a>
    1528:	10 92 37 01 	sts	0x0137, r1	; 0x800137 <cont_b+0x1>
    152c:	10 92 36 01 	sts	0x0136, r1	; 0x800136 <cont_b>
    1530:	15 c0       	rjmp	.+42     	; 0x155c <verify_senhaA+0x174>
    1532:	fc 01       	movw	r30, r24
    1534:	ed 5e       	subi	r30, 0xED	; 237
    1536:	fe 4f       	sbci	r31, 0xFE	; 254
    1538:	30 81       	ld	r19, Z
    153a:	23 13       	cpse	r18, r19
    153c:	0a c0       	rjmp	.+20     	; 0x1552 <verify_senhaA+0x16a>
    153e:	20 91 36 01 	lds	r18, 0x0136	; 0x800136 <cont_b>
    1542:	30 91 37 01 	lds	r19, 0x0137	; 0x800137 <cont_b+0x1>
    1546:	2f 5f       	subi	r18, 0xFF	; 255
    1548:	3f 4f       	sbci	r19, 0xFF	; 255
    154a:	30 93 37 01 	sts	0x0137, r19	; 0x800137 <cont_b+0x1>
    154e:	20 93 36 01 	sts	0x0136, r18	; 0x800136 <cont_b>
    1552:	01 96       	adiw	r24, 0x01	; 1
    1554:	90 93 39 01 	sts	0x0139, r25	; 0x800139 <cont_a+0x1>
    1558:	80 93 38 01 	sts	0x0138, r24	; 0x800138 <cont_a>
    155c:	80 91 38 01 	lds	r24, 0x0138	; 0x800138 <cont_a>
    1560:	90 91 39 01 	lds	r25, 0x0139	; 0x800139 <cont_a+0x1>
    1564:	fc 01       	movw	r30, r24
    1566:	e8 5e       	subi	r30, 0xE8	; 232
    1568:	fe 4f       	sbci	r31, 0xFE	; 254
    156a:	20 81       	ld	r18, Z
    156c:	21 11       	cpse	r18, r1
    156e:	e1 cf       	rjmp	.-62     	; 0x1532 <verify_senhaA+0x14a>
    1570:	80 91 36 01 	lds	r24, 0x0136	; 0x800136 <cont_b>
    1574:	90 91 37 01 	lds	r25, 0x0137	; 0x800137 <cont_b+0x1>
    1578:	04 97       	sbiw	r24, 0x04	; 4
    157a:	31 f4       	brne	.+12     	; 0x1588 <verify_senhaA+0x1a0>
    157c:	86 e0       	ldi	r24, 0x06	; 6
    157e:	80 93 3e 01 	sts	0x013E, r24	; 0x80013e <state>
    1582:	0e 94 a6 0f 	call	0x1f4c	; 0x1f4c <clear_Display>
    1586:	08 95       	ret
    1588:	81 e0       	ldi	r24, 0x01	; 1
    158a:	80 93 3e 01 	sts	0x013E, r24	; 0x80013e <state>
    158e:	0e 94 a6 0f 	call	0x1f4c	; 0x1f4c <clear_Display>
    1592:	08 95       	ret

Disassembly of section .text.verify_senhaD:

00001594 <verify_senhaD>:
    1594:	10 92 39 01 	sts	0x0139, r1	; 0x800139 <cont_a+0x1>
    1598:	10 92 38 01 	sts	0x0138, r1	; 0x800138 <cont_a>
    159c:	10 92 37 01 	sts	0x0137, r1	; 0x800137 <cont_b+0x1>
    15a0:	10 92 36 01 	sts	0x0136, r1	; 0x800136 <cont_b>
    15a4:	15 c0       	rjmp	.+42     	; 0x15d0 <verify_senhaD+0x3c>
    15a6:	fc 01       	movw	r30, r24
    15a8:	ed 5e       	subi	r30, 0xED	; 237
    15aa:	fe 4f       	sbci	r31, 0xFE	; 254
    15ac:	30 81       	ld	r19, Z
    15ae:	23 13       	cpse	r18, r19
    15b0:	0a c0       	rjmp	.+20     	; 0x15c6 <verify_senhaD+0x32>
    15b2:	20 91 36 01 	lds	r18, 0x0136	; 0x800136 <cont_b>
    15b6:	30 91 37 01 	lds	r19, 0x0137	; 0x800137 <cont_b+0x1>
    15ba:	2f 5f       	subi	r18, 0xFF	; 255
    15bc:	3f 4f       	sbci	r19, 0xFF	; 255
    15be:	30 93 37 01 	sts	0x0137, r19	; 0x800137 <cont_b+0x1>
    15c2:	20 93 36 01 	sts	0x0136, r18	; 0x800136 <cont_b>
    15c6:	01 96       	adiw	r24, 0x01	; 1
    15c8:	90 93 39 01 	sts	0x0139, r25	; 0x800139 <cont_a+0x1>
    15cc:	80 93 38 01 	sts	0x0138, r24	; 0x800138 <cont_a>
    15d0:	80 91 38 01 	lds	r24, 0x0138	; 0x800138 <cont_a>
    15d4:	90 91 39 01 	lds	r25, 0x0139	; 0x800139 <cont_a+0x1>
    15d8:	fc 01       	movw	r30, r24
    15da:	e9 5d       	subi	r30, 0xD9	; 217
    15dc:	fe 4f       	sbci	r31, 0xFE	; 254
    15de:	20 81       	ld	r18, Z
    15e0:	21 11       	cpse	r18, r1
    15e2:	e1 cf       	rjmp	.-62     	; 0x15a6 <verify_senhaD+0x12>
    15e4:	80 91 36 01 	lds	r24, 0x0136	; 0x800136 <cont_b>
    15e8:	90 91 37 01 	lds	r25, 0x0137	; 0x800137 <cont_b+0x1>
    15ec:	04 97       	sbiw	r24, 0x04	; 4
    15ee:	31 f4       	brne	.+12     	; 0x15fc <verify_senhaD+0x68>
    15f0:	81 e0       	ldi	r24, 0x01	; 1
    15f2:	80 93 3e 01 	sts	0x013E, r24	; 0x80013e <state>
    15f6:	0e 94 a6 0f 	call	0x1f4c	; 0x1f4c <clear_Display>
    15fa:	08 95       	ret
    15fc:	10 92 39 01 	sts	0x0139, r1	; 0x800139 <cont_a+0x1>
    1600:	10 92 38 01 	sts	0x0138, r1	; 0x800138 <cont_a>
    1604:	10 92 37 01 	sts	0x0137, r1	; 0x800137 <cont_b+0x1>
    1608:	10 92 36 01 	sts	0x0136, r1	; 0x800136 <cont_b>
    160c:	15 c0       	rjmp	.+42     	; 0x1638 <verify_senhaD+0xa4>
    160e:	fc 01       	movw	r30, r24
    1610:	ed 5e       	subi	r30, 0xED	; 237
    1612:	fe 4f       	sbci	r31, 0xFE	; 254
    1614:	30 81       	ld	r19, Z
    1616:	23 13       	cpse	r18, r19
    1618:	0a c0       	rjmp	.+20     	; 0x162e <verify_senhaD+0x9a>
    161a:	20 91 36 01 	lds	r18, 0x0136	; 0x800136 <cont_b>
    161e:	30 91 37 01 	lds	r19, 0x0137	; 0x800137 <cont_b+0x1>
    1622:	2f 5f       	subi	r18, 0xFF	; 255
    1624:	3f 4f       	sbci	r19, 0xFF	; 255
    1626:	30 93 37 01 	sts	0x0137, r19	; 0x800137 <cont_b+0x1>
    162a:	20 93 36 01 	sts	0x0136, r18	; 0x800136 <cont_b>
    162e:	01 96       	adiw	r24, 0x01	; 1
    1630:	90 93 39 01 	sts	0x0139, r25	; 0x800139 <cont_a+0x1>
    1634:	80 93 38 01 	sts	0x0138, r24	; 0x800138 <cont_a>
    1638:	80 91 38 01 	lds	r24, 0x0138	; 0x800138 <cont_a>
    163c:	90 91 39 01 	lds	r25, 0x0139	; 0x800139 <cont_a+0x1>
    1640:	fc 01       	movw	r30, r24
    1642:	ee 5d       	subi	r30, 0xDE	; 222
    1644:	fe 4f       	sbci	r31, 0xFE	; 254
    1646:	20 81       	ld	r18, Z
    1648:	21 11       	cpse	r18, r1
    164a:	e1 cf       	rjmp	.-62     	; 0x160e <verify_senhaD+0x7a>
    164c:	80 91 36 01 	lds	r24, 0x0136	; 0x800136 <cont_b>
    1650:	90 91 37 01 	lds	r25, 0x0137	; 0x800137 <cont_b+0x1>
    1654:	04 97       	sbiw	r24, 0x04	; 4
    1656:	31 f4       	brne	.+12     	; 0x1664 <verify_senhaD+0xd0>
    1658:	81 e0       	ldi	r24, 0x01	; 1
    165a:	80 93 3e 01 	sts	0x013E, r24	; 0x80013e <state>
    165e:	0e 94 a6 0f 	call	0x1f4c	; 0x1f4c <clear_Display>
    1662:	08 95       	ret
    1664:	10 92 39 01 	sts	0x0139, r1	; 0x800139 <cont_a+0x1>
    1668:	10 92 38 01 	sts	0x0138, r1	; 0x800138 <cont_a>
    166c:	10 92 37 01 	sts	0x0137, r1	; 0x800137 <cont_b+0x1>
    1670:	10 92 36 01 	sts	0x0136, r1	; 0x800136 <cont_b>
    1674:	15 c0       	rjmp	.+42     	; 0x16a0 <verify_senhaD+0x10c>
    1676:	fc 01       	movw	r30, r24
    1678:	ed 5e       	subi	r30, 0xED	; 237
    167a:	fe 4f       	sbci	r31, 0xFE	; 254
    167c:	30 81       	ld	r19, Z
    167e:	23 13       	cpse	r18, r19
    1680:	0a c0       	rjmp	.+20     	; 0x1696 <verify_senhaD+0x102>
    1682:	20 91 36 01 	lds	r18, 0x0136	; 0x800136 <cont_b>
    1686:	30 91 37 01 	lds	r19, 0x0137	; 0x800137 <cont_b+0x1>
    168a:	2f 5f       	subi	r18, 0xFF	; 255
    168c:	3f 4f       	sbci	r19, 0xFF	; 255
    168e:	30 93 37 01 	sts	0x0137, r19	; 0x800137 <cont_b+0x1>
    1692:	20 93 36 01 	sts	0x0136, r18	; 0x800136 <cont_b>
    1696:	01 96       	adiw	r24, 0x01	; 1
    1698:	90 93 39 01 	sts	0x0139, r25	; 0x800139 <cont_a+0x1>
    169c:	80 93 38 01 	sts	0x0138, r24	; 0x800138 <cont_a>
    16a0:	80 91 38 01 	lds	r24, 0x0138	; 0x800138 <cont_a>
    16a4:	90 91 39 01 	lds	r25, 0x0139	; 0x800139 <cont_a+0x1>
    16a8:	fc 01       	movw	r30, r24
    16aa:	e3 5e       	subi	r30, 0xE3	; 227
    16ac:	fe 4f       	sbci	r31, 0xFE	; 254
    16ae:	20 81       	ld	r18, Z
    16b0:	21 11       	cpse	r18, r1
    16b2:	e1 cf       	rjmp	.-62     	; 0x1676 <verify_senhaD+0xe2>
    16b4:	80 91 36 01 	lds	r24, 0x0136	; 0x800136 <cont_b>
    16b8:	90 91 37 01 	lds	r25, 0x0137	; 0x800137 <cont_b+0x1>
    16bc:	04 97       	sbiw	r24, 0x04	; 4
    16be:	31 f4       	brne	.+12     	; 0x16cc <verify_senhaD+0x138>
    16c0:	81 e0       	ldi	r24, 0x01	; 1
    16c2:	80 93 3e 01 	sts	0x013E, r24	; 0x80013e <state>
    16c6:	0e 94 a6 0f 	call	0x1f4c	; 0x1f4c <clear_Display>
    16ca:	08 95       	ret
    16cc:	10 92 39 01 	sts	0x0139, r1	; 0x800139 <cont_a+0x1>
    16d0:	10 92 38 01 	sts	0x0138, r1	; 0x800138 <cont_a>
    16d4:	10 92 37 01 	sts	0x0137, r1	; 0x800137 <cont_b+0x1>
    16d8:	10 92 36 01 	sts	0x0136, r1	; 0x800136 <cont_b>
    16dc:	15 c0       	rjmp	.+42     	; 0x1708 <verify_senhaD+0x174>
    16de:	fc 01       	movw	r30, r24
    16e0:	ed 5e       	subi	r30, 0xED	; 237
    16e2:	fe 4f       	sbci	r31, 0xFE	; 254
    16e4:	30 81       	ld	r19, Z
    16e6:	23 13       	cpse	r18, r19
    16e8:	0a c0       	rjmp	.+20     	; 0x16fe <verify_senhaD+0x16a>
    16ea:	20 91 36 01 	lds	r18, 0x0136	; 0x800136 <cont_b>
    16ee:	30 91 37 01 	lds	r19, 0x0137	; 0x800137 <cont_b+0x1>
    16f2:	2f 5f       	subi	r18, 0xFF	; 255
    16f4:	3f 4f       	sbci	r19, 0xFF	; 255
    16f6:	30 93 37 01 	sts	0x0137, r19	; 0x800137 <cont_b+0x1>
    16fa:	20 93 36 01 	sts	0x0136, r18	; 0x800136 <cont_b>
    16fe:	01 96       	adiw	r24, 0x01	; 1
    1700:	90 93 39 01 	sts	0x0139, r25	; 0x800139 <cont_a+0x1>
    1704:	80 93 38 01 	sts	0x0138, r24	; 0x800138 <cont_a>
    1708:	80 91 38 01 	lds	r24, 0x0138	; 0x800138 <cont_a>
    170c:	90 91 39 01 	lds	r25, 0x0139	; 0x800139 <cont_a+0x1>
    1710:	fc 01       	movw	r30, r24
    1712:	e8 5e       	subi	r30, 0xE8	; 232
    1714:	fe 4f       	sbci	r31, 0xFE	; 254
    1716:	20 81       	ld	r18, Z
    1718:	21 11       	cpse	r18, r1
    171a:	e1 cf       	rjmp	.-62     	; 0x16de <verify_senhaD+0x14a>
    171c:	80 91 36 01 	lds	r24, 0x0136	; 0x800136 <cont_b>
    1720:	90 91 37 01 	lds	r25, 0x0137	; 0x800137 <cont_b+0x1>
    1724:	04 97       	sbiw	r24, 0x04	; 4
    1726:	31 f4       	brne	.+12     	; 0x1734 <verify_senhaD+0x1a0>
    1728:	81 e0       	ldi	r24, 0x01	; 1
    172a:	80 93 3e 01 	sts	0x013E, r24	; 0x80013e <state>
    172e:	0e 94 a6 0f 	call	0x1f4c	; 0x1f4c <clear_Display>
    1732:	08 95       	ret
    1734:	86 e0       	ldi	r24, 0x06	; 6
    1736:	80 93 3e 01 	sts	0x013E, r24	; 0x80013e <state>
    173a:	0e 94 a6 0f 	call	0x1f4c	; 0x1f4c <clear_Display>
    173e:	08 95       	ret

Disassembly of section .text.main:

00001a4c <main>:
    1a4c:	8f e3       	ldi	r24, 0x3F	; 63
    1a4e:	84 b9       	out	0x04, r24	; 4
    1a50:	1a b8       	out	0x0a, r1	; 10
    1a52:	80 ef       	ldi	r24, 0xF0	; 240
    1a54:	8b b9       	out	0x0b, r24	; 11
    1a56:	0e 94 ba 0f 	call	0x1f74	; 0x1f74 <init_int1>
    1a5a:	0e 94 a0 0b 	call	0x1740	; 0x1740 <inicializa_display>
    1a5e:	78 94       	sei
    1a60:	e0 91 3e 01 	lds	r30, 0x013E	; 0x80013e <state>
    1a64:	8e 2f       	mov	r24, r30
    1a66:	90 e0       	ldi	r25, 0x00	; 0
    1a68:	83 31       	cpi	r24, 0x13	; 19
    1a6a:	91 05       	cpc	r25, r1
    1a6c:	c8 f7       	brcc	.-14     	; 0x1a60 <main+0x14>
    1a6e:	fc 01       	movw	r30, r24
    1a70:	ec 5c       	subi	r30, 0xCC	; 204
    1a72:	ff 4f       	sbci	r31, 0xFF	; 255
    1a74:	0c 94 c0 0f 	jmp	0x1f80	; 0x1f80 <__tablejump2__>
    1a78:	81 e0       	ldi	r24, 0x01	; 1
    1a7a:	80 93 3e 01 	sts	0x013E, r24	; 0x80013e <state>
    1a7e:	f0 cf       	rjmp	.-32     	; 0x1a60 <main+0x14>
    1a80:	0e 94 55 0d 	call	0x1aaa	; 0x1aaa <msg_desativado>
    1a84:	ed cf       	rjmp	.-38     	; 0x1a60 <main+0x14>
    1a86:	0e 94 83 0d 	call	0x1b06	; 0x1b06 <msg_ativado>
    1a8a:	ea cf       	rjmp	.-44     	; 0x1a60 <main+0x14>
    1a8c:	0e 94 b1 0d 	call	0x1b62	; 0x1b62 <msg_programacao>
    1a90:	e7 cf       	rjmp	.-50     	; 0x1a60 <main+0x14>
    1a92:	0e 94 f5 0c 	call	0x19ea	; 0x19ea <msg_panico>
    1a96:	e4 cf       	rjmp	.-56     	; 0x1a60 <main+0x14>
    1a98:	0e 94 ef 0b 	call	0x17de	; 0x17de <verify_senhaM>
    1a9c:	e1 cf       	rjmp	.-62     	; 0x1a60 <main+0x14>
    1a9e:	0e 94 f4 09 	call	0x13e8	; 0x13e8 <verify_senhaA>
    1aa2:	de cf       	rjmp	.-68     	; 0x1a60 <main+0x14>
    1aa4:	0e 94 ca 0a 	call	0x1594	; 0x1594 <verify_senhaD>
    1aa8:	db cf       	rjmp	.-74     	; 0x1a60 <main+0x14>

Disassembly of section .text.hab_sensor:

00001e92 <hab_sensor>:
    1e92:	81 e0       	ldi	r24, 0x01	; 1
    1e94:	90 e0       	ldi	r25, 0x00	; 0
    1e96:	90 93 35 01 	sts	0x0135, r25	; 0x800135 <flag_sensor+0x1>
    1e9a:	80 93 34 01 	sts	0x0134, r24	; 0x800134 <flag_sensor>
    1e9e:	80 91 32 01 	lds	r24, 0x0132	; 0x800132 <flag_D_sensor>
    1ea2:	90 91 33 01 	lds	r25, 0x0133	; 0x800133 <flag_D_sensor+0x1>
    1ea6:	00 97       	sbiw	r24, 0x00	; 0
    1ea8:	31 f0       	breq	.+12     	; 0x1eb6 <hab_sensor+0x24>
    1eaa:	01 97       	sbiw	r24, 0x01	; 1
    1eac:	21 f4       	brne	.+8      	; 0x1eb6 <hab_sensor+0x24>
    1eae:	10 92 33 01 	sts	0x0133, r1	; 0x800133 <flag_D_sensor+0x1>
    1eb2:	10 92 32 01 	sts	0x0132, r1	; 0x800132 <flag_D_sensor>
    1eb6:	08 95       	ret

Disassembly of section .text.hab_zonas:

00001eb8 <hab_zonas>:
    1eb8:	81 e0       	ldi	r24, 0x01	; 1
    1eba:	90 e0       	ldi	r25, 0x00	; 0
    1ebc:	90 93 35 01 	sts	0x0135, r25	; 0x800135 <flag_sensor+0x1>
    1ec0:	80 93 34 01 	sts	0x0134, r24	; 0x800134 <flag_sensor>
    1ec4:	80 91 32 01 	lds	r24, 0x0132	; 0x800132 <flag_D_sensor>
    1ec8:	90 91 33 01 	lds	r25, 0x0133	; 0x800133 <flag_D_sensor+0x1>
    1ecc:	00 97       	sbiw	r24, 0x00	; 0
    1ece:	31 f0       	breq	.+12     	; 0x1edc <hab_zonas+0x24>
    1ed0:	01 97       	sbiw	r24, 0x01	; 1
    1ed2:	21 f4       	brne	.+8      	; 0x1edc <hab_zonas+0x24>
    1ed4:	10 92 33 01 	sts	0x0133, r1	; 0x800133 <flag_D_sensor+0x1>
    1ed8:	10 92 32 01 	sts	0x0132, r1	; 0x800132 <flag_D_sensor>
    1edc:	08 95       	ret

Disassembly of section .text.__vector_2:

000001d8 <__vector_2>:
     1d8:	1f 92       	push	r1
     1da:	0f 92       	push	r0
     1dc:	0f b6       	in	r0, 0x3f	; 63
     1de:	0f 92       	push	r0
     1e0:	11 24       	eor	r1, r1
     1e2:	2f 93       	push	r18
     1e4:	3f 93       	push	r19
     1e6:	4f 93       	push	r20
     1e8:	5f 93       	push	r21
     1ea:	6f 93       	push	r22
     1ec:	7f 93       	push	r23
     1ee:	8f 93       	push	r24
     1f0:	9f 93       	push	r25
     1f2:	af 93       	push	r26
     1f4:	bf 93       	push	r27
     1f6:	ef 93       	push	r30
     1f8:	ff 93       	push	r31
     1fa:	89 b1       	in	r24, 0x09	; 9
     1fc:	80 7f       	andi	r24, 0xF0	; 240
     1fe:	90 e0       	ldi	r25, 0x00	; 0
     200:	90 93 01 01 	sts	0x0101, r25	; 0x800101 <_edata+0x1>
     204:	80 93 00 01 	sts	0x0100, r24	; 0x800100 <_edata>
     208:	80 3f       	cpi	r24, 0xF0	; 240
     20a:	91 05       	cpc	r25, r1
     20c:	09 f0       	breq	.+2      	; 0x210 <__vector_2+0x38>
     20e:	e4 c0       	rjmp	.+456    	; 0x3d8 <__vector_2+0x200>
     210:	91 e0       	ldi	r25, 0x01	; 1
     212:	80 91 3e 01 	lds	r24, 0x013E	; 0x80013e <state>
     216:	8c 30       	cpi	r24, 0x0C	; 12
     218:	09 f0       	breq	.+2      	; 0x21c <__vector_2+0x44>
     21a:	90 e0       	ldi	r25, 0x00	; 0
     21c:	81 e0       	ldi	r24, 0x01	; 1
     21e:	20 91 3a 01 	lds	r18, 0x013A	; 0x80013a <count_senha>
     222:	30 91 3b 01 	lds	r19, 0x013B	; 0x80013b <count_senha+0x1>
     226:	24 30       	cpi	r18, 0x04	; 4
     228:	31 05       	cpc	r19, r1
     22a:	0c f0       	brlt	.+2      	; 0x22e <__vector_2+0x56>
     22c:	80 e0       	ldi	r24, 0x00	; 0
     22e:	89 23       	and	r24, r25
     230:	a9 f0       	breq	.+42     	; 0x25c <__vector_2+0x84>
     232:	81 e3       	ldi	r24, 0x31	; 49
     234:	0e 94 a7 0e 	call	0x1d4e	; 0x1d4e <send_word_lcd>
     238:	44 ec       	ldi	r20, 0xC4	; 196
     23a:	51 e0       	ldi	r21, 0x01	; 1
     23c:	60 e0       	ldi	r22, 0x00	; 0
     23e:	80 91 3a 01 	lds	r24, 0x013A	; 0x80013a <count_senha>
     242:	90 91 3b 01 	lds	r25, 0x013B	; 0x80013b <count_senha+0x1>
     246:	0e 94 b0 0f 	call	0x1f60	; 0x1f60 <insert_senha>
     24a:	80 91 3a 01 	lds	r24, 0x013A	; 0x80013a <count_senha>
     24e:	90 91 3b 01 	lds	r25, 0x013B	; 0x80013b <count_senha+0x1>
     252:	01 96       	adiw	r24, 0x01	; 1
     254:	90 93 3b 01 	sts	0x013B, r25	; 0x80013b <count_senha+0x1>
     258:	80 93 3a 01 	sts	0x013A, r24	; 0x80013a <count_senha>
     25c:	91 e0       	ldi	r25, 0x01	; 1
     25e:	80 91 3e 01 	lds	r24, 0x013E	; 0x80013e <state>
     262:	8d 30       	cpi	r24, 0x0D	; 13
     264:	09 f0       	breq	.+2      	; 0x268 <__vector_2+0x90>
     266:	90 e0       	ldi	r25, 0x00	; 0
     268:	81 e0       	ldi	r24, 0x01	; 1
     26a:	20 91 3a 01 	lds	r18, 0x013A	; 0x80013a <count_senha>
     26e:	30 91 3b 01 	lds	r19, 0x013B	; 0x80013b <count_senha+0x1>
     272:	24 30       	cpi	r18, 0x04	; 4
     274:	31 05       	cpc	r19, r1
     276:	0c f0       	brlt	.+2      	; 0x27a <__vector_2+0xa2>
     278:	80 e0       	ldi	r24, 0x00	; 0
     27a:	89 23       	and	r24, r25
     27c:	a9 f0       	breq	.+42     	; 0x2a8 <__vector_2+0xd0>
     27e:	81 e3       	ldi	r24, 0x31	; 49
     280:	0e 94 a7 0e 	call	0x1d4e	; 0x1d4e <send_word_lcd>
     284:	44 ec       	ldi	r20, 0xC4	; 196
     286:	51 e0       	ldi	r21, 0x01	; 1
     288:	60 e0       	ldi	r22, 0x00	; 0
     28a:	80 91 3a 01 	lds	r24, 0x013A	; 0x80013a <count_senha>
     28e:	90 91 3b 01 	lds	r25, 0x013B	; 0x80013b <count_senha+0x1>
     292:	0e 94 09 0e 	call	0x1c12	; 0x1c12 <senha_arm>
     296:	80 91 3a 01 	lds	r24, 0x013A	; 0x80013a <count_senha>
     29a:	90 91 3b 01 	lds	r25, 0x013B	; 0x80013b <count_senha+0x1>
     29e:	01 96       	adiw	r24, 0x01	; 1
     2a0:	90 93 3b 01 	sts	0x013B, r25	; 0x80013b <count_senha+0x1>
     2a4:	80 93 3a 01 	sts	0x013A, r24	; 0x80013a <count_senha>
     2a8:	91 e0       	ldi	r25, 0x01	; 1
     2aa:	80 91 3e 01 	lds	r24, 0x013E	; 0x80013e <state>
     2ae:	8e 30       	cpi	r24, 0x0E	; 14
     2b0:	09 f0       	breq	.+2      	; 0x2b4 <__vector_2+0xdc>
     2b2:	90 e0       	ldi	r25, 0x00	; 0
     2b4:	81 e0       	ldi	r24, 0x01	; 1
     2b6:	20 91 3a 01 	lds	r18, 0x013A	; 0x80013a <count_senha>
     2ba:	30 91 3b 01 	lds	r19, 0x013B	; 0x80013b <count_senha+0x1>
     2be:	24 30       	cpi	r18, 0x04	; 4
     2c0:	31 05       	cpc	r19, r1
     2c2:	0c f0       	brlt	.+2      	; 0x2c6 <__vector_2+0xee>
     2c4:	80 e0       	ldi	r24, 0x00	; 0
     2c6:	89 23       	and	r24, r25
     2c8:	a9 f0       	breq	.+42     	; 0x2f4 <__vector_2+0x11c>
     2ca:	81 e3       	ldi	r24, 0x31	; 49
     2cc:	0e 94 a7 0e 	call	0x1d4e	; 0x1d4e <send_word_lcd>
     2d0:	44 ec       	ldi	r20, 0xC4	; 196
     2d2:	51 e0       	ldi	r21, 0x01	; 1
     2d4:	60 e0       	ldi	r22, 0x00	; 0
     2d6:	80 91 3a 01 	lds	r24, 0x013A	; 0x80013a <count_senha>
     2da:	90 91 3b 01 	lds	r25, 0x013B	; 0x80013b <count_senha+0x1>
     2de:	0e 94 b0 0f 	call	0x1f60	; 0x1f60 <insert_senha>
     2e2:	80 91 3a 01 	lds	r24, 0x013A	; 0x80013a <count_senha>
     2e6:	90 91 3b 01 	lds	r25, 0x013B	; 0x80013b <count_senha+0x1>
     2ea:	01 96       	adiw	r24, 0x01	; 1
     2ec:	90 93 3b 01 	sts	0x013B, r25	; 0x80013b <count_senha+0x1>
     2f0:	80 93 3a 01 	sts	0x013A, r24	; 0x80013a <count_senha>
     2f4:	91 e0       	ldi	r25, 0x01	; 1
     2f6:	80 91 3e 01 	lds	r24, 0x013E	; 0x80013e <state>
     2fa:	8f 30       	cpi	r24, 0x0F	; 15
     2fc:	09 f0       	breq	.+2      	; 0x300 <__vector_2+0x128>
     2fe:	90 e0       	ldi	r25, 0x00	; 0
     300:	81 e0       	ldi	r24, 0x01	; 1
     302:	20 91 3a 01 	lds	r18, 0x013A	; 0x80013a <count_senha>
     306:	30 91 3b 01 	lds	r19, 0x013B	; 0x80013b <count_senha+0x1>
     30a:	24 30       	cpi	r18, 0x04	; 4
     30c:	31 05       	cpc	r19, r1
     30e:	0c f0       	brlt	.+2      	; 0x312 <__vector_2+0x13a>
     310:	80 e0       	ldi	r24, 0x00	; 0
     312:	89 23       	and	r24, r25
     314:	a9 f0       	breq	.+42     	; 0x340 <__vector_2+0x168>
     316:	81 e3       	ldi	r24, 0x31	; 49
     318:	0e 94 a7 0e 	call	0x1d4e	; 0x1d4e <send_word_lcd>
     31c:	44 ec       	ldi	r20, 0xC4	; 196
     31e:	51 e0       	ldi	r21, 0x01	; 1
     320:	60 e0       	ldi	r22, 0x00	; 0
     322:	80 91 3a 01 	lds	r24, 0x013A	; 0x80013a <count_senha>
     326:	90 91 3b 01 	lds	r25, 0x013B	; 0x80013b <count_senha+0x1>
     32a:	0e 94 b0 0f 	call	0x1f60	; 0x1f60 <insert_senha>
     32e:	80 91 3a 01 	lds	r24, 0x013A	; 0x80013a <count_senha>
     332:	90 91 3b 01 	lds	r25, 0x013B	; 0x80013b <count_senha+0x1>
     336:	01 96       	adiw	r24, 0x01	; 1
     338:	90 93 3b 01 	sts	0x013B, r25	; 0x80013b <count_senha+0x1>
     33c:	80 93 3a 01 	sts	0x013A, r24	; 0x80013a <count_senha>
     340:	91 e0       	ldi	r25, 0x01	; 1
     342:	80 91 3e 01 	lds	r24, 0x013E	; 0x80013e <state>
     346:	88 30       	cpi	r24, 0x08	; 8
     348:	09 f0       	breq	.+2      	; 0x34c <__vector_2+0x174>
     34a:	90 e0       	ldi	r25, 0x00	; 0
     34c:	81 e0       	ldi	r24, 0x01	; 1
     34e:	20 91 3c 01 	lds	r18, 0x013C	; 0x80013c <flag_a_senha>
     352:	30 91 3d 01 	lds	r19, 0x013D	; 0x80013d <flag_a_senha+0x1>
     356:	21 30       	cpi	r18, 0x01	; 1
     358:	31 05       	cpc	r19, r1
     35a:	09 f0       	breq	.+2      	; 0x35e <__vector_2+0x186>
     35c:	80 e0       	ldi	r24, 0x00	; 0
     35e:	89 23       	and	r24, r25
     360:	79 f0       	breq	.+30     	; 0x380 <__vector_2+0x1a8>
     362:	8d e0       	ldi	r24, 0x0D	; 13
     364:	80 93 3e 01 	sts	0x013E, r24	; 0x80013e <state>
     368:	0e 94 80 0e 	call	0x1d00	; 0x1d00 <msg_altera_senha>
     36c:	81 e0       	ldi	r24, 0x01	; 1
     36e:	90 e0       	ldi	r25, 0x00	; 0
     370:	90 93 12 01 	sts	0x0112, r25	; 0x800112 <addr_senha+0x1>
     374:	80 93 11 01 	sts	0x0111, r24	; 0x800111 <addr_senha>
     378:	10 92 3d 01 	sts	0x013D, r1	; 0x80013d <flag_a_senha+0x1>
     37c:	10 92 3c 01 	sts	0x013C, r1	; 0x80013c <flag_a_senha>
     380:	91 e0       	ldi	r25, 0x01	; 1
     382:	80 91 3e 01 	lds	r24, 0x013E	; 0x80013e <state>
     386:	83 31       	cpi	r24, 0x13	; 19
     388:	09 f0       	breq	.+2      	; 0x38c <__vector_2+0x1b4>
     38a:	90 e0       	ldi	r25, 0x00	; 0
     38c:	81 e0       	ldi	r24, 0x01	; 1
     38e:	20 91 34 01 	lds	r18, 0x0134	; 0x800134 <flag_sensor>
     392:	30 91 35 01 	lds	r19, 0x0135	; 0x800135 <flag_sensor+0x1>
     396:	23 2b       	or	r18, r19
     398:	09 f0       	breq	.+2      	; 0x39c <__vector_2+0x1c4>
     39a:	80 e0       	ldi	r24, 0x00	; 0
     39c:	89 23       	and	r24, r25
     39e:	21 f0       	breq	.+8      	; 0x3a8 <__vector_2+0x1d0>
     3a0:	81 e0       	ldi	r24, 0x01	; 1
     3a2:	90 e0       	ldi	r25, 0x00	; 0
     3a4:	0e 94 49 0f 	call	0x1e92	; 0x1e92 <hab_sensor>
     3a8:	91 e0       	ldi	r25, 0x01	; 1
     3aa:	80 91 3e 01 	lds	r24, 0x013E	; 0x80013e <state>
     3ae:	84 31       	cpi	r24, 0x14	; 20
     3b0:	09 f0       	breq	.+2      	; 0x3b4 <__vector_2+0x1dc>
     3b2:	90 e0       	ldi	r25, 0x00	; 0
     3b4:	81 e0       	ldi	r24, 0x01	; 1
     3b6:	20 91 34 01 	lds	r18, 0x0134	; 0x800134 <flag_sensor>
     3ba:	30 91 35 01 	lds	r19, 0x0135	; 0x800135 <flag_sensor+0x1>
     3be:	23 2b       	or	r18, r19
     3c0:	09 f0       	breq	.+2      	; 0x3c4 <__vector_2+0x1ec>
     3c2:	80 e0       	ldi	r24, 0x00	; 0
     3c4:	89 23       	and	r24, r25
     3c6:	11 f4       	brne	.+4      	; 0x3cc <__vector_2+0x1f4>
     3c8:	0c 94 e3 09 	jmp	0x13c6	; 0x13c6 <__stack+0xac7>
     3cc:	81 e0       	ldi	r24, 0x01	; 1
     3ce:	90 e0       	ldi	r25, 0x00	; 0
     3d0:	0e 94 5c 0f 	call	0x1eb8	; 0x1eb8 <hab_zonas>
     3d4:	0c 94 e3 09 	jmp	0x13c6	; 0x13c6 <__stack+0xac7>
     3d8:	80 37       	cpi	r24, 0x70	; 112
     3da:	91 05       	cpc	r25, r1
     3dc:	09 f0       	breq	.+2      	; 0x3e0 <__vector_2+0x208>
     3de:	f0 c0       	rjmp	.+480    	; 0x5c0 <__EEPROM_REGION_LENGTH__+0x1c0>
     3e0:	91 e0       	ldi	r25, 0x01	; 1
     3e2:	80 91 3e 01 	lds	r24, 0x013E	; 0x80013e <state>
     3e6:	8c 30       	cpi	r24, 0x0C	; 12
     3e8:	09 f0       	breq	.+2      	; 0x3ec <__vector_2+0x214>
     3ea:	90 e0       	ldi	r25, 0x00	; 0
     3ec:	81 e0       	ldi	r24, 0x01	; 1
     3ee:	20 91 3a 01 	lds	r18, 0x013A	; 0x80013a <count_senha>
     3f2:	30 91 3b 01 	lds	r19, 0x013B	; 0x80013b <count_senha+0x1>
     3f6:	24 30       	cpi	r18, 0x04	; 4
     3f8:	31 05       	cpc	r19, r1
     3fa:	0c f0       	brlt	.+2      	; 0x3fe <__vector_2+0x226>
     3fc:	80 e0       	ldi	r24, 0x00	; 0
     3fe:	89 23       	and	r24, r25
     400:	a9 f0       	breq	.+42     	; 0x42c <__EEPROM_REGION_LENGTH__+0x2c>
     402:	82 e3       	ldi	r24, 0x32	; 50
     404:	0e 94 a7 0e 	call	0x1d4e	; 0x1d4e <send_word_lcd>
     408:	46 ec       	ldi	r20, 0xC6	; 198
     40a:	51 e0       	ldi	r21, 0x01	; 1
     40c:	60 e0       	ldi	r22, 0x00	; 0
     40e:	80 91 3a 01 	lds	r24, 0x013A	; 0x80013a <count_senha>
     412:	90 91 3b 01 	lds	r25, 0x013B	; 0x80013b <count_senha+0x1>
     416:	0e 94 b0 0f 	call	0x1f60	; 0x1f60 <insert_senha>
     41a:	80 91 3a 01 	lds	r24, 0x013A	; 0x80013a <count_senha>
     41e:	90 91 3b 01 	lds	r25, 0x013B	; 0x80013b <count_senha+0x1>
     422:	01 96       	adiw	r24, 0x01	; 1
     424:	90 93 3b 01 	sts	0x013B, r25	; 0x80013b <count_senha+0x1>
     428:	80 93 3a 01 	sts	0x013A, r24	; 0x80013a <count_senha>
     42c:	91 e0       	ldi	r25, 0x01	; 1
     42e:	80 91 3e 01 	lds	r24, 0x013E	; 0x80013e <state>
     432:	8d 30       	cpi	r24, 0x0D	; 13
     434:	09 f0       	breq	.+2      	; 0x438 <__EEPROM_REGION_LENGTH__+0x38>
     436:	90 e0       	ldi	r25, 0x00	; 0
     438:	81 e0       	ldi	r24, 0x01	; 1
     43a:	20 91 3a 01 	lds	r18, 0x013A	; 0x80013a <count_senha>
     43e:	30 91 3b 01 	lds	r19, 0x013B	; 0x80013b <count_senha+0x1>
     442:	24 30       	cpi	r18, 0x04	; 4
     444:	31 05       	cpc	r19, r1
     446:	0c f0       	brlt	.+2      	; 0x44a <__EEPROM_REGION_LENGTH__+0x4a>
     448:	80 e0       	ldi	r24, 0x00	; 0
     44a:	89 23       	and	r24, r25
     44c:	a9 f0       	breq	.+42     	; 0x478 <__EEPROM_REGION_LENGTH__+0x78>
     44e:	82 e3       	ldi	r24, 0x32	; 50
     450:	0e 94 a7 0e 	call	0x1d4e	; 0x1d4e <send_word_lcd>
     454:	46 ec       	ldi	r20, 0xC6	; 198
     456:	51 e0       	ldi	r21, 0x01	; 1
     458:	60 e0       	ldi	r22, 0x00	; 0
     45a:	80 91 3a 01 	lds	r24, 0x013A	; 0x80013a <count_senha>
     45e:	90 91 3b 01 	lds	r25, 0x013B	; 0x80013b <count_senha+0x1>
     462:	0e 94 09 0e 	call	0x1c12	; 0x1c12 <senha_arm>
     466:	80 91 3a 01 	lds	r24, 0x013A	; 0x80013a <count_senha>
     46a:	90 91 3b 01 	lds	r25, 0x013B	; 0x80013b <count_senha+0x1>
     46e:	01 96       	adiw	r24, 0x01	; 1
     470:	90 93 3b 01 	sts	0x013B, r25	; 0x80013b <count_senha+0x1>
     474:	80 93 3a 01 	sts	0x013A, r24	; 0x80013a <count_senha>
     478:	91 e0       	ldi	r25, 0x01	; 1
     47a:	80 91 3e 01 	lds	r24, 0x013E	; 0x80013e <state>
     47e:	8e 30       	cpi	r24, 0x0E	; 14
     480:	09 f0       	breq	.+2      	; 0x484 <__EEPROM_REGION_LENGTH__+0x84>
     482:	90 e0       	ldi	r25, 0x00	; 0
     484:	81 e0       	ldi	r24, 0x01	; 1
     486:	20 91 3a 01 	lds	r18, 0x013A	; 0x80013a <count_senha>
     48a:	30 91 3b 01 	lds	r19, 0x013B	; 0x80013b <count_senha+0x1>
     48e:	24 30       	cpi	r18, 0x04	; 4
     490:	31 05       	cpc	r19, r1
     492:	0c f0       	brlt	.+2      	; 0x496 <__EEPROM_REGION_LENGTH__+0x96>
     494:	80 e0       	ldi	r24, 0x00	; 0
     496:	89 23       	and	r24, r25
     498:	a9 f0       	breq	.+42     	; 0x4c4 <__EEPROM_REGION_LENGTH__+0xc4>
     49a:	82 e3       	ldi	r24, 0x32	; 50
     49c:	0e 94 a7 0e 	call	0x1d4e	; 0x1d4e <send_word_lcd>
     4a0:	46 ec       	ldi	r20, 0xC6	; 198
     4a2:	51 e0       	ldi	r21, 0x01	; 1
     4a4:	60 e0       	ldi	r22, 0x00	; 0
     4a6:	80 91 3a 01 	lds	r24, 0x013A	; 0x80013a <count_senha>
     4aa:	90 91 3b 01 	lds	r25, 0x013B	; 0x80013b <count_senha+0x1>
     4ae:	0e 94 b0 0f 	call	0x1f60	; 0x1f60 <insert_senha>
     4b2:	80 91 3a 01 	lds	r24, 0x013A	; 0x80013a <count_senha>
     4b6:	90 91 3b 01 	lds	r25, 0x013B	; 0x80013b <count_senha+0x1>
     4ba:	01 96       	adiw	r24, 0x01	; 1
     4bc:	90 93 3b 01 	sts	0x013B, r25	; 0x80013b <count_senha+0x1>
     4c0:	80 93 3a 01 	sts	0x013A, r24	; 0x80013a <count_senha>
     4c4:	91 e0       	ldi	r25, 0x01	; 1
     4c6:	80 91 3e 01 	lds	r24, 0x013E	; 0x80013e <state>
     4ca:	8f 30       	cpi	r24, 0x0F	; 15
     4cc:	09 f0       	breq	.+2      	; 0x4d0 <__EEPROM_REGION_LENGTH__+0xd0>
     4ce:	90 e0       	ldi	r25, 0x00	; 0
     4d0:	81 e0       	ldi	r24, 0x01	; 1
     4d2:	20 91 3a 01 	lds	r18, 0x013A	; 0x80013a <count_senha>
     4d6:	30 91 3b 01 	lds	r19, 0x013B	; 0x80013b <count_senha+0x1>
     4da:	24 30       	cpi	r18, 0x04	; 4
     4dc:	31 05       	cpc	r19, r1
     4de:	0c f0       	brlt	.+2      	; 0x4e2 <__EEPROM_REGION_LENGTH__+0xe2>
     4e0:	80 e0       	ldi	r24, 0x00	; 0
     4e2:	89 23       	and	r24, r25
     4e4:	a9 f0       	breq	.+42     	; 0x510 <__EEPROM_REGION_LENGTH__+0x110>
     4e6:	82 e3       	ldi	r24, 0x32	; 50
     4e8:	0e 94 a7 0e 	call	0x1d4e	; 0x1d4e <send_word_lcd>
     4ec:	46 ec       	ldi	r20, 0xC6	; 198
     4ee:	51 e0       	ldi	r21, 0x01	; 1
     4f0:	60 e0       	ldi	r22, 0x00	; 0
     4f2:	80 91 3a 01 	lds	r24, 0x013A	; 0x80013a <count_senha>
     4f6:	90 91 3b 01 	lds	r25, 0x013B	; 0x80013b <count_senha+0x1>
     4fa:	0e 94 b0 0f 	call	0x1f60	; 0x1f60 <insert_senha>
     4fe:	80 91 3a 01 	lds	r24, 0x013A	; 0x80013a <count_senha>
     502:	90 91 3b 01 	lds	r25, 0x013B	; 0x80013b <count_senha+0x1>
     506:	01 96       	adiw	r24, 0x01	; 1
     508:	90 93 3b 01 	sts	0x013B, r25	; 0x80013b <count_senha+0x1>
     50c:	80 93 3a 01 	sts	0x013A, r24	; 0x80013a <count_senha>
     510:	91 e0       	ldi	r25, 0x01	; 1
     512:	80 91 3e 01 	lds	r24, 0x013E	; 0x80013e <state>
     516:	88 30       	cpi	r24, 0x08	; 8
     518:	09 f0       	breq	.+2      	; 0x51c <__EEPROM_REGION_LENGTH__+0x11c>
     51a:	90 e0       	ldi	r25, 0x00	; 0
     51c:	20 91 3c 01 	lds	r18, 0x013C	; 0x80013c <flag_a_senha>
     520:	30 91 3d 01 	lds	r19, 0x013D	; 0x80013d <flag_a_senha+0x1>
     524:	81 e0       	ldi	r24, 0x01	; 1
     526:	21 15       	cp	r18, r1
     528:	31 05       	cpc	r19, r1
     52a:	09 f0       	breq	.+2      	; 0x52e <__EEPROM_REGION_LENGTH__+0x12e>
     52c:	80 e0       	ldi	r24, 0x00	; 0
     52e:	89 23       	and	r24, r25
     530:	39 f0       	breq	.+14     	; 0x540 <__EEPROM_REGION_LENGTH__+0x140>
     532:	81 e0       	ldi	r24, 0x01	; 1
     534:	90 e0       	ldi	r25, 0x00	; 0
     536:	90 93 3d 01 	sts	0x013D, r25	; 0x80013d <flag_a_senha+0x1>
     53a:	80 93 3c 01 	sts	0x013C, r24	; 0x80013c <flag_a_senha>
     53e:	16 c0       	rjmp	.+44     	; 0x56c <__EEPROM_REGION_LENGTH__+0x16c>
     540:	81 e0       	ldi	r24, 0x01	; 1
     542:	21 30       	cpi	r18, 0x01	; 1
     544:	31 05       	cpc	r19, r1
     546:	09 f0       	breq	.+2      	; 0x54a <__EEPROM_REGION_LENGTH__+0x14a>
     548:	80 e0       	ldi	r24, 0x00	; 0
     54a:	98 23       	and	r25, r24
     54c:	79 f0       	breq	.+30     	; 0x56c <__EEPROM_REGION_LENGTH__+0x16c>
     54e:	8d e0       	ldi	r24, 0x0D	; 13
     550:	80 93 3e 01 	sts	0x013E, r24	; 0x80013e <state>
     554:	0e 94 80 0e 	call	0x1d00	; 0x1d00 <msg_altera_senha>
     558:	82 e0       	ldi	r24, 0x02	; 2
     55a:	90 e0       	ldi	r25, 0x00	; 0
     55c:	90 93 12 01 	sts	0x0112, r25	; 0x800112 <addr_senha+0x1>
     560:	80 93 11 01 	sts	0x0111, r24	; 0x800111 <addr_senha>
     564:	10 92 3d 01 	sts	0x013D, r1	; 0x80013d <flag_a_senha+0x1>
     568:	10 92 3c 01 	sts	0x013C, r1	; 0x80013c <flag_a_senha>
     56c:	91 e0       	ldi	r25, 0x01	; 1
     56e:	80 91 3e 01 	lds	r24, 0x013E	; 0x80013e <state>
     572:	83 31       	cpi	r24, 0x13	; 19
     574:	09 f0       	breq	.+2      	; 0x578 <__EEPROM_REGION_LENGTH__+0x178>
     576:	90 e0       	ldi	r25, 0x00	; 0
     578:	81 e0       	ldi	r24, 0x01	; 1
     57a:	20 91 34 01 	lds	r18, 0x0134	; 0x800134 <flag_sensor>
     57e:	30 91 35 01 	lds	r19, 0x0135	; 0x800135 <flag_sensor+0x1>
     582:	23 2b       	or	r18, r19
     584:	09 f0       	breq	.+2      	; 0x588 <__EEPROM_REGION_LENGTH__+0x188>
     586:	80 e0       	ldi	r24, 0x00	; 0
     588:	89 23       	and	r24, r25
     58a:	21 f0       	breq	.+8      	; 0x594 <__EEPROM_REGION_LENGTH__+0x194>
     58c:	82 e0       	ldi	r24, 0x02	; 2
     58e:	90 e0       	ldi	r25, 0x00	; 0
     590:	0e 94 49 0f 	call	0x1e92	; 0x1e92 <hab_sensor>
     594:	91 e0       	ldi	r25, 0x01	; 1
     596:	80 91 3e 01 	lds	r24, 0x013E	; 0x80013e <state>
     59a:	84 31       	cpi	r24, 0x14	; 20
     59c:	09 f0       	breq	.+2      	; 0x5a0 <__EEPROM_REGION_LENGTH__+0x1a0>
     59e:	90 e0       	ldi	r25, 0x00	; 0
     5a0:	81 e0       	ldi	r24, 0x01	; 1
     5a2:	20 91 34 01 	lds	r18, 0x0134	; 0x800134 <flag_sensor>
     5a6:	30 91 35 01 	lds	r19, 0x0135	; 0x800135 <flag_sensor+0x1>
     5aa:	23 2b       	or	r18, r19
     5ac:	09 f0       	breq	.+2      	; 0x5b0 <__EEPROM_REGION_LENGTH__+0x1b0>
     5ae:	80 e0       	ldi	r24, 0x00	; 0
     5b0:	89 23       	and	r24, r25
     5b2:	09 f4       	brne	.+2      	; 0x5b6 <__EEPROM_REGION_LENGTH__+0x1b6>
     5b4:	08 c7       	rjmp	.+3600   	; 0x13c6 <__stack+0xac7>
     5b6:	82 e0       	ldi	r24, 0x02	; 2
     5b8:	90 e0       	ldi	r25, 0x00	; 0
     5ba:	0e 94 5c 0f 	call	0x1eb8	; 0x1eb8 <hab_zonas>
     5be:	03 c7       	rjmp	.+3590   	; 0x13c6 <__stack+0xac7>
     5c0:	80 3b       	cpi	r24, 0xB0	; 176
     5c2:	91 05       	cpc	r25, r1
     5c4:	09 f0       	breq	.+2      	; 0x5c8 <__EEPROM_REGION_LENGTH__+0x1c8>
     5c6:	05 c1       	rjmp	.+522    	; 0x7d2 <__EEPROM_REGION_LENGTH__+0x3d2>
     5c8:	91 e0       	ldi	r25, 0x01	; 1
     5ca:	80 91 3e 01 	lds	r24, 0x013E	; 0x80013e <state>
     5ce:	8c 30       	cpi	r24, 0x0C	; 12
     5d0:	09 f0       	breq	.+2      	; 0x5d4 <__EEPROM_REGION_LENGTH__+0x1d4>
     5d2:	90 e0       	ldi	r25, 0x00	; 0
     5d4:	81 e0       	ldi	r24, 0x01	; 1
     5d6:	20 91 3a 01 	lds	r18, 0x013A	; 0x80013a <count_senha>
     5da:	30 91 3b 01 	lds	r19, 0x013B	; 0x80013b <count_senha+0x1>
     5de:	24 30       	cpi	r18, 0x04	; 4
     5e0:	31 05       	cpc	r19, r1
     5e2:	0c f0       	brlt	.+2      	; 0x5e6 <__EEPROM_REGION_LENGTH__+0x1e6>
     5e4:	80 e0       	ldi	r24, 0x00	; 0
     5e6:	89 23       	and	r24, r25
     5e8:	a9 f0       	breq	.+42     	; 0x614 <__EEPROM_REGION_LENGTH__+0x214>
     5ea:	83 e3       	ldi	r24, 0x33	; 51
     5ec:	0e 94 a7 0e 	call	0x1d4e	; 0x1d4e <send_word_lcd>
     5f0:	48 ec       	ldi	r20, 0xC8	; 200
     5f2:	51 e0       	ldi	r21, 0x01	; 1
     5f4:	60 e0       	ldi	r22, 0x00	; 0
     5f6:	80 91 3a 01 	lds	r24, 0x013A	; 0x80013a <count_senha>
     5fa:	90 91 3b 01 	lds	r25, 0x013B	; 0x80013b <count_senha+0x1>
     5fe:	0e 94 b0 0f 	call	0x1f60	; 0x1f60 <insert_senha>
     602:	80 91 3a 01 	lds	r24, 0x013A	; 0x80013a <count_senha>
     606:	90 91 3b 01 	lds	r25, 0x013B	; 0x80013b <count_senha+0x1>
     60a:	01 96       	adiw	r24, 0x01	; 1
     60c:	90 93 3b 01 	sts	0x013B, r25	; 0x80013b <count_senha+0x1>
     610:	80 93 3a 01 	sts	0x013A, r24	; 0x80013a <count_senha>
     614:	91 e0       	ldi	r25, 0x01	; 1
     616:	80 91 3e 01 	lds	r24, 0x013E	; 0x80013e <state>
     61a:	8d 30       	cpi	r24, 0x0D	; 13
     61c:	09 f0       	breq	.+2      	; 0x620 <__EEPROM_REGION_LENGTH__+0x220>
     61e:	90 e0       	ldi	r25, 0x00	; 0
     620:	81 e0       	ldi	r24, 0x01	; 1
     622:	20 91 3a 01 	lds	r18, 0x013A	; 0x80013a <count_senha>
     626:	30 91 3b 01 	lds	r19, 0x013B	; 0x80013b <count_senha+0x1>
     62a:	24 30       	cpi	r18, 0x04	; 4
     62c:	31 05       	cpc	r19, r1
     62e:	0c f0       	brlt	.+2      	; 0x632 <__EEPROM_REGION_LENGTH__+0x232>
     630:	80 e0       	ldi	r24, 0x00	; 0
     632:	89 23       	and	r24, r25
     634:	a9 f0       	breq	.+42     	; 0x660 <__EEPROM_REGION_LENGTH__+0x260>
     636:	83 e3       	ldi	r24, 0x33	; 51
     638:	0e 94 a7 0e 	call	0x1d4e	; 0x1d4e <send_word_lcd>
     63c:	48 ec       	ldi	r20, 0xC8	; 200
     63e:	51 e0       	ldi	r21, 0x01	; 1
     640:	60 e0       	ldi	r22, 0x00	; 0
     642:	80 91 3a 01 	lds	r24, 0x013A	; 0x80013a <count_senha>
     646:	90 91 3b 01 	lds	r25, 0x013B	; 0x80013b <count_senha+0x1>
     64a:	0e 94 09 0e 	call	0x1c12	; 0x1c12 <senha_arm>
     64e:	80 91 3a 01 	lds	r24, 0x013A	; 0x80013a <count_senha>
     652:	90 91 3b 01 	lds	r25, 0x013B	; 0x80013b <count_senha+0x1>
     656:	01 96       	adiw	r24, 0x01	; 1
     658:	90 93 3b 01 	sts	0x013B, r25	; 0x80013b <count_senha+0x1>
     65c:	80 93 3a 01 	sts	0x013A, r24	; 0x80013a <count_senha>
     660:	91 e0       	ldi	r25, 0x01	; 1
     662:	80 91 3e 01 	lds	r24, 0x013E	; 0x80013e <state>
     666:	8e 30       	cpi	r24, 0x0E	; 14
     668:	09 f0       	breq	.+2      	; 0x66c <__EEPROM_REGION_LENGTH__+0x26c>
     66a:	90 e0       	ldi	r25, 0x00	; 0
     66c:	81 e0       	ldi	r24, 0x01	; 1
     66e:	20 91 3a 01 	lds	r18, 0x013A	; 0x80013a <count_senha>
     672:	30 91 3b 01 	lds	r19, 0x013B	; 0x80013b <count_senha+0x1>
     676:	24 30       	cpi	r18, 0x04	; 4
     678:	31 05       	cpc	r19, r1
     67a:	0c f0       	brlt	.+2      	; 0x67e <__EEPROM_REGION_LENGTH__+0x27e>
     67c:	80 e0       	ldi	r24, 0x00	; 0
     67e:	89 23       	and	r24, r25
     680:	a9 f0       	breq	.+42     	; 0x6ac <__EEPROM_REGION_LENGTH__+0x2ac>
     682:	83 e3       	ldi	r24, 0x33	; 51
     684:	0e 94 a7 0e 	call	0x1d4e	; 0x1d4e <send_word_lcd>
     688:	48 ec       	ldi	r20, 0xC8	; 200
     68a:	51 e0       	ldi	r21, 0x01	; 1
     68c:	60 e0       	ldi	r22, 0x00	; 0
     68e:	80 91 3a 01 	lds	r24, 0x013A	; 0x80013a <count_senha>
     692:	90 91 3b 01 	lds	r25, 0x013B	; 0x80013b <count_senha+0x1>
     696:	0e 94 b0 0f 	call	0x1f60	; 0x1f60 <insert_senha>
     69a:	80 91 3a 01 	lds	r24, 0x013A	; 0x80013a <count_senha>
     69e:	90 91 3b 01 	lds	r25, 0x013B	; 0x80013b <count_senha+0x1>
     6a2:	01 96       	adiw	r24, 0x01	; 1
     6a4:	90 93 3b 01 	sts	0x013B, r25	; 0x80013b <count_senha+0x1>
     6a8:	80 93 3a 01 	sts	0x013A, r24	; 0x80013a <count_senha>
     6ac:	91 e0       	ldi	r25, 0x01	; 1
     6ae:	80 91 3e 01 	lds	r24, 0x013E	; 0x80013e <state>
     6b2:	8f 30       	cpi	r24, 0x0F	; 15
     6b4:	09 f0       	breq	.+2      	; 0x6b8 <__EEPROM_REGION_LENGTH__+0x2b8>
     6b6:	90 e0       	ldi	r25, 0x00	; 0
     6b8:	81 e0       	ldi	r24, 0x01	; 1
     6ba:	20 91 3a 01 	lds	r18, 0x013A	; 0x80013a <count_senha>
     6be:	30 91 3b 01 	lds	r19, 0x013B	; 0x80013b <count_senha+0x1>
     6c2:	24 30       	cpi	r18, 0x04	; 4
     6c4:	31 05       	cpc	r19, r1
     6c6:	0c f0       	brlt	.+2      	; 0x6ca <__EEPROM_REGION_LENGTH__+0x2ca>
     6c8:	80 e0       	ldi	r24, 0x00	; 0
     6ca:	89 23       	and	r24, r25
     6cc:	a9 f0       	breq	.+42     	; 0x6f8 <__EEPROM_REGION_LENGTH__+0x2f8>
     6ce:	83 e3       	ldi	r24, 0x33	; 51
     6d0:	0e 94 a7 0e 	call	0x1d4e	; 0x1d4e <send_word_lcd>
     6d4:	48 ec       	ldi	r20, 0xC8	; 200
     6d6:	51 e0       	ldi	r21, 0x01	; 1
     6d8:	60 e0       	ldi	r22, 0x00	; 0
     6da:	80 91 3a 01 	lds	r24, 0x013A	; 0x80013a <count_senha>
     6de:	90 91 3b 01 	lds	r25, 0x013B	; 0x80013b <count_senha+0x1>
     6e2:	0e 94 b0 0f 	call	0x1f60	; 0x1f60 <insert_senha>
     6e6:	80 91 3a 01 	lds	r24, 0x013A	; 0x80013a <count_senha>
     6ea:	90 91 3b 01 	lds	r25, 0x013B	; 0x80013b <count_senha+0x1>
     6ee:	01 96       	adiw	r24, 0x01	; 1
     6f0:	90 93 3b 01 	sts	0x013B, r25	; 0x80013b <count_senha+0x1>
     6f4:	80 93 3a 01 	sts	0x013A, r24	; 0x80013a <count_senha>
     6f8:	91 e0       	ldi	r25, 0x01	; 1
     6fa:	80 91 3e 01 	lds	r24, 0x013E	; 0x80013e <state>
     6fe:	88 30       	cpi	r24, 0x08	; 8
     700:	09 f0       	breq	.+2      	; 0x704 <__EEPROM_REGION_LENGTH__+0x304>
     702:	90 e0       	ldi	r25, 0x00	; 0
     704:	81 e0       	ldi	r24, 0x01	; 1
     706:	20 91 3c 01 	lds	r18, 0x013C	; 0x80013c <flag_a_senha>
     70a:	30 91 3d 01 	lds	r19, 0x013D	; 0x80013d <flag_a_senha+0x1>
     70e:	23 2b       	or	r18, r19
     710:	09 f0       	breq	.+2      	; 0x714 <__EEPROM_REGION_LENGTH__+0x314>
     712:	80 e0       	ldi	r24, 0x00	; 0
     714:	89 23       	and	r24, r25
     716:	99 f0       	breq	.+38     	; 0x73e <__EEPROM_REGION_LENGTH__+0x33e>
     718:	83 e1       	ldi	r24, 0x13	; 19
     71a:	80 93 3e 01 	sts	0x013E, r24	; 0x80013e <state>
     71e:	80 91 32 01 	lds	r24, 0x0132	; 0x800132 <flag_D_sensor>
     722:	90 91 33 01 	lds	r25, 0x0133	; 0x800133 <flag_D_sensor+0x1>
     726:	89 2b       	or	r24, r25
     728:	11 f4       	brne	.+4      	; 0x72e <__EEPROM_REGION_LENGTH__+0x32e>
     72a:	0e 94 29 0c 	call	0x1852	; 0x1852 <msg_h_sensores>
     72e:	80 91 32 01 	lds	r24, 0x0132	; 0x800132 <flag_D_sensor>
     732:	90 91 33 01 	lds	r25, 0x0133	; 0x800133 <flag_D_sensor+0x1>
     736:	01 97       	sbiw	r24, 0x01	; 1
     738:	11 f4       	brne	.+4      	; 0x73e <__EEPROM_REGION_LENGTH__+0x33e>
     73a:	0e 94 5c 0c 	call	0x18b8	; 0x18b8 <msg_d_sensores>
     73e:	91 e0       	ldi	r25, 0x01	; 1
     740:	80 91 3e 01 	lds	r24, 0x013E	; 0x80013e <state>
     744:	88 30       	cpi	r24, 0x08	; 8
     746:	09 f0       	breq	.+2      	; 0x74a <__EEPROM_REGION_LENGTH__+0x34a>
     748:	90 e0       	ldi	r25, 0x00	; 0
     74a:	81 e0       	ldi	r24, 0x01	; 1
     74c:	20 91 3c 01 	lds	r18, 0x013C	; 0x80013c <flag_a_senha>
     750:	30 91 3d 01 	lds	r19, 0x013D	; 0x80013d <flag_a_senha+0x1>
     754:	21 30       	cpi	r18, 0x01	; 1
     756:	31 05       	cpc	r19, r1
     758:	09 f0       	breq	.+2      	; 0x75c <__EEPROM_REGION_LENGTH__+0x35c>
     75a:	80 e0       	ldi	r24, 0x00	; 0
     75c:	89 23       	and	r24, r25
     75e:	79 f0       	breq	.+30     	; 0x77e <__EEPROM_REGION_LENGTH__+0x37e>
     760:	8d e0       	ldi	r24, 0x0D	; 13
     762:	80 93 3e 01 	sts	0x013E, r24	; 0x80013e <state>
     766:	0e 94 80 0e 	call	0x1d00	; 0x1d00 <msg_altera_senha>
     76a:	83 e0       	ldi	r24, 0x03	; 3
     76c:	90 e0       	ldi	r25, 0x00	; 0
     76e:	90 93 12 01 	sts	0x0112, r25	; 0x800112 <addr_senha+0x1>
     772:	80 93 11 01 	sts	0x0111, r24	; 0x800111 <addr_senha>
     776:	10 92 3d 01 	sts	0x013D, r1	; 0x80013d <flag_a_senha+0x1>
     77a:	10 92 3c 01 	sts	0x013C, r1	; 0x80013c <flag_a_senha>
     77e:	91 e0       	ldi	r25, 0x01	; 1
     780:	80 91 3e 01 	lds	r24, 0x013E	; 0x80013e <state>
     784:	83 31       	cpi	r24, 0x13	; 19
     786:	09 f0       	breq	.+2      	; 0x78a <__EEPROM_REGION_LENGTH__+0x38a>
     788:	90 e0       	ldi	r25, 0x00	; 0
     78a:	81 e0       	ldi	r24, 0x01	; 1
     78c:	20 91 34 01 	lds	r18, 0x0134	; 0x800134 <flag_sensor>
     790:	30 91 35 01 	lds	r19, 0x0135	; 0x800135 <flag_sensor+0x1>
     794:	23 2b       	or	r18, r19
     796:	09 f0       	breq	.+2      	; 0x79a <__EEPROM_REGION_LENGTH__+0x39a>
     798:	80 e0       	ldi	r24, 0x00	; 0
     79a:	89 23       	and	r24, r25
     79c:	21 f0       	breq	.+8      	; 0x7a6 <__EEPROM_REGION_LENGTH__+0x3a6>
     79e:	83 e0       	ldi	r24, 0x03	; 3
     7a0:	90 e0       	ldi	r25, 0x00	; 0
     7a2:	0e 94 49 0f 	call	0x1e92	; 0x1e92 <hab_sensor>
     7a6:	91 e0       	ldi	r25, 0x01	; 1
     7a8:	80 91 3e 01 	lds	r24, 0x013E	; 0x80013e <state>
     7ac:	84 31       	cpi	r24, 0x14	; 20
     7ae:	09 f0       	breq	.+2      	; 0x7b2 <__EEPROM_REGION_LENGTH__+0x3b2>
     7b0:	90 e0       	ldi	r25, 0x00	; 0
     7b2:	81 e0       	ldi	r24, 0x01	; 1
     7b4:	20 91 34 01 	lds	r18, 0x0134	; 0x800134 <flag_sensor>
     7b8:	30 91 35 01 	lds	r19, 0x0135	; 0x800135 <flag_sensor+0x1>
     7bc:	23 2b       	or	r18, r19
     7be:	09 f0       	breq	.+2      	; 0x7c2 <__EEPROM_REGION_LENGTH__+0x3c2>
     7c0:	80 e0       	ldi	r24, 0x00	; 0
     7c2:	89 23       	and	r24, r25
     7c4:	09 f4       	brne	.+2      	; 0x7c8 <__EEPROM_REGION_LENGTH__+0x3c8>
     7c6:	ff c5       	rjmp	.+3070   	; 0x13c6 <__stack+0xac7>
     7c8:	83 e0       	ldi	r24, 0x03	; 3
     7ca:	90 e0       	ldi	r25, 0x00	; 0
     7cc:	0e 94 5c 0f 	call	0x1eb8	; 0x1eb8 <hab_zonas>
     7d0:	fa c5       	rjmp	.+3060   	; 0x13c6 <__stack+0xac7>
     7d2:	80 33       	cpi	r24, 0x30	; 48
     7d4:	91 05       	cpc	r25, r1
     7d6:	59 f4       	brne	.+22     	; 0x7ee <__EEPROM_REGION_LENGTH__+0x3ee>
     7d8:	80 91 3e 01 	lds	r24, 0x013E	; 0x80013e <state>
     7dc:	81 30       	cpi	r24, 0x01	; 1
     7de:	09 f0       	breq	.+2      	; 0x7e2 <__EEPROM_REGION_LENGTH__+0x3e2>
     7e0:	f2 c5       	rjmp	.+3044   	; 0x13c6 <__stack+0xac7>
     7e2:	8c e0       	ldi	r24, 0x0C	; 12
     7e4:	80 93 3e 01 	sts	0x013E, r24	; 0x80013e <state>
     7e8:	0e 94 59 0e 	call	0x1cb2	; 0x1cb2 <msg_inserir_senha>
     7ec:	ec c5       	rjmp	.+3032   	; 0x13c6 <__stack+0xac7>
     7ee:	80 3d       	cpi	r24, 0xD0	; 208
     7f0:	91 05       	cpc	r25, r1
     7f2:	09 f0       	breq	.+2      	; 0x7f6 <__EEPROM_REGION_LENGTH__+0x3f6>
     7f4:	ae c0       	rjmp	.+348    	; 0x952 <__stack+0x53>
     7f6:	91 e0       	ldi	r25, 0x01	; 1
     7f8:	80 91 3e 01 	lds	r24, 0x013E	; 0x80013e <state>
     7fc:	8c 30       	cpi	r24, 0x0C	; 12
     7fe:	09 f0       	breq	.+2      	; 0x802 <__DATA_REGION_LENGTH__+0x2>
     800:	90 e0       	ldi	r25, 0x00	; 0
     802:	81 e0       	ldi	r24, 0x01	; 1
     804:	20 91 3a 01 	lds	r18, 0x013A	; 0x80013a <count_senha>
     808:	30 91 3b 01 	lds	r19, 0x013B	; 0x80013b <count_senha+0x1>
     80c:	24 30       	cpi	r18, 0x04	; 4
     80e:	31 05       	cpc	r19, r1
     810:	0c f0       	brlt	.+2      	; 0x814 <__DATA_REGION_LENGTH__+0x14>
     812:	80 e0       	ldi	r24, 0x00	; 0
     814:	89 23       	and	r24, r25
     816:	a9 f0       	breq	.+42     	; 0x842 <__DATA_REGION_LENGTH__+0x42>
     818:	84 e3       	ldi	r24, 0x34	; 52
     81a:	0e 94 a7 0e 	call	0x1d4e	; 0x1d4e <send_word_lcd>
     81e:	4a ec       	ldi	r20, 0xCA	; 202
     820:	51 e0       	ldi	r21, 0x01	; 1
     822:	60 e0       	ldi	r22, 0x00	; 0
     824:	80 91 3a 01 	lds	r24, 0x013A	; 0x80013a <count_senha>
     828:	90 91 3b 01 	lds	r25, 0x013B	; 0x80013b <count_senha+0x1>
     82c:	0e 94 b0 0f 	call	0x1f60	; 0x1f60 <insert_senha>
     830:	80 91 3a 01 	lds	r24, 0x013A	; 0x80013a <count_senha>
     834:	90 91 3b 01 	lds	r25, 0x013B	; 0x80013b <count_senha+0x1>
     838:	01 96       	adiw	r24, 0x01	; 1
     83a:	90 93 3b 01 	sts	0x013B, r25	; 0x80013b <count_senha+0x1>
     83e:	80 93 3a 01 	sts	0x013A, r24	; 0x80013a <count_senha>
     842:	91 e0       	ldi	r25, 0x01	; 1
     844:	80 91 3e 01 	lds	r24, 0x013E	; 0x80013e <state>
     848:	8d 30       	cpi	r24, 0x0D	; 13
     84a:	09 f0       	breq	.+2      	; 0x84e <__DATA_REGION_LENGTH__+0x4e>
     84c:	90 e0       	ldi	r25, 0x00	; 0
     84e:	81 e0       	ldi	r24, 0x01	; 1
     850:	20 91 3a 01 	lds	r18, 0x013A	; 0x80013a <count_senha>
     854:	30 91 3b 01 	lds	r19, 0x013B	; 0x80013b <count_senha+0x1>
     858:	24 30       	cpi	r18, 0x04	; 4
     85a:	31 05       	cpc	r19, r1
     85c:	0c f0       	brlt	.+2      	; 0x860 <__DATA_REGION_LENGTH__+0x60>
     85e:	80 e0       	ldi	r24, 0x00	; 0
     860:	89 23       	and	r24, r25
     862:	a9 f0       	breq	.+42     	; 0x88e <__DATA_REGION_LENGTH__+0x8e>
     864:	84 e3       	ldi	r24, 0x34	; 52
     866:	0e 94 a7 0e 	call	0x1d4e	; 0x1d4e <send_word_lcd>
     86a:	4a ec       	ldi	r20, 0xCA	; 202
     86c:	51 e0       	ldi	r21, 0x01	; 1
     86e:	60 e0       	ldi	r22, 0x00	; 0
     870:	80 91 3a 01 	lds	r24, 0x013A	; 0x80013a <count_senha>
     874:	90 91 3b 01 	lds	r25, 0x013B	; 0x80013b <count_senha+0x1>
     878:	0e 94 09 0e 	call	0x1c12	; 0x1c12 <senha_arm>
     87c:	80 91 3a 01 	lds	r24, 0x013A	; 0x80013a <count_senha>
     880:	90 91 3b 01 	lds	r25, 0x013B	; 0x80013b <count_senha+0x1>
     884:	01 96       	adiw	r24, 0x01	; 1
     886:	90 93 3b 01 	sts	0x013B, r25	; 0x80013b <count_senha+0x1>
     88a:	80 93 3a 01 	sts	0x013A, r24	; 0x80013a <count_senha>
     88e:	91 e0       	ldi	r25, 0x01	; 1
     890:	80 91 3e 01 	lds	r24, 0x013E	; 0x80013e <state>
     894:	8e 30       	cpi	r24, 0x0E	; 14
     896:	09 f0       	breq	.+2      	; 0x89a <__DATA_REGION_LENGTH__+0x9a>
     898:	90 e0       	ldi	r25, 0x00	; 0
     89a:	81 e0       	ldi	r24, 0x01	; 1
     89c:	20 91 3a 01 	lds	r18, 0x013A	; 0x80013a <count_senha>
     8a0:	30 91 3b 01 	lds	r19, 0x013B	; 0x80013b <count_senha+0x1>
     8a4:	24 30       	cpi	r18, 0x04	; 4
     8a6:	31 05       	cpc	r19, r1
     8a8:	0c f0       	brlt	.+2      	; 0x8ac <__DATA_REGION_LENGTH__+0xac>
     8aa:	80 e0       	ldi	r24, 0x00	; 0
     8ac:	89 23       	and	r24, r25
     8ae:	a9 f0       	breq	.+42     	; 0x8da <__DATA_REGION_LENGTH__+0xda>
     8b0:	84 e3       	ldi	r24, 0x34	; 52
     8b2:	0e 94 a7 0e 	call	0x1d4e	; 0x1d4e <send_word_lcd>
     8b6:	4a ec       	ldi	r20, 0xCA	; 202
     8b8:	51 e0       	ldi	r21, 0x01	; 1
     8ba:	60 e0       	ldi	r22, 0x00	; 0
     8bc:	80 91 3a 01 	lds	r24, 0x013A	; 0x80013a <count_senha>
     8c0:	90 91 3b 01 	lds	r25, 0x013B	; 0x80013b <count_senha+0x1>
     8c4:	0e 94 b0 0f 	call	0x1f60	; 0x1f60 <insert_senha>
     8c8:	80 91 3a 01 	lds	r24, 0x013A	; 0x80013a <count_senha>
     8cc:	90 91 3b 01 	lds	r25, 0x013B	; 0x80013b <count_senha+0x1>
     8d0:	01 96       	adiw	r24, 0x01	; 1
     8d2:	90 93 3b 01 	sts	0x013B, r25	; 0x80013b <count_senha+0x1>
     8d6:	80 93 3a 01 	sts	0x013A, r24	; 0x80013a <count_senha>
     8da:	91 e0       	ldi	r25, 0x01	; 1
     8dc:	80 91 3e 01 	lds	r24, 0x013E	; 0x80013e <state>
     8e0:	8f 30       	cpi	r24, 0x0F	; 15
     8e2:	09 f0       	breq	.+2      	; 0x8e6 <__DATA_REGION_LENGTH__+0xe6>
     8e4:	90 e0       	ldi	r25, 0x00	; 0
     8e6:	81 e0       	ldi	r24, 0x01	; 1
     8e8:	20 91 3a 01 	lds	r18, 0x013A	; 0x80013a <count_senha>
     8ec:	30 91 3b 01 	lds	r19, 0x013B	; 0x80013b <count_senha+0x1>
     8f0:	24 30       	cpi	r18, 0x04	; 4
     8f2:	31 05       	cpc	r19, r1
     8f4:	0c f0       	brlt	.+2      	; 0x8f8 <__DATA_REGION_LENGTH__+0xf8>
     8f6:	80 e0       	ldi	r24, 0x00	; 0
     8f8:	89 23       	and	r24, r25
     8fa:	a9 f0       	breq	.+42     	; 0x926 <__stack+0x27>
     8fc:	84 e3       	ldi	r24, 0x34	; 52
     8fe:	0e 94 a7 0e 	call	0x1d4e	; 0x1d4e <send_word_lcd>
     902:	4a ec       	ldi	r20, 0xCA	; 202
     904:	51 e0       	ldi	r21, 0x01	; 1
     906:	60 e0       	ldi	r22, 0x00	; 0
     908:	80 91 3a 01 	lds	r24, 0x013A	; 0x80013a <count_senha>
     90c:	90 91 3b 01 	lds	r25, 0x013B	; 0x80013b <count_senha+0x1>
     910:	0e 94 b0 0f 	call	0x1f60	; 0x1f60 <insert_senha>
     914:	80 91 3a 01 	lds	r24, 0x013A	; 0x80013a <count_senha>
     918:	90 91 3b 01 	lds	r25, 0x013B	; 0x80013b <count_senha+0x1>
     91c:	01 96       	adiw	r24, 0x01	; 1
     91e:	90 93 3b 01 	sts	0x013B, r25	; 0x80013b <count_senha+0x1>
     922:	80 93 3a 01 	sts	0x013A, r24	; 0x80013a <count_senha>
     926:	91 e0       	ldi	r25, 0x01	; 1
     928:	80 91 3e 01 	lds	r24, 0x013E	; 0x80013e <state>
     92c:	83 31       	cpi	r24, 0x13	; 19
     92e:	09 f0       	breq	.+2      	; 0x932 <__stack+0x33>
     930:	90 e0       	ldi	r25, 0x00	; 0
     932:	81 e0       	ldi	r24, 0x01	; 1
     934:	20 91 34 01 	lds	r18, 0x0134	; 0x800134 <flag_sensor>
     938:	30 91 35 01 	lds	r19, 0x0135	; 0x800135 <flag_sensor+0x1>
     93c:	23 2b       	or	r18, r19
     93e:	09 f0       	breq	.+2      	; 0x942 <__stack+0x43>
     940:	80 e0       	ldi	r24, 0x00	; 0
     942:	89 23       	and	r24, r25
     944:	09 f4       	brne	.+2      	; 0x948 <__stack+0x49>
     946:	3f c5       	rjmp	.+2686   	; 0x13c6 <__stack+0xac7>
     948:	84 e0       	ldi	r24, 0x04	; 4
     94a:	90 e0       	ldi	r25, 0x00	; 0
     94c:	0e 94 49 0f 	call	0x1e92	; 0x1e92 <hab_sensor>
     950:	3a c5       	rjmp	.+2676   	; 0x13c6 <__stack+0xac7>
     952:	80 35       	cpi	r24, 0x50	; 80
     954:	91 05       	cpc	r25, r1
     956:	09 f0       	breq	.+2      	; 0x95a <__stack+0x5b>
     958:	d2 c0       	rjmp	.+420    	; 0xafe <__stack+0x1ff>
     95a:	91 e0       	ldi	r25, 0x01	; 1
     95c:	80 91 3e 01 	lds	r24, 0x013E	; 0x80013e <state>
     960:	8c 30       	cpi	r24, 0x0C	; 12
     962:	09 f0       	breq	.+2      	; 0x966 <__stack+0x67>
     964:	90 e0       	ldi	r25, 0x00	; 0
     966:	81 e0       	ldi	r24, 0x01	; 1
     968:	20 91 3a 01 	lds	r18, 0x013A	; 0x80013a <count_senha>
     96c:	30 91 3b 01 	lds	r19, 0x013B	; 0x80013b <count_senha+0x1>
     970:	24 30       	cpi	r18, 0x04	; 4
     972:	31 05       	cpc	r19, r1
     974:	0c f0       	brlt	.+2      	; 0x978 <__stack+0x79>
     976:	80 e0       	ldi	r24, 0x00	; 0
     978:	89 23       	and	r24, r25
     97a:	a9 f0       	breq	.+42     	; 0x9a6 <__stack+0xa7>
     97c:	85 e3       	ldi	r24, 0x35	; 53
     97e:	0e 94 a7 0e 	call	0x1d4e	; 0x1d4e <send_word_lcd>
     982:	4c ec       	ldi	r20, 0xCC	; 204
     984:	51 e0       	ldi	r21, 0x01	; 1
     986:	60 e0       	ldi	r22, 0x00	; 0
     988:	80 91 3a 01 	lds	r24, 0x013A	; 0x80013a <count_senha>
     98c:	90 91 3b 01 	lds	r25, 0x013B	; 0x80013b <count_senha+0x1>
     990:	0e 94 b0 0f 	call	0x1f60	; 0x1f60 <insert_senha>
     994:	80 91 3a 01 	lds	r24, 0x013A	; 0x80013a <count_senha>
     998:	90 91 3b 01 	lds	r25, 0x013B	; 0x80013b <count_senha+0x1>
     99c:	01 96       	adiw	r24, 0x01	; 1
     99e:	90 93 3b 01 	sts	0x013B, r25	; 0x80013b <count_senha+0x1>
     9a2:	80 93 3a 01 	sts	0x013A, r24	; 0x80013a <count_senha>
     9a6:	91 e0       	ldi	r25, 0x01	; 1
     9a8:	80 91 3e 01 	lds	r24, 0x013E	; 0x80013e <state>
     9ac:	8d 30       	cpi	r24, 0x0D	; 13
     9ae:	09 f0       	breq	.+2      	; 0x9b2 <__stack+0xb3>
     9b0:	90 e0       	ldi	r25, 0x00	; 0
     9b2:	81 e0       	ldi	r24, 0x01	; 1
     9b4:	20 91 3a 01 	lds	r18, 0x013A	; 0x80013a <count_senha>
     9b8:	30 91 3b 01 	lds	r19, 0x013B	; 0x80013b <count_senha+0x1>
     9bc:	24 30       	cpi	r18, 0x04	; 4
     9be:	31 05       	cpc	r19, r1
     9c0:	0c f0       	brlt	.+2      	; 0x9c4 <__stack+0xc5>
     9c2:	80 e0       	ldi	r24, 0x00	; 0
     9c4:	89 23       	and	r24, r25
     9c6:	a9 f0       	breq	.+42     	; 0x9f2 <__stack+0xf3>
     9c8:	85 e3       	ldi	r24, 0x35	; 53
     9ca:	0e 94 a7 0e 	call	0x1d4e	; 0x1d4e <send_word_lcd>
     9ce:	4c ec       	ldi	r20, 0xCC	; 204
     9d0:	51 e0       	ldi	r21, 0x01	; 1
     9d2:	60 e0       	ldi	r22, 0x00	; 0
     9d4:	80 91 3a 01 	lds	r24, 0x013A	; 0x80013a <count_senha>
     9d8:	90 91 3b 01 	lds	r25, 0x013B	; 0x80013b <count_senha+0x1>
     9dc:	0e 94 09 0e 	call	0x1c12	; 0x1c12 <senha_arm>
     9e0:	80 91 3a 01 	lds	r24, 0x013A	; 0x80013a <count_senha>
     9e4:	90 91 3b 01 	lds	r25, 0x013B	; 0x80013b <count_senha+0x1>
     9e8:	01 96       	adiw	r24, 0x01	; 1
     9ea:	90 93 3b 01 	sts	0x013B, r25	; 0x80013b <count_senha+0x1>
     9ee:	80 93 3a 01 	sts	0x013A, r24	; 0x80013a <count_senha>
     9f2:	91 e0       	ldi	r25, 0x01	; 1
     9f4:	80 91 3e 01 	lds	r24, 0x013E	; 0x80013e <state>
     9f8:	8e 30       	cpi	r24, 0x0E	; 14
     9fa:	09 f0       	breq	.+2      	; 0x9fe <__stack+0xff>
     9fc:	90 e0       	ldi	r25, 0x00	; 0
     9fe:	81 e0       	ldi	r24, 0x01	; 1
     a00:	20 91 3a 01 	lds	r18, 0x013A	; 0x80013a <count_senha>
     a04:	30 91 3b 01 	lds	r19, 0x013B	; 0x80013b <count_senha+0x1>
     a08:	24 30       	cpi	r18, 0x04	; 4
     a0a:	31 05       	cpc	r19, r1
     a0c:	0c f0       	brlt	.+2      	; 0xa10 <__stack+0x111>
     a0e:	80 e0       	ldi	r24, 0x00	; 0
     a10:	89 23       	and	r24, r25
     a12:	a9 f0       	breq	.+42     	; 0xa3e <__stack+0x13f>
     a14:	85 e3       	ldi	r24, 0x35	; 53
     a16:	0e 94 a7 0e 	call	0x1d4e	; 0x1d4e <send_word_lcd>
     a1a:	4c ec       	ldi	r20, 0xCC	; 204
     a1c:	51 e0       	ldi	r21, 0x01	; 1
     a1e:	60 e0       	ldi	r22, 0x00	; 0
     a20:	80 91 3a 01 	lds	r24, 0x013A	; 0x80013a <count_senha>
     a24:	90 91 3b 01 	lds	r25, 0x013B	; 0x80013b <count_senha+0x1>
     a28:	0e 94 b0 0f 	call	0x1f60	; 0x1f60 <insert_senha>
     a2c:	80 91 3a 01 	lds	r24, 0x013A	; 0x80013a <count_senha>
     a30:	90 91 3b 01 	lds	r25, 0x013B	; 0x80013b <count_senha+0x1>
     a34:	01 96       	adiw	r24, 0x01	; 1
     a36:	90 93 3b 01 	sts	0x013B, r25	; 0x80013b <count_senha+0x1>
     a3a:	80 93 3a 01 	sts	0x013A, r24	; 0x80013a <count_senha>
     a3e:	91 e0       	ldi	r25, 0x01	; 1
     a40:	80 91 3e 01 	lds	r24, 0x013E	; 0x80013e <state>
     a44:	8f 30       	cpi	r24, 0x0F	; 15
     a46:	09 f0       	breq	.+2      	; 0xa4a <__stack+0x14b>
     a48:	90 e0       	ldi	r25, 0x00	; 0
     a4a:	81 e0       	ldi	r24, 0x01	; 1
     a4c:	20 91 3a 01 	lds	r18, 0x013A	; 0x80013a <count_senha>
     a50:	30 91 3b 01 	lds	r19, 0x013B	; 0x80013b <count_senha+0x1>
     a54:	24 30       	cpi	r18, 0x04	; 4
     a56:	31 05       	cpc	r19, r1
     a58:	0c f0       	brlt	.+2      	; 0xa5c <__stack+0x15d>
     a5a:	80 e0       	ldi	r24, 0x00	; 0
     a5c:	89 23       	and	r24, r25
     a5e:	a9 f0       	breq	.+42     	; 0xa8a <__stack+0x18b>
     a60:	85 e3       	ldi	r24, 0x35	; 53
     a62:	0e 94 a7 0e 	call	0x1d4e	; 0x1d4e <send_word_lcd>
     a66:	4c ec       	ldi	r20, 0xCC	; 204
     a68:	51 e0       	ldi	r21, 0x01	; 1
     a6a:	60 e0       	ldi	r22, 0x00	; 0
     a6c:	80 91 3a 01 	lds	r24, 0x013A	; 0x80013a <count_senha>
     a70:	90 91 3b 01 	lds	r25, 0x013B	; 0x80013b <count_senha+0x1>
     a74:	0e 94 b0 0f 	call	0x1f60	; 0x1f60 <insert_senha>
     a78:	80 91 3a 01 	lds	r24, 0x013A	; 0x80013a <count_senha>
     a7c:	90 91 3b 01 	lds	r25, 0x013B	; 0x80013b <count_senha+0x1>
     a80:	01 96       	adiw	r24, 0x01	; 1
     a82:	90 93 3b 01 	sts	0x013B, r25	; 0x80013b <count_senha+0x1>
     a86:	80 93 3a 01 	sts	0x013A, r24	; 0x80013a <count_senha>
     a8a:	91 e0       	ldi	r25, 0x01	; 1
     a8c:	80 91 3e 01 	lds	r24, 0x013E	; 0x80013e <state>
     a90:	83 31       	cpi	r24, 0x13	; 19
     a92:	09 f0       	breq	.+2      	; 0xa96 <__stack+0x197>
     a94:	90 e0       	ldi	r25, 0x00	; 0
     a96:	81 e0       	ldi	r24, 0x01	; 1
     a98:	20 91 34 01 	lds	r18, 0x0134	; 0x800134 <flag_sensor>
     a9c:	30 91 35 01 	lds	r19, 0x0135	; 0x800135 <flag_sensor+0x1>
     aa0:	23 2b       	or	r18, r19
     aa2:	09 f0       	breq	.+2      	; 0xaa6 <__stack+0x1a7>
     aa4:	80 e0       	ldi	r24, 0x00	; 0
     aa6:	89 23       	and	r24, r25
     aa8:	21 f0       	breq	.+8      	; 0xab2 <__stack+0x1b3>
     aaa:	85 e0       	ldi	r24, 0x05	; 5
     aac:	90 e0       	ldi	r25, 0x00	; 0
     aae:	0e 94 49 0f 	call	0x1e92	; 0x1e92 <hab_sensor>
     ab2:	91 e0       	ldi	r25, 0x01	; 1
     ab4:	80 91 3e 01 	lds	r24, 0x013E	; 0x80013e <state>
     ab8:	88 30       	cpi	r24, 0x08	; 8
     aba:	09 f0       	breq	.+2      	; 0xabe <__stack+0x1bf>
     abc:	90 e0       	ldi	r25, 0x00	; 0
     abe:	81 e0       	ldi	r24, 0x01	; 1
     ac0:	20 91 3c 01 	lds	r18, 0x013C	; 0x80013c <flag_a_senha>
     ac4:	30 91 3d 01 	lds	r19, 0x013D	; 0x80013d <flag_a_senha+0x1>
     ac8:	23 2b       	or	r18, r19
     aca:	09 f0       	breq	.+2      	; 0xace <__stack+0x1cf>
     acc:	80 e0       	ldi	r24, 0x00	; 0
     ace:	89 23       	and	r24, r25
     ad0:	09 f4       	brne	.+2      	; 0xad4 <__stack+0x1d5>
     ad2:	79 c4       	rjmp	.+2290   	; 0x13c6 <__stack+0xac7>
     ad4:	84 e1       	ldi	r24, 0x14	; 20
     ad6:	80 93 3e 01 	sts	0x013E, r24	; 0x80013e <state>
     ada:	80 91 32 01 	lds	r24, 0x0132	; 0x800132 <flag_D_sensor>
     ade:	90 91 33 01 	lds	r25, 0x0133	; 0x800133 <flag_D_sensor+0x1>
     ae2:	89 2b       	or	r24, r25
     ae4:	11 f4       	brne	.+4      	; 0xaea <__stack+0x1eb>
     ae6:	0e 94 8f 0c 	call	0x191e	; 0x191e <msg_h_zona>
     aea:	80 91 32 01 	lds	r24, 0x0132	; 0x800132 <flag_D_sensor>
     aee:	90 91 33 01 	lds	r25, 0x0133	; 0x800133 <flag_D_sensor+0x1>
     af2:	01 97       	sbiw	r24, 0x01	; 1
     af4:	09 f0       	breq	.+2      	; 0xaf8 <__stack+0x1f9>
     af6:	67 c4       	rjmp	.+2254   	; 0x13c6 <__stack+0xac7>
     af8:	0e 94 c2 0c 	call	0x1984	; 0x1984 <msg_d_zona>
     afc:	64 c4       	rjmp	.+2248   	; 0x13c6 <__stack+0xac7>
     afe:	80 39       	cpi	r24, 0x90	; 144
     b00:	91 05       	cpc	r25, r1
     b02:	09 f0       	breq	.+2      	; 0xb06 <__stack+0x207>
     b04:	ae c0       	rjmp	.+348    	; 0xc62 <__stack+0x363>
     b06:	91 e0       	ldi	r25, 0x01	; 1
     b08:	80 91 3e 01 	lds	r24, 0x013E	; 0x80013e <state>
     b0c:	8c 30       	cpi	r24, 0x0C	; 12
     b0e:	09 f0       	breq	.+2      	; 0xb12 <__stack+0x213>
     b10:	90 e0       	ldi	r25, 0x00	; 0
     b12:	81 e0       	ldi	r24, 0x01	; 1
     b14:	20 91 3a 01 	lds	r18, 0x013A	; 0x80013a <count_senha>
     b18:	30 91 3b 01 	lds	r19, 0x013B	; 0x80013b <count_senha+0x1>
     b1c:	24 30       	cpi	r18, 0x04	; 4
     b1e:	31 05       	cpc	r19, r1
     b20:	0c f0       	brlt	.+2      	; 0xb24 <__stack+0x225>
     b22:	80 e0       	ldi	r24, 0x00	; 0
     b24:	89 23       	and	r24, r25
     b26:	a9 f0       	breq	.+42     	; 0xb52 <__stack+0x253>
     b28:	86 e3       	ldi	r24, 0x36	; 54
     b2a:	0e 94 a7 0e 	call	0x1d4e	; 0x1d4e <send_word_lcd>
     b2e:	4e ec       	ldi	r20, 0xCE	; 206
     b30:	51 e0       	ldi	r21, 0x01	; 1
     b32:	60 e0       	ldi	r22, 0x00	; 0
     b34:	80 91 3a 01 	lds	r24, 0x013A	; 0x80013a <count_senha>
     b38:	90 91 3b 01 	lds	r25, 0x013B	; 0x80013b <count_senha+0x1>
     b3c:	0e 94 b0 0f 	call	0x1f60	; 0x1f60 <insert_senha>
     b40:	80 91 3a 01 	lds	r24, 0x013A	; 0x80013a <count_senha>
     b44:	90 91 3b 01 	lds	r25, 0x013B	; 0x80013b <count_senha+0x1>
     b48:	01 96       	adiw	r24, 0x01	; 1
     b4a:	90 93 3b 01 	sts	0x013B, r25	; 0x80013b <count_senha+0x1>
     b4e:	80 93 3a 01 	sts	0x013A, r24	; 0x80013a <count_senha>
     b52:	91 e0       	ldi	r25, 0x01	; 1
     b54:	80 91 3e 01 	lds	r24, 0x013E	; 0x80013e <state>
     b58:	8d 30       	cpi	r24, 0x0D	; 13
     b5a:	09 f0       	breq	.+2      	; 0xb5e <__stack+0x25f>
     b5c:	90 e0       	ldi	r25, 0x00	; 0
     b5e:	81 e0       	ldi	r24, 0x01	; 1
     b60:	20 91 3a 01 	lds	r18, 0x013A	; 0x80013a <count_senha>
     b64:	30 91 3b 01 	lds	r19, 0x013B	; 0x80013b <count_senha+0x1>
     b68:	24 30       	cpi	r18, 0x04	; 4
     b6a:	31 05       	cpc	r19, r1
     b6c:	0c f0       	brlt	.+2      	; 0xb70 <__stack+0x271>
     b6e:	80 e0       	ldi	r24, 0x00	; 0
     b70:	89 23       	and	r24, r25
     b72:	a9 f0       	breq	.+42     	; 0xb9e <__stack+0x29f>
     b74:	86 e3       	ldi	r24, 0x36	; 54
     b76:	0e 94 a7 0e 	call	0x1d4e	; 0x1d4e <send_word_lcd>
     b7a:	4e ec       	ldi	r20, 0xCE	; 206
     b7c:	51 e0       	ldi	r21, 0x01	; 1
     b7e:	60 e0       	ldi	r22, 0x00	; 0
     b80:	80 91 3a 01 	lds	r24, 0x013A	; 0x80013a <count_senha>
     b84:	90 91 3b 01 	lds	r25, 0x013B	; 0x80013b <count_senha+0x1>
     b88:	0e 94 09 0e 	call	0x1c12	; 0x1c12 <senha_arm>
     b8c:	80 91 3a 01 	lds	r24, 0x013A	; 0x80013a <count_senha>
     b90:	90 91 3b 01 	lds	r25, 0x013B	; 0x80013b <count_senha+0x1>
     b94:	01 96       	adiw	r24, 0x01	; 1
     b96:	90 93 3b 01 	sts	0x013B, r25	; 0x80013b <count_senha+0x1>
     b9a:	80 93 3a 01 	sts	0x013A, r24	; 0x80013a <count_senha>
     b9e:	91 e0       	ldi	r25, 0x01	; 1
     ba0:	80 91 3e 01 	lds	r24, 0x013E	; 0x80013e <state>
     ba4:	8e 30       	cpi	r24, 0x0E	; 14
     ba6:	09 f0       	breq	.+2      	; 0xbaa <__stack+0x2ab>
     ba8:	90 e0       	ldi	r25, 0x00	; 0
     baa:	81 e0       	ldi	r24, 0x01	; 1
     bac:	20 91 3a 01 	lds	r18, 0x013A	; 0x80013a <count_senha>
     bb0:	30 91 3b 01 	lds	r19, 0x013B	; 0x80013b <count_senha+0x1>
     bb4:	24 30       	cpi	r18, 0x04	; 4
     bb6:	31 05       	cpc	r19, r1
     bb8:	0c f0       	brlt	.+2      	; 0xbbc <__stack+0x2bd>
     bba:	80 e0       	ldi	r24, 0x00	; 0
     bbc:	89 23       	and	r24, r25
     bbe:	a9 f0       	breq	.+42     	; 0xbea <__stack+0x2eb>
     bc0:	86 e3       	ldi	r24, 0x36	; 54
     bc2:	0e 94 a7 0e 	call	0x1d4e	; 0x1d4e <send_word_lcd>
     bc6:	4e ec       	ldi	r20, 0xCE	; 206
     bc8:	51 e0       	ldi	r21, 0x01	; 1
     bca:	60 e0       	ldi	r22, 0x00	; 0
     bcc:	80 91 3a 01 	lds	r24, 0x013A	; 0x80013a <count_senha>
     bd0:	90 91 3b 01 	lds	r25, 0x013B	; 0x80013b <count_senha+0x1>
     bd4:	0e 94 b0 0f 	call	0x1f60	; 0x1f60 <insert_senha>
     bd8:	80 91 3a 01 	lds	r24, 0x013A	; 0x80013a <count_senha>
     bdc:	90 91 3b 01 	lds	r25, 0x013B	; 0x80013b <count_senha+0x1>
     be0:	01 96       	adiw	r24, 0x01	; 1
     be2:	90 93 3b 01 	sts	0x013B, r25	; 0x80013b <count_senha+0x1>
     be6:	80 93 3a 01 	sts	0x013A, r24	; 0x80013a <count_senha>
     bea:	91 e0       	ldi	r25, 0x01	; 1
     bec:	80 91 3e 01 	lds	r24, 0x013E	; 0x80013e <state>
     bf0:	8f 30       	cpi	r24, 0x0F	; 15
     bf2:	09 f0       	breq	.+2      	; 0xbf6 <__stack+0x2f7>
     bf4:	90 e0       	ldi	r25, 0x00	; 0
     bf6:	81 e0       	ldi	r24, 0x01	; 1
     bf8:	20 91 3a 01 	lds	r18, 0x013A	; 0x80013a <count_senha>
     bfc:	30 91 3b 01 	lds	r19, 0x013B	; 0x80013b <count_senha+0x1>
     c00:	24 30       	cpi	r18, 0x04	; 4
     c02:	31 05       	cpc	r19, r1
     c04:	0c f0       	brlt	.+2      	; 0xc08 <__stack+0x309>
     c06:	80 e0       	ldi	r24, 0x00	; 0
     c08:	89 23       	and	r24, r25
     c0a:	a9 f0       	breq	.+42     	; 0xc36 <__stack+0x337>
     c0c:	86 e3       	ldi	r24, 0x36	; 54
     c0e:	0e 94 a7 0e 	call	0x1d4e	; 0x1d4e <send_word_lcd>
     c12:	4e ec       	ldi	r20, 0xCE	; 206
     c14:	51 e0       	ldi	r21, 0x01	; 1
     c16:	60 e0       	ldi	r22, 0x00	; 0
     c18:	80 91 3a 01 	lds	r24, 0x013A	; 0x80013a <count_senha>
     c1c:	90 91 3b 01 	lds	r25, 0x013B	; 0x80013b <count_senha+0x1>
     c20:	0e 94 b0 0f 	call	0x1f60	; 0x1f60 <insert_senha>
     c24:	80 91 3a 01 	lds	r24, 0x013A	; 0x80013a <count_senha>
     c28:	90 91 3b 01 	lds	r25, 0x013B	; 0x80013b <count_senha+0x1>
     c2c:	01 96       	adiw	r24, 0x01	; 1
     c2e:	90 93 3b 01 	sts	0x013B, r25	; 0x80013b <count_senha+0x1>
     c32:	80 93 3a 01 	sts	0x013A, r24	; 0x80013a <count_senha>
     c36:	91 e0       	ldi	r25, 0x01	; 1
     c38:	80 91 3e 01 	lds	r24, 0x013E	; 0x80013e <state>
     c3c:	83 31       	cpi	r24, 0x13	; 19
     c3e:	09 f0       	breq	.+2      	; 0xc42 <__stack+0x343>
     c40:	90 e0       	ldi	r25, 0x00	; 0
     c42:	81 e0       	ldi	r24, 0x01	; 1
     c44:	20 91 34 01 	lds	r18, 0x0134	; 0x800134 <flag_sensor>
     c48:	30 91 35 01 	lds	r19, 0x0135	; 0x800135 <flag_sensor+0x1>
     c4c:	23 2b       	or	r18, r19
     c4e:	09 f0       	breq	.+2      	; 0xc52 <__stack+0x353>
     c50:	80 e0       	ldi	r24, 0x00	; 0
     c52:	89 23       	and	r24, r25
     c54:	09 f4       	brne	.+2      	; 0xc58 <__stack+0x359>
     c56:	b7 c3       	rjmp	.+1902   	; 0x13c6 <__stack+0xac7>
     c58:	86 e0       	ldi	r24, 0x06	; 6
     c5a:	90 e0       	ldi	r25, 0x00	; 0
     c5c:	0e 94 49 0f 	call	0x1e92	; 0x1e92 <hab_sensor>
     c60:	b2 c3       	rjmp	.+1892   	; 0x13c6 <__stack+0xac7>
     c62:	80 31       	cpi	r24, 0x10	; 16
     c64:	91 05       	cpc	r25, r1
     c66:	19 f5       	brne	.+70     	; 0xcae <__stack+0x3af>
     c68:	91 e0       	ldi	r25, 0x01	; 1
     c6a:	80 91 3e 01 	lds	r24, 0x013E	; 0x80013e <state>
     c6e:	8c 30       	cpi	r24, 0x0C	; 12
     c70:	09 f0       	breq	.+2      	; 0xc74 <__stack+0x375>
     c72:	90 e0       	ldi	r25, 0x00	; 0
     c74:	81 e0       	ldi	r24, 0x01	; 1
     c76:	20 91 3a 01 	lds	r18, 0x013A	; 0x80013a <count_senha>
     c7a:	30 91 3b 01 	lds	r19, 0x013B	; 0x80013b <count_senha+0x1>
     c7e:	24 30       	cpi	r18, 0x04	; 4
     c80:	31 05       	cpc	r19, r1
     c82:	09 f0       	breq	.+2      	; 0xc86 <__stack+0x387>
     c84:	80 e0       	ldi	r24, 0x00	; 0
     c86:	89 23       	and	r24, r25
     c88:	39 f0       	breq	.+14     	; 0xc98 <__stack+0x399>
     c8a:	80 e1       	ldi	r24, 0x10	; 16
     c8c:	80 93 3e 01 	sts	0x013E, r24	; 0x80013e <state>
     c90:	10 92 3b 01 	sts	0x013B, r1	; 0x80013b <count_senha+0x1>
     c94:	10 92 3a 01 	sts	0x013A, r1	; 0x80013a <count_senha>
     c98:	80 91 3e 01 	lds	r24, 0x013E	; 0x80013e <state>
     c9c:	81 30       	cpi	r24, 0x01	; 1
     c9e:	09 f0       	breq	.+2      	; 0xca2 <__stack+0x3a3>
     ca0:	92 c3       	rjmp	.+1828   	; 0x13c6 <__stack+0xac7>
     ca2:	8e e0       	ldi	r24, 0x0E	; 14
     ca4:	80 93 3e 01 	sts	0x013E, r24	; 0x80013e <state>
     ca8:	0e 94 59 0e 	call	0x1cb2	; 0x1cb2 <msg_inserir_senha>
     cac:	8c c3       	rjmp	.+1816   	; 0x13c6 <__stack+0xac7>
     cae:	80 3e       	cpi	r24, 0xE0	; 224
     cb0:	91 05       	cpc	r25, r1
     cb2:	09 f0       	breq	.+2      	; 0xcb6 <__stack+0x3b7>
     cb4:	ae c0       	rjmp	.+348    	; 0xe12 <__stack+0x513>
     cb6:	91 e0       	ldi	r25, 0x01	; 1
     cb8:	80 91 3e 01 	lds	r24, 0x013E	; 0x80013e <state>
     cbc:	8c 30       	cpi	r24, 0x0C	; 12
     cbe:	09 f0       	breq	.+2      	; 0xcc2 <__stack+0x3c3>
     cc0:	90 e0       	ldi	r25, 0x00	; 0
     cc2:	81 e0       	ldi	r24, 0x01	; 1
     cc4:	20 91 3a 01 	lds	r18, 0x013A	; 0x80013a <count_senha>
     cc8:	30 91 3b 01 	lds	r19, 0x013B	; 0x80013b <count_senha+0x1>
     ccc:	24 30       	cpi	r18, 0x04	; 4
     cce:	31 05       	cpc	r19, r1
     cd0:	0c f0       	brlt	.+2      	; 0xcd4 <__stack+0x3d5>
     cd2:	80 e0       	ldi	r24, 0x00	; 0
     cd4:	89 23       	and	r24, r25
     cd6:	a9 f0       	breq	.+42     	; 0xd02 <__stack+0x403>
     cd8:	87 e3       	ldi	r24, 0x37	; 55
     cda:	0e 94 a7 0e 	call	0x1d4e	; 0x1d4e <send_word_lcd>
     cde:	40 ed       	ldi	r20, 0xD0	; 208
     ce0:	51 e0       	ldi	r21, 0x01	; 1
     ce2:	60 e0       	ldi	r22, 0x00	; 0
     ce4:	80 91 3a 01 	lds	r24, 0x013A	; 0x80013a <count_senha>
     ce8:	90 91 3b 01 	lds	r25, 0x013B	; 0x80013b <count_senha+0x1>
     cec:	0e 94 b0 0f 	call	0x1f60	; 0x1f60 <insert_senha>
     cf0:	80 91 3a 01 	lds	r24, 0x013A	; 0x80013a <count_senha>
     cf4:	90 91 3b 01 	lds	r25, 0x013B	; 0x80013b <count_senha+0x1>
     cf8:	01 96       	adiw	r24, 0x01	; 1
     cfa:	90 93 3b 01 	sts	0x013B, r25	; 0x80013b <count_senha+0x1>
     cfe:	80 93 3a 01 	sts	0x013A, r24	; 0x80013a <count_senha>
     d02:	91 e0       	ldi	r25, 0x01	; 1
     d04:	80 91 3e 01 	lds	r24, 0x013E	; 0x80013e <state>
     d08:	8d 30       	cpi	r24, 0x0D	; 13
     d0a:	09 f0       	breq	.+2      	; 0xd0e <__stack+0x40f>
     d0c:	90 e0       	ldi	r25, 0x00	; 0
     d0e:	81 e0       	ldi	r24, 0x01	; 1
     d10:	20 91 3a 01 	lds	r18, 0x013A	; 0x80013a <count_senha>
     d14:	30 91 3b 01 	lds	r19, 0x013B	; 0x80013b <count_senha+0x1>
     d18:	24 30       	cpi	r18, 0x04	; 4
     d1a:	31 05       	cpc	r19, r1
     d1c:	0c f0       	brlt	.+2      	; 0xd20 <__stack+0x421>
     d1e:	80 e0       	ldi	r24, 0x00	; 0
     d20:	89 23       	and	r24, r25
     d22:	a9 f0       	breq	.+42     	; 0xd4e <__stack+0x44f>
     d24:	87 e3       	ldi	r24, 0x37	; 55
     d26:	0e 94 a7 0e 	call	0x1d4e	; 0x1d4e <send_word_lcd>
     d2a:	40 ed       	ldi	r20, 0xD0	; 208
     d2c:	51 e0       	ldi	r21, 0x01	; 1
     d2e:	60 e0       	ldi	r22, 0x00	; 0
     d30:	80 91 3a 01 	lds	r24, 0x013A	; 0x80013a <count_senha>
     d34:	90 91 3b 01 	lds	r25, 0x013B	; 0x80013b <count_senha+0x1>
     d38:	0e 94 09 0e 	call	0x1c12	; 0x1c12 <senha_arm>
     d3c:	80 91 3a 01 	lds	r24, 0x013A	; 0x80013a <count_senha>
     d40:	90 91 3b 01 	lds	r25, 0x013B	; 0x80013b <count_senha+0x1>
     d44:	01 96       	adiw	r24, 0x01	; 1
     d46:	90 93 3b 01 	sts	0x013B, r25	; 0x80013b <count_senha+0x1>
     d4a:	80 93 3a 01 	sts	0x013A, r24	; 0x80013a <count_senha>
     d4e:	91 e0       	ldi	r25, 0x01	; 1
     d50:	80 91 3e 01 	lds	r24, 0x013E	; 0x80013e <state>
     d54:	8e 30       	cpi	r24, 0x0E	; 14
     d56:	09 f0       	breq	.+2      	; 0xd5a <__stack+0x45b>
     d58:	90 e0       	ldi	r25, 0x00	; 0
     d5a:	81 e0       	ldi	r24, 0x01	; 1
     d5c:	20 91 3a 01 	lds	r18, 0x013A	; 0x80013a <count_senha>
     d60:	30 91 3b 01 	lds	r19, 0x013B	; 0x80013b <count_senha+0x1>
     d64:	24 30       	cpi	r18, 0x04	; 4
     d66:	31 05       	cpc	r19, r1
     d68:	0c f0       	brlt	.+2      	; 0xd6c <__stack+0x46d>
     d6a:	80 e0       	ldi	r24, 0x00	; 0
     d6c:	89 23       	and	r24, r25
     d6e:	a9 f0       	breq	.+42     	; 0xd9a <__stack+0x49b>
     d70:	87 e3       	ldi	r24, 0x37	; 55
     d72:	0e 94 a7 0e 	call	0x1d4e	; 0x1d4e <send_word_lcd>
     d76:	40 ed       	ldi	r20, 0xD0	; 208
     d78:	51 e0       	ldi	r21, 0x01	; 1
     d7a:	60 e0       	ldi	r22, 0x00	; 0
     d7c:	80 91 3a 01 	lds	r24, 0x013A	; 0x80013a <count_senha>
     d80:	90 91 3b 01 	lds	r25, 0x013B	; 0x80013b <count_senha+0x1>
     d84:	0e 94 b0 0f 	call	0x1f60	; 0x1f60 <insert_senha>
     d88:	80 91 3a 01 	lds	r24, 0x013A	; 0x80013a <count_senha>
     d8c:	90 91 3b 01 	lds	r25, 0x013B	; 0x80013b <count_senha+0x1>
     d90:	01 96       	adiw	r24, 0x01	; 1
     d92:	90 93 3b 01 	sts	0x013B, r25	; 0x80013b <count_senha+0x1>
     d96:	80 93 3a 01 	sts	0x013A, r24	; 0x80013a <count_senha>
     d9a:	91 e0       	ldi	r25, 0x01	; 1
     d9c:	80 91 3e 01 	lds	r24, 0x013E	; 0x80013e <state>
     da0:	8f 30       	cpi	r24, 0x0F	; 15
     da2:	09 f0       	breq	.+2      	; 0xda6 <__stack+0x4a7>
     da4:	90 e0       	ldi	r25, 0x00	; 0
     da6:	81 e0       	ldi	r24, 0x01	; 1
     da8:	20 91 3a 01 	lds	r18, 0x013A	; 0x80013a <count_senha>
     dac:	30 91 3b 01 	lds	r19, 0x013B	; 0x80013b <count_senha+0x1>
     db0:	24 30       	cpi	r18, 0x04	; 4
     db2:	31 05       	cpc	r19, r1
     db4:	0c f0       	brlt	.+2      	; 0xdb8 <__stack+0x4b9>
     db6:	80 e0       	ldi	r24, 0x00	; 0
     db8:	89 23       	and	r24, r25
     dba:	a9 f0       	breq	.+42     	; 0xde6 <__stack+0x4e7>
     dbc:	87 e3       	ldi	r24, 0x37	; 55
     dbe:	0e 94 a7 0e 	call	0x1d4e	; 0x1d4e <send_word_lcd>
     dc2:	4e ec       	ldi	r20, 0xCE	; 206
     dc4:	51 e0       	ldi	r21, 0x01	; 1
     dc6:	60 e0       	ldi	r22, 0x00	; 0
     dc8:	80 91 3a 01 	lds	r24, 0x013A	; 0x80013a <count_senha>
     dcc:	90 91 3b 01 	lds	r25, 0x013B	; 0x80013b <count_senha+0x1>
     dd0:	0e 94 b0 0f 	call	0x1f60	; 0x1f60 <insert_senha>
     dd4:	80 91 3a 01 	lds	r24, 0x013A	; 0x80013a <count_senha>
     dd8:	90 91 3b 01 	lds	r25, 0x013B	; 0x80013b <count_senha+0x1>
     ddc:	01 96       	adiw	r24, 0x01	; 1
     dde:	90 93 3b 01 	sts	0x013B, r25	; 0x80013b <count_senha+0x1>
     de2:	80 93 3a 01 	sts	0x013A, r24	; 0x80013a <count_senha>
     de6:	91 e0       	ldi	r25, 0x01	; 1
     de8:	80 91 3e 01 	lds	r24, 0x013E	; 0x80013e <state>
     dec:	83 31       	cpi	r24, 0x13	; 19
     dee:	09 f0       	breq	.+2      	; 0xdf2 <__stack+0x4f3>
     df0:	90 e0       	ldi	r25, 0x00	; 0
     df2:	81 e0       	ldi	r24, 0x01	; 1
     df4:	20 91 34 01 	lds	r18, 0x0134	; 0x800134 <flag_sensor>
     df8:	30 91 35 01 	lds	r19, 0x0135	; 0x800135 <flag_sensor+0x1>
     dfc:	23 2b       	or	r18, r19
     dfe:	09 f0       	breq	.+2      	; 0xe02 <__stack+0x503>
     e00:	80 e0       	ldi	r24, 0x00	; 0
     e02:	89 23       	and	r24, r25
     e04:	09 f4       	brne	.+2      	; 0xe08 <__stack+0x509>
     e06:	df c2       	rjmp	.+1470   	; 0x13c6 <__stack+0xac7>
     e08:	87 e0       	ldi	r24, 0x07	; 7
     e0a:	90 e0       	ldi	r25, 0x00	; 0
     e0c:	0e 94 49 0f 	call	0x1e92	; 0x1e92 <hab_sensor>
     e10:	da c2       	rjmp	.+1460   	; 0x13c6 <__stack+0xac7>
     e12:	80 36       	cpi	r24, 0x60	; 96
     e14:	91 05       	cpc	r25, r1
     e16:	09 f0       	breq	.+2      	; 0xe1a <__stack+0x51b>
     e18:	9a c0       	rjmp	.+308    	; 0xf4e <__stack+0x64f>
     e1a:	91 e0       	ldi	r25, 0x01	; 1
     e1c:	80 91 3e 01 	lds	r24, 0x013E	; 0x80013e <state>
     e20:	8c 30       	cpi	r24, 0x0C	; 12
     e22:	09 f0       	breq	.+2      	; 0xe26 <__stack+0x527>
     e24:	90 e0       	ldi	r25, 0x00	; 0
     e26:	81 e0       	ldi	r24, 0x01	; 1
     e28:	20 91 3a 01 	lds	r18, 0x013A	; 0x80013a <count_senha>
     e2c:	30 91 3b 01 	lds	r19, 0x013B	; 0x80013b <count_senha+0x1>
     e30:	24 30       	cpi	r18, 0x04	; 4
     e32:	31 05       	cpc	r19, r1
     e34:	0c f0       	brlt	.+2      	; 0xe38 <__stack+0x539>
     e36:	80 e0       	ldi	r24, 0x00	; 0
     e38:	89 23       	and	r24, r25
     e3a:	a9 f0       	breq	.+42     	; 0xe66 <__stack+0x567>
     e3c:	88 e3       	ldi	r24, 0x38	; 56
     e3e:	0e 94 a7 0e 	call	0x1d4e	; 0x1d4e <send_word_lcd>
     e42:	42 ed       	ldi	r20, 0xD2	; 210
     e44:	51 e0       	ldi	r21, 0x01	; 1
     e46:	60 e0       	ldi	r22, 0x00	; 0
     e48:	80 91 3a 01 	lds	r24, 0x013A	; 0x80013a <count_senha>
     e4c:	90 91 3b 01 	lds	r25, 0x013B	; 0x80013b <count_senha+0x1>
     e50:	0e 94 b0 0f 	call	0x1f60	; 0x1f60 <insert_senha>
     e54:	80 91 3a 01 	lds	r24, 0x013A	; 0x80013a <count_senha>
     e58:	90 91 3b 01 	lds	r25, 0x013B	; 0x80013b <count_senha+0x1>
     e5c:	01 96       	adiw	r24, 0x01	; 1
     e5e:	90 93 3b 01 	sts	0x013B, r25	; 0x80013b <count_senha+0x1>
     e62:	80 93 3a 01 	sts	0x013A, r24	; 0x80013a <count_senha>
     e66:	91 e0       	ldi	r25, 0x01	; 1
     e68:	80 91 3e 01 	lds	r24, 0x013E	; 0x80013e <state>
     e6c:	8d 30       	cpi	r24, 0x0D	; 13
     e6e:	09 f0       	breq	.+2      	; 0xe72 <__stack+0x573>
     e70:	90 e0       	ldi	r25, 0x00	; 0
     e72:	81 e0       	ldi	r24, 0x01	; 1
     e74:	20 91 3a 01 	lds	r18, 0x013A	; 0x80013a <count_senha>
     e78:	30 91 3b 01 	lds	r19, 0x013B	; 0x80013b <count_senha+0x1>
     e7c:	24 30       	cpi	r18, 0x04	; 4
     e7e:	31 05       	cpc	r19, r1
     e80:	0c f0       	brlt	.+2      	; 0xe84 <__stack+0x585>
     e82:	80 e0       	ldi	r24, 0x00	; 0
     e84:	89 23       	and	r24, r25
     e86:	a9 f0       	breq	.+42     	; 0xeb2 <__stack+0x5b3>
     e88:	88 e3       	ldi	r24, 0x38	; 56
     e8a:	0e 94 a7 0e 	call	0x1d4e	; 0x1d4e <send_word_lcd>
     e8e:	42 ed       	ldi	r20, 0xD2	; 210
     e90:	51 e0       	ldi	r21, 0x01	; 1
     e92:	60 e0       	ldi	r22, 0x00	; 0
     e94:	80 91 3a 01 	lds	r24, 0x013A	; 0x80013a <count_senha>
     e98:	90 91 3b 01 	lds	r25, 0x013B	; 0x80013b <count_senha+0x1>
     e9c:	0e 94 09 0e 	call	0x1c12	; 0x1c12 <senha_arm>
     ea0:	80 91 3a 01 	lds	r24, 0x013A	; 0x80013a <count_senha>
     ea4:	90 91 3b 01 	lds	r25, 0x013B	; 0x80013b <count_senha+0x1>
     ea8:	01 96       	adiw	r24, 0x01	; 1
     eaa:	90 93 3b 01 	sts	0x013B, r25	; 0x80013b <count_senha+0x1>
     eae:	80 93 3a 01 	sts	0x013A, r24	; 0x80013a <count_senha>
     eb2:	91 e0       	ldi	r25, 0x01	; 1
     eb4:	80 91 3e 01 	lds	r24, 0x013E	; 0x80013e <state>
     eb8:	8e 30       	cpi	r24, 0x0E	; 14
     eba:	09 f0       	breq	.+2      	; 0xebe <__stack+0x5bf>
     ebc:	90 e0       	ldi	r25, 0x00	; 0
     ebe:	81 e0       	ldi	r24, 0x01	; 1
     ec0:	20 91 3a 01 	lds	r18, 0x013A	; 0x80013a <count_senha>
     ec4:	30 91 3b 01 	lds	r19, 0x013B	; 0x80013b <count_senha+0x1>
     ec8:	24 30       	cpi	r18, 0x04	; 4
     eca:	31 05       	cpc	r19, r1
     ecc:	0c f0       	brlt	.+2      	; 0xed0 <__stack+0x5d1>
     ece:	80 e0       	ldi	r24, 0x00	; 0
     ed0:	89 23       	and	r24, r25
     ed2:	a9 f0       	breq	.+42     	; 0xefe <__stack+0x5ff>
     ed4:	88 e3       	ldi	r24, 0x38	; 56
     ed6:	0e 94 a7 0e 	call	0x1d4e	; 0x1d4e <send_word_lcd>
     eda:	42 ed       	ldi	r20, 0xD2	; 210
     edc:	51 e0       	ldi	r21, 0x01	; 1
     ede:	60 e0       	ldi	r22, 0x00	; 0
     ee0:	80 91 3a 01 	lds	r24, 0x013A	; 0x80013a <count_senha>
     ee4:	90 91 3b 01 	lds	r25, 0x013B	; 0x80013b <count_senha+0x1>
     ee8:	0e 94 b0 0f 	call	0x1f60	; 0x1f60 <insert_senha>
     eec:	80 91 3a 01 	lds	r24, 0x013A	; 0x80013a <count_senha>
     ef0:	90 91 3b 01 	lds	r25, 0x013B	; 0x80013b <count_senha+0x1>
     ef4:	01 96       	adiw	r24, 0x01	; 1
     ef6:	90 93 3b 01 	sts	0x013B, r25	; 0x80013b <count_senha+0x1>
     efa:	80 93 3a 01 	sts	0x013A, r24	; 0x80013a <count_senha>
     efe:	91 e0       	ldi	r25, 0x01	; 1
     f00:	80 91 3e 01 	lds	r24, 0x013E	; 0x80013e <state>
     f04:	8f 30       	cpi	r24, 0x0F	; 15
     f06:	09 f0       	breq	.+2      	; 0xf0a <__stack+0x60b>
     f08:	90 e0       	ldi	r25, 0x00	; 0
     f0a:	81 e0       	ldi	r24, 0x01	; 1
     f0c:	20 91 3a 01 	lds	r18, 0x013A	; 0x80013a <count_senha>
     f10:	30 91 3b 01 	lds	r19, 0x013B	; 0x80013b <count_senha+0x1>
     f14:	24 30       	cpi	r18, 0x04	; 4
     f16:	31 05       	cpc	r19, r1
     f18:	0c f0       	brlt	.+2      	; 0xf1c <__stack+0x61d>
     f1a:	80 e0       	ldi	r24, 0x00	; 0
     f1c:	89 23       	and	r24, r25
     f1e:	09 f4       	brne	.+2      	; 0xf22 <__stack+0x623>
     f20:	52 c2       	rjmp	.+1188   	; 0x13c6 <__stack+0xac7>
     f22:	88 e3       	ldi	r24, 0x38	; 56
     f24:	0e 94 a7 0e 	call	0x1d4e	; 0x1d4e <send_word_lcd>
     f28:	4e ec       	ldi	r20, 0xCE	; 206
     f2a:	51 e0       	ldi	r21, 0x01	; 1
     f2c:	60 e0       	ldi	r22, 0x00	; 0
     f2e:	80 91 3a 01 	lds	r24, 0x013A	; 0x80013a <count_senha>
     f32:	90 91 3b 01 	lds	r25, 0x013B	; 0x80013b <count_senha+0x1>
     f36:	0e 94 b0 0f 	call	0x1f60	; 0x1f60 <insert_senha>
     f3a:	80 91 3a 01 	lds	r24, 0x013A	; 0x80013a <count_senha>
     f3e:	90 91 3b 01 	lds	r25, 0x013B	; 0x80013b <count_senha+0x1>
     f42:	01 96       	adiw	r24, 0x01	; 1
     f44:	90 93 3b 01 	sts	0x013B, r25	; 0x80013b <count_senha+0x1>
     f48:	80 93 3a 01 	sts	0x013A, r24	; 0x80013a <count_senha>
     f4c:	3c c2       	rjmp	.+1144   	; 0x13c6 <__stack+0xac7>
     f4e:	80 3a       	cpi	r24, 0xA0	; 160
     f50:	91 05       	cpc	r25, r1
     f52:	09 f0       	breq	.+2      	; 0xf56 <__stack+0x657>
     f54:	9a c0       	rjmp	.+308    	; 0x108a <__stack+0x78b>
     f56:	91 e0       	ldi	r25, 0x01	; 1
     f58:	80 91 3e 01 	lds	r24, 0x013E	; 0x80013e <state>
     f5c:	8c 30       	cpi	r24, 0x0C	; 12
     f5e:	09 f0       	breq	.+2      	; 0xf62 <__stack+0x663>
     f60:	90 e0       	ldi	r25, 0x00	; 0
     f62:	81 e0       	ldi	r24, 0x01	; 1
     f64:	20 91 3a 01 	lds	r18, 0x013A	; 0x80013a <count_senha>
     f68:	30 91 3b 01 	lds	r19, 0x013B	; 0x80013b <count_senha+0x1>
     f6c:	24 30       	cpi	r18, 0x04	; 4
     f6e:	31 05       	cpc	r19, r1
     f70:	0c f0       	brlt	.+2      	; 0xf74 <__stack+0x675>
     f72:	80 e0       	ldi	r24, 0x00	; 0
     f74:	89 23       	and	r24, r25
     f76:	a9 f0       	breq	.+42     	; 0xfa2 <__stack+0x6a3>
     f78:	89 e3       	ldi	r24, 0x39	; 57
     f7a:	0e 94 a7 0e 	call	0x1d4e	; 0x1d4e <send_word_lcd>
     f7e:	44 ed       	ldi	r20, 0xD4	; 212
     f80:	51 e0       	ldi	r21, 0x01	; 1
     f82:	60 e0       	ldi	r22, 0x00	; 0
     f84:	80 91 3a 01 	lds	r24, 0x013A	; 0x80013a <count_senha>
     f88:	90 91 3b 01 	lds	r25, 0x013B	; 0x80013b <count_senha+0x1>
     f8c:	0e 94 b0 0f 	call	0x1f60	; 0x1f60 <insert_senha>
     f90:	80 91 3a 01 	lds	r24, 0x013A	; 0x80013a <count_senha>
     f94:	90 91 3b 01 	lds	r25, 0x013B	; 0x80013b <count_senha+0x1>
     f98:	01 96       	adiw	r24, 0x01	; 1
     f9a:	90 93 3b 01 	sts	0x013B, r25	; 0x80013b <count_senha+0x1>
     f9e:	80 93 3a 01 	sts	0x013A, r24	; 0x80013a <count_senha>
     fa2:	91 e0       	ldi	r25, 0x01	; 1
     fa4:	80 91 3e 01 	lds	r24, 0x013E	; 0x80013e <state>
     fa8:	8d 30       	cpi	r24, 0x0D	; 13
     faa:	09 f0       	breq	.+2      	; 0xfae <__stack+0x6af>
     fac:	90 e0       	ldi	r25, 0x00	; 0
     fae:	81 e0       	ldi	r24, 0x01	; 1
     fb0:	20 91 3a 01 	lds	r18, 0x013A	; 0x80013a <count_senha>
     fb4:	30 91 3b 01 	lds	r19, 0x013B	; 0x80013b <count_senha+0x1>
     fb8:	24 30       	cpi	r18, 0x04	; 4
     fba:	31 05       	cpc	r19, r1
     fbc:	0c f0       	brlt	.+2      	; 0xfc0 <__stack+0x6c1>
     fbe:	80 e0       	ldi	r24, 0x00	; 0
     fc0:	89 23       	and	r24, r25
     fc2:	a9 f0       	breq	.+42     	; 0xfee <__stack+0x6ef>
     fc4:	89 e3       	ldi	r24, 0x39	; 57
     fc6:	0e 94 a7 0e 	call	0x1d4e	; 0x1d4e <send_word_lcd>
     fca:	44 ed       	ldi	r20, 0xD4	; 212
     fcc:	51 e0       	ldi	r21, 0x01	; 1
     fce:	60 e0       	ldi	r22, 0x00	; 0
     fd0:	80 91 3a 01 	lds	r24, 0x013A	; 0x80013a <count_senha>
     fd4:	90 91 3b 01 	lds	r25, 0x013B	; 0x80013b <count_senha+0x1>
     fd8:	0e 94 09 0e 	call	0x1c12	; 0x1c12 <senha_arm>
     fdc:	80 91 3a 01 	lds	r24, 0x013A	; 0x80013a <count_senha>
     fe0:	90 91 3b 01 	lds	r25, 0x013B	; 0x80013b <count_senha+0x1>
     fe4:	01 96       	adiw	r24, 0x01	; 1
     fe6:	90 93 3b 01 	sts	0x013B, r25	; 0x80013b <count_senha+0x1>
     fea:	80 93 3a 01 	sts	0x013A, r24	; 0x80013a <count_senha>
     fee:	91 e0       	ldi	r25, 0x01	; 1
     ff0:	80 91 3e 01 	lds	r24, 0x013E	; 0x80013e <state>
     ff4:	8e 30       	cpi	r24, 0x0E	; 14
     ff6:	09 f0       	breq	.+2      	; 0xffa <__stack+0x6fb>
     ff8:	90 e0       	ldi	r25, 0x00	; 0
     ffa:	81 e0       	ldi	r24, 0x01	; 1
     ffc:	20 91 3a 01 	lds	r18, 0x013A	; 0x80013a <count_senha>
    1000:	30 91 3b 01 	lds	r19, 0x013B	; 0x80013b <count_senha+0x1>
    1004:	24 30       	cpi	r18, 0x04	; 4
    1006:	31 05       	cpc	r19, r1
    1008:	0c f0       	brlt	.+2      	; 0x100c <__stack+0x70d>
    100a:	80 e0       	ldi	r24, 0x00	; 0
    100c:	89 23       	and	r24, r25
    100e:	a9 f0       	breq	.+42     	; 0x103a <__stack+0x73b>
    1010:	89 e3       	ldi	r24, 0x39	; 57
    1012:	0e 94 a7 0e 	call	0x1d4e	; 0x1d4e <send_word_lcd>
    1016:	44 ed       	ldi	r20, 0xD4	; 212
    1018:	51 e0       	ldi	r21, 0x01	; 1
    101a:	60 e0       	ldi	r22, 0x00	; 0
    101c:	80 91 3a 01 	lds	r24, 0x013A	; 0x80013a <count_senha>
    1020:	90 91 3b 01 	lds	r25, 0x013B	; 0x80013b <count_senha+0x1>
    1024:	0e 94 b0 0f 	call	0x1f60	; 0x1f60 <insert_senha>
    1028:	80 91 3a 01 	lds	r24, 0x013A	; 0x80013a <count_senha>
    102c:	90 91 3b 01 	lds	r25, 0x013B	; 0x80013b <count_senha+0x1>
    1030:	01 96       	adiw	r24, 0x01	; 1
    1032:	90 93 3b 01 	sts	0x013B, r25	; 0x80013b <count_senha+0x1>
    1036:	80 93 3a 01 	sts	0x013A, r24	; 0x80013a <count_senha>
    103a:	91 e0       	ldi	r25, 0x01	; 1
    103c:	80 91 3e 01 	lds	r24, 0x013E	; 0x80013e <state>
    1040:	8f 30       	cpi	r24, 0x0F	; 15
    1042:	09 f0       	breq	.+2      	; 0x1046 <__stack+0x747>
    1044:	90 e0       	ldi	r25, 0x00	; 0
    1046:	81 e0       	ldi	r24, 0x01	; 1
    1048:	20 91 3a 01 	lds	r18, 0x013A	; 0x80013a <count_senha>
    104c:	30 91 3b 01 	lds	r19, 0x013B	; 0x80013b <count_senha+0x1>
    1050:	24 30       	cpi	r18, 0x04	; 4
    1052:	31 05       	cpc	r19, r1
    1054:	0c f0       	brlt	.+2      	; 0x1058 <__stack+0x759>
    1056:	80 e0       	ldi	r24, 0x00	; 0
    1058:	89 23       	and	r24, r25
    105a:	09 f4       	brne	.+2      	; 0x105e <__stack+0x75f>
    105c:	b4 c1       	rjmp	.+872    	; 0x13c6 <__stack+0xac7>
    105e:	89 e3       	ldi	r24, 0x39	; 57
    1060:	0e 94 a7 0e 	call	0x1d4e	; 0x1d4e <send_word_lcd>
    1064:	44 ed       	ldi	r20, 0xD4	; 212
    1066:	51 e0       	ldi	r21, 0x01	; 1
    1068:	60 e0       	ldi	r22, 0x00	; 0
    106a:	80 91 3a 01 	lds	r24, 0x013A	; 0x80013a <count_senha>
    106e:	90 91 3b 01 	lds	r25, 0x013B	; 0x80013b <count_senha+0x1>
    1072:	0e 94 b0 0f 	call	0x1f60	; 0x1f60 <insert_senha>
    1076:	80 91 3a 01 	lds	r24, 0x013A	; 0x80013a <count_senha>
    107a:	90 91 3b 01 	lds	r25, 0x013B	; 0x80013b <count_senha+0x1>
    107e:	01 96       	adiw	r24, 0x01	; 1
    1080:	90 93 3b 01 	sts	0x013B, r25	; 0x80013b <count_senha+0x1>
    1084:	80 93 3a 01 	sts	0x013A, r24	; 0x80013a <count_senha>
    1088:	9e c1       	rjmp	.+828    	; 0x13c6 <__stack+0xac7>
    108a:	80 32       	cpi	r24, 0x20	; 32
    108c:	91 05       	cpc	r25, r1
    108e:	49 f5       	brne	.+82     	; 0x10e2 <__stack+0x7e3>
    1090:	80 91 3e 01 	lds	r24, 0x013E	; 0x80013e <state>
    1094:	86 30       	cpi	r24, 0x06	; 6
    1096:	29 f4       	brne	.+10     	; 0x10a2 <__stack+0x7a3>
    1098:	8f e0       	ldi	r24, 0x0F	; 15
    109a:	80 93 3e 01 	sts	0x013E, r24	; 0x80013e <state>
    109e:	0e 94 59 0e 	call	0x1cb2	; 0x1cb2 <msg_inserir_senha>
    10a2:	91 e0       	ldi	r25, 0x01	; 1
    10a4:	80 91 3e 01 	lds	r24, 0x013E	; 0x80013e <state>
    10a8:	8c 30       	cpi	r24, 0x0C	; 12
    10aa:	09 f0       	breq	.+2      	; 0x10ae <__stack+0x7af>
    10ac:	90 e0       	ldi	r25, 0x00	; 0
    10ae:	81 e0       	ldi	r24, 0x01	; 1
    10b0:	20 91 3a 01 	lds	r18, 0x013A	; 0x80013a <count_senha>
    10b4:	30 91 3b 01 	lds	r19, 0x013B	; 0x80013b <count_senha+0x1>
    10b8:	24 30       	cpi	r18, 0x04	; 4
    10ba:	31 05       	cpc	r19, r1
    10bc:	09 f0       	breq	.+2      	; 0x10c0 <__stack+0x7c1>
    10be:	80 e0       	ldi	r24, 0x00	; 0
    10c0:	89 23       	and	r24, r25
    10c2:	09 f4       	brne	.+2      	; 0x10c6 <__stack+0x7c7>
    10c4:	80 c1       	rjmp	.+768    	; 0x13c6 <__stack+0xac7>
    10c6:	80 e1       	ldi	r24, 0x10	; 16
    10c8:	80 93 3e 01 	sts	0x013E, r24	; 0x80013e <state>
    10cc:	81 e0       	ldi	r24, 0x01	; 1
    10ce:	90 e0       	ldi	r25, 0x00	; 0
    10d0:	90 93 33 01 	sts	0x0133, r25	; 0x800133 <flag_D_sensor+0x1>
    10d4:	80 93 32 01 	sts	0x0132, r24	; 0x800132 <flag_D_sensor>
    10d8:	10 92 3b 01 	sts	0x013B, r1	; 0x80013b <count_senha+0x1>
    10dc:	10 92 3a 01 	sts	0x013A, r1	; 0x80013a <count_senha>
    10e0:	72 c1       	rjmp	.+740    	; 0x13c6 <__stack+0xac7>
    10e2:	80 3c       	cpi	r24, 0xC0	; 192
    10e4:	91 05       	cpc	r25, r1
    10e6:	11 f5       	brne	.+68     	; 0x112c <__stack+0x82d>
    10e8:	10 92 3e 01 	sts	0x013E, r1	; 0x80013e <state>
    10ec:	0e 94 a6 0f 	call	0x1f4c	; 0x1f4c <clear_Display>
    10f0:	0e 94 f1 0e 	call	0x1de2	; 0x1de2 <msg_restauracao>
    10f4:	10 92 31 01 	sts	0x0131, r1	; 0x800131 <flag_p+0x1>
    10f8:	10 92 30 01 	sts	0x0130, r1	; 0x800130 <flag_p>
    10fc:	10 92 35 01 	sts	0x0135, r1	; 0x800135 <flag_sensor+0x1>
    1100:	10 92 34 01 	sts	0x0134, r1	; 0x800134 <flag_sensor>
    1104:	10 92 33 01 	sts	0x0133, r1	; 0x800133 <flag_D_sensor+0x1>
    1108:	10 92 32 01 	sts	0x0132, r1	; 0x800132 <flag_D_sensor>
    110c:	10 92 3d 01 	sts	0x013D, r1	; 0x80013d <flag_a_senha+0x1>
    1110:	10 92 3c 01 	sts	0x013C, r1	; 0x80013c <flag_a_senha>
    1114:	10 92 69 00 	sts	0x0069, r1	; 0x800069 <__TEXT_REGION_LENGTH__+0x7f8069>
    1118:	1d ba       	out	0x1d, r1	; 29
    111a:	62 e3       	ldi	r22, 0x32	; 50
    111c:	70 e0       	ldi	r23, 0x00	; 0
    111e:	80 e0       	ldi	r24, 0x00	; 0
    1120:	90 e0       	ldi	r25, 0x00	; 0
    1122:	0e 94 df 0d 	call	0x1bbe	; 0x1bbe <delay_ms>
    1126:	0e 94 ba 0f 	call	0x1f74	; 0x1f74 <init_int1>
    112a:	4d c1       	rjmp	.+666    	; 0x13c6 <__stack+0xac7>
    112c:	80 34       	cpi	r24, 0x40	; 64
    112e:	91 05       	cpc	r25, r1
    1130:	09 f0       	breq	.+2      	; 0x1134 <__stack+0x835>
    1132:	ae c0       	rjmp	.+348    	; 0x1290 <__stack+0x991>
    1134:	91 e0       	ldi	r25, 0x01	; 1
    1136:	80 91 3e 01 	lds	r24, 0x013E	; 0x80013e <state>
    113a:	8c 30       	cpi	r24, 0x0C	; 12
    113c:	09 f0       	breq	.+2      	; 0x1140 <__stack+0x841>
    113e:	90 e0       	ldi	r25, 0x00	; 0
    1140:	81 e0       	ldi	r24, 0x01	; 1
    1142:	20 91 3a 01 	lds	r18, 0x013A	; 0x80013a <count_senha>
    1146:	30 91 3b 01 	lds	r19, 0x013B	; 0x80013b <count_senha+0x1>
    114a:	24 30       	cpi	r18, 0x04	; 4
    114c:	31 05       	cpc	r19, r1
    114e:	0c f0       	brlt	.+2      	; 0x1152 <__stack+0x853>
    1150:	80 e0       	ldi	r24, 0x00	; 0
    1152:	89 23       	and	r24, r25
    1154:	a9 f0       	breq	.+42     	; 0x1180 <__stack+0x881>
    1156:	80 e3       	ldi	r24, 0x30	; 48
    1158:	0e 94 a7 0e 	call	0x1d4e	; 0x1d4e <send_word_lcd>
    115c:	46 ed       	ldi	r20, 0xD6	; 214
    115e:	51 e0       	ldi	r21, 0x01	; 1
    1160:	60 e0       	ldi	r22, 0x00	; 0
    1162:	80 91 3a 01 	lds	r24, 0x013A	; 0x80013a <count_senha>
    1166:	90 91 3b 01 	lds	r25, 0x013B	; 0x80013b <count_senha+0x1>
    116a:	0e 94 b0 0f 	call	0x1f60	; 0x1f60 <insert_senha>
    116e:	80 91 3a 01 	lds	r24, 0x013A	; 0x80013a <count_senha>
    1172:	90 91 3b 01 	lds	r25, 0x013B	; 0x80013b <count_senha+0x1>
    1176:	01 96       	adiw	r24, 0x01	; 1
    1178:	90 93 3b 01 	sts	0x013B, r25	; 0x80013b <count_senha+0x1>
    117c:	80 93 3a 01 	sts	0x013A, r24	; 0x80013a <count_senha>
    1180:	91 e0       	ldi	r25, 0x01	; 1
    1182:	80 91 3e 01 	lds	r24, 0x013E	; 0x80013e <state>
    1186:	8d 30       	cpi	r24, 0x0D	; 13
    1188:	09 f0       	breq	.+2      	; 0x118c <__stack+0x88d>
    118a:	90 e0       	ldi	r25, 0x00	; 0
    118c:	81 e0       	ldi	r24, 0x01	; 1
    118e:	20 91 3a 01 	lds	r18, 0x013A	; 0x80013a <count_senha>
    1192:	30 91 3b 01 	lds	r19, 0x013B	; 0x80013b <count_senha+0x1>
    1196:	24 30       	cpi	r18, 0x04	; 4
    1198:	31 05       	cpc	r19, r1
    119a:	0c f0       	brlt	.+2      	; 0x119e <__stack+0x89f>
    119c:	80 e0       	ldi	r24, 0x00	; 0
    119e:	89 23       	and	r24, r25
    11a0:	a9 f0       	breq	.+42     	; 0x11cc <__stack+0x8cd>
    11a2:	80 e3       	ldi	r24, 0x30	; 48
    11a4:	0e 94 a7 0e 	call	0x1d4e	; 0x1d4e <send_word_lcd>
    11a8:	46 ed       	ldi	r20, 0xD6	; 214
    11aa:	51 e0       	ldi	r21, 0x01	; 1
    11ac:	60 e0       	ldi	r22, 0x00	; 0
    11ae:	80 91 3a 01 	lds	r24, 0x013A	; 0x80013a <count_senha>
    11b2:	90 91 3b 01 	lds	r25, 0x013B	; 0x80013b <count_senha+0x1>
    11b6:	0e 94 09 0e 	call	0x1c12	; 0x1c12 <senha_arm>
    11ba:	80 91 3a 01 	lds	r24, 0x013A	; 0x80013a <count_senha>
    11be:	90 91 3b 01 	lds	r25, 0x013B	; 0x80013b <count_senha+0x1>
    11c2:	01 96       	adiw	r24, 0x01	; 1
    11c4:	90 93 3b 01 	sts	0x013B, r25	; 0x80013b <count_senha+0x1>
    11c8:	80 93 3a 01 	sts	0x013A, r24	; 0x80013a <count_senha>
    11cc:	91 e0       	ldi	r25, 0x01	; 1
    11ce:	80 91 3e 01 	lds	r24, 0x013E	; 0x80013e <state>
    11d2:	8e 30       	cpi	r24, 0x0E	; 14
    11d4:	09 f0       	breq	.+2      	; 0x11d8 <__stack+0x8d9>
    11d6:	90 e0       	ldi	r25, 0x00	; 0
    11d8:	81 e0       	ldi	r24, 0x01	; 1
    11da:	20 91 3a 01 	lds	r18, 0x013A	; 0x80013a <count_senha>
    11de:	30 91 3b 01 	lds	r19, 0x013B	; 0x80013b <count_senha+0x1>
    11e2:	24 30       	cpi	r18, 0x04	; 4
    11e4:	31 05       	cpc	r19, r1
    11e6:	0c f0       	brlt	.+2      	; 0x11ea <__stack+0x8eb>
    11e8:	80 e0       	ldi	r24, 0x00	; 0
    11ea:	89 23       	and	r24, r25
    11ec:	a9 f0       	breq	.+42     	; 0x1218 <__stack+0x919>
    11ee:	80 e3       	ldi	r24, 0x30	; 48
    11f0:	0e 94 a7 0e 	call	0x1d4e	; 0x1d4e <send_word_lcd>
    11f4:	46 ed       	ldi	r20, 0xD6	; 214
    11f6:	51 e0       	ldi	r21, 0x01	; 1
    11f8:	60 e0       	ldi	r22, 0x00	; 0
    11fa:	80 91 3a 01 	lds	r24, 0x013A	; 0x80013a <count_senha>
    11fe:	90 91 3b 01 	lds	r25, 0x013B	; 0x80013b <count_senha+0x1>
    1202:	0e 94 b0 0f 	call	0x1f60	; 0x1f60 <insert_senha>
    1206:	80 91 3a 01 	lds	r24, 0x013A	; 0x80013a <count_senha>
    120a:	90 91 3b 01 	lds	r25, 0x013B	; 0x80013b <count_senha+0x1>
    120e:	01 96       	adiw	r24, 0x01	; 1
    1210:	90 93 3b 01 	sts	0x013B, r25	; 0x80013b <count_senha+0x1>
    1214:	80 93 3a 01 	sts	0x013A, r24	; 0x80013a <count_senha>
    1218:	91 e0       	ldi	r25, 0x01	; 1
    121a:	80 91 3e 01 	lds	r24, 0x013E	; 0x80013e <state>
    121e:	8f 30       	cpi	r24, 0x0F	; 15
    1220:	09 f0       	breq	.+2      	; 0x1224 <__stack+0x925>
    1222:	90 e0       	ldi	r25, 0x00	; 0
    1224:	81 e0       	ldi	r24, 0x01	; 1
    1226:	20 91 3a 01 	lds	r18, 0x013A	; 0x80013a <count_senha>
    122a:	30 91 3b 01 	lds	r19, 0x013B	; 0x80013b <count_senha+0x1>
    122e:	24 30       	cpi	r18, 0x04	; 4
    1230:	31 05       	cpc	r19, r1
    1232:	0c f0       	brlt	.+2      	; 0x1236 <__stack+0x937>
    1234:	80 e0       	ldi	r24, 0x00	; 0
    1236:	89 23       	and	r24, r25
    1238:	a9 f0       	breq	.+42     	; 0x1264 <__stack+0x965>
    123a:	80 e3       	ldi	r24, 0x30	; 48
    123c:	0e 94 a7 0e 	call	0x1d4e	; 0x1d4e <send_word_lcd>
    1240:	46 ed       	ldi	r20, 0xD6	; 214
    1242:	51 e0       	ldi	r21, 0x01	; 1
    1244:	60 e0       	ldi	r22, 0x00	; 0
    1246:	80 91 3a 01 	lds	r24, 0x013A	; 0x80013a <count_senha>
    124a:	90 91 3b 01 	lds	r25, 0x013B	; 0x80013b <count_senha+0x1>
    124e:	0e 94 b0 0f 	call	0x1f60	; 0x1f60 <insert_senha>
    1252:	80 91 3a 01 	lds	r24, 0x013A	; 0x80013a <count_senha>
    1256:	90 91 3b 01 	lds	r25, 0x013B	; 0x80013b <count_senha+0x1>
    125a:	01 96       	adiw	r24, 0x01	; 1
    125c:	90 93 3b 01 	sts	0x013B, r25	; 0x80013b <count_senha+0x1>
    1260:	80 93 3a 01 	sts	0x013A, r24	; 0x80013a <count_senha>
    1264:	91 e0       	ldi	r25, 0x01	; 1
    1266:	80 91 3e 01 	lds	r24, 0x013E	; 0x80013e <state>
    126a:	83 31       	cpi	r24, 0x13	; 19
    126c:	09 f0       	breq	.+2      	; 0x1270 <__stack+0x971>
    126e:	90 e0       	ldi	r25, 0x00	; 0
    1270:	81 e0       	ldi	r24, 0x01	; 1
    1272:	20 91 34 01 	lds	r18, 0x0134	; 0x800134 <flag_sensor>
    1276:	30 91 35 01 	lds	r19, 0x0135	; 0x800135 <flag_sensor+0x1>
    127a:	23 2b       	or	r18, r19
    127c:	09 f0       	breq	.+2      	; 0x1280 <__stack+0x981>
    127e:	80 e0       	ldi	r24, 0x00	; 0
    1280:	89 23       	and	r24, r25
    1282:	09 f4       	brne	.+2      	; 0x1286 <__stack+0x987>
    1284:	a0 c0       	rjmp	.+320    	; 0x13c6 <__stack+0xac7>
    1286:	80 e0       	ldi	r24, 0x00	; 0
    1288:	90 e0       	ldi	r25, 0x00	; 0
    128a:	0e 94 49 0f 	call	0x1e92	; 0x1e92 <hab_sensor>
    128e:	9b c0       	rjmp	.+310    	; 0x13c6 <__stack+0xac7>
    1290:	80 38       	cpi	r24, 0x80	; 128
    1292:	91 05       	cpc	r25, r1
    1294:	b9 f4       	brne	.+46     	; 0x12c4 <__stack+0x9c5>
    1296:	80 91 30 01 	lds	r24, 0x0130	; 0x800130 <flag_p>
    129a:	90 91 31 01 	lds	r25, 0x0131	; 0x800131 <flag_p+0x1>
    129e:	00 97       	sbiw	r24, 0x00	; 0
    12a0:	51 f4       	brne	.+20     	; 0x12b6 <__stack+0x9b7>
    12a2:	87 e0       	ldi	r24, 0x07	; 7
    12a4:	80 93 3e 01 	sts	0x013E, r24	; 0x80013e <state>
    12a8:	81 e0       	ldi	r24, 0x01	; 1
    12aa:	90 e0       	ldi	r25, 0x00	; 0
    12ac:	90 93 31 01 	sts	0x0131, r25	; 0x800131 <flag_p+0x1>
    12b0:	80 93 30 01 	sts	0x0130, r24	; 0x800130 <flag_p>
    12b4:	88 c0       	rjmp	.+272    	; 0x13c6 <__stack+0xac7>
    12b6:	01 97       	sbiw	r24, 0x01	; 1
    12b8:	09 f0       	breq	.+2      	; 0x12bc <__stack+0x9bd>
    12ba:	85 c0       	rjmp	.+266    	; 0x13c6 <__stack+0xac7>
    12bc:	81 e0       	ldi	r24, 0x01	; 1
    12be:	80 93 3e 01 	sts	0x013E, r24	; 0x80013e <state>
    12c2:	81 c0       	rjmp	.+258    	; 0x13c6 <__stack+0xac7>
    12c4:	89 2b       	or	r24, r25
    12c6:	09 f0       	breq	.+2      	; 0x12ca <__stack+0x9cb>
    12c8:	7e c0       	rjmp	.+252    	; 0x13c6 <__stack+0xac7>
    12ca:	91 e0       	ldi	r25, 0x01	; 1
    12cc:	80 91 3e 01 	lds	r24, 0x013E	; 0x80013e <state>
    12d0:	8d 30       	cpi	r24, 0x0D	; 13
    12d2:	09 f0       	breq	.+2      	; 0x12d6 <__stack+0x9d7>
    12d4:	90 e0       	ldi	r25, 0x00	; 0
    12d6:	81 e0       	ldi	r24, 0x01	; 1
    12d8:	20 91 3a 01 	lds	r18, 0x013A	; 0x80013a <count_senha>
    12dc:	30 91 3b 01 	lds	r19, 0x013B	; 0x80013b <count_senha+0x1>
    12e0:	24 30       	cpi	r18, 0x04	; 4
    12e2:	31 05       	cpc	r19, r1
    12e4:	09 f0       	breq	.+2      	; 0x12e8 <__stack+0x9e9>
    12e6:	80 e0       	ldi	r24, 0x00	; 0
    12e8:	89 23       	and	r24, r25
    12ea:	49 f0       	breq	.+18     	; 0x12fe <__stack+0x9ff>
    12ec:	81 e0       	ldi	r24, 0x01	; 1
    12ee:	80 93 3e 01 	sts	0x013E, r24	; 0x80013e <state>
    12f2:	0e 94 a6 0f 	call	0x1f4c	; 0x1f4c <clear_Display>
    12f6:	10 92 3b 01 	sts	0x013B, r1	; 0x80013b <count_senha+0x1>
    12fa:	10 92 3a 01 	sts	0x013A, r1	; 0x80013a <count_senha>
    12fe:	91 e0       	ldi	r25, 0x01	; 1
    1300:	80 91 3e 01 	lds	r24, 0x013E	; 0x80013e <state>
    1304:	8e 30       	cpi	r24, 0x0E	; 14
    1306:	09 f0       	breq	.+2      	; 0x130a <__stack+0xa0b>
    1308:	90 e0       	ldi	r25, 0x00	; 0
    130a:	81 e0       	ldi	r24, 0x01	; 1
    130c:	20 91 3a 01 	lds	r18, 0x013A	; 0x80013a <count_senha>
    1310:	30 91 3b 01 	lds	r19, 0x013B	; 0x80013b <count_senha+0x1>
    1314:	24 30       	cpi	r18, 0x04	; 4
    1316:	31 05       	cpc	r19, r1
    1318:	09 f0       	breq	.+2      	; 0x131c <__stack+0xa1d>
    131a:	80 e0       	ldi	r24, 0x00	; 0
    131c:	89 23       	and	r24, r25
    131e:	49 f0       	breq	.+18     	; 0x1332 <__stack+0xa33>
    1320:	81 e1       	ldi	r24, 0x11	; 17
    1322:	80 93 3e 01 	sts	0x013E, r24	; 0x80013e <state>
    1326:	0e 94 a6 0f 	call	0x1f4c	; 0x1f4c <clear_Display>
    132a:	10 92 3b 01 	sts	0x013B, r1	; 0x80013b <count_senha+0x1>
    132e:	10 92 3a 01 	sts	0x013A, r1	; 0x80013a <count_senha>
    1332:	91 e0       	ldi	r25, 0x01	; 1
    1334:	80 91 3e 01 	lds	r24, 0x013E	; 0x80013e <state>
    1338:	8f 30       	cpi	r24, 0x0F	; 15
    133a:	09 f0       	breq	.+2      	; 0x133e <__stack+0xa3f>
    133c:	90 e0       	ldi	r25, 0x00	; 0
    133e:	81 e0       	ldi	r24, 0x01	; 1
    1340:	20 91 3a 01 	lds	r18, 0x013A	; 0x80013a <count_senha>
    1344:	30 91 3b 01 	lds	r19, 0x013B	; 0x80013b <count_senha+0x1>
    1348:	24 30       	cpi	r18, 0x04	; 4
    134a:	31 05       	cpc	r19, r1
    134c:	09 f0       	breq	.+2      	; 0x1350 <__stack+0xa51>
    134e:	80 e0       	ldi	r24, 0x00	; 0
    1350:	89 23       	and	r24, r25
    1352:	49 f0       	breq	.+18     	; 0x1366 <__stack+0xa67>
    1354:	82 e1       	ldi	r24, 0x12	; 18
    1356:	80 93 3e 01 	sts	0x013E, r24	; 0x80013e <state>
    135a:	0e 94 a6 0f 	call	0x1f4c	; 0x1f4c <clear_Display>
    135e:	10 92 3b 01 	sts	0x013B, r1	; 0x80013b <count_senha+0x1>
    1362:	10 92 3a 01 	sts	0x013A, r1	; 0x80013a <count_senha>
    1366:	91 e0       	ldi	r25, 0x01	; 1
    1368:	80 91 3e 01 	lds	r24, 0x013E	; 0x80013e <state>
    136c:	83 31       	cpi	r24, 0x13	; 19
    136e:	09 f0       	breq	.+2      	; 0x1372 <__stack+0xa73>
    1370:	90 e0       	ldi	r25, 0x00	; 0
    1372:	81 e0       	ldi	r24, 0x01	; 1
    1374:	20 91 34 01 	lds	r18, 0x0134	; 0x800134 <flag_sensor>
    1378:	30 91 35 01 	lds	r19, 0x0135	; 0x800135 <flag_sensor+0x1>
    137c:	21 30       	cpi	r18, 0x01	; 1
    137e:	31 05       	cpc	r19, r1
    1380:	09 f0       	breq	.+2      	; 0x1384 <__stack+0xa85>
    1382:	80 e0       	ldi	r24, 0x00	; 0
    1384:	89 23       	and	r24, r25
    1386:	39 f0       	breq	.+14     	; 0x1396 <__stack+0xa97>
    1388:	81 e0       	ldi	r24, 0x01	; 1
    138a:	80 93 3e 01 	sts	0x013E, r24	; 0x80013e <state>
    138e:	10 92 35 01 	sts	0x0135, r1	; 0x800135 <flag_sensor+0x1>
    1392:	10 92 34 01 	sts	0x0134, r1	; 0x800134 <flag_sensor>
    1396:	91 e0       	ldi	r25, 0x01	; 1
    1398:	80 91 3e 01 	lds	r24, 0x013E	; 0x80013e <state>
    139c:	84 31       	cpi	r24, 0x14	; 20
    139e:	09 f0       	breq	.+2      	; 0x13a2 <__stack+0xaa3>
    13a0:	90 e0       	ldi	r25, 0x00	; 0
    13a2:	81 e0       	ldi	r24, 0x01	; 1
    13a4:	20 91 34 01 	lds	r18, 0x0134	; 0x800134 <flag_sensor>
    13a8:	30 91 35 01 	lds	r19, 0x0135	; 0x800135 <flag_sensor+0x1>
    13ac:	21 30       	cpi	r18, 0x01	; 1
    13ae:	31 05       	cpc	r19, r1
    13b0:	09 f0       	breq	.+2      	; 0x13b4 <__stack+0xab5>
    13b2:	80 e0       	ldi	r24, 0x00	; 0
    13b4:	89 23       	and	r24, r25
    13b6:	39 f0       	breq	.+14     	; 0x13c6 <__stack+0xac7>
    13b8:	81 e0       	ldi	r24, 0x01	; 1
    13ba:	80 93 3e 01 	sts	0x013E, r24	; 0x80013e <state>
    13be:	10 92 35 01 	sts	0x0135, r1	; 0x800135 <flag_sensor+0x1>
    13c2:	10 92 34 01 	sts	0x0134, r1	; 0x800134 <flag_sensor>
    13c6:	ff 91       	pop	r31
    13c8:	ef 91       	pop	r30
    13ca:	bf 91       	pop	r27
    13cc:	af 91       	pop	r26
    13ce:	9f 91       	pop	r25
    13d0:	8f 91       	pop	r24
    13d2:	7f 91       	pop	r23
    13d4:	6f 91       	pop	r22
    13d6:	5f 91       	pop	r21
    13d8:	4f 91       	pop	r20
    13da:	3f 91       	pop	r19
    13dc:	2f 91       	pop	r18
    13de:	0f 90       	pop	r0
    13e0:	0f be       	out	0x3f, r0	; 63
    13e2:	0f 90       	pop	r0
    13e4:	1f 90       	pop	r1
    13e6:	18 95       	reti

Disassembly of section .text.libgcc:

00001f80 <__tablejump2__>:
    1f80:	ee 0f       	add	r30, r30
    1f82:	ff 1f       	adc	r31, r31
    1f84:	05 90       	lpm	r0, Z+
    1f86:	f4 91       	lpm	r31, Z
    1f88:	e0 2d       	mov	r30, r0
    1f8a:	09 94       	ijmp

Disassembly of section .text.libgcc.mul:

00001f36 <__muluhisi3>:
    1f36:	0e 94 7f 0f 	call	0x1efe	; 0x1efe <__umulhisi3>
    1f3a:	a5 9f       	mul	r26, r21
    1f3c:	90 0d       	add	r25, r0
    1f3e:	b4 9f       	mul	r27, r20
    1f40:	90 0d       	add	r25, r0
    1f42:	a4 9f       	mul	r26, r20
    1f44:	80 0d       	add	r24, r0
    1f46:	91 1d       	adc	r25, r1
    1f48:	11 24       	eor	r1, r1
    1f4a:	08 95       	ret

Disassembly of section .text.libgcc:

00001f1c <__movmemx_qi>:
    1f1c:	99 27       	eor	r25, r25

00001f1e <__movmemx_hi>:
    1f1e:	77 fd       	sbrc	r23, 7
    1f20:	05 c0       	rjmp	.+10     	; 0x1f2c <__movmemx_hi+0xe>
    1f22:	05 90       	lpm	r0, Z+
    1f24:	0d 92       	st	X+, r0
    1f26:	01 97       	sbiw	r24, 0x01	; 1
    1f28:	e1 f7       	brne	.-8      	; 0x1f22 <__movmemx_hi+0x4>
    1f2a:	08 95       	ret
    1f2c:	01 90       	ld	r0, Z+
    1f2e:	0d 92       	st	X+, r0
    1f30:	01 97       	sbiw	r24, 0x01	; 1
    1f32:	e1 f7       	brne	.-8      	; 0x1f2c <__movmemx_hi+0xe>
    1f34:	08 95       	ret

Disassembly of section .text.libgcc.mul:

00001efe <__umulhisi3>:
    1efe:	a2 9f       	mul	r26, r18
    1f00:	b0 01       	movw	r22, r0
    1f02:	b3 9f       	mul	r27, r19
    1f04:	c0 01       	movw	r24, r0
    1f06:	a3 9f       	mul	r26, r19
    1f08:	70 0d       	add	r23, r0
    1f0a:	81 1d       	adc	r24, r1
    1f0c:	11 24       	eor	r1, r1
    1f0e:	91 1d       	adc	r25, r1
    1f10:	b2 9f       	mul	r27, r18
    1f12:	70 0d       	add	r23, r0
    1f14:	81 1d       	adc	r24, r1
    1f16:	11 24       	eor	r1, r1
    1f18:	91 1d       	adc	r25, r1
    1f1a:	08 95       	ret
